
LightShaker3_libUSB.elf:     file format elf32-littlearm

Sections:
Idx Name          Size      VMA       LMA       File off  Algn
  0 .isr_vector   000000c0  08000000  08000000  00010000  2**0
                  CONTENTS, ALLOC, LOAD, READONLY, DATA
  1 .text         00002ea8  080000c0  080000c0  000100c0  2**2
                  CONTENTS, ALLOC, LOAD, READONLY, CODE
  2 .nvmem        0000002a  08007c00  08007c00  00027c00  2**2
                  CONTENTS, ALLOC, LOAD, DATA
  3 .rodata       00000014  08002f68  08002f68  00012f68  2**2
                  CONTENTS, ALLOC, LOAD, READONLY, DATA
  4 .ARM.extab    00000000  08002f7c  08002f7c  00027c2a  2**0
                  CONTENTS
  5 .ARM          00000000  08002f7c  08002f7c  00027c2a  2**0
                  CONTENTS
  6 .preinit_array 00000000  08002f7c  08002f7c  00027c2a  2**0
                  CONTENTS, ALLOC, LOAD, DATA
  7 .init_array   00000004  08002f7c  08002f7c  00012f7c  2**2
                  CONTENTS, ALLOC, LOAD, DATA
  8 .fini_array   00000004  08002f80  08002f80  00012f80  2**2
                  CONTENTS, ALLOC, LOAD, DATA
  9 .data         0000001c  20000000  08002f84  00020000  2**2
                  CONTENTS, ALLOC, LOAD, DATA
 10 .bss          00000144  2000001c  08002fa0  0002001c  2**2
                  ALLOC
 11 ._user_heap_stack 00000600  20000160  08002fa0  00020160  2**0
                  ALLOC
 12 .ARM.attributes 00000028  00000000  00000000  00027c2a  2**0
                  CONTENTS, READONLY
 13 .debug_info   00006959  00000000  00000000  00027c52  2**0
                  CONTENTS, READONLY, DEBUGGING, OCTETS
 14 .debug_abbrev 00001e68  00000000  00000000  0002e5ab  2**0
                  CONTENTS, READONLY, DEBUGGING, OCTETS
 15 .debug_aranges 000007f8  00000000  00000000  00030418  2**3
                  CONTENTS, READONLY, DEBUGGING, OCTETS
 16 .debug_ranges 000006b0  00000000  00000000  00030c10  2**3
                  CONTENTS, READONLY, DEBUGGING, OCTETS
 17 .debug_macro  00002fca  00000000  00000000  000312c0  2**0
                  CONTENTS, READONLY, DEBUGGING, OCTETS
 18 .debug_line   00009b2a  00000000  00000000  0003428a  2**0
                  CONTENTS, READONLY, DEBUGGING, OCTETS
 19 .debug_str    00045ded  00000000  00000000  0003ddb4  2**0
                  CONTENTS, READONLY, DEBUGGING, OCTETS
 20 .comment      00000053  00000000  00000000  00083ba1  2**0
                  CONTENTS, READONLY
 21 .debug_frame  00001900  00000000  00000000  00083bf4  2**2
                  CONTENTS, READONLY, DEBUGGING, OCTETS

Disassembly of section .text:

080000c0 <__do_global_dtors_aux>:
 80000c0:	b510      	push	{r4, lr}
 80000c2:	4c06      	ldr	r4, [pc, #24]	; (80000dc <__do_global_dtors_aux+0x1c>)
 80000c4:	7823      	ldrb	r3, [r4, #0]
 80000c6:	2b00      	cmp	r3, #0
 80000c8:	d107      	bne.n	80000da <__do_global_dtors_aux+0x1a>
 80000ca:	4b05      	ldr	r3, [pc, #20]	; (80000e0 <__do_global_dtors_aux+0x20>)
 80000cc:	2b00      	cmp	r3, #0
 80000ce:	d002      	beq.n	80000d6 <__do_global_dtors_aux+0x16>
 80000d0:	4804      	ldr	r0, [pc, #16]	; (80000e4 <__do_global_dtors_aux+0x24>)
 80000d2:	e000      	b.n	80000d6 <__do_global_dtors_aux+0x16>
 80000d4:	bf00      	nop
 80000d6:	2301      	movs	r3, #1
 80000d8:	7023      	strb	r3, [r4, #0]
 80000da:	bd10      	pop	{r4, pc}
 80000dc:	2000001c 	.word	0x2000001c
 80000e0:	00000000 	.word	0x00000000
 80000e4:	08002f50 	.word	0x08002f50

080000e8 <frame_dummy>:
 80000e8:	4b04      	ldr	r3, [pc, #16]	; (80000fc <frame_dummy+0x14>)
 80000ea:	b510      	push	{r4, lr}
 80000ec:	2b00      	cmp	r3, #0
 80000ee:	d003      	beq.n	80000f8 <frame_dummy+0x10>
 80000f0:	4903      	ldr	r1, [pc, #12]	; (8000100 <frame_dummy+0x18>)
 80000f2:	4804      	ldr	r0, [pc, #16]	; (8000104 <frame_dummy+0x1c>)
 80000f4:	e000      	b.n	80000f8 <frame_dummy+0x10>
 80000f6:	bf00      	nop
 80000f8:	bd10      	pop	{r4, pc}
 80000fa:	46c0      	nop			; (mov r8, r8)
 80000fc:	00000000 	.word	0x00000000
 8000100:	20000020 	.word	0x20000020
 8000104:	08002f50 	.word	0x08002f50

08000108 <__udivsi3>:
 8000108:	2200      	movs	r2, #0
 800010a:	0843      	lsrs	r3, r0, #1
 800010c:	428b      	cmp	r3, r1
 800010e:	d374      	bcc.n	80001fa <__udivsi3+0xf2>
 8000110:	0903      	lsrs	r3, r0, #4
 8000112:	428b      	cmp	r3, r1
 8000114:	d35f      	bcc.n	80001d6 <__udivsi3+0xce>
 8000116:	0a03      	lsrs	r3, r0, #8
 8000118:	428b      	cmp	r3, r1
 800011a:	d344      	bcc.n	80001a6 <__udivsi3+0x9e>
 800011c:	0b03      	lsrs	r3, r0, #12
 800011e:	428b      	cmp	r3, r1
 8000120:	d328      	bcc.n	8000174 <__udivsi3+0x6c>
 8000122:	0c03      	lsrs	r3, r0, #16
 8000124:	428b      	cmp	r3, r1
 8000126:	d30d      	bcc.n	8000144 <__udivsi3+0x3c>
 8000128:	22ff      	movs	r2, #255	; 0xff
 800012a:	0209      	lsls	r1, r1, #8
 800012c:	ba12      	rev	r2, r2
 800012e:	0c03      	lsrs	r3, r0, #16
 8000130:	428b      	cmp	r3, r1
 8000132:	d302      	bcc.n	800013a <__udivsi3+0x32>
 8000134:	1212      	asrs	r2, r2, #8
 8000136:	0209      	lsls	r1, r1, #8
 8000138:	d065      	beq.n	8000206 <__udivsi3+0xfe>
 800013a:	0b03      	lsrs	r3, r0, #12
 800013c:	428b      	cmp	r3, r1
 800013e:	d319      	bcc.n	8000174 <__udivsi3+0x6c>
 8000140:	e000      	b.n	8000144 <__udivsi3+0x3c>
 8000142:	0a09      	lsrs	r1, r1, #8
 8000144:	0bc3      	lsrs	r3, r0, #15
 8000146:	428b      	cmp	r3, r1
 8000148:	d301      	bcc.n	800014e <__udivsi3+0x46>
 800014a:	03cb      	lsls	r3, r1, #15
 800014c:	1ac0      	subs	r0, r0, r3
 800014e:	4152      	adcs	r2, r2
 8000150:	0b83      	lsrs	r3, r0, #14
 8000152:	428b      	cmp	r3, r1
 8000154:	d301      	bcc.n	800015a <__udivsi3+0x52>
 8000156:	038b      	lsls	r3, r1, #14
 8000158:	1ac0      	subs	r0, r0, r3
 800015a:	4152      	adcs	r2, r2
 800015c:	0b43      	lsrs	r3, r0, #13
 800015e:	428b      	cmp	r3, r1
 8000160:	d301      	bcc.n	8000166 <__udivsi3+0x5e>
 8000162:	034b      	lsls	r3, r1, #13
 8000164:	1ac0      	subs	r0, r0, r3
 8000166:	4152      	adcs	r2, r2
 8000168:	0b03      	lsrs	r3, r0, #12
 800016a:	428b      	cmp	r3, r1
 800016c:	d301      	bcc.n	8000172 <__udivsi3+0x6a>
 800016e:	030b      	lsls	r3, r1, #12
 8000170:	1ac0      	subs	r0, r0, r3
 8000172:	4152      	adcs	r2, r2
 8000174:	0ac3      	lsrs	r3, r0, #11
 8000176:	428b      	cmp	r3, r1
 8000178:	d301      	bcc.n	800017e <__udivsi3+0x76>
 800017a:	02cb      	lsls	r3, r1, #11
 800017c:	1ac0      	subs	r0, r0, r3
 800017e:	4152      	adcs	r2, r2
 8000180:	0a83      	lsrs	r3, r0, #10
 8000182:	428b      	cmp	r3, r1
 8000184:	d301      	bcc.n	800018a <__udivsi3+0x82>
 8000186:	028b      	lsls	r3, r1, #10
 8000188:	1ac0      	subs	r0, r0, r3
 800018a:	4152      	adcs	r2, r2
 800018c:	0a43      	lsrs	r3, r0, #9
 800018e:	428b      	cmp	r3, r1
 8000190:	d301      	bcc.n	8000196 <__udivsi3+0x8e>
 8000192:	024b      	lsls	r3, r1, #9
 8000194:	1ac0      	subs	r0, r0, r3
 8000196:	4152      	adcs	r2, r2
 8000198:	0a03      	lsrs	r3, r0, #8
 800019a:	428b      	cmp	r3, r1
 800019c:	d301      	bcc.n	80001a2 <__udivsi3+0x9a>
 800019e:	020b      	lsls	r3, r1, #8
 80001a0:	1ac0      	subs	r0, r0, r3
 80001a2:	4152      	adcs	r2, r2
 80001a4:	d2cd      	bcs.n	8000142 <__udivsi3+0x3a>
 80001a6:	09c3      	lsrs	r3, r0, #7
 80001a8:	428b      	cmp	r3, r1
 80001aa:	d301      	bcc.n	80001b0 <__udivsi3+0xa8>
 80001ac:	01cb      	lsls	r3, r1, #7
 80001ae:	1ac0      	subs	r0, r0, r3
 80001b0:	4152      	adcs	r2, r2
 80001b2:	0983      	lsrs	r3, r0, #6
 80001b4:	428b      	cmp	r3, r1
 80001b6:	d301      	bcc.n	80001bc <__udivsi3+0xb4>
 80001b8:	018b      	lsls	r3, r1, #6
 80001ba:	1ac0      	subs	r0, r0, r3
 80001bc:	4152      	adcs	r2, r2
 80001be:	0943      	lsrs	r3, r0, #5
 80001c0:	428b      	cmp	r3, r1
 80001c2:	d301      	bcc.n	80001c8 <__udivsi3+0xc0>
 80001c4:	014b      	lsls	r3, r1, #5
 80001c6:	1ac0      	subs	r0, r0, r3
 80001c8:	4152      	adcs	r2, r2
 80001ca:	0903      	lsrs	r3, r0, #4
 80001cc:	428b      	cmp	r3, r1
 80001ce:	d301      	bcc.n	80001d4 <__udivsi3+0xcc>
 80001d0:	010b      	lsls	r3, r1, #4
 80001d2:	1ac0      	subs	r0, r0, r3
 80001d4:	4152      	adcs	r2, r2
 80001d6:	08c3      	lsrs	r3, r0, #3
 80001d8:	428b      	cmp	r3, r1
 80001da:	d301      	bcc.n	80001e0 <__udivsi3+0xd8>
 80001dc:	00cb      	lsls	r3, r1, #3
 80001de:	1ac0      	subs	r0, r0, r3
 80001e0:	4152      	adcs	r2, r2
 80001e2:	0883      	lsrs	r3, r0, #2
 80001e4:	428b      	cmp	r3, r1
 80001e6:	d301      	bcc.n	80001ec <__udivsi3+0xe4>
 80001e8:	008b      	lsls	r3, r1, #2
 80001ea:	1ac0      	subs	r0, r0, r3
 80001ec:	4152      	adcs	r2, r2
 80001ee:	0843      	lsrs	r3, r0, #1
 80001f0:	428b      	cmp	r3, r1
 80001f2:	d301      	bcc.n	80001f8 <__udivsi3+0xf0>
 80001f4:	004b      	lsls	r3, r1, #1
 80001f6:	1ac0      	subs	r0, r0, r3
 80001f8:	4152      	adcs	r2, r2
 80001fa:	1a41      	subs	r1, r0, r1
 80001fc:	d200      	bcs.n	8000200 <__udivsi3+0xf8>
 80001fe:	4601      	mov	r1, r0
 8000200:	4152      	adcs	r2, r2
 8000202:	4610      	mov	r0, r2
 8000204:	4770      	bx	lr
 8000206:	e7ff      	b.n	8000208 <__udivsi3+0x100>
 8000208:	b501      	push	{r0, lr}
 800020a:	2000      	movs	r0, #0
 800020c:	f000 f8f0 	bl	80003f0 <__aeabi_idiv0>
 8000210:	bd02      	pop	{r1, pc}
 8000212:	46c0      	nop			; (mov r8, r8)

08000214 <__aeabi_uidivmod>:
 8000214:	2900      	cmp	r1, #0
 8000216:	d0f7      	beq.n	8000208 <__udivsi3+0x100>
 8000218:	e776      	b.n	8000108 <__udivsi3>
 800021a:	4770      	bx	lr

0800021c <__divsi3>:
 800021c:	4603      	mov	r3, r0
 800021e:	430b      	orrs	r3, r1
 8000220:	d47f      	bmi.n	8000322 <__divsi3+0x106>
 8000222:	2200      	movs	r2, #0
 8000224:	0843      	lsrs	r3, r0, #1
 8000226:	428b      	cmp	r3, r1
 8000228:	d374      	bcc.n	8000314 <__divsi3+0xf8>
 800022a:	0903      	lsrs	r3, r0, #4
 800022c:	428b      	cmp	r3, r1
 800022e:	d35f      	bcc.n	80002f0 <__divsi3+0xd4>
 8000230:	0a03      	lsrs	r3, r0, #8
 8000232:	428b      	cmp	r3, r1
 8000234:	d344      	bcc.n	80002c0 <__divsi3+0xa4>
 8000236:	0b03      	lsrs	r3, r0, #12
 8000238:	428b      	cmp	r3, r1
 800023a:	d328      	bcc.n	800028e <__divsi3+0x72>
 800023c:	0c03      	lsrs	r3, r0, #16
 800023e:	428b      	cmp	r3, r1
 8000240:	d30d      	bcc.n	800025e <__divsi3+0x42>
 8000242:	22ff      	movs	r2, #255	; 0xff
 8000244:	0209      	lsls	r1, r1, #8
 8000246:	ba12      	rev	r2, r2
 8000248:	0c03      	lsrs	r3, r0, #16
 800024a:	428b      	cmp	r3, r1
 800024c:	d302      	bcc.n	8000254 <__divsi3+0x38>
 800024e:	1212      	asrs	r2, r2, #8
 8000250:	0209      	lsls	r1, r1, #8
 8000252:	d065      	beq.n	8000320 <__divsi3+0x104>
 8000254:	0b03      	lsrs	r3, r0, #12
 8000256:	428b      	cmp	r3, r1
 8000258:	d319      	bcc.n	800028e <__divsi3+0x72>
 800025a:	e000      	b.n	800025e <__divsi3+0x42>
 800025c:	0a09      	lsrs	r1, r1, #8
 800025e:	0bc3      	lsrs	r3, r0, #15
 8000260:	428b      	cmp	r3, r1
 8000262:	d301      	bcc.n	8000268 <__divsi3+0x4c>
 8000264:	03cb      	lsls	r3, r1, #15
 8000266:	1ac0      	subs	r0, r0, r3
 8000268:	4152      	adcs	r2, r2
 800026a:	0b83      	lsrs	r3, r0, #14
 800026c:	428b      	cmp	r3, r1
 800026e:	d301      	bcc.n	8000274 <__divsi3+0x58>
 8000270:	038b      	lsls	r3, r1, #14
 8000272:	1ac0      	subs	r0, r0, r3
 8000274:	4152      	adcs	r2, r2
 8000276:	0b43      	lsrs	r3, r0, #13
 8000278:	428b      	cmp	r3, r1
 800027a:	d301      	bcc.n	8000280 <__divsi3+0x64>
 800027c:	034b      	lsls	r3, r1, #13
 800027e:	1ac0      	subs	r0, r0, r3
 8000280:	4152      	adcs	r2, r2
 8000282:	0b03      	lsrs	r3, r0, #12
 8000284:	428b      	cmp	r3, r1
 8000286:	d301      	bcc.n	800028c <__divsi3+0x70>
 8000288:	030b      	lsls	r3, r1, #12
 800028a:	1ac0      	subs	r0, r0, r3
 800028c:	4152      	adcs	r2, r2
 800028e:	0ac3      	lsrs	r3, r0, #11
 8000290:	428b      	cmp	r3, r1
 8000292:	d301      	bcc.n	8000298 <__divsi3+0x7c>
 8000294:	02cb      	lsls	r3, r1, #11
 8000296:	1ac0      	subs	r0, r0, r3
 8000298:	4152      	adcs	r2, r2
 800029a:	0a83      	lsrs	r3, r0, #10
 800029c:	428b      	cmp	r3, r1
 800029e:	d301      	bcc.n	80002a4 <__divsi3+0x88>
 80002a0:	028b      	lsls	r3, r1, #10
 80002a2:	1ac0      	subs	r0, r0, r3
 80002a4:	4152      	adcs	r2, r2
 80002a6:	0a43      	lsrs	r3, r0, #9
 80002a8:	428b      	cmp	r3, r1
 80002aa:	d301      	bcc.n	80002b0 <__divsi3+0x94>
 80002ac:	024b      	lsls	r3, r1, #9
 80002ae:	1ac0      	subs	r0, r0, r3
 80002b0:	4152      	adcs	r2, r2
 80002b2:	0a03      	lsrs	r3, r0, #8
 80002b4:	428b      	cmp	r3, r1
 80002b6:	d301      	bcc.n	80002bc <__divsi3+0xa0>
 80002b8:	020b      	lsls	r3, r1, #8
 80002ba:	1ac0      	subs	r0, r0, r3
 80002bc:	4152      	adcs	r2, r2
 80002be:	d2cd      	bcs.n	800025c <__divsi3+0x40>
 80002c0:	09c3      	lsrs	r3, r0, #7
 80002c2:	428b      	cmp	r3, r1
 80002c4:	d301      	bcc.n	80002ca <__divsi3+0xae>
 80002c6:	01cb      	lsls	r3, r1, #7
 80002c8:	1ac0      	subs	r0, r0, r3
 80002ca:	4152      	adcs	r2, r2
 80002cc:	0983      	lsrs	r3, r0, #6
 80002ce:	428b      	cmp	r3, r1
 80002d0:	d301      	bcc.n	80002d6 <__divsi3+0xba>
 80002d2:	018b      	lsls	r3, r1, #6
 80002d4:	1ac0      	subs	r0, r0, r3
 80002d6:	4152      	adcs	r2, r2
 80002d8:	0943      	lsrs	r3, r0, #5
 80002da:	428b      	cmp	r3, r1
 80002dc:	d301      	bcc.n	80002e2 <__divsi3+0xc6>
 80002de:	014b      	lsls	r3, r1, #5
 80002e0:	1ac0      	subs	r0, r0, r3
 80002e2:	4152      	adcs	r2, r2
 80002e4:	0903      	lsrs	r3, r0, #4
 80002e6:	428b      	cmp	r3, r1
 80002e8:	d301      	bcc.n	80002ee <__divsi3+0xd2>
 80002ea:	010b      	lsls	r3, r1, #4
 80002ec:	1ac0      	subs	r0, r0, r3
 80002ee:	4152      	adcs	r2, r2
 80002f0:	08c3      	lsrs	r3, r0, #3
 80002f2:	428b      	cmp	r3, r1
 80002f4:	d301      	bcc.n	80002fa <__divsi3+0xde>
 80002f6:	00cb      	lsls	r3, r1, #3
 80002f8:	1ac0      	subs	r0, r0, r3
 80002fa:	4152      	adcs	r2, r2
 80002fc:	0883      	lsrs	r3, r0, #2
 80002fe:	428b      	cmp	r3, r1
 8000300:	d301      	bcc.n	8000306 <__divsi3+0xea>
 8000302:	008b      	lsls	r3, r1, #2
 8000304:	1ac0      	subs	r0, r0, r3
 8000306:	4152      	adcs	r2, r2
 8000308:	0843      	lsrs	r3, r0, #1
 800030a:	428b      	cmp	r3, r1
 800030c:	d301      	bcc.n	8000312 <__divsi3+0xf6>
 800030e:	004b      	lsls	r3, r1, #1
 8000310:	1ac0      	subs	r0, r0, r3
 8000312:	4152      	adcs	r2, r2
 8000314:	1a41      	subs	r1, r0, r1
 8000316:	d200      	bcs.n	800031a <__divsi3+0xfe>
 8000318:	4601      	mov	r1, r0
 800031a:	4152      	adcs	r2, r2
 800031c:	4610      	mov	r0, r2
 800031e:	4770      	bx	lr
 8000320:	e05d      	b.n	80003de <__divsi3+0x1c2>
 8000322:	0fca      	lsrs	r2, r1, #31
 8000324:	d000      	beq.n	8000328 <__divsi3+0x10c>
 8000326:	4249      	negs	r1, r1
 8000328:	1003      	asrs	r3, r0, #32
 800032a:	d300      	bcc.n	800032e <__divsi3+0x112>
 800032c:	4240      	negs	r0, r0
 800032e:	4053      	eors	r3, r2
 8000330:	2200      	movs	r2, #0
 8000332:	469c      	mov	ip, r3
 8000334:	0903      	lsrs	r3, r0, #4
 8000336:	428b      	cmp	r3, r1
 8000338:	d32d      	bcc.n	8000396 <__divsi3+0x17a>
 800033a:	0a03      	lsrs	r3, r0, #8
 800033c:	428b      	cmp	r3, r1
 800033e:	d312      	bcc.n	8000366 <__divsi3+0x14a>
 8000340:	22fc      	movs	r2, #252	; 0xfc
 8000342:	0189      	lsls	r1, r1, #6
 8000344:	ba12      	rev	r2, r2
 8000346:	0a03      	lsrs	r3, r0, #8
 8000348:	428b      	cmp	r3, r1
 800034a:	d30c      	bcc.n	8000366 <__divsi3+0x14a>
 800034c:	0189      	lsls	r1, r1, #6
 800034e:	1192      	asrs	r2, r2, #6
 8000350:	428b      	cmp	r3, r1
 8000352:	d308      	bcc.n	8000366 <__divsi3+0x14a>
 8000354:	0189      	lsls	r1, r1, #6
 8000356:	1192      	asrs	r2, r2, #6
 8000358:	428b      	cmp	r3, r1
 800035a:	d304      	bcc.n	8000366 <__divsi3+0x14a>
 800035c:	0189      	lsls	r1, r1, #6
 800035e:	d03a      	beq.n	80003d6 <__divsi3+0x1ba>
 8000360:	1192      	asrs	r2, r2, #6
 8000362:	e000      	b.n	8000366 <__divsi3+0x14a>
 8000364:	0989      	lsrs	r1, r1, #6
 8000366:	09c3      	lsrs	r3, r0, #7
 8000368:	428b      	cmp	r3, r1
 800036a:	d301      	bcc.n	8000370 <__divsi3+0x154>
 800036c:	01cb      	lsls	r3, r1, #7
 800036e:	1ac0      	subs	r0, r0, r3
 8000370:	4152      	adcs	r2, r2
 8000372:	0983      	lsrs	r3, r0, #6
 8000374:	428b      	cmp	r3, r1
 8000376:	d301      	bcc.n	800037c <__divsi3+0x160>
 8000378:	018b      	lsls	r3, r1, #6
 800037a:	1ac0      	subs	r0, r0, r3
 800037c:	4152      	adcs	r2, r2
 800037e:	0943      	lsrs	r3, r0, #5
 8000380:	428b      	cmp	r3, r1
 8000382:	d301      	bcc.n	8000388 <__divsi3+0x16c>
 8000384:	014b      	lsls	r3, r1, #5
 8000386:	1ac0      	subs	r0, r0, r3
 8000388:	4152      	adcs	r2, r2
 800038a:	0903      	lsrs	r3, r0, #4
 800038c:	428b      	cmp	r3, r1
 800038e:	d301      	bcc.n	8000394 <__divsi3+0x178>
 8000390:	010b      	lsls	r3, r1, #4
 8000392:	1ac0      	subs	r0, r0, r3
 8000394:	4152      	adcs	r2, r2
 8000396:	08c3      	lsrs	r3, r0, #3
 8000398:	428b      	cmp	r3, r1
 800039a:	d301      	bcc.n	80003a0 <__divsi3+0x184>
 800039c:	00cb      	lsls	r3, r1, #3
 800039e:	1ac0      	subs	r0, r0, r3
 80003a0:	4152      	adcs	r2, r2
 80003a2:	0883      	lsrs	r3, r0, #2
 80003a4:	428b      	cmp	r3, r1
 80003a6:	d301      	bcc.n	80003ac <__divsi3+0x190>
 80003a8:	008b      	lsls	r3, r1, #2
 80003aa:	1ac0      	subs	r0, r0, r3
 80003ac:	4152      	adcs	r2, r2
 80003ae:	d2d9      	bcs.n	8000364 <__divsi3+0x148>
 80003b0:	0843      	lsrs	r3, r0, #1
 80003b2:	428b      	cmp	r3, r1
 80003b4:	d301      	bcc.n	80003ba <__divsi3+0x19e>
 80003b6:	004b      	lsls	r3, r1, #1
 80003b8:	1ac0      	subs	r0, r0, r3
 80003ba:	4152      	adcs	r2, r2
 80003bc:	1a41      	subs	r1, r0, r1
 80003be:	d200      	bcs.n	80003c2 <__divsi3+0x1a6>
 80003c0:	4601      	mov	r1, r0
 80003c2:	4663      	mov	r3, ip
 80003c4:	4152      	adcs	r2, r2
 80003c6:	105b      	asrs	r3, r3, #1
 80003c8:	4610      	mov	r0, r2
 80003ca:	d301      	bcc.n	80003d0 <__divsi3+0x1b4>
 80003cc:	4240      	negs	r0, r0
 80003ce:	2b00      	cmp	r3, #0
 80003d0:	d500      	bpl.n	80003d4 <__divsi3+0x1b8>
 80003d2:	4249      	negs	r1, r1
 80003d4:	4770      	bx	lr
 80003d6:	4663      	mov	r3, ip
 80003d8:	105b      	asrs	r3, r3, #1
 80003da:	d300      	bcc.n	80003de <__divsi3+0x1c2>
 80003dc:	4240      	negs	r0, r0
 80003de:	b501      	push	{r0, lr}
 80003e0:	2000      	movs	r0, #0
 80003e2:	f000 f805 	bl	80003f0 <__aeabi_idiv0>
 80003e6:	bd02      	pop	{r1, pc}

080003e8 <__aeabi_idivmod>:
 80003e8:	2900      	cmp	r1, #0
 80003ea:	d0f8      	beq.n	80003de <__divsi3+0x1c2>
 80003ec:	e716      	b.n	800021c <__divsi3>
 80003ee:	4770      	bx	lr

080003f0 <__aeabi_idiv0>:
 80003f0:	4770      	bx	lr
 80003f2:	46c0      	nop			; (mov r8, r8)

080003f4 <EXTI_DeInit>:
 * @brief  Deinitializes the EXTI peripheral registers to their default reset 
 *         values.
 * @param  None
 * @retval None
 */
void EXTI_DeInit(void) {
 80003f4:	b580      	push	{r7, lr}
 80003f6:	af00      	add	r7, sp, #0
	EXTI->IMR = 0x0F940000;
 80003f8:	4b08      	ldr	r3, [pc, #32]	; (800041c <EXTI_DeInit+0x28>)
 80003fa:	4a09      	ldr	r2, [pc, #36]	; (8000420 <EXTI_DeInit+0x2c>)
 80003fc:	601a      	str	r2, [r3, #0]
	EXTI->EMR = 0x00000000;
 80003fe:	4b07      	ldr	r3, [pc, #28]	; (800041c <EXTI_DeInit+0x28>)
 8000400:	2200      	movs	r2, #0
 8000402:	605a      	str	r2, [r3, #4]
	EXTI->RTSR = 0x00000000;
 8000404:	4b05      	ldr	r3, [pc, #20]	; (800041c <EXTI_DeInit+0x28>)
 8000406:	2200      	movs	r2, #0
 8000408:	609a      	str	r2, [r3, #8]
	EXTI->FTSR = 0x00000000;
 800040a:	4b04      	ldr	r3, [pc, #16]	; (800041c <EXTI_DeInit+0x28>)
 800040c:	2200      	movs	r2, #0
 800040e:	60da      	str	r2, [r3, #12]
	EXTI->PR = 0x006BFFFF;
 8000410:	4b02      	ldr	r3, [pc, #8]	; (800041c <EXTI_DeInit+0x28>)
 8000412:	4a04      	ldr	r2, [pc, #16]	; (8000424 <EXTI_DeInit+0x30>)
 8000414:	615a      	str	r2, [r3, #20]
}
 8000416:	46c0      	nop			; (mov r8, r8)
 8000418:	46bd      	mov	sp, r7
 800041a:	bd80      	pop	{r7, pc}
 800041c:	40010400 	.word	0x40010400
 8000420:	0f940000 	.word	0x0f940000
 8000424:	006bffff 	.word	0x006bffff

08000428 <EXTI_Init>:
 *         parameters in the EXTI_InitStruct.
 * @param  EXTI_InitStruct: pointer to a EXTI_InitTypeDef structure that 
 *         contains the configuration information for the EXTI peripheral.
 * @retval None
 */
void EXTI_Init(EXTI_InitTypeDef *EXTI_InitStruct) {
 8000428:	b580      	push	{r7, lr}
 800042a:	b084      	sub	sp, #16
 800042c:	af00      	add	r7, sp, #0
 800042e:	6078      	str	r0, [r7, #4]
	uint32_t tmp = 0;
 8000430:	2300      	movs	r3, #0
 8000432:	60fb      	str	r3, [r7, #12]
	assert_param(IS_EXTI_MODE(EXTI_InitStruct->EXTI_Mode));
	assert_param(IS_EXTI_TRIGGER(EXTI_InitStruct->EXTI_Trigger));
	assert_param(IS_EXTI_LINE(EXTI_InitStruct->EXTI_Line));
	assert_param(IS_FUNCTIONAL_STATE(EXTI_InitStruct->EXTI_LineCmd));

	tmp = (uint32_t) EXTI_BASE;
 8000434:	4b33      	ldr	r3, [pc, #204]	; (8000504 <EXTI_Init+0xdc>)
 8000436:	60fb      	str	r3, [r7, #12]

	if (EXTI_InitStruct->EXTI_LineCmd != DISABLE) {
 8000438:	687b      	ldr	r3, [r7, #4]
 800043a:	799b      	ldrb	r3, [r3, #6]
 800043c:	2b00      	cmp	r3, #0
 800043e:	d04f      	beq.n	80004e0 <EXTI_Init+0xb8>
		/* Clear EXTI line configuration */
		EXTI->IMR &= ~EXTI_InitStruct->EXTI_Line;
 8000440:	4b30      	ldr	r3, [pc, #192]	; (8000504 <EXTI_Init+0xdc>)
 8000442:	681a      	ldr	r2, [r3, #0]
 8000444:	687b      	ldr	r3, [r7, #4]
 8000446:	681b      	ldr	r3, [r3, #0]
 8000448:	43d9      	mvns	r1, r3
 800044a:	4b2e      	ldr	r3, [pc, #184]	; (8000504 <EXTI_Init+0xdc>)
 800044c:	400a      	ands	r2, r1
 800044e:	601a      	str	r2, [r3, #0]
		EXTI->EMR &= ~EXTI_InitStruct->EXTI_Line;
 8000450:	4b2c      	ldr	r3, [pc, #176]	; (8000504 <EXTI_Init+0xdc>)
 8000452:	685a      	ldr	r2, [r3, #4]
 8000454:	687b      	ldr	r3, [r7, #4]
 8000456:	681b      	ldr	r3, [r3, #0]
 8000458:	43d9      	mvns	r1, r3
 800045a:	4b2a      	ldr	r3, [pc, #168]	; (8000504 <EXTI_Init+0xdc>)
 800045c:	400a      	ands	r2, r1
 800045e:	605a      	str	r2, [r3, #4]

		tmp += EXTI_InitStruct->EXTI_Mode;
 8000460:	687b      	ldr	r3, [r7, #4]
 8000462:	791b      	ldrb	r3, [r3, #4]
 8000464:	001a      	movs	r2, r3
 8000466:	68fb      	ldr	r3, [r7, #12]
 8000468:	189b      	adds	r3, r3, r2
 800046a:	60fb      	str	r3, [r7, #12]

		*(__IO uint32_t*) tmp |= EXTI_InitStruct->EXTI_Line;
 800046c:	68fb      	ldr	r3, [r7, #12]
 800046e:	6819      	ldr	r1, [r3, #0]
 8000470:	687b      	ldr	r3, [r7, #4]
 8000472:	681a      	ldr	r2, [r3, #0]
 8000474:	68fb      	ldr	r3, [r7, #12]
 8000476:	430a      	orrs	r2, r1
 8000478:	601a      	str	r2, [r3, #0]

		/* Clear Rising Falling edge configuration */
		EXTI->RTSR &= ~EXTI_InitStruct->EXTI_Line;
 800047a:	4b22      	ldr	r3, [pc, #136]	; (8000504 <EXTI_Init+0xdc>)
 800047c:	689a      	ldr	r2, [r3, #8]
 800047e:	687b      	ldr	r3, [r7, #4]
 8000480:	681b      	ldr	r3, [r3, #0]
 8000482:	43d9      	mvns	r1, r3
 8000484:	4b1f      	ldr	r3, [pc, #124]	; (8000504 <EXTI_Init+0xdc>)
 8000486:	400a      	ands	r2, r1
 8000488:	609a      	str	r2, [r3, #8]
		EXTI->FTSR &= ~EXTI_InitStruct->EXTI_Line;
 800048a:	4b1e      	ldr	r3, [pc, #120]	; (8000504 <EXTI_Init+0xdc>)
 800048c:	68da      	ldr	r2, [r3, #12]
 800048e:	687b      	ldr	r3, [r7, #4]
 8000490:	681b      	ldr	r3, [r3, #0]
 8000492:	43d9      	mvns	r1, r3
 8000494:	4b1b      	ldr	r3, [pc, #108]	; (8000504 <EXTI_Init+0xdc>)
 8000496:	400a      	ands	r2, r1
 8000498:	60da      	str	r2, [r3, #12]

		/* Select the trigger for the selected interrupts */
		if (EXTI_InitStruct->EXTI_Trigger == EXTI_Trigger_Rising_Falling) {
 800049a:	687b      	ldr	r3, [r7, #4]
 800049c:	795b      	ldrb	r3, [r3, #5]
 800049e:	2b10      	cmp	r3, #16
 80004a0:	d10e      	bne.n	80004c0 <EXTI_Init+0x98>
			/* Rising Falling edge */
			EXTI->RTSR |= EXTI_InitStruct->EXTI_Line;
 80004a2:	4b18      	ldr	r3, [pc, #96]	; (8000504 <EXTI_Init+0xdc>)
 80004a4:	6899      	ldr	r1, [r3, #8]
 80004a6:	687b      	ldr	r3, [r7, #4]
 80004a8:	681a      	ldr	r2, [r3, #0]
 80004aa:	4b16      	ldr	r3, [pc, #88]	; (8000504 <EXTI_Init+0xdc>)
 80004ac:	430a      	orrs	r2, r1
 80004ae:	609a      	str	r2, [r3, #8]
			EXTI->FTSR |= EXTI_InitStruct->EXTI_Line;
 80004b0:	4b14      	ldr	r3, [pc, #80]	; (8000504 <EXTI_Init+0xdc>)
 80004b2:	68d9      	ldr	r1, [r3, #12]
 80004b4:	687b      	ldr	r3, [r7, #4]
 80004b6:	681a      	ldr	r2, [r3, #0]
 80004b8:	4b12      	ldr	r3, [pc, #72]	; (8000504 <EXTI_Init+0xdc>)
 80004ba:	430a      	orrs	r2, r1
 80004bc:	60da      	str	r2, [r3, #12]
		tmp += EXTI_InitStruct->EXTI_Mode;

		/* Disable the selected external lines */
		*(__IO uint32_t*) tmp &= ~EXTI_InitStruct->EXTI_Line;
	}
}
 80004be:	e01d      	b.n	80004fc <EXTI_Init+0xd4>
			tmp = (uint32_t) EXTI_BASE;
 80004c0:	4b10      	ldr	r3, [pc, #64]	; (8000504 <EXTI_Init+0xdc>)
 80004c2:	60fb      	str	r3, [r7, #12]
			tmp += EXTI_InitStruct->EXTI_Trigger;
 80004c4:	687b      	ldr	r3, [r7, #4]
 80004c6:	795b      	ldrb	r3, [r3, #5]
 80004c8:	001a      	movs	r2, r3
 80004ca:	68fb      	ldr	r3, [r7, #12]
 80004cc:	189b      	adds	r3, r3, r2
 80004ce:	60fb      	str	r3, [r7, #12]
			*(__IO uint32_t*) tmp |= EXTI_InitStruct->EXTI_Line;
 80004d0:	68fb      	ldr	r3, [r7, #12]
 80004d2:	6819      	ldr	r1, [r3, #0]
 80004d4:	687b      	ldr	r3, [r7, #4]
 80004d6:	681a      	ldr	r2, [r3, #0]
 80004d8:	68fb      	ldr	r3, [r7, #12]
 80004da:	430a      	orrs	r2, r1
 80004dc:	601a      	str	r2, [r3, #0]
}
 80004de:	e00d      	b.n	80004fc <EXTI_Init+0xd4>
		tmp += EXTI_InitStruct->EXTI_Mode;
 80004e0:	687b      	ldr	r3, [r7, #4]
 80004e2:	791b      	ldrb	r3, [r3, #4]
 80004e4:	001a      	movs	r2, r3
 80004e6:	68fb      	ldr	r3, [r7, #12]
 80004e8:	189b      	adds	r3, r3, r2
 80004ea:	60fb      	str	r3, [r7, #12]
		*(__IO uint32_t*) tmp &= ~EXTI_InitStruct->EXTI_Line;
 80004ec:	68fb      	ldr	r3, [r7, #12]
 80004ee:	681a      	ldr	r2, [r3, #0]
 80004f0:	687b      	ldr	r3, [r7, #4]
 80004f2:	681b      	ldr	r3, [r3, #0]
 80004f4:	43d9      	mvns	r1, r3
 80004f6:	68fb      	ldr	r3, [r7, #12]
 80004f8:	400a      	ands	r2, r1
 80004fa:	601a      	str	r2, [r3, #0]
}
 80004fc:	46c0      	nop			; (mov r8, r8)
 80004fe:	46bd      	mov	sp, r7
 8000500:	b004      	add	sp, #16
 8000502:	bd80      	pop	{r7, pc}
 8000504:	40010400 	.word	0x40010400

08000508 <EXTI_ClearITPendingBit>:
 * @brief  Clears the EXTI's line pending bits.
 * @param  EXTI_Line: specifies the EXTI lines to clear.
 *          This parameter can be any combination of EXTI_Linex where x can be (0..27).
 * @retval None
 */
void EXTI_ClearITPendingBit(uint32_t EXTI_Line) {
 8000508:	b580      	push	{r7, lr}
 800050a:	b082      	sub	sp, #8
 800050c:	af00      	add	r7, sp, #0
 800050e:	6078      	str	r0, [r7, #4]
	/* Check the parameters */
	assert_param(IS_EXTI_LINE(EXTI_Line));

	EXTI->PR = EXTI_Line;
 8000510:	4b03      	ldr	r3, [pc, #12]	; (8000520 <EXTI_ClearITPendingBit+0x18>)
 8000512:	687a      	ldr	r2, [r7, #4]
 8000514:	615a      	str	r2, [r3, #20]
}
 8000516:	46c0      	nop			; (mov r8, r8)
 8000518:	46bd      	mov	sp, r7
 800051a:	b002      	add	sp, #8
 800051c:	bd80      	pop	{r7, pc}
 800051e:	46c0      	nop			; (mov r8, r8)
 8000520:	40010400 	.word	0x40010400

08000524 <GPIO_Init>:
 * @note   GPIOD is not available for STM32F031.   
 * @param  GPIO_InitStruct: pointer to a GPIO_InitTypeDef structure that contains
 *         the configuration information for the specified GPIO peripheral.
 * @retval None
 */
void GPIO_Init(GPIO_TypeDef *GPIOx, GPIO_InitTypeDef *GPIO_InitStruct) {
 8000524:	b580      	push	{r7, lr}
 8000526:	b086      	sub	sp, #24
 8000528:	af00      	add	r7, sp, #0
 800052a:	6078      	str	r0, [r7, #4]
 800052c:	6039      	str	r1, [r7, #0]
	uint32_t pinpos = 0x00, pos = 0x00, currentpin = 0x00;
 800052e:	2300      	movs	r3, #0
 8000530:	617b      	str	r3, [r7, #20]
 8000532:	2300      	movs	r3, #0
 8000534:	613b      	str	r3, [r7, #16]
 8000536:	2300      	movs	r3, #0
 8000538:	60fb      	str	r3, [r7, #12]
	assert_param(IS_GPIO_MODE(GPIO_InitStruct->GPIO_Mode));
	assert_param(IS_GPIO_PUPD(GPIO_InitStruct->GPIO_PuPd));

	/*-------------------------- Configure the port pins -----------------------*/
	/*-- GPIO Mode Configuration --*/
	for (pinpos = 0x00; pinpos < 0x10; pinpos++) {
 800053a:	2300      	movs	r3, #0
 800053c:	617b      	str	r3, [r7, #20]
 800053e:	e07c      	b.n	800063a <GPIO_Init+0x116>
		pos = ((uint32_t) 0x01) << pinpos;
 8000540:	2201      	movs	r2, #1
 8000542:	697b      	ldr	r3, [r7, #20]
 8000544:	409a      	lsls	r2, r3
 8000546:	0013      	movs	r3, r2
 8000548:	613b      	str	r3, [r7, #16]

		/* Get the port pins position */
		currentpin = (GPIO_InitStruct->GPIO_Pin) & pos;
 800054a:	683b      	ldr	r3, [r7, #0]
 800054c:	681a      	ldr	r2, [r3, #0]
 800054e:	693b      	ldr	r3, [r7, #16]
 8000550:	4013      	ands	r3, r2
 8000552:	60fb      	str	r3, [r7, #12]

		if (currentpin == pos) {
 8000554:	68fa      	ldr	r2, [r7, #12]
 8000556:	693b      	ldr	r3, [r7, #16]
 8000558:	429a      	cmp	r2, r3
 800055a:	d16b      	bne.n	8000634 <GPIO_Init+0x110>
			if ((GPIO_InitStruct->GPIO_Mode == GPIO_Mode_OUT)
 800055c:	683b      	ldr	r3, [r7, #0]
 800055e:	791b      	ldrb	r3, [r3, #4]
 8000560:	2b01      	cmp	r3, #1
 8000562:	d003      	beq.n	800056c <GPIO_Init+0x48>
					|| (GPIO_InitStruct->GPIO_Mode == GPIO_Mode_AF)) {
 8000564:	683b      	ldr	r3, [r7, #0]
 8000566:	791b      	ldrb	r3, [r3, #4]
 8000568:	2b02      	cmp	r3, #2
 800056a:	d134      	bne.n	80005d6 <GPIO_Init+0xb2>
				/* Check Speed mode parameters */
				assert_param(IS_GPIO_SPEED(GPIO_InitStruct->GPIO_Speed));

				/* Speed mode configuration */
				GPIOx->OSPEEDR &= ~(GPIO_OSPEEDER_OSPEEDR0 << (pinpos * 2));
 800056c:	687b      	ldr	r3, [r7, #4]
 800056e:	689b      	ldr	r3, [r3, #8]
 8000570:	697a      	ldr	r2, [r7, #20]
 8000572:	0052      	lsls	r2, r2, #1
 8000574:	2103      	movs	r1, #3
 8000576:	4091      	lsls	r1, r2
 8000578:	000a      	movs	r2, r1
 800057a:	43d2      	mvns	r2, r2
 800057c:	401a      	ands	r2, r3
 800057e:	687b      	ldr	r3, [r7, #4]
 8000580:	609a      	str	r2, [r3, #8]
				GPIOx->OSPEEDR |= ((uint32_t) (GPIO_InitStruct->GPIO_Speed)
 8000582:	687b      	ldr	r3, [r7, #4]
 8000584:	689a      	ldr	r2, [r3, #8]
 8000586:	683b      	ldr	r3, [r7, #0]
 8000588:	795b      	ldrb	r3, [r3, #5]
 800058a:	0019      	movs	r1, r3
						<< (pinpos * 2));
 800058c:	697b      	ldr	r3, [r7, #20]
 800058e:	005b      	lsls	r3, r3, #1
 8000590:	4099      	lsls	r1, r3
 8000592:	000b      	movs	r3, r1
				GPIOx->OSPEEDR |= ((uint32_t) (GPIO_InitStruct->GPIO_Speed)
 8000594:	431a      	orrs	r2, r3
 8000596:	687b      	ldr	r3, [r7, #4]
 8000598:	609a      	str	r2, [r3, #8]

				/* Check Output mode parameters */
				assert_param(IS_GPIO_OTYPE(GPIO_InitStruct->GPIO_OType));

				/* Output mode configuration */
				GPIOx->OTYPER &= ~((GPIO_OTYPER_OT_0) << ((uint16_t) pinpos));
 800059a:	687b      	ldr	r3, [r7, #4]
 800059c:	889b      	ldrh	r3, [r3, #4]
 800059e:	b29b      	uxth	r3, r3
 80005a0:	697a      	ldr	r2, [r7, #20]
 80005a2:	b292      	uxth	r2, r2
 80005a4:	0011      	movs	r1, r2
 80005a6:	2201      	movs	r2, #1
 80005a8:	408a      	lsls	r2, r1
 80005aa:	b292      	uxth	r2, r2
 80005ac:	43d2      	mvns	r2, r2
 80005ae:	b292      	uxth	r2, r2
 80005b0:	4013      	ands	r3, r2
 80005b2:	b29a      	uxth	r2, r3
 80005b4:	687b      	ldr	r3, [r7, #4]
 80005b6:	809a      	strh	r2, [r3, #4]
				GPIOx->OTYPER |=
 80005b8:	687b      	ldr	r3, [r7, #4]
 80005ba:	889b      	ldrh	r3, [r3, #4]
 80005bc:	b29a      	uxth	r2, r3
						(uint16_t) (((uint16_t) GPIO_InitStruct->GPIO_OType)
 80005be:	683b      	ldr	r3, [r7, #0]
 80005c0:	799b      	ldrb	r3, [r3, #6]
 80005c2:	0019      	movs	r1, r3
								<< ((uint16_t) pinpos));
 80005c4:	697b      	ldr	r3, [r7, #20]
 80005c6:	b29b      	uxth	r3, r3
 80005c8:	4099      	lsls	r1, r3
 80005ca:	000b      	movs	r3, r1
						(uint16_t) (((uint16_t) GPIO_InitStruct->GPIO_OType)
 80005cc:	b29b      	uxth	r3, r3
				GPIOx->OTYPER |=
 80005ce:	4313      	orrs	r3, r2
 80005d0:	b29a      	uxth	r2, r3
 80005d2:	687b      	ldr	r3, [r7, #4]
 80005d4:	809a      	strh	r2, [r3, #4]
			}

			GPIOx->MODER &= ~(GPIO_MODER_MODER0 << (pinpos * 2));
 80005d6:	687b      	ldr	r3, [r7, #4]
 80005d8:	681b      	ldr	r3, [r3, #0]
 80005da:	697a      	ldr	r2, [r7, #20]
 80005dc:	0052      	lsls	r2, r2, #1
 80005de:	2103      	movs	r1, #3
 80005e0:	4091      	lsls	r1, r2
 80005e2:	000a      	movs	r2, r1
 80005e4:	43d2      	mvns	r2, r2
 80005e6:	401a      	ands	r2, r3
 80005e8:	687b      	ldr	r3, [r7, #4]
 80005ea:	601a      	str	r2, [r3, #0]

			GPIOx->MODER |= (((uint32_t) GPIO_InitStruct->GPIO_Mode)
 80005ec:	687b      	ldr	r3, [r7, #4]
 80005ee:	681a      	ldr	r2, [r3, #0]
 80005f0:	683b      	ldr	r3, [r7, #0]
 80005f2:	791b      	ldrb	r3, [r3, #4]
 80005f4:	0019      	movs	r1, r3
					<< (pinpos * 2));
 80005f6:	697b      	ldr	r3, [r7, #20]
 80005f8:	005b      	lsls	r3, r3, #1
 80005fa:	4099      	lsls	r1, r3
 80005fc:	000b      	movs	r3, r1
			GPIOx->MODER |= (((uint32_t) GPIO_InitStruct->GPIO_Mode)
 80005fe:	431a      	orrs	r2, r3
 8000600:	687b      	ldr	r3, [r7, #4]
 8000602:	601a      	str	r2, [r3, #0]

			/* Pull-up Pull down resistor configuration */
			GPIOx->PUPDR &= ~(GPIO_PUPDR_PUPDR0 << ((uint16_t) pinpos * 2));
 8000604:	687b      	ldr	r3, [r7, #4]
 8000606:	68db      	ldr	r3, [r3, #12]
 8000608:	697a      	ldr	r2, [r7, #20]
 800060a:	b292      	uxth	r2, r2
 800060c:	0052      	lsls	r2, r2, #1
 800060e:	2103      	movs	r1, #3
 8000610:	4091      	lsls	r1, r2
 8000612:	000a      	movs	r2, r1
 8000614:	43d2      	mvns	r2, r2
 8000616:	401a      	ands	r2, r3
 8000618:	687b      	ldr	r3, [r7, #4]
 800061a:	60da      	str	r2, [r3, #12]
			GPIOx->PUPDR |= (((uint32_t) GPIO_InitStruct->GPIO_PuPd)
 800061c:	687b      	ldr	r3, [r7, #4]
 800061e:	68da      	ldr	r2, [r3, #12]
 8000620:	683b      	ldr	r3, [r7, #0]
 8000622:	79db      	ldrb	r3, [r3, #7]
 8000624:	0019      	movs	r1, r3
					<< (pinpos * 2));
 8000626:	697b      	ldr	r3, [r7, #20]
 8000628:	005b      	lsls	r3, r3, #1
 800062a:	4099      	lsls	r1, r3
 800062c:	000b      	movs	r3, r1
			GPIOx->PUPDR |= (((uint32_t) GPIO_InitStruct->GPIO_PuPd)
 800062e:	431a      	orrs	r2, r3
 8000630:	687b      	ldr	r3, [r7, #4]
 8000632:	60da      	str	r2, [r3, #12]
	for (pinpos = 0x00; pinpos < 0x10; pinpos++) {
 8000634:	697b      	ldr	r3, [r7, #20]
 8000636:	3301      	adds	r3, #1
 8000638:	617b      	str	r3, [r7, #20]
 800063a:	697b      	ldr	r3, [r7, #20]
 800063c:	2b0f      	cmp	r3, #15
 800063e:	d800      	bhi.n	8000642 <GPIO_Init+0x11e>
 8000640:	e77e      	b.n	8000540 <GPIO_Init+0x1c>
		}
	}
}
 8000642:	46c0      	nop			; (mov r8, r8)
 8000644:	46c0      	nop			; (mov r8, r8)
 8000646:	46bd      	mov	sp, r7
 8000648:	b006      	add	sp, #24
 800064a:	bd80      	pop	{r7, pc}

0800064c <GPIO_ReadInputDataBit>:
 *         For STM32F051 and STM32F030: (0..15) for GPIOA, GPIOB, GPIOC, (2) for GPIOD and (0..1, 4..7) for GIIOF.
 *         For STM32F072: (0..15) for GPIOA, GPIOB, GPIOC, GPIOD, GPIOE, (0..10) for GPIOF.
 *         For STM32F031: (0..15) for GPIOA, GPIOB, (13..15) for GPIOC and (0..1, 6..7) for GPIOF.  
 * @retval The input port pin value.
 */
uint8_t GPIO_ReadInputDataBit(GPIO_TypeDef *GPIOx, uint16_t GPIO_Pin) {
 800064c:	b580      	push	{r7, lr}
 800064e:	b084      	sub	sp, #16
 8000650:	af00      	add	r7, sp, #0
 8000652:	6078      	str	r0, [r7, #4]
 8000654:	000a      	movs	r2, r1
 8000656:	1cbb      	adds	r3, r7, #2
 8000658:	801a      	strh	r2, [r3, #0]

	uint8_t bitstatus = 0x00;
 800065a:	210f      	movs	r1, #15
 800065c:	187b      	adds	r3, r7, r1
 800065e:	2200      	movs	r2, #0
 8000660:	701a      	strb	r2, [r3, #0]

	/* Check the parameters */
	assert_param(IS_GPIO_ALL_PERIPH(GPIOx));
	assert_param(IS_GET_GPIO_PIN(GPIO_Pin));

	if ((GPIOx->IDR & GPIO_Pin) != (uint32_t) Bit_RESET) {
 8000662:	687b      	ldr	r3, [r7, #4]
 8000664:	8a1b      	ldrh	r3, [r3, #16]
 8000666:	b29b      	uxth	r3, r3
 8000668:	1cba      	adds	r2, r7, #2
 800066a:	8812      	ldrh	r2, [r2, #0]
 800066c:	4013      	ands	r3, r2
 800066e:	b29b      	uxth	r3, r3
 8000670:	2b00      	cmp	r3, #0
 8000672:	d003      	beq.n	800067c <GPIO_ReadInputDataBit+0x30>
		bitstatus = (uint8_t) Bit_SET;
 8000674:	187b      	adds	r3, r7, r1
 8000676:	2201      	movs	r2, #1
 8000678:	701a      	strb	r2, [r3, #0]
 800067a:	e003      	b.n	8000684 <GPIO_ReadInputDataBit+0x38>
	} else {
		bitstatus = (uint8_t) Bit_RESET;
 800067c:	230f      	movs	r3, #15
 800067e:	18fb      	adds	r3, r7, r3
 8000680:	2200      	movs	r2, #0
 8000682:	701a      	strb	r2, [r3, #0]
	}
	return bitstatus;
 8000684:	230f      	movs	r3, #15
 8000686:	18fb      	adds	r3, r7, r3
 8000688:	781b      	ldrb	r3, [r3, #0]
}
 800068a:	0018      	movs	r0, r3
 800068c:	46bd      	mov	sp, r7
 800068e:	b004      	add	sp, #16
 8000690:	bd80      	pop	{r7, pc}

08000692 <GPIO_WriteBit>:
 *         For STM32F051 and STM32F030: (0..15) for GPIOA, GPIOB, GPIOC, (2) for GPIOD and (0..1, 4..7) for GIIOF.
 *         For STM32F072: (0..15) for GPIOA, GPIOB, GPIOC, GPIOD, GPIOE, (0..10) for GPIOF.
 *         For STM32F031: (0..15) for GPIOA, GPIOB, (13..15) for GPIOC and (0..1, 6..7) for GPIOF.
 * @retval None
 */
void GPIO_WriteBit(GPIO_TypeDef *GPIOx, uint16_t GPIO_Pin, BitAction BitVal) {
 8000692:	b580      	push	{r7, lr}
 8000694:	b082      	sub	sp, #8
 8000696:	af00      	add	r7, sp, #0
 8000698:	6078      	str	r0, [r7, #4]
 800069a:	0008      	movs	r0, r1
 800069c:	0011      	movs	r1, r2
 800069e:	1cbb      	adds	r3, r7, #2
 80006a0:	1c02      	adds	r2, r0, #0
 80006a2:	801a      	strh	r2, [r3, #0]
 80006a4:	1c7b      	adds	r3, r7, #1
 80006a6:	1c0a      	adds	r2, r1, #0
 80006a8:	701a      	strb	r2, [r3, #0]
	/* Check the parameters */
	assert_param(IS_GPIO_ALL_PERIPH(GPIOx));
	assert_param(IS_GET_GPIO_PIN(GPIO_Pin));
	assert_param(IS_GPIO_BIT_ACTION(BitVal));

	if (BitVal != Bit_RESET) {
 80006aa:	1c7b      	adds	r3, r7, #1
 80006ac:	781b      	ldrb	r3, [r3, #0]
 80006ae:	2b00      	cmp	r3, #0
 80006b0:	d004      	beq.n	80006bc <GPIO_WriteBit+0x2a>
		GPIOx->BSRR = GPIO_Pin;
 80006b2:	1cbb      	adds	r3, r7, #2
 80006b4:	881a      	ldrh	r2, [r3, #0]
 80006b6:	687b      	ldr	r3, [r7, #4]
 80006b8:	619a      	str	r2, [r3, #24]
	} else {
		GPIOx->BRR = GPIO_Pin;
	}
}
 80006ba:	e003      	b.n	80006c4 <GPIO_WriteBit+0x32>
		GPIOx->BRR = GPIO_Pin;
 80006bc:	687b      	ldr	r3, [r7, #4]
 80006be:	1cba      	adds	r2, r7, #2
 80006c0:	8812      	ldrh	r2, [r2, #0]
 80006c2:	851a      	strh	r2, [r3, #40]	; 0x28
}
 80006c4:	46c0      	nop			; (mov r8, r8)
 80006c6:	46bd      	mov	sp, r7
 80006c8:	b002      	add	sp, #8
 80006ca:	bd80      	pop	{r7, pc}

080006cc <GPIO_PinAFConfig>:
 *         for the detailed mapping of the system and peripherals'alternate 
 *         function I/O pins.
 * @retval None
 */
void GPIO_PinAFConfig(GPIO_TypeDef *GPIOx, uint16_t GPIO_PinSource,
		uint8_t GPIO_AF) {
 80006cc:	b580      	push	{r7, lr}
 80006ce:	b084      	sub	sp, #16
 80006d0:	af00      	add	r7, sp, #0
 80006d2:	6078      	str	r0, [r7, #4]
 80006d4:	0008      	movs	r0, r1
 80006d6:	0011      	movs	r1, r2
 80006d8:	1cbb      	adds	r3, r7, #2
 80006da:	1c02      	adds	r2, r0, #0
 80006dc:	801a      	strh	r2, [r3, #0]
 80006de:	1c7b      	adds	r3, r7, #1
 80006e0:	1c0a      	adds	r2, r1, #0
 80006e2:	701a      	strb	r2, [r3, #0]
	uint32_t temp = 0x00;
 80006e4:	2300      	movs	r3, #0
 80006e6:	60fb      	str	r3, [r7, #12]
	uint32_t temp_2 = 0x00;
 80006e8:	2300      	movs	r3, #0
 80006ea:	60bb      	str	r3, [r7, #8]
	/* Check the parameters */
	assert_param(IS_GPIO_ALL_PERIPH(GPIOx));
	assert_param(IS_GPIO_PIN_SOURCE(GPIO_PinSource));
	assert_param(IS_GPIO_AF(GPIO_AF));

	temp = ((uint32_t) (GPIO_AF)
 80006ec:	1c7b      	adds	r3, r7, #1
 80006ee:	781a      	ldrb	r2, [r3, #0]
			<< ((uint32_t) ((uint32_t) GPIO_PinSource & (uint32_t) 0x07) * 4));
 80006f0:	1cbb      	adds	r3, r7, #2
 80006f2:	881b      	ldrh	r3, [r3, #0]
 80006f4:	2107      	movs	r1, #7
 80006f6:	400b      	ands	r3, r1
 80006f8:	009b      	lsls	r3, r3, #2
	temp = ((uint32_t) (GPIO_AF)
 80006fa:	409a      	lsls	r2, r3
 80006fc:	0013      	movs	r3, r2
 80006fe:	60fb      	str	r3, [r7, #12]
	GPIOx->AFR[GPIO_PinSource >> 0x03] &= ~((uint32_t) 0xF
 8000700:	1cbb      	adds	r3, r7, #2
 8000702:	881b      	ldrh	r3, [r3, #0]
 8000704:	08db      	lsrs	r3, r3, #3
 8000706:	b29b      	uxth	r3, r3
 8000708:	001a      	movs	r2, r3
 800070a:	687b      	ldr	r3, [r7, #4]
 800070c:	3208      	adds	r2, #8
 800070e:	0092      	lsls	r2, r2, #2
 8000710:	58d3      	ldr	r3, [r2, r3]
			<< ((uint32_t) ((uint32_t) GPIO_PinSource & (uint32_t) 0x07) * 4));
 8000712:	1cba      	adds	r2, r7, #2
 8000714:	8812      	ldrh	r2, [r2, #0]
 8000716:	2107      	movs	r1, #7
 8000718:	400a      	ands	r2, r1
 800071a:	0092      	lsls	r2, r2, #2
 800071c:	210f      	movs	r1, #15
 800071e:	4091      	lsls	r1, r2
 8000720:	000a      	movs	r2, r1
	GPIOx->AFR[GPIO_PinSource >> 0x03] &= ~((uint32_t) 0xF
 8000722:	43d2      	mvns	r2, r2
 8000724:	1cb9      	adds	r1, r7, #2
 8000726:	8809      	ldrh	r1, [r1, #0]
 8000728:	08c9      	lsrs	r1, r1, #3
 800072a:	b289      	uxth	r1, r1
 800072c:	0008      	movs	r0, r1
 800072e:	401a      	ands	r2, r3
 8000730:	0011      	movs	r1, r2
 8000732:	687b      	ldr	r3, [r7, #4]
 8000734:	0002      	movs	r2, r0
 8000736:	3208      	adds	r2, #8
 8000738:	0092      	lsls	r2, r2, #2
 800073a:	50d1      	str	r1, [r2, r3]
	temp_2 = GPIOx->AFR[GPIO_PinSource >> 0x03] | temp;
 800073c:	1cbb      	adds	r3, r7, #2
 800073e:	881b      	ldrh	r3, [r3, #0]
 8000740:	08db      	lsrs	r3, r3, #3
 8000742:	b29b      	uxth	r3, r3
 8000744:	001a      	movs	r2, r3
 8000746:	687b      	ldr	r3, [r7, #4]
 8000748:	3208      	adds	r2, #8
 800074a:	0092      	lsls	r2, r2, #2
 800074c:	58d3      	ldr	r3, [r2, r3]
 800074e:	68fa      	ldr	r2, [r7, #12]
 8000750:	4313      	orrs	r3, r2
 8000752:	60bb      	str	r3, [r7, #8]
	GPIOx->AFR[GPIO_PinSource >> 0x03] = temp_2;
 8000754:	1cbb      	adds	r3, r7, #2
 8000756:	881b      	ldrh	r3, [r3, #0]
 8000758:	08db      	lsrs	r3, r3, #3
 800075a:	b29b      	uxth	r3, r3
 800075c:	001a      	movs	r2, r3
 800075e:	687b      	ldr	r3, [r7, #4]
 8000760:	3208      	adds	r2, #8
 8000762:	0092      	lsls	r2, r2, #2
 8000764:	68b9      	ldr	r1, [r7, #8]
 8000766:	50d1      	str	r1, [r2, r3]
}
 8000768:	46c0      	nop			; (mov r8, r8)
 800076a:	46bd      	mov	sp, r7
 800076c:	b004      	add	sp, #16
 800076e:	bd80      	pop	{r7, pc}

08000770 <I2C_DeInit>:
/**
 * @brief  Deinitializes the I2Cx peripheral registers to their default reset values.
 * @param  I2Cx: where x can be 1 or 2 to select the I2C peripheral.
 * @retval None
 */
void I2C_DeInit(I2C_TypeDef *I2Cx) {
 8000770:	b580      	push	{r7, lr}
 8000772:	b082      	sub	sp, #8
 8000774:	af00      	add	r7, sp, #0
 8000776:	6078      	str	r0, [r7, #4]
	/* Check the parameters */
	assert_param(IS_I2C_ALL_PERIPH(I2Cx));

	if (I2Cx == I2C1) {
 8000778:	687b      	ldr	r3, [r7, #4]
 800077a:	4a10      	ldr	r2, [pc, #64]	; (80007bc <I2C_DeInit+0x4c>)
 800077c:	4293      	cmp	r3, r2
 800077e:	d10c      	bne.n	800079a <I2C_DeInit+0x2a>
		/* Enable I2C1 reset state */
		RCC_APB1PeriphResetCmd(RCC_APB1Periph_I2C1, ENABLE);
 8000780:	2380      	movs	r3, #128	; 0x80
 8000782:	039b      	lsls	r3, r3, #14
 8000784:	2101      	movs	r1, #1
 8000786:	0018      	movs	r0, r3
 8000788:	f000 f9ee 	bl	8000b68 <RCC_APB1PeriphResetCmd>
		/* Release I2C1 from reset state */
		RCC_APB1PeriphResetCmd(RCC_APB1Periph_I2C1, DISABLE);
 800078c:	2380      	movs	r3, #128	; 0x80
 800078e:	039b      	lsls	r3, r3, #14
 8000790:	2100      	movs	r1, #0
 8000792:	0018      	movs	r0, r3
 8000794:	f000 f9e8 	bl	8000b68 <RCC_APB1PeriphResetCmd>
		/* Enable I2C2 reset state */
		RCC_APB1PeriphResetCmd(RCC_APB1Periph_I2C2, ENABLE);
		/* Release I2C2 from reset state */
		RCC_APB1PeriphResetCmd(RCC_APB1Periph_I2C2, DISABLE);
	}
}
 8000798:	e00b      	b.n	80007b2 <I2C_DeInit+0x42>
		RCC_APB1PeriphResetCmd(RCC_APB1Periph_I2C2, ENABLE);
 800079a:	2380      	movs	r3, #128	; 0x80
 800079c:	03db      	lsls	r3, r3, #15
 800079e:	2101      	movs	r1, #1
 80007a0:	0018      	movs	r0, r3
 80007a2:	f000 f9e1 	bl	8000b68 <RCC_APB1PeriphResetCmd>
		RCC_APB1PeriphResetCmd(RCC_APB1Periph_I2C2, DISABLE);
 80007a6:	2380      	movs	r3, #128	; 0x80
 80007a8:	03db      	lsls	r3, r3, #15
 80007aa:	2100      	movs	r1, #0
 80007ac:	0018      	movs	r0, r3
 80007ae:	f000 f9db 	bl	8000b68 <RCC_APB1PeriphResetCmd>
}
 80007b2:	46c0      	nop			; (mov r8, r8)
 80007b4:	46bd      	mov	sp, r7
 80007b6:	b002      	add	sp, #8
 80007b8:	bd80      	pop	{r7, pc}
 80007ba:	46c0      	nop			; (mov r8, r8)
 80007bc:	40005400 	.word	0x40005400

080007c0 <I2C_Init>:
 * @param  I2Cx: where x can be 1 or 2 to select the I2C peripheral.
 * @param  I2C_InitStruct: pointer to a I2C_InitTypeDef structure that
 *         contains the configuration information for the specified I2C peripheral.
 * @retval None
 */
void I2C_Init(I2C_TypeDef *I2Cx, I2C_InitTypeDef *I2C_InitStruct) {
 80007c0:	b580      	push	{r7, lr}
 80007c2:	b084      	sub	sp, #16
 80007c4:	af00      	add	r7, sp, #0
 80007c6:	6078      	str	r0, [r7, #4]
 80007c8:	6039      	str	r1, [r7, #0]
	uint32_t tmpreg = 0;
 80007ca:	2300      	movs	r3, #0
 80007cc:	60fb      	str	r3, [r7, #12]
	assert_param(
			IS_I2C_ACKNOWLEDGE_ADDRESS(
					I2C_InitStruct->I2C_AcknowledgedAddress));

	/* Disable I2Cx Peripheral */
	I2Cx->CR1 &= (uint32_t) ~((uint32_t) I2C_CR1_PE);
 80007ce:	687b      	ldr	r3, [r7, #4]
 80007d0:	681b      	ldr	r3, [r3, #0]
 80007d2:	2201      	movs	r2, #1
 80007d4:	4393      	bics	r3, r2
 80007d6:	001a      	movs	r2, r3
 80007d8:	687b      	ldr	r3, [r7, #4]
 80007da:	601a      	str	r2, [r3, #0]

	/*---------------------------- I2Cx FILTERS Configuration ------------------*/
	/* Get the I2Cx CR1 value */
	tmpreg = I2Cx->CR1;
 80007dc:	687b      	ldr	r3, [r7, #4]
 80007de:	681b      	ldr	r3, [r3, #0]
 80007e0:	60fb      	str	r3, [r7, #12]
	/* Clear I2Cx CR1 register */
	tmpreg &= CR1_CLEAR_MASK;
 80007e2:	68fb      	ldr	r3, [r7, #12]
 80007e4:	4a27      	ldr	r2, [pc, #156]	; (8000884 <I2C_Init+0xc4>)
 80007e6:	4013      	ands	r3, r2
 80007e8:	60fb      	str	r3, [r7, #12]
	/* Configure I2Cx: analog and digital filter */
	/* Set ANFOFF bit according to I2C_AnalogFilter value */
	/* Set DFN bits according to I2C_DigitalFilter value */
	tmpreg |= (uint32_t) I2C_InitStruct->I2C_AnalogFilter
 80007ea:	683b      	ldr	r3, [r7, #0]
 80007ec:	685a      	ldr	r2, [r3, #4]
			| (I2C_InitStruct->I2C_DigitalFilter << 8);
 80007ee:	683b      	ldr	r3, [r7, #0]
 80007f0:	689b      	ldr	r3, [r3, #8]
 80007f2:	021b      	lsls	r3, r3, #8
 80007f4:	4313      	orrs	r3, r2
	tmpreg |= (uint32_t) I2C_InitStruct->I2C_AnalogFilter
 80007f6:	68fa      	ldr	r2, [r7, #12]
 80007f8:	4313      	orrs	r3, r2
 80007fa:	60fb      	str	r3, [r7, #12]

	/* Write to I2Cx CR1 */
	I2Cx->CR1 = tmpreg;
 80007fc:	687b      	ldr	r3, [r7, #4]
 80007fe:	68fa      	ldr	r2, [r7, #12]
 8000800:	601a      	str	r2, [r3, #0]

	/*---------------------------- I2Cx TIMING Configuration -------------------*/
	/* Configure I2Cx: Timing */
	/* Set TIMINGR bits according to I2C_Timing */
	/* Write to I2Cx TIMING */
	I2Cx->TIMINGR = I2C_InitStruct->I2C_Timing & TIMING_CLEAR_MASK;
 8000802:	683b      	ldr	r3, [r7, #0]
 8000804:	681b      	ldr	r3, [r3, #0]
 8000806:	4a20      	ldr	r2, [pc, #128]	; (8000888 <I2C_Init+0xc8>)
 8000808:	401a      	ands	r2, r3
 800080a:	687b      	ldr	r3, [r7, #4]
 800080c:	611a      	str	r2, [r3, #16]

	/* Enable I2Cx Peripheral */
	I2Cx->CR1 |= I2C_CR1_PE;
 800080e:	687b      	ldr	r3, [r7, #4]
 8000810:	681b      	ldr	r3, [r3, #0]
 8000812:	2201      	movs	r2, #1
 8000814:	431a      	orrs	r2, r3
 8000816:	687b      	ldr	r3, [r7, #4]
 8000818:	601a      	str	r2, [r3, #0]

	/*---------------------------- I2Cx OAR1 Configuration ---------------------*/
	/* Clear tmpreg local variable */
	tmpreg = 0;
 800081a:	2300      	movs	r3, #0
 800081c:	60fb      	str	r3, [r7, #12]
	/* Clear OAR1 register */
	I2Cx->OAR1 = (uint32_t) tmpreg;
 800081e:	687b      	ldr	r3, [r7, #4]
 8000820:	68fa      	ldr	r2, [r7, #12]
 8000822:	609a      	str	r2, [r3, #8]
	/* Clear OAR2 register */
	I2Cx->OAR2 = (uint32_t) tmpreg;
 8000824:	687b      	ldr	r3, [r7, #4]
 8000826:	68fa      	ldr	r2, [r7, #12]
 8000828:	60da      	str	r2, [r3, #12]
	/* Configure I2Cx: Own Address1 and acknowledged address */
	/* Set OA1MODE bit according to I2C_AcknowledgedAddress value */
	/* Set OA1 bits according to I2C_OwnAddress1 value */
	tmpreg = (uint32_t) ((uint32_t) I2C_InitStruct->I2C_AcknowledgedAddress
 800082a:	683b      	ldr	r3, [r7, #0]
 800082c:	699a      	ldr	r2, [r3, #24]
			| (uint32_t) I2C_InitStruct->I2C_OwnAddress1);
 800082e:	683b      	ldr	r3, [r7, #0]
 8000830:	691b      	ldr	r3, [r3, #16]
	tmpreg = (uint32_t) ((uint32_t) I2C_InitStruct->I2C_AcknowledgedAddress
 8000832:	4313      	orrs	r3, r2
 8000834:	60fb      	str	r3, [r7, #12]
	/* Write to I2Cx OAR1 */
	I2Cx->OAR1 = tmpreg;
 8000836:	687b      	ldr	r3, [r7, #4]
 8000838:	68fa      	ldr	r2, [r7, #12]
 800083a:	609a      	str	r2, [r3, #8]
	/* Enable Own Address1 acknowledgement */
	I2Cx->OAR1 |= I2C_OAR1_OA1EN;
 800083c:	687b      	ldr	r3, [r7, #4]
 800083e:	689b      	ldr	r3, [r3, #8]
 8000840:	2280      	movs	r2, #128	; 0x80
 8000842:	0212      	lsls	r2, r2, #8
 8000844:	431a      	orrs	r2, r3
 8000846:	687b      	ldr	r3, [r7, #4]
 8000848:	609a      	str	r2, [r3, #8]

	/*---------------------------- I2Cx MODE Configuration ---------------------*/
	/* Configure I2Cx: mode */
	/* Set SMBDEN and SMBHEN bits according to I2C_Mode value */
	tmpreg = I2C_InitStruct->I2C_Mode;
 800084a:	683b      	ldr	r3, [r7, #0]
 800084c:	68db      	ldr	r3, [r3, #12]
 800084e:	60fb      	str	r3, [r7, #12]
	/* Write to I2Cx CR1 */
	I2Cx->CR1 |= tmpreg;
 8000850:	687b      	ldr	r3, [r7, #4]
 8000852:	681a      	ldr	r2, [r3, #0]
 8000854:	68fb      	ldr	r3, [r7, #12]
 8000856:	431a      	orrs	r2, r3
 8000858:	687b      	ldr	r3, [r7, #4]
 800085a:	601a      	str	r2, [r3, #0]

	/*---------------------------- I2Cx ACK Configuration ----------------------*/
	/* Get the I2Cx CR2 value */
	tmpreg = I2Cx->CR2;
 800085c:	687b      	ldr	r3, [r7, #4]
 800085e:	685b      	ldr	r3, [r3, #4]
 8000860:	60fb      	str	r3, [r7, #12]
	/* Clear I2Cx CR2 register */
	tmpreg &= CR2_CLEAR_MASK;
 8000862:	68fb      	ldr	r3, [r7, #12]
 8000864:	4a09      	ldr	r2, [pc, #36]	; (800088c <I2C_Init+0xcc>)
 8000866:	4013      	ands	r3, r2
 8000868:	60fb      	str	r3, [r7, #12]
	/* Configure I2Cx: acknowledgement */
	/* Set NACK bit according to I2C_Ack value */
	tmpreg |= I2C_InitStruct->I2C_Ack;
 800086a:	683b      	ldr	r3, [r7, #0]
 800086c:	695b      	ldr	r3, [r3, #20]
 800086e:	68fa      	ldr	r2, [r7, #12]
 8000870:	4313      	orrs	r3, r2
 8000872:	60fb      	str	r3, [r7, #12]
	/* Write to I2Cx CR2 */
	I2Cx->CR2 = tmpreg;
 8000874:	687b      	ldr	r3, [r7, #4]
 8000876:	68fa      	ldr	r2, [r7, #12]
 8000878:	605a      	str	r2, [r3, #4]
}
 800087a:	46c0      	nop			; (mov r8, r8)
 800087c:	46bd      	mov	sp, r7
 800087e:	b004      	add	sp, #16
 8000880:	bd80      	pop	{r7, pc}
 8000882:	46c0      	nop			; (mov r8, r8)
 8000884:	00cfe0ff 	.word	0x00cfe0ff
 8000888:	f0ffffff 	.word	0xf0ffffff
 800088c:	07ff7fff 	.word	0x07ff7fff

08000890 <I2C_Cmd>:
 * @param  I2Cx: where x can be 1 or 2 to select the I2C peripheral.
 * @param  NewState: new state of the I2Cx peripheral. 
 *          This parameter can be: ENABLE or DISABLE.
 * @retval None
 */
void I2C_Cmd(I2C_TypeDef *I2Cx, FunctionalState NewState) {
 8000890:	b580      	push	{r7, lr}
 8000892:	b082      	sub	sp, #8
 8000894:	af00      	add	r7, sp, #0
 8000896:	6078      	str	r0, [r7, #4]
 8000898:	000a      	movs	r2, r1
 800089a:	1cfb      	adds	r3, r7, #3
 800089c:	701a      	strb	r2, [r3, #0]
	/* Check the parameters */
	assert_param(IS_I2C_ALL_PERIPH(I2Cx));
	assert_param(IS_FUNCTIONAL_STATE(NewState));
	if (NewState != DISABLE) {
 800089e:	1cfb      	adds	r3, r7, #3
 80008a0:	781b      	ldrb	r3, [r3, #0]
 80008a2:	2b00      	cmp	r3, #0
 80008a4:	d006      	beq.n	80008b4 <I2C_Cmd+0x24>
		/* Enable the selected I2C peripheral */
		I2Cx->CR1 |= I2C_CR1_PE;
 80008a6:	687b      	ldr	r3, [r7, #4]
 80008a8:	681b      	ldr	r3, [r3, #0]
 80008aa:	2201      	movs	r2, #1
 80008ac:	431a      	orrs	r2, r3
 80008ae:	687b      	ldr	r3, [r7, #4]
 80008b0:	601a      	str	r2, [r3, #0]
	} else {
		/* Disable the selected I2C peripheral */
		I2Cx->CR1 &= (uint32_t) ~((uint32_t) I2C_CR1_PE);
	}
}
 80008b2:	e006      	b.n	80008c2 <I2C_Cmd+0x32>
		I2Cx->CR1 &= (uint32_t) ~((uint32_t) I2C_CR1_PE);
 80008b4:	687b      	ldr	r3, [r7, #4]
 80008b6:	681b      	ldr	r3, [r3, #0]
 80008b8:	2201      	movs	r2, #1
 80008ba:	4393      	bics	r3, r2
 80008bc:	001a      	movs	r2, r3
 80008be:	687b      	ldr	r3, [r7, #4]
 80008c0:	601a      	str	r2, [r3, #0]
}
 80008c2:	46c0      	nop			; (mov r8, r8)
 80008c4:	46bd      	mov	sp, r7
 80008c6:	b002      	add	sp, #8
 80008c8:	bd80      	pop	{r7, pc}
	...

080008cc <I2C_TransferHandling>:
 *            @arg I2C_Generate_Start_Read: Generate Restart for read request.
 *            @arg I2C_Generate_Start_Write: Generate Restart for write request.
 * @retval None
 */
void I2C_TransferHandling(I2C_TypeDef *I2Cx, uint16_t Address,
		uint8_t Number_Bytes, uint32_t ReloadEndMode, uint32_t StartStopMode) {
 80008cc:	b590      	push	{r4, r7, lr}
 80008ce:	b087      	sub	sp, #28
 80008d0:	af00      	add	r7, sp, #0
 80008d2:	60f8      	str	r0, [r7, #12]
 80008d4:	0008      	movs	r0, r1
 80008d6:	0011      	movs	r1, r2
 80008d8:	607b      	str	r3, [r7, #4]
 80008da:	240a      	movs	r4, #10
 80008dc:	193b      	adds	r3, r7, r4
 80008de:	1c02      	adds	r2, r0, #0
 80008e0:	801a      	strh	r2, [r3, #0]
 80008e2:	2009      	movs	r0, #9
 80008e4:	183b      	adds	r3, r7, r0
 80008e6:	1c0a      	adds	r2, r1, #0
 80008e8:	701a      	strb	r2, [r3, #0]
	uint32_t tmpreg = 0;
 80008ea:	2300      	movs	r3, #0
 80008ec:	617b      	str	r3, [r7, #20]
	assert_param(IS_I2C_SLAVE_ADDRESS(Address));
	assert_param(IS_RELOAD_END_MODE(ReloadEndMode));
	assert_param(IS_START_STOP_MODE(StartStopMode));

	/* Get the CR2 register value */
	tmpreg = I2Cx->CR2;
 80008ee:	68fb      	ldr	r3, [r7, #12]
 80008f0:	685b      	ldr	r3, [r3, #4]
 80008f2:	617b      	str	r3, [r7, #20]

	/* clear tmpreg specific bits */
	tmpreg &= (uint32_t) ~((uint32_t) (I2C_CR2_SADD | I2C_CR2_NBYTES
 80008f4:	697b      	ldr	r3, [r7, #20]
 80008f6:	4a0e      	ldr	r2, [pc, #56]	; (8000930 <I2C_TransferHandling+0x64>)
 80008f8:	4013      	ands	r3, r2
 80008fa:	617b      	str	r3, [r7, #20]
			| I2C_CR2_RELOAD | I2C_CR2_AUTOEND | I2C_CR2_RD_WRN | I2C_CR2_START
			| I2C_CR2_STOP));

	/* update tmpreg */
	tmpreg |= (uint32_t) (((uint32_t) Address & I2C_CR2_SADD)
 80008fc:	193b      	adds	r3, r7, r4
 80008fe:	881b      	ldrh	r3, [r3, #0]
 8000900:	059b      	lsls	r3, r3, #22
 8000902:	0d9a      	lsrs	r2, r3, #22
			| (((uint32_t) Number_Bytes << 16) & I2C_CR2_NBYTES)
 8000904:	183b      	adds	r3, r7, r0
 8000906:	781b      	ldrb	r3, [r3, #0]
 8000908:	0419      	lsls	r1, r3, #16
 800090a:	23ff      	movs	r3, #255	; 0xff
 800090c:	041b      	lsls	r3, r3, #16
 800090e:	400b      	ands	r3, r1
 8000910:	431a      	orrs	r2, r3
			| (uint32_t) ReloadEndMode | (uint32_t) StartStopMode);
 8000912:	687b      	ldr	r3, [r7, #4]
 8000914:	431a      	orrs	r2, r3
	tmpreg |= (uint32_t) (((uint32_t) Address & I2C_CR2_SADD)
 8000916:	6abb      	ldr	r3, [r7, #40]	; 0x28
 8000918:	4313      	orrs	r3, r2
 800091a:	697a      	ldr	r2, [r7, #20]
 800091c:	4313      	orrs	r3, r2
 800091e:	617b      	str	r3, [r7, #20]

	/* update CR2 register */
	I2Cx->CR2 = tmpreg;
 8000920:	68fb      	ldr	r3, [r7, #12]
 8000922:	697a      	ldr	r2, [r7, #20]
 8000924:	605a      	str	r2, [r3, #4]
}
 8000926:	46c0      	nop			; (mov r8, r8)
 8000928:	46bd      	mov	sp, r7
 800092a:	b007      	add	sp, #28
 800092c:	bd90      	pop	{r4, r7, pc}
 800092e:	46c0      	nop			; (mov r8, r8)
 8000930:	fc009800 	.word	0xfc009800

08000934 <I2C_SendData>:
 * @brief  Sends a data byte through the I2Cx peripheral.
 * @param  I2Cx: where x can be 1 or 2 to select the I2C peripheral.
 * @param  Data: Byte to be transmitted..
 * @retval None
 */
void I2C_SendData(I2C_TypeDef *I2Cx, uint8_t Data) {
 8000934:	b580      	push	{r7, lr}
 8000936:	b082      	sub	sp, #8
 8000938:	af00      	add	r7, sp, #0
 800093a:	6078      	str	r0, [r7, #4]
 800093c:	000a      	movs	r2, r1
 800093e:	1cfb      	adds	r3, r7, #3
 8000940:	701a      	strb	r2, [r3, #0]
	/* Check the parameters */
	assert_param(IS_I2C_ALL_PERIPH(I2Cx));

	/* Write in the DR register the data to be sent */
	I2Cx->TXDR = (uint8_t) Data;
 8000942:	1cfb      	adds	r3, r7, #3
 8000944:	781a      	ldrb	r2, [r3, #0]
 8000946:	687b      	ldr	r3, [r7, #4]
 8000948:	629a      	str	r2, [r3, #40]	; 0x28
}
 800094a:	46c0      	nop			; (mov r8, r8)
 800094c:	46bd      	mov	sp, r7
 800094e:	b002      	add	sp, #8
 8000950:	bd80      	pop	{r7, pc}

08000952 <I2C_ReceiveData>:
/**
 * @brief  Returns the most recent received data by the I2Cx peripheral.
 * @param  I2Cx: where x can be 1 or 2 to select the I2C peripheral.
 * @retval The value of the received data.
 */
uint8_t I2C_ReceiveData(I2C_TypeDef *I2Cx) {
 8000952:	b580      	push	{r7, lr}
 8000954:	b082      	sub	sp, #8
 8000956:	af00      	add	r7, sp, #0
 8000958:	6078      	str	r0, [r7, #4]
	/* Check the parameters */
	assert_param(IS_I2C_ALL_PERIPH(I2Cx));

	/* Return the data in the DR register */
	return (uint8_t) I2Cx->RXDR;
 800095a:	687b      	ldr	r3, [r7, #4]
 800095c:	6a5b      	ldr	r3, [r3, #36]	; 0x24
 800095e:	b2db      	uxtb	r3, r3
}
 8000960:	0018      	movs	r0, r3
 8000962:	46bd      	mov	sp, r7
 8000964:	b002      	add	sp, #8
 8000966:	bd80      	pop	{r7, pc}

08000968 <I2C_GetFlagStatus>:
 *            @arg I2C_FLAG_TIMEOUT: Timeout or Tlow detection flag
 *            @arg I2C_FLAG_ALERT: SMBus Alert
 *            @arg I2C_FLAG_BUSY: Bus busy
 * @retval The new state of I2C_FLAG (SET or RESET).
 */
FlagStatus I2C_GetFlagStatus(I2C_TypeDef *I2Cx, uint32_t I2C_FLAG) {
 8000968:	b580      	push	{r7, lr}
 800096a:	b084      	sub	sp, #16
 800096c:	af00      	add	r7, sp, #0
 800096e:	6078      	str	r0, [r7, #4]
 8000970:	6039      	str	r1, [r7, #0]
	uint32_t tmpreg = 0;
 8000972:	2300      	movs	r3, #0
 8000974:	60bb      	str	r3, [r7, #8]
	FlagStatus bitstatus = RESET;
 8000976:	210f      	movs	r1, #15
 8000978:	187b      	adds	r3, r7, r1
 800097a:	2200      	movs	r2, #0
 800097c:	701a      	strb	r2, [r3, #0]
	/* Check the parameters */
	assert_param(IS_I2C_ALL_PERIPH(I2Cx));
	assert_param(IS_I2C_GET_FLAG(I2C_FLAG));

	/* Get the ISR register value */
	tmpreg = I2Cx->ISR;
 800097e:	687b      	ldr	r3, [r7, #4]
 8000980:	699b      	ldr	r3, [r3, #24]
 8000982:	60bb      	str	r3, [r7, #8]

	/* Get flag status */
	tmpreg &= I2C_FLAG;
 8000984:	68bb      	ldr	r3, [r7, #8]
 8000986:	683a      	ldr	r2, [r7, #0]
 8000988:	4013      	ands	r3, r2
 800098a:	60bb      	str	r3, [r7, #8]

	if (tmpreg != 0) {
 800098c:	68bb      	ldr	r3, [r7, #8]
 800098e:	2b00      	cmp	r3, #0
 8000990:	d003      	beq.n	800099a <I2C_GetFlagStatus+0x32>
		/* I2C_FLAG is set */
		bitstatus = SET;
 8000992:	187b      	adds	r3, r7, r1
 8000994:	2201      	movs	r2, #1
 8000996:	701a      	strb	r2, [r3, #0]
 8000998:	e003      	b.n	80009a2 <I2C_GetFlagStatus+0x3a>
	} else {
		/* I2C_FLAG is reset */
		bitstatus = RESET;
 800099a:	230f      	movs	r3, #15
 800099c:	18fb      	adds	r3, r7, r3
 800099e:	2200      	movs	r2, #0
 80009a0:	701a      	strb	r2, [r3, #0]
	}
	return bitstatus;
 80009a2:	230f      	movs	r3, #15
 80009a4:	18fb      	adds	r3, r7, r3
 80009a6:	781b      	ldrb	r3, [r3, #0]
}
 80009a8:	0018      	movs	r0, r3
 80009aa:	46bd      	mov	sp, r7
 80009ac:	b004      	add	sp, #16
 80009ae:	bd80      	pop	{r7, pc}

080009b0 <I2C_ClearFlag>:
 *            @arg I2C_FLAG_PECERR: PEC error in reception
 *            @arg I2C_FLAG_TIMEOUT: Timeout or Tlow detection flag
 *            @arg I2C_FLAG_ALERT: SMBus Alert
 * @retval The new state of I2C_FLAG (SET or RESET).
 */
void I2C_ClearFlag(I2C_TypeDef *I2Cx, uint32_t I2C_FLAG) {
 80009b0:	b580      	push	{r7, lr}
 80009b2:	b082      	sub	sp, #8
 80009b4:	af00      	add	r7, sp, #0
 80009b6:	6078      	str	r0, [r7, #4]
 80009b8:	6039      	str	r1, [r7, #0]
	/* Check the parameters */
	assert_param(IS_I2C_ALL_PERIPH(I2Cx));
	assert_param(IS_I2C_CLEAR_FLAG(I2C_FLAG));

	/* Clear the selected flag */
	I2Cx->ICR = I2C_FLAG;
 80009ba:	687b      	ldr	r3, [r7, #4]
 80009bc:	683a      	ldr	r2, [r7, #0]
 80009be:	61da      	str	r2, [r3, #28]
}
 80009c0:	46c0      	nop			; (mov r8, r8)
 80009c2:	46bd      	mov	sp, r7
 80009c4:	b002      	add	sp, #8
 80009c6:	bd80      	pop	{r7, pc}

080009c8 <NVIC_Init>:
 *         parameters in the NVIC_InitStruct.
 * @param  NVIC_InitStruct: pointer to a NVIC_InitTypeDef structure that contains
 *         the configuration information for the specified NVIC peripheral.
 * @retval None
 */
void NVIC_Init(NVIC_InitTypeDef *NVIC_InitStruct) {
 80009c8:	b580      	push	{r7, lr}
 80009ca:	b084      	sub	sp, #16
 80009cc:	af00      	add	r7, sp, #0
 80009ce:	6078      	str	r0, [r7, #4]
	uint32_t tmppriority = 0x00;
 80009d0:	2300      	movs	r3, #0
 80009d2:	60fb      	str	r3, [r7, #12]

	/* Check the parameters */
	assert_param(IS_FUNCTIONAL_STATE(NVIC_InitStruct->NVIC_IRQChannelCmd));
	assert_param(IS_NVIC_PRIORITY(NVIC_InitStruct->NVIC_IRQChannelPriority));

	if (NVIC_InitStruct->NVIC_IRQChannelCmd != DISABLE) {
 80009d4:	687b      	ldr	r3, [r7, #4]
 80009d6:	789b      	ldrb	r3, [r3, #2]
 80009d8:	2b00      	cmp	r3, #0
 80009da:	d039      	beq.n	8000a50 <NVIC_Init+0x88>
		/* Compute the Corresponding IRQ Priority --------------------------------*/
		tmppriority = NVIC->IP[NVIC_InitStruct->NVIC_IRQChannel >> 0x02];
 80009dc:	4a24      	ldr	r2, [pc, #144]	; (8000a70 <NVIC_Init+0xa8>)
 80009de:	687b      	ldr	r3, [r7, #4]
 80009e0:	781b      	ldrb	r3, [r3, #0]
 80009e2:	089b      	lsrs	r3, r3, #2
 80009e4:	b2db      	uxtb	r3, r3
 80009e6:	33c0      	adds	r3, #192	; 0xc0
 80009e8:	009b      	lsls	r3, r3, #2
 80009ea:	589b      	ldr	r3, [r3, r2]
 80009ec:	60fb      	str	r3, [r7, #12]
		tmppriority &= (uint32_t) (~(((uint32_t) 0xFF)
				<< ((NVIC_InitStruct->NVIC_IRQChannel & 0x03) * 8)));
 80009ee:	687b      	ldr	r3, [r7, #4]
 80009f0:	781b      	ldrb	r3, [r3, #0]
 80009f2:	001a      	movs	r2, r3
 80009f4:	2303      	movs	r3, #3
 80009f6:	4013      	ands	r3, r2
 80009f8:	00db      	lsls	r3, r3, #3
 80009fa:	22ff      	movs	r2, #255	; 0xff
 80009fc:	409a      	lsls	r2, r3
 80009fe:	0013      	movs	r3, r2
		tmppriority &= (uint32_t) (~(((uint32_t) 0xFF)
 8000a00:	43da      	mvns	r2, r3
 8000a02:	68fb      	ldr	r3, [r7, #12]
 8000a04:	4013      	ands	r3, r2
 8000a06:	60fb      	str	r3, [r7, #12]
		tmppriority |=
				(uint32_t) ((((uint32_t) NVIC_InitStruct->NVIC_IRQChannelPriority
 8000a08:	687b      	ldr	r3, [r7, #4]
 8000a0a:	785b      	ldrb	r3, [r3, #1]
						<< 6) & 0xFF)
 8000a0c:	019b      	lsls	r3, r3, #6
 8000a0e:	22ff      	movs	r2, #255	; 0xff
 8000a10:	401a      	ands	r2, r3
						<< ((NVIC_InitStruct->NVIC_IRQChannel & 0x03) * 8));
 8000a12:	687b      	ldr	r3, [r7, #4]
 8000a14:	781b      	ldrb	r3, [r3, #0]
 8000a16:	0019      	movs	r1, r3
 8000a18:	2303      	movs	r3, #3
 8000a1a:	400b      	ands	r3, r1
 8000a1c:	00db      	lsls	r3, r3, #3
				(uint32_t) ((((uint32_t) NVIC_InitStruct->NVIC_IRQChannelPriority
 8000a1e:	409a      	lsls	r2, r3
 8000a20:	0013      	movs	r3, r2
		tmppriority |=
 8000a22:	68fa      	ldr	r2, [r7, #12]
 8000a24:	4313      	orrs	r3, r2
 8000a26:	60fb      	str	r3, [r7, #12]

		NVIC->IP[NVIC_InitStruct->NVIC_IRQChannel >> 0x02] = tmppriority;
 8000a28:	4911      	ldr	r1, [pc, #68]	; (8000a70 <NVIC_Init+0xa8>)
 8000a2a:	687b      	ldr	r3, [r7, #4]
 8000a2c:	781b      	ldrb	r3, [r3, #0]
 8000a2e:	089b      	lsrs	r3, r3, #2
 8000a30:	b2db      	uxtb	r3, r3
 8000a32:	33c0      	adds	r3, #192	; 0xc0
 8000a34:	009b      	lsls	r3, r3, #2
 8000a36:	68fa      	ldr	r2, [r7, #12]
 8000a38:	505a      	str	r2, [r3, r1]

		/* Enable the Selected IRQ Channels --------------------------------------*/
		NVIC->ISER[0] = (uint32_t) 0x01
				<< (NVIC_InitStruct->NVIC_IRQChannel & (uint8_t) 0x1F);
 8000a3a:	687b      	ldr	r3, [r7, #4]
 8000a3c:	781b      	ldrb	r3, [r3, #0]
 8000a3e:	001a      	movs	r2, r3
 8000a40:	231f      	movs	r3, #31
 8000a42:	401a      	ands	r2, r3
		NVIC->ISER[0] = (uint32_t) 0x01
 8000a44:	4b0a      	ldr	r3, [pc, #40]	; (8000a70 <NVIC_Init+0xa8>)
				<< (NVIC_InitStruct->NVIC_IRQChannel & (uint8_t) 0x1F);
 8000a46:	2101      	movs	r1, #1
 8000a48:	4091      	lsls	r1, r2
 8000a4a:	000a      	movs	r2, r1
		NVIC->ISER[0] = (uint32_t) 0x01
 8000a4c:	601a      	str	r2, [r3, #0]
	} else {
		/* Disable the Selected IRQ Channels -------------------------------------*/
		NVIC->ICER[0] = (uint32_t) 0x01
				<< (NVIC_InitStruct->NVIC_IRQChannel & (uint8_t) 0x1F);
	}
}
 8000a4e:	e00a      	b.n	8000a66 <NVIC_Init+0x9e>
				<< (NVIC_InitStruct->NVIC_IRQChannel & (uint8_t) 0x1F);
 8000a50:	687b      	ldr	r3, [r7, #4]
 8000a52:	781b      	ldrb	r3, [r3, #0]
 8000a54:	001a      	movs	r2, r3
 8000a56:	231f      	movs	r3, #31
 8000a58:	4013      	ands	r3, r2
		NVIC->ICER[0] = (uint32_t) 0x01
 8000a5a:	4905      	ldr	r1, [pc, #20]	; (8000a70 <NVIC_Init+0xa8>)
				<< (NVIC_InitStruct->NVIC_IRQChannel & (uint8_t) 0x1F);
 8000a5c:	2201      	movs	r2, #1
 8000a5e:	409a      	lsls	r2, r3
 8000a60:	0013      	movs	r3, r2
		NVIC->ICER[0] = (uint32_t) 0x01
 8000a62:	2280      	movs	r2, #128	; 0x80
 8000a64:	508b      	str	r3, [r1, r2]
}
 8000a66:	46c0      	nop			; (mov r8, r8)
 8000a68:	46bd      	mov	sp, r7
 8000a6a:	b004      	add	sp, #16
 8000a6c:	bd80      	pop	{r7, pc}
 8000a6e:	46c0      	nop			; (mov r8, r8)
 8000a70:	e000e100 	.word	0xe000e100

08000a74 <SysTick_CLKSourceConfig>:
 *          This parameter can be one of the following values:
 *            @arg SysTick_CLKSource_HCLK_Div8: AHB clock divided by 8 selected as SysTick clock source.
 *            @arg SysTick_CLKSource_HCLK: AHB clock selected as SysTick clock source.
 * @retval None
 */
void SysTick_CLKSourceConfig(uint32_t SysTick_CLKSource) {
 8000a74:	b580      	push	{r7, lr}
 8000a76:	b082      	sub	sp, #8
 8000a78:	af00      	add	r7, sp, #0
 8000a7a:	6078      	str	r0, [r7, #4]
	/* Check the parameters */
	assert_param(IS_SYSTICK_CLK_SOURCE(SysTick_CLKSource));

	if (SysTick_CLKSource == SysTick_CLKSource_HCLK) {
 8000a7c:	687b      	ldr	r3, [r7, #4]
 8000a7e:	2b04      	cmp	r3, #4
 8000a80:	d106      	bne.n	8000a90 <SysTick_CLKSourceConfig+0x1c>
		SysTick->CTRL |= SysTick_CLKSource_HCLK;
 8000a82:	4b08      	ldr	r3, [pc, #32]	; (8000aa4 <SysTick_CLKSourceConfig+0x30>)
 8000a84:	681a      	ldr	r2, [r3, #0]
 8000a86:	4b07      	ldr	r3, [pc, #28]	; (8000aa4 <SysTick_CLKSourceConfig+0x30>)
 8000a88:	2104      	movs	r1, #4
 8000a8a:	430a      	orrs	r2, r1
 8000a8c:	601a      	str	r2, [r3, #0]
	} else {
		SysTick->CTRL &= SysTick_CLKSource_HCLK_Div8;
	}
}
 8000a8e:	e005      	b.n	8000a9c <SysTick_CLKSourceConfig+0x28>
		SysTick->CTRL &= SysTick_CLKSource_HCLK_Div8;
 8000a90:	4b04      	ldr	r3, [pc, #16]	; (8000aa4 <SysTick_CLKSourceConfig+0x30>)
 8000a92:	681a      	ldr	r2, [r3, #0]
 8000a94:	4b03      	ldr	r3, [pc, #12]	; (8000aa4 <SysTick_CLKSourceConfig+0x30>)
 8000a96:	2104      	movs	r1, #4
 8000a98:	438a      	bics	r2, r1
 8000a9a:	601a      	str	r2, [r3, #0]
}
 8000a9c:	46c0      	nop			; (mov r8, r8)
 8000a9e:	46bd      	mov	sp, r7
 8000aa0:	b002      	add	sp, #8
 8000aa2:	bd80      	pop	{r7, pc}
 8000aa4:	e000e010 	.word	0xe000e010

08000aa8 <RCC_AHBPeriphClockCmd>:
 *             @arg RCC_AHBPeriph_DMA1:  DMA1 clock
 * @param  NewState: new state of the specified peripheral clock.
 *          This parameter can be: ENABLE or DISABLE.
 * @retval None
 */
void RCC_AHBPeriphClockCmd(uint32_t RCC_AHBPeriph, FunctionalState NewState) {
 8000aa8:	b580      	push	{r7, lr}
 8000aaa:	b082      	sub	sp, #8
 8000aac:	af00      	add	r7, sp, #0
 8000aae:	6078      	str	r0, [r7, #4]
 8000ab0:	000a      	movs	r2, r1
 8000ab2:	1cfb      	adds	r3, r7, #3
 8000ab4:	701a      	strb	r2, [r3, #0]
	/* Check the parameters */
	assert_param(IS_RCC_AHB_PERIPH(RCC_AHBPeriph));
	assert_param(IS_FUNCTIONAL_STATE(NewState));

	if (NewState != DISABLE) {
 8000ab6:	1cfb      	adds	r3, r7, #3
 8000ab8:	781b      	ldrb	r3, [r3, #0]
 8000aba:	2b00      	cmp	r3, #0
 8000abc:	d006      	beq.n	8000acc <RCC_AHBPeriphClockCmd+0x24>
		RCC->AHBENR |= RCC_AHBPeriph;
 8000abe:	4b09      	ldr	r3, [pc, #36]	; (8000ae4 <RCC_AHBPeriphClockCmd+0x3c>)
 8000ac0:	6959      	ldr	r1, [r3, #20]
 8000ac2:	4b08      	ldr	r3, [pc, #32]	; (8000ae4 <RCC_AHBPeriphClockCmd+0x3c>)
 8000ac4:	687a      	ldr	r2, [r7, #4]
 8000ac6:	430a      	orrs	r2, r1
 8000ac8:	615a      	str	r2, [r3, #20]
	} else {
		RCC->AHBENR &= ~RCC_AHBPeriph;
	}
}
 8000aca:	e006      	b.n	8000ada <RCC_AHBPeriphClockCmd+0x32>
		RCC->AHBENR &= ~RCC_AHBPeriph;
 8000acc:	4b05      	ldr	r3, [pc, #20]	; (8000ae4 <RCC_AHBPeriphClockCmd+0x3c>)
 8000ace:	695a      	ldr	r2, [r3, #20]
 8000ad0:	687b      	ldr	r3, [r7, #4]
 8000ad2:	43d9      	mvns	r1, r3
 8000ad4:	4b03      	ldr	r3, [pc, #12]	; (8000ae4 <RCC_AHBPeriphClockCmd+0x3c>)
 8000ad6:	400a      	ands	r2, r1
 8000ad8:	615a      	str	r2, [r3, #20]
}
 8000ada:	46c0      	nop			; (mov r8, r8)
 8000adc:	46bd      	mov	sp, r7
 8000ade:	b002      	add	sp, #8
 8000ae0:	bd80      	pop	{r7, pc}
 8000ae2:	46c0      	nop			; (mov r8, r8)
 8000ae4:	40021000 	.word	0x40021000

08000ae8 <RCC_APB2PeriphClockCmd>:
 *             @arg RCC_APB2Periph_DBGMCU: DBGMCU clock
 * @param  NewState: new state of the specified peripheral clock.
 *          This parameter can be: ENABLE or DISABLE.
 * @retval None
 */
void RCC_APB2PeriphClockCmd(uint32_t RCC_APB2Periph, FunctionalState NewState) {
 8000ae8:	b580      	push	{r7, lr}
 8000aea:	b082      	sub	sp, #8
 8000aec:	af00      	add	r7, sp, #0
 8000aee:	6078      	str	r0, [r7, #4]
 8000af0:	000a      	movs	r2, r1
 8000af2:	1cfb      	adds	r3, r7, #3
 8000af4:	701a      	strb	r2, [r3, #0]
	/* Check the parameters */
	assert_param(IS_RCC_APB2_PERIPH(RCC_APB2Periph));
	assert_param(IS_FUNCTIONAL_STATE(NewState));

	if (NewState != DISABLE) {
 8000af6:	1cfb      	adds	r3, r7, #3
 8000af8:	781b      	ldrb	r3, [r3, #0]
 8000afa:	2b00      	cmp	r3, #0
 8000afc:	d006      	beq.n	8000b0c <RCC_APB2PeriphClockCmd+0x24>
		RCC->APB2ENR |= RCC_APB2Periph;
 8000afe:	4b09      	ldr	r3, [pc, #36]	; (8000b24 <RCC_APB2PeriphClockCmd+0x3c>)
 8000b00:	6999      	ldr	r1, [r3, #24]
 8000b02:	4b08      	ldr	r3, [pc, #32]	; (8000b24 <RCC_APB2PeriphClockCmd+0x3c>)
 8000b04:	687a      	ldr	r2, [r7, #4]
 8000b06:	430a      	orrs	r2, r1
 8000b08:	619a      	str	r2, [r3, #24]
	} else {
		RCC->APB2ENR &= ~RCC_APB2Periph;
	}
}
 8000b0a:	e006      	b.n	8000b1a <RCC_APB2PeriphClockCmd+0x32>
		RCC->APB2ENR &= ~RCC_APB2Periph;
 8000b0c:	4b05      	ldr	r3, [pc, #20]	; (8000b24 <RCC_APB2PeriphClockCmd+0x3c>)
 8000b0e:	699a      	ldr	r2, [r3, #24]
 8000b10:	687b      	ldr	r3, [r7, #4]
 8000b12:	43d9      	mvns	r1, r3
 8000b14:	4b03      	ldr	r3, [pc, #12]	; (8000b24 <RCC_APB2PeriphClockCmd+0x3c>)
 8000b16:	400a      	ands	r2, r1
 8000b18:	619a      	str	r2, [r3, #24]
}
 8000b1a:	46c0      	nop			; (mov r8, r8)
 8000b1c:	46bd      	mov	sp, r7
 8000b1e:	b002      	add	sp, #8
 8000b20:	bd80      	pop	{r7, pc}
 8000b22:	46c0      	nop			; (mov r8, r8)
 8000b24:	40021000 	.word	0x40021000

08000b28 <RCC_APB1PeriphClockCmd>:
 *           @arg RCC_APB1Periph_CEC:    CEC clock, applicable only for STM32F051, STM32F042 and STM32F072 devices                               
 * @param  NewState: new state of the specified peripheral clock.
 *          This parameter can be: ENABLE or DISABLE.
 * @retval None
 */
void RCC_APB1PeriphClockCmd(uint32_t RCC_APB1Periph, FunctionalState NewState) {
 8000b28:	b580      	push	{r7, lr}
 8000b2a:	b082      	sub	sp, #8
 8000b2c:	af00      	add	r7, sp, #0
 8000b2e:	6078      	str	r0, [r7, #4]
 8000b30:	000a      	movs	r2, r1
 8000b32:	1cfb      	adds	r3, r7, #3
 8000b34:	701a      	strb	r2, [r3, #0]
	/* Check the parameters */
	assert_param(IS_RCC_APB1_PERIPH(RCC_APB1Periph));
	assert_param(IS_FUNCTIONAL_STATE(NewState));

	if (NewState != DISABLE) {
 8000b36:	1cfb      	adds	r3, r7, #3
 8000b38:	781b      	ldrb	r3, [r3, #0]
 8000b3a:	2b00      	cmp	r3, #0
 8000b3c:	d006      	beq.n	8000b4c <RCC_APB1PeriphClockCmd+0x24>
		RCC->APB1ENR |= RCC_APB1Periph;
 8000b3e:	4b09      	ldr	r3, [pc, #36]	; (8000b64 <RCC_APB1PeriphClockCmd+0x3c>)
 8000b40:	69d9      	ldr	r1, [r3, #28]
 8000b42:	4b08      	ldr	r3, [pc, #32]	; (8000b64 <RCC_APB1PeriphClockCmd+0x3c>)
 8000b44:	687a      	ldr	r2, [r7, #4]
 8000b46:	430a      	orrs	r2, r1
 8000b48:	61da      	str	r2, [r3, #28]
	} else {
		RCC->APB1ENR &= ~RCC_APB1Periph;
	}
}
 8000b4a:	e006      	b.n	8000b5a <RCC_APB1PeriphClockCmd+0x32>
		RCC->APB1ENR &= ~RCC_APB1Periph;
 8000b4c:	4b05      	ldr	r3, [pc, #20]	; (8000b64 <RCC_APB1PeriphClockCmd+0x3c>)
 8000b4e:	69da      	ldr	r2, [r3, #28]
 8000b50:	687b      	ldr	r3, [r7, #4]
 8000b52:	43d9      	mvns	r1, r3
 8000b54:	4b03      	ldr	r3, [pc, #12]	; (8000b64 <RCC_APB1PeriphClockCmd+0x3c>)
 8000b56:	400a      	ands	r2, r1
 8000b58:	61da      	str	r2, [r3, #28]
}
 8000b5a:	46c0      	nop			; (mov r8, r8)
 8000b5c:	46bd      	mov	sp, r7
 8000b5e:	b002      	add	sp, #8
 8000b60:	bd80      	pop	{r7, pc}
 8000b62:	46c0      	nop			; (mov r8, r8)
 8000b64:	40021000 	.word	0x40021000

08000b68 <RCC_APB1PeriphResetCmd>:
 *           @arg RCC_APB1Periph_CEC:    CEC clock, applicable only for STM32F051 and STM32F072 devices  
 * @param  NewState: new state of the specified peripheral clock.
 *          This parameter can be: ENABLE or DISABLE.
 * @retval None
 */
void RCC_APB1PeriphResetCmd(uint32_t RCC_APB1Periph, FunctionalState NewState) {
 8000b68:	b580      	push	{r7, lr}
 8000b6a:	b082      	sub	sp, #8
 8000b6c:	af00      	add	r7, sp, #0
 8000b6e:	6078      	str	r0, [r7, #4]
 8000b70:	000a      	movs	r2, r1
 8000b72:	1cfb      	adds	r3, r7, #3
 8000b74:	701a      	strb	r2, [r3, #0]
	/* Check the parameters */
	assert_param(IS_RCC_APB1_PERIPH(RCC_APB1Periph));
	assert_param(IS_FUNCTIONAL_STATE(NewState));

	if (NewState != DISABLE) {
 8000b76:	1cfb      	adds	r3, r7, #3
 8000b78:	781b      	ldrb	r3, [r3, #0]
 8000b7a:	2b00      	cmp	r3, #0
 8000b7c:	d006      	beq.n	8000b8c <RCC_APB1PeriphResetCmd+0x24>
		RCC->APB1RSTR |= RCC_APB1Periph;
 8000b7e:	4b09      	ldr	r3, [pc, #36]	; (8000ba4 <RCC_APB1PeriphResetCmd+0x3c>)
 8000b80:	6919      	ldr	r1, [r3, #16]
 8000b82:	4b08      	ldr	r3, [pc, #32]	; (8000ba4 <RCC_APB1PeriphResetCmd+0x3c>)
 8000b84:	687a      	ldr	r2, [r7, #4]
 8000b86:	430a      	orrs	r2, r1
 8000b88:	611a      	str	r2, [r3, #16]
	} else {
		RCC->APB1RSTR &= ~RCC_APB1Periph;
	}
}
 8000b8a:	e006      	b.n	8000b9a <RCC_APB1PeriphResetCmd+0x32>
		RCC->APB1RSTR &= ~RCC_APB1Periph;
 8000b8c:	4b05      	ldr	r3, [pc, #20]	; (8000ba4 <RCC_APB1PeriphResetCmd+0x3c>)
 8000b8e:	691a      	ldr	r2, [r3, #16]
 8000b90:	687b      	ldr	r3, [r7, #4]
 8000b92:	43d9      	mvns	r1, r3
 8000b94:	4b03      	ldr	r3, [pc, #12]	; (8000ba4 <RCC_APB1PeriphResetCmd+0x3c>)
 8000b96:	400a      	ands	r2, r1
 8000b98:	611a      	str	r2, [r3, #16]
}
 8000b9a:	46c0      	nop			; (mov r8, r8)
 8000b9c:	46bd      	mov	sp, r7
 8000b9e:	b002      	add	sp, #8
 8000ba0:	bd80      	pop	{r7, pc}
 8000ba2:	46c0      	nop			; (mov r8, r8)
 8000ba4:	40021000 	.word	0x40021000

08000ba8 <SYSCFG_EXTILineConfig>:
 *         For STM32F072: (0..15) for GPIOA, GPIOB, GPIOC, GPIOD, GPIOE, (0..10) for GPIOF.
 *         For STM32F031: (0..15) for GPIOA, GPIOB, (13..15) for GPIOC and (0..1, 6..7) for GPIOF.
 * @retval None
 */
void SYSCFG_EXTILineConfig(uint8_t EXTI_PortSourceGPIOx,
		uint8_t EXTI_PinSourcex) {
 8000ba8:	b580      	push	{r7, lr}
 8000baa:	b084      	sub	sp, #16
 8000bac:	af00      	add	r7, sp, #0
 8000bae:	0002      	movs	r2, r0
 8000bb0:	1dfb      	adds	r3, r7, #7
 8000bb2:	701a      	strb	r2, [r3, #0]
 8000bb4:	1dbb      	adds	r3, r7, #6
 8000bb6:	1c0a      	adds	r2, r1, #0
 8000bb8:	701a      	strb	r2, [r3, #0]
	uint32_t tmp = 0x00;
 8000bba:	2300      	movs	r3, #0
 8000bbc:	60fb      	str	r3, [r7, #12]

	/* Check the parameters */
	assert_param(IS_EXTI_PORT_SOURCE(EXTI_PortSourceGPIOx));
	assert_param(IS_EXTI_PIN_SOURCE(EXTI_PinSourcex));

	tmp = ((uint32_t) 0x0F) << (0x04 * (EXTI_PinSourcex & (uint8_t) 0x03));
 8000bbe:	1dbb      	adds	r3, r7, #6
 8000bc0:	781b      	ldrb	r3, [r3, #0]
 8000bc2:	2203      	movs	r2, #3
 8000bc4:	4013      	ands	r3, r2
 8000bc6:	009b      	lsls	r3, r3, #2
 8000bc8:	220f      	movs	r2, #15
 8000bca:	409a      	lsls	r2, r3
 8000bcc:	0013      	movs	r3, r2
 8000bce:	60fb      	str	r3, [r7, #12]
	SYSCFG->EXTICR[EXTI_PinSourcex >> 0x02] &= ~tmp;
 8000bd0:	4a18      	ldr	r2, [pc, #96]	; (8000c34 <SYSCFG_EXTILineConfig+0x8c>)
 8000bd2:	1dbb      	adds	r3, r7, #6
 8000bd4:	781b      	ldrb	r3, [r3, #0]
 8000bd6:	089b      	lsrs	r3, r3, #2
 8000bd8:	b2db      	uxtb	r3, r3
 8000bda:	3302      	adds	r3, #2
 8000bdc:	009b      	lsls	r3, r3, #2
 8000bde:	589b      	ldr	r3, [r3, r2]
 8000be0:	68fa      	ldr	r2, [r7, #12]
 8000be2:	43d2      	mvns	r2, r2
 8000be4:	4813      	ldr	r0, [pc, #76]	; (8000c34 <SYSCFG_EXTILineConfig+0x8c>)
 8000be6:	1db9      	adds	r1, r7, #6
 8000be8:	7809      	ldrb	r1, [r1, #0]
 8000bea:	0889      	lsrs	r1, r1, #2
 8000bec:	b2c9      	uxtb	r1, r1
 8000bee:	401a      	ands	r2, r3
 8000bf0:	1c8b      	adds	r3, r1, #2
 8000bf2:	009b      	lsls	r3, r3, #2
 8000bf4:	501a      	str	r2, [r3, r0]
	SYSCFG->EXTICR[EXTI_PinSourcex >> 0x02] |=
 8000bf6:	4a0f      	ldr	r2, [pc, #60]	; (8000c34 <SYSCFG_EXTILineConfig+0x8c>)
 8000bf8:	1dbb      	adds	r3, r7, #6
 8000bfa:	781b      	ldrb	r3, [r3, #0]
 8000bfc:	089b      	lsrs	r3, r3, #2
 8000bfe:	b2db      	uxtb	r3, r3
 8000c00:	3302      	adds	r3, #2
 8000c02:	009b      	lsls	r3, r3, #2
 8000c04:	589a      	ldr	r2, [r3, r2]
			(((uint32_t) EXTI_PortSourceGPIOx)
 8000c06:	1dfb      	adds	r3, r7, #7
 8000c08:	7819      	ldrb	r1, [r3, #0]
					<< (0x04 * (EXTI_PinSourcex & (uint8_t) 0x03)));
 8000c0a:	1dbb      	adds	r3, r7, #6
 8000c0c:	781b      	ldrb	r3, [r3, #0]
 8000c0e:	2003      	movs	r0, #3
 8000c10:	4003      	ands	r3, r0
 8000c12:	009b      	lsls	r3, r3, #2
 8000c14:	4099      	lsls	r1, r3
 8000c16:	000b      	movs	r3, r1
	SYSCFG->EXTICR[EXTI_PinSourcex >> 0x02] |=
 8000c18:	4806      	ldr	r0, [pc, #24]	; (8000c34 <SYSCFG_EXTILineConfig+0x8c>)
 8000c1a:	1db9      	adds	r1, r7, #6
 8000c1c:	7809      	ldrb	r1, [r1, #0]
 8000c1e:	0889      	lsrs	r1, r1, #2
 8000c20:	b2c9      	uxtb	r1, r1
 8000c22:	431a      	orrs	r2, r3
 8000c24:	1c8b      	adds	r3, r1, #2
 8000c26:	009b      	lsls	r3, r3, #2
 8000c28:	501a      	str	r2, [r3, r0]
}
 8000c2a:	46c0      	nop			; (mov r8, r8)
 8000c2c:	46bd      	mov	sp, r7
 8000c2e:	b004      	add	sp, #16
 8000c30:	bd80      	pop	{r7, pc}
 8000c32:	46c0      	nop			; (mov r8, r8)
 8000c34:	40010000 	.word	0x40010000

08000c38 <AppMgmt_AppInit>:
uint8_t app_active = 0;
bool	app_run = false;
#define APP_COUNT  	4

void AppMgmt_AppInit()
{
 8000c38:	b580      	push	{r7, lr}
 8000c3a:	af00      	add	r7, sp, #0
	switch(app_active)
 8000c3c:	4b12      	ldr	r3, [pc, #72]	; (8000c88 <AppMgmt_AppInit+0x50>)
 8000c3e:	781b      	ldrb	r3, [r3, #0]
 8000c40:	2b03      	cmp	r3, #3
 8000c42:	d015      	beq.n	8000c70 <AppMgmt_AppInit+0x38>
 8000c44:	dc19      	bgt.n	8000c7a <AppMgmt_AppInit+0x42>
 8000c46:	2b02      	cmp	r3, #2
 8000c48:	d00d      	beq.n	8000c66 <AppMgmt_AppInit+0x2e>
 8000c4a:	dc16      	bgt.n	8000c7a <AppMgmt_AppInit+0x42>
 8000c4c:	2b00      	cmp	r3, #0
 8000c4e:	d002      	beq.n	8000c56 <AppMgmt_AppInit+0x1e>
 8000c50:	2b01      	cmp	r3, #1
 8000c52:	d005      	beq.n	8000c60 <AppMgmt_AppInit+0x28>
 8000c54:	e011      	b.n	8000c7a <AppMgmt_AppInit+0x42>
	{
		case 0:
			PovD_DeInit();
 8000c56:	f000 fa4c 	bl	80010f2 <PovD_DeInit>
			Playground_Init();
 8000c5a:	f000 fa5d 	bl	8001118 <Playground_Init>
			break;
 8000c5e:	e00c      	b.n	8000c7a <AppMgmt_AppInit+0x42>
		case 1:
			PovD_Init();
 8000c60:	f000 fa2c 	bl	80010bc <PovD_Init>
			break;
 8000c64:	e009      	b.n	8000c7a <AppMgmt_AppInit+0x42>
		case 2:
			PovD_DeInit();
 8000c66:	f000 fa44 	bl	80010f2 <PovD_DeInit>
			Level_Init();
 8000c6a:	f000 f98d 	bl	8000f88 <Level_Init>
			break;
 8000c6e:	e004      	b.n	8000c7a <AppMgmt_AppInit+0x42>
		case 3:
			PovD_DeInit();
 8000c70:	f000 fa3f 	bl	80010f2 <PovD_DeInit>
			ColorPicker_Init();
 8000c74:	f000 f868 	bl	8000d48 <ColorPicker_Init>
			break;
 8000c78:	46c0      	nop			; (mov r8, r8)

	}
	app_run = true;
 8000c7a:	4b04      	ldr	r3, [pc, #16]	; (8000c8c <AppMgmt_AppInit+0x54>)
 8000c7c:	2201      	movs	r2, #1
 8000c7e:	701a      	strb	r2, [r3, #0]
}
 8000c80:	46c0      	nop			; (mov r8, r8)
 8000c82:	46bd      	mov	sp, r7
 8000c84:	bd80      	pop	{r7, pc}
 8000c86:	46c0      	nop			; (mov r8, r8)
 8000c88:	20000038 	.word	0x20000038
 8000c8c:	20000039 	.word	0x20000039

08000c90 <AppMgmt_AppExec>:

void AppMgmt_AppExec()
{
 8000c90:	b580      	push	{r7, lr}
 8000c92:	af00      	add	r7, sp, #0
	if(!app_run)
 8000c94:	4b11      	ldr	r3, [pc, #68]	; (8000cdc <AppMgmt_AppExec+0x4c>)
 8000c96:	781b      	ldrb	r3, [r3, #0]
 8000c98:	2201      	movs	r2, #1
 8000c9a:	4053      	eors	r3, r2
 8000c9c:	b2db      	uxtb	r3, r3
 8000c9e:	2b00      	cmp	r3, #0
 8000ca0:	d118      	bne.n	8000cd4 <AppMgmt_AppExec+0x44>
	{
		return;
	}
	switch(app_active)
 8000ca2:	4b0f      	ldr	r3, [pc, #60]	; (8000ce0 <AppMgmt_AppExec+0x50>)
 8000ca4:	781b      	ldrb	r3, [r3, #0]
 8000ca6:	2b03      	cmp	r3, #3
 8000ca8:	d011      	beq.n	8000cce <AppMgmt_AppExec+0x3e>
 8000caa:	dc14      	bgt.n	8000cd6 <AppMgmt_AppExec+0x46>
 8000cac:	2b02      	cmp	r3, #2
 8000cae:	d00b      	beq.n	8000cc8 <AppMgmt_AppExec+0x38>
 8000cb0:	dc11      	bgt.n	8000cd6 <AppMgmt_AppExec+0x46>
 8000cb2:	2b00      	cmp	r3, #0
 8000cb4:	d002      	beq.n	8000cbc <AppMgmt_AppExec+0x2c>
 8000cb6:	2b01      	cmp	r3, #1
 8000cb8:	d003      	beq.n	8000cc2 <AppMgmt_AppExec+0x32>
 8000cba:	e00c      	b.n	8000cd6 <AppMgmt_AppExec+0x46>
	{
	case 0:
		Playground_Exec();
 8000cbc:	f000 fa4e 	bl	800115c <Playground_Exec>
		break;
 8000cc0:	e009      	b.n	8000cd6 <AppMgmt_AppExec+0x46>
	case 1:
		PovD_Exec();
 8000cc2:	f000 fa11 	bl	80010e8 <PovD_Exec>
		break;
 8000cc6:	e006      	b.n	8000cd6 <AppMgmt_AppExec+0x46>
	case 2:
		Level_Exec();
 8000cc8:	f000 f974 	bl	8000fb4 <Level_Exec>
		break;
 8000ccc:	e003      	b.n	8000cd6 <AppMgmt_AppExec+0x46>
	case 3:
		ColorPicker_Exec();
 8000cce:	f000 f861 	bl	8000d94 <ColorPicker_Exec>
		break;
 8000cd2:	e000      	b.n	8000cd6 <AppMgmt_AppExec+0x46>
		return;
 8000cd4:	46c0      	nop			; (mov r8, r8)
	}
}
 8000cd6:	46bd      	mov	sp, r7
 8000cd8:	bd80      	pop	{r7, pc}
 8000cda:	46c0      	nop			; (mov r8, r8)
 8000cdc:	20000039 	.word	0x20000039
 8000ce0:	20000038 	.word	0x20000038

08000ce4 <AppMgmt_CycleApps>:


void AppMgmt_CycleApps()
{
 8000ce4:	b580      	push	{r7, lr}
 8000ce6:	af00      	add	r7, sp, #0
	Neopixels_setColor(COLOR_WHITE);
 8000ce8:	2007      	movs	r0, #7
 8000cea:	f001 fb89 	bl	8002400 <Neopixels_setColor>
	Neopixels_setBrightness(2);
 8000cee:	2002      	movs	r0, #2
 8000cf0:	f001 fbaa 	bl	8002448 <Neopixels_setBrightness>
	app_run = false;
 8000cf4:	4b0d      	ldr	r3, [pc, #52]	; (8000d2c <AppMgmt_CycleApps+0x48>)
 8000cf6:	2200      	movs	r2, #0
 8000cf8:	701a      	strb	r2, [r3, #0]
	app_active++;
 8000cfa:	4b0d      	ldr	r3, [pc, #52]	; (8000d30 <AppMgmt_CycleApps+0x4c>)
 8000cfc:	781b      	ldrb	r3, [r3, #0]
 8000cfe:	3301      	adds	r3, #1
 8000d00:	b2da      	uxtb	r2, r3
 8000d02:	4b0b      	ldr	r3, [pc, #44]	; (8000d30 <AppMgmt_CycleApps+0x4c>)
 8000d04:	701a      	strb	r2, [r3, #0]
	if(app_active >= APP_COUNT)
 8000d06:	4b0a      	ldr	r3, [pc, #40]	; (8000d30 <AppMgmt_CycleApps+0x4c>)
 8000d08:	781b      	ldrb	r3, [r3, #0]
 8000d0a:	2b03      	cmp	r3, #3
 8000d0c:	d902      	bls.n	8000d14 <AppMgmt_CycleApps+0x30>
	{
		app_active = 0;
 8000d0e:	4b08      	ldr	r3, [pc, #32]	; (8000d30 <AppMgmt_CycleApps+0x4c>)
 8000d10:	2200      	movs	r2, #0
 8000d12:	701a      	strb	r2, [r3, #0]
	}
	Neopixels_Bargraph(app_active+1, true);
 8000d14:	4b06      	ldr	r3, [pc, #24]	; (8000d30 <AppMgmt_CycleApps+0x4c>)
 8000d16:	781b      	ldrb	r3, [r3, #0]
 8000d18:	3301      	adds	r3, #1
 8000d1a:	b2db      	uxtb	r3, r3
 8000d1c:	2101      	movs	r1, #1
 8000d1e:	0018      	movs	r0, r3
 8000d20:	f001 fcb7 	bl	8002692 <Neopixels_Bargraph>
}
 8000d24:	46c0      	nop			; (mov r8, r8)
 8000d26:	46bd      	mov	sp, r7
 8000d28:	bd80      	pop	{r7, pc}
 8000d2a:	46c0      	nop			; (mov r8, r8)
 8000d2c:	20000039 	.word	0x20000039
 8000d30:	20000038 	.word	0x20000038

08000d34 <AppMgmt_LoadApp>:

void AppMgmt_LoadApp()
{
 8000d34:	b580      	push	{r7, lr}
 8000d36:	af00      	add	r7, sp, #0
	Neopixels_Off();
 8000d38:	f001 fd00 	bl	800273c <Neopixels_Off>
	AppMgmt_AppInit();
 8000d3c:	f7ff ff7c 	bl	8000c38 <AppMgmt_AppInit>
}
 8000d40:	46c0      	nop			; (mov r8, r8)
 8000d42:	46bd      	mov	sp, r7
 8000d44:	bd80      	pop	{r7, pc}
	...

08000d48 <ColorPicker_Init>:

uint16_t h = 0;
uint8_t s = 128;

void ColorPicker_Init()
{
 8000d48:	b580      	push	{r7, lr}
 8000d4a:	af00      	add	r7, sp, #0
	AppMgmt_Timebase = 10;
 8000d4c:	4b0f      	ldr	r3, [pc, #60]	; (8000d8c <ColorPicker_Init+0x44>)
 8000d4e:	220a      	movs	r2, #10
 8000d50:	801a      	strh	r2, [r3, #0]
	Accelerometer_init();
 8000d52:	f000 fe65 	bl	8001a20 <Accelerometer_init>
	Accelerometer_setDataWidth(ACC_DATAWIDTH_8);
 8000d56:	2000      	movs	r0, #0
 8000d58:	f000 ff4a 	bl	8001bf0 <Accelerometer_setDataWidth>
	Accelerometer_setDataRate(RATE_400Hz);
 8000d5c:	2001      	movs	r0, #1
 8000d5e:	f000 ff22 	bl	8001ba6 <Accelerometer_setDataRate>
	Accelerometer_setRange(RANGE_2G);
 8000d62:	2000      	movs	r0, #0
 8000d64:	f000 fefc 	bl	8001b60 <Accelerometer_setRange>
	Neopixels_setBrightness(2);
 8000d68:	2002      	movs	r0, #2
 8000d6a:	f001 fb6d 	bl	8002448 <Neopixels_setBrightness>
	NvMem_init();
 8000d6e:	f001 fd1b 	bl	80027a8 <NvMem_init>
	power_hold(20);
 8000d72:	2014      	movs	r0, #20
 8000d74:	f001 feac 	bl	8002ad0 <power_hold>
	power_flags &= ~ POWER_FLAG_SW_DOUBLE;
 8000d78:	4b05      	ldr	r3, [pc, #20]	; (8000d90 <ColorPicker_Init+0x48>)
 8000d7a:	781b      	ldrb	r3, [r3, #0]
 8000d7c:	2210      	movs	r2, #16
 8000d7e:	4393      	bics	r3, r2
 8000d80:	b2da      	uxtb	r2, r3
 8000d82:	4b03      	ldr	r3, [pc, #12]	; (8000d90 <ColorPicker_Init+0x48>)
 8000d84:	701a      	strb	r2, [r3, #0]
}
 8000d86:	46c0      	nop			; (mov r8, r8)
 8000d88:	46bd      	mov	sp, r7
 8000d8a:	bd80      	pop	{r7, pc}
 8000d8c:	20000044 	.word	0x20000044
 8000d90:	2000004c 	.word	0x2000004c

08000d94 <ColorPicker_Exec>:


void ColorPicker_Exec()
{
 8000d94:	b580      	push	{r7, lr}
 8000d96:	b084      	sub	sp, #16
 8000d98:	af00      	add	r7, sp, #0
	int8_t dh = Accelerometer_read8().x>>2;
 8000d9a:	f000 ff5b 	bl	8001c54 <Accelerometer_read8>
 8000d9e:	0003      	movs	r3, r0
 8000da0:	001a      	movs	r2, r3
 8000da2:	1d3b      	adds	r3, r7, #4
 8000da4:	1c11      	adds	r1, r2, #0
 8000da6:	7019      	strb	r1, [r3, #0]
 8000da8:	0411      	lsls	r1, r2, #16
 8000daa:	0e09      	lsrs	r1, r1, #24
 8000dac:	7059      	strb	r1, [r3, #1]
 8000dae:	0212      	lsls	r2, r2, #8
 8000db0:	0e12      	lsrs	r2, r2, #24
 8000db2:	709a      	strb	r2, [r3, #2]
 8000db4:	1d3b      	adds	r3, r7, #4
 8000db6:	2200      	movs	r2, #0
 8000db8:	569a      	ldrsb	r2, [r3, r2]
 8000dba:	210f      	movs	r1, #15
 8000dbc:	187b      	adds	r3, r7, r1
 8000dbe:	1092      	asrs	r2, r2, #2
 8000dc0:	701a      	strb	r2, [r3, #0]
	if(dh < 0)
 8000dc2:	187b      	adds	r3, r7, r1
 8000dc4:	781b      	ldrb	r3, [r3, #0]
 8000dc6:	2b7f      	cmp	r3, #127	; 0x7f
 8000dc8:	d922      	bls.n	8000e10 <ColorPicker_Exec+0x7c>
	{
		if(h >= dh*-1)
 8000dca:	4b69      	ldr	r3, [pc, #420]	; (8000f70 <ColorPicker_Exec+0x1dc>)
 8000dcc:	881b      	ldrh	r3, [r3, #0]
 8000dce:	001a      	movs	r2, r3
 8000dd0:	187b      	adds	r3, r7, r1
 8000dd2:	781b      	ldrb	r3, [r3, #0]
 8000dd4:	b25b      	sxtb	r3, r3
 8000dd6:	425b      	negs	r3, r3
 8000dd8:	429a      	cmp	r2, r3
 8000dda:	db0a      	blt.n	8000df2 <ColorPicker_Exec+0x5e>
		{
			h += dh;
 8000ddc:	187b      	adds	r3, r7, r1
 8000dde:	781b      	ldrb	r3, [r3, #0]
 8000de0:	b25b      	sxtb	r3, r3
 8000de2:	b29a      	uxth	r2, r3
 8000de4:	4b62      	ldr	r3, [pc, #392]	; (8000f70 <ColorPicker_Exec+0x1dc>)
 8000de6:	881b      	ldrh	r3, [r3, #0]
 8000de8:	18d3      	adds	r3, r2, r3
 8000dea:	b29a      	uxth	r2, r3
 8000dec:	4b60      	ldr	r3, [pc, #384]	; (8000f70 <ColorPicker_Exec+0x1dc>)
 8000dee:	801a      	strh	r2, [r3, #0]
 8000df0:	e00e      	b.n	8000e10 <ColorPicker_Exec+0x7c>
		}
		else
		{
			//it doesn't fit-> wrap araund
			h = h +dh+HSV_H_MAX;
 8000df2:	230f      	movs	r3, #15
 8000df4:	18fb      	adds	r3, r7, r3
 8000df6:	781b      	ldrb	r3, [r3, #0]
 8000df8:	b25b      	sxtb	r3, r3
 8000dfa:	b29a      	uxth	r2, r3
 8000dfc:	4b5c      	ldr	r3, [pc, #368]	; (8000f70 <ColorPicker_Exec+0x1dc>)
 8000dfe:	881b      	ldrh	r3, [r3, #0]
 8000e00:	18d3      	adds	r3, r2, r3
 8000e02:	b29b      	uxth	r3, r3
 8000e04:	4a5b      	ldr	r2, [pc, #364]	; (8000f74 <ColorPicker_Exec+0x1e0>)
 8000e06:	4694      	mov	ip, r2
 8000e08:	4463      	add	r3, ip
 8000e0a:	b29a      	uxth	r2, r3
 8000e0c:	4b58      	ldr	r3, [pc, #352]	; (8000f70 <ColorPicker_Exec+0x1dc>)
 8000e0e:	801a      	strh	r2, [r3, #0]
		}
	}
	if(dh > 0)
 8000e10:	210f      	movs	r1, #15
 8000e12:	187b      	adds	r3, r7, r1
 8000e14:	781b      	ldrb	r3, [r3, #0]
 8000e16:	b25b      	sxtb	r3, r3
 8000e18:	2b00      	cmp	r3, #0
 8000e1a:	dd0e      	ble.n	8000e3a <ColorPicker_Exec+0xa6>
	{
		h = (h + dh) % HSV_H_MAX;
 8000e1c:	4b54      	ldr	r3, [pc, #336]	; (8000f70 <ColorPicker_Exec+0x1dc>)
 8000e1e:	881b      	ldrh	r3, [r3, #0]
 8000e20:	001a      	movs	r2, r3
 8000e22:	187b      	adds	r3, r7, r1
 8000e24:	781b      	ldrb	r3, [r3, #0]
 8000e26:	b25b      	sxtb	r3, r3
 8000e28:	18d3      	adds	r3, r2, r3
 8000e2a:	4952      	ldr	r1, [pc, #328]	; (8000f74 <ColorPicker_Exec+0x1e0>)
 8000e2c:	0018      	movs	r0, r3
 8000e2e:	f7ff fadb 	bl	80003e8 <__aeabi_idivmod>
 8000e32:	000b      	movs	r3, r1
 8000e34:	b29a      	uxth	r2, r3
 8000e36:	4b4e      	ldr	r3, [pc, #312]	; (8000f70 <ColorPicker_Exec+0x1dc>)
 8000e38:	801a      	strh	r2, [r3, #0]
	}

	int8_t ds = (Accelerometer_read8().y>>4)*-1;
 8000e3a:	f000 ff0b 	bl	8001c54 <Accelerometer_read8>
 8000e3e:	0003      	movs	r3, r0
 8000e40:	001a      	movs	r2, r3
 8000e42:	2008      	movs	r0, #8
 8000e44:	183b      	adds	r3, r7, r0
 8000e46:	1c11      	adds	r1, r2, #0
 8000e48:	7019      	strb	r1, [r3, #0]
 8000e4a:	0411      	lsls	r1, r2, #16
 8000e4c:	0e09      	lsrs	r1, r1, #24
 8000e4e:	7059      	strb	r1, [r3, #1]
 8000e50:	0212      	lsls	r2, r2, #8
 8000e52:	0e12      	lsrs	r2, r2, #24
 8000e54:	709a      	strb	r2, [r3, #2]
 8000e56:	183b      	adds	r3, r7, r0
 8000e58:	785b      	ldrb	r3, [r3, #1]
 8000e5a:	b25b      	sxtb	r3, r3
 8000e5c:	111b      	asrs	r3, r3, #4
 8000e5e:	b25b      	sxtb	r3, r3
 8000e60:	b2db      	uxtb	r3, r3
 8000e62:	425b      	negs	r3, r3
 8000e64:	b2da      	uxtb	r2, r3
 8000e66:	210e      	movs	r1, #14
 8000e68:	187b      	adds	r3, r7, r1
 8000e6a:	701a      	strb	r2, [r3, #0]
	if(ds < 0)
 8000e6c:	187b      	adds	r3, r7, r1
 8000e6e:	781b      	ldrb	r3, [r3, #0]
 8000e70:	2b7f      	cmp	r3, #127	; 0x7f
 8000e72:	d914      	bls.n	8000e9e <ColorPicker_Exec+0x10a>
	{
		if(s >= ds*-1)
 8000e74:	4b40      	ldr	r3, [pc, #256]	; (8000f78 <ColorPicker_Exec+0x1e4>)
 8000e76:	781b      	ldrb	r3, [r3, #0]
 8000e78:	001a      	movs	r2, r3
 8000e7a:	187b      	adds	r3, r7, r1
 8000e7c:	781b      	ldrb	r3, [r3, #0]
 8000e7e:	b25b      	sxtb	r3, r3
 8000e80:	425b      	negs	r3, r3
 8000e82:	429a      	cmp	r2, r3
 8000e84:	db08      	blt.n	8000e98 <ColorPicker_Exec+0x104>
		{
			s += ds;
 8000e86:	4b3c      	ldr	r3, [pc, #240]	; (8000f78 <ColorPicker_Exec+0x1e4>)
 8000e88:	781a      	ldrb	r2, [r3, #0]
 8000e8a:	187b      	adds	r3, r7, r1
 8000e8c:	781b      	ldrb	r3, [r3, #0]
 8000e8e:	18d3      	adds	r3, r2, r3
 8000e90:	b2da      	uxtb	r2, r3
 8000e92:	4b39      	ldr	r3, [pc, #228]	; (8000f78 <ColorPicker_Exec+0x1e4>)
 8000e94:	701a      	strb	r2, [r3, #0]
 8000e96:	e002      	b.n	8000e9e <ColorPicker_Exec+0x10a>
		}
		else
		{
			s = 0;
 8000e98:	4b37      	ldr	r3, [pc, #220]	; (8000f78 <ColorPicker_Exec+0x1e4>)
 8000e9a:	2200      	movs	r2, #0
 8000e9c:	701a      	strb	r2, [r3, #0]
		}
	}
	if(ds > 0)
 8000e9e:	210e      	movs	r1, #14
 8000ea0:	187b      	adds	r3, r7, r1
 8000ea2:	781b      	ldrb	r3, [r3, #0]
 8000ea4:	b25b      	sxtb	r3, r3
 8000ea6:	2b00      	cmp	r3, #0
 8000ea8:	dd15      	ble.n	8000ed6 <ColorPicker_Exec+0x142>
	{
		if(255-s > ds)
 8000eaa:	4b33      	ldr	r3, [pc, #204]	; (8000f78 <ColorPicker_Exec+0x1e4>)
 8000eac:	781b      	ldrb	r3, [r3, #0]
 8000eae:	001a      	movs	r2, r3
 8000eb0:	23ff      	movs	r3, #255	; 0xff
 8000eb2:	1a9a      	subs	r2, r3, r2
 8000eb4:	187b      	adds	r3, r7, r1
 8000eb6:	781b      	ldrb	r3, [r3, #0]
 8000eb8:	b25b      	sxtb	r3, r3
 8000eba:	429a      	cmp	r2, r3
 8000ebc:	dd08      	ble.n	8000ed0 <ColorPicker_Exec+0x13c>
		{
			s += ds;
 8000ebe:	4b2e      	ldr	r3, [pc, #184]	; (8000f78 <ColorPicker_Exec+0x1e4>)
 8000ec0:	781a      	ldrb	r2, [r3, #0]
 8000ec2:	187b      	adds	r3, r7, r1
 8000ec4:	781b      	ldrb	r3, [r3, #0]
 8000ec6:	18d3      	adds	r3, r2, r3
 8000ec8:	b2da      	uxtb	r2, r3
 8000eca:	4b2b      	ldr	r3, [pc, #172]	; (8000f78 <ColorPicker_Exec+0x1e4>)
 8000ecc:	701a      	strb	r2, [r3, #0]
 8000ece:	e002      	b.n	8000ed6 <ColorPicker_Exec+0x142>
		}
		else
		{
			s = 255;
 8000ed0:	4b29      	ldr	r3, [pc, #164]	; (8000f78 <ColorPicker_Exec+0x1e4>)
 8000ed2:	22ff      	movs	r2, #255	; 0xff
 8000ed4:	701a      	strb	r2, [r3, #0]
		}
	}
	Neopixels_setColorHSV(h, s, 255);
 8000ed6:	4b26      	ldr	r3, [pc, #152]	; (8000f70 <ColorPicker_Exec+0x1dc>)
 8000ed8:	8818      	ldrh	r0, [r3, #0]
 8000eda:	4b27      	ldr	r3, [pc, #156]	; (8000f78 <ColorPicker_Exec+0x1e4>)
 8000edc:	781b      	ldrb	r3, [r3, #0]
 8000ede:	22ff      	movs	r2, #255	; 0xff
 8000ee0:	0019      	movs	r1, r3
 8000ee2:	f001 fa43 	bl	800236c <Neopixels_setColorHSV>
	Neopixels_setPattern(0xFFFF);
 8000ee6:	4b25      	ldr	r3, [pc, #148]	; (8000f7c <ColorPicker_Exec+0x1e8>)
 8000ee8:	0018      	movs	r0, r3
 8000eea:	f001 fb69 	bl	80025c0 <Neopixels_setPattern>

	//a double-click saves the current color to NvMemory
	if(power_flags & POWER_FLAG_SW_DOUBLE)
 8000eee:	4b24      	ldr	r3, [pc, #144]	; (8000f80 <ColorPicker_Exec+0x1ec>)
 8000ef0:	781b      	ldrb	r3, [r3, #0]
 8000ef2:	001a      	movs	r2, r3
 8000ef4:	2310      	movs	r3, #16
 8000ef6:	4013      	ands	r3, r2
 8000ef8:	d036      	beq.n	8000f68 <ColorPicker_Exec+0x1d4>
	{
		power_flags &= ~POWER_FLAG_SW_DOUBLE;
 8000efa:	4b21      	ldr	r3, [pc, #132]	; (8000f80 <ColorPicker_Exec+0x1ec>)
 8000efc:	781b      	ldrb	r3, [r3, #0]
 8000efe:	2210      	movs	r2, #16
 8000f00:	4393      	bics	r3, r2
 8000f02:	b2da      	uxtb	r2, r3
 8000f04:	4b1e      	ldr	r3, [pc, #120]	; (8000f80 <ColorPicker_Exec+0x1ec>)
 8000f06:	701a      	strb	r2, [r3, #0]
		power_hold(2);
 8000f08:	2002      	movs	r0, #2
 8000f0a:	f001 fde1 	bl	8002ad0 <power_hold>
		Neopixels_Off();
 8000f0e:	f001 fc15 	bl	800273c <Neopixels_Off>
		NvMem_write(NVMEM_AD_GLOBAL_RED, globalColor.red);
 8000f12:	4b1c      	ldr	r3, [pc, #112]	; (8000f84 <ColorPicker_Exec+0x1f0>)
 8000f14:	78db      	ldrb	r3, [r3, #3]
 8000f16:	b29b      	uxth	r3, r3
 8000f18:	0019      	movs	r1, r3
 8000f1a:	2000      	movs	r0, #0
 8000f1c:	f001 fc90 	bl	8002840 <NvMem_write>
		NvMem_write(NVMEM_AD_GLOBAL_GREEN, globalColor.green);
 8000f20:	4b18      	ldr	r3, [pc, #96]	; (8000f84 <ColorPicker_Exec+0x1f0>)
 8000f22:	789b      	ldrb	r3, [r3, #2]
 8000f24:	b29b      	uxth	r3, r3
 8000f26:	0019      	movs	r1, r3
 8000f28:	2001      	movs	r0, #1
 8000f2a:	f001 fc89 	bl	8002840 <NvMem_write>
		NvMem_write(NVMEM_AD_GLOBAL_BLUE, globalColor.blue);
 8000f2e:	4b15      	ldr	r3, [pc, #84]	; (8000f84 <ColorPicker_Exec+0x1f0>)
 8000f30:	785b      	ldrb	r3, [r3, #1]
 8000f32:	b29b      	uxth	r3, r3
 8000f34:	0019      	movs	r1, r3
 8000f36:	2002      	movs	r0, #2
 8000f38:	f001 fc82 	bl	8002840 <NvMem_write>
		Neopixels_setBrightness(6);
 8000f3c:	2006      	movs	r0, #6
 8000f3e:	f001 fa83 	bl	8002448 <Neopixels_setBrightness>
		if(!NvMem_SaveToFlash())
 8000f42:	f001 fca7 	bl	8002894 <NvMem_SaveToFlash>
 8000f46:	1e03      	subs	r3, r0, #0
 8000f48:	d103      	bne.n	8000f52 <ColorPicker_Exec+0x1be>
		{
			Neopixels_setColor(COLOR_GREEN);
 8000f4a:	2002      	movs	r0, #2
 8000f4c:	f001 fa58 	bl	8002400 <Neopixels_setColor>
 8000f50:	e002      	b.n	8000f58 <ColorPicker_Exec+0x1c4>
		}
		else
		{
			Neopixels_setColor(COLOR_RED);
 8000f52:	2004      	movs	r0, #4
 8000f54:	f001 fa54 	bl	8002400 <Neopixels_setColor>
		}
		Neopixels_Single(0);
 8000f58:	2000      	movs	r0, #0
 8000f5a:	f001 fb87 	bl	800266c <Neopixels_Single>
		delay(200);
 8000f5e:	20c8      	movs	r0, #200	; 0xc8
 8000f60:	f000 fa24 	bl	80013ac <delay>
		Neopixels_Off();
 8000f64:	f001 fbea 	bl	800273c <Neopixels_Off>
	}
}
 8000f68:	46c0      	nop			; (mov r8, r8)
 8000f6a:	46bd      	mov	sp, r7
 8000f6c:	b004      	add	sp, #16
 8000f6e:	bd80      	pop	{r7, pc}
 8000f70:	2000003a 	.word	0x2000003a
 8000f74:	000005ff 	.word	0x000005ff
 8000f78:	20000000 	.word	0x20000000
 8000f7c:	0000ffff 	.word	0x0000ffff
 8000f80:	2000004c 	.word	0x2000004c
 8000f84:	20000048 	.word	0x20000048

08000f88 <Level_Init>:

int16_t levelResult;
uint8_t led_pos;

void Level_Init()
{
 8000f88:	b580      	push	{r7, lr}
 8000f8a:	af00      	add	r7, sp, #0
	AppMgmt_Timebase = 10;
 8000f8c:	4b08      	ldr	r3, [pc, #32]	; (8000fb0 <Level_Init+0x28>)
 8000f8e:	220a      	movs	r2, #10
 8000f90:	801a      	strh	r2, [r3, #0]
	Accelerometer_init();
 8000f92:	f000 fd45 	bl	8001a20 <Accelerometer_init>
	Accelerometer_setDataWidth(ACC_DATAWIDTH_8);
 8000f96:	2000      	movs	r0, #0
 8000f98:	f000 fe2a 	bl	8001bf0 <Accelerometer_setDataWidth>
	Accelerometer_setRange(RANGE_2G);
 8000f9c:	2000      	movs	r0, #0
 8000f9e:	f000 fddf 	bl	8001b60 <Accelerometer_setRange>
	Accelerometer_setDataRate(RATE_12Hz5);
 8000fa2:	2005      	movs	r0, #5
 8000fa4:	f000 fdff 	bl	8001ba6 <Accelerometer_setDataRate>
}
 8000fa8:	46c0      	nop			; (mov r8, r8)
 8000faa:	46bd      	mov	sp, r7
 8000fac:	bd80      	pop	{r7, pc}
 8000fae:	46c0      	nop			; (mov r8, r8)
 8000fb0:	20000044 	.word	0x20000044

08000fb4 <Level_Exec>:

void Level_Exec()
{
 8000fb4:	b580      	push	{r7, lr}
 8000fb6:	b082      	sub	sp, #8
 8000fb8:	af00      	add	r7, sp, #0
	levelResult = Accelerometer_read8().y;
 8000fba:	f000 fe4b 	bl	8001c54 <Accelerometer_read8>
 8000fbe:	0003      	movs	r3, r0
 8000fc0:	001a      	movs	r2, r3
 8000fc2:	1d3b      	adds	r3, r7, #4
 8000fc4:	1c11      	adds	r1, r2, #0
 8000fc6:	7019      	strb	r1, [r3, #0]
 8000fc8:	0411      	lsls	r1, r2, #16
 8000fca:	0e09      	lsrs	r1, r1, #24
 8000fcc:	7059      	strb	r1, [r3, #1]
 8000fce:	0212      	lsls	r2, r2, #8
 8000fd0:	0e12      	lsrs	r2, r2, #24
 8000fd2:	709a      	strb	r2, [r3, #2]
 8000fd4:	1d3b      	adds	r3, r7, #4
 8000fd6:	785b      	ldrb	r3, [r3, #1]
 8000fd8:	b25b      	sxtb	r3, r3
 8000fda:	b21a      	sxth	r2, r3
 8000fdc:	4b1c      	ldr	r3, [pc, #112]	; (8001050 <Level_Exec+0x9c>)
 8000fde:	801a      	strh	r2, [r3, #0]
	if(levelResult == 0)
 8000fe0:	4b1b      	ldr	r3, [pc, #108]	; (8001050 <Level_Exec+0x9c>)
 8000fe2:	2200      	movs	r2, #0
 8000fe4:	5e9b      	ldrsh	r3, [r3, r2]
 8000fe6:	2b00      	cmp	r3, #0
 8000fe8:	d105      	bne.n	8000ff6 <Level_Exec+0x42>
	{
		Neopixels_setPattern(0b0000000110000000);
 8000fea:	23c0      	movs	r3, #192	; 0xc0
 8000fec:	005b      	lsls	r3, r3, #1
 8000fee:	0018      	movs	r0, r3
 8000ff0:	f001 fae6 	bl	80025c0 <Neopixels_setPattern>
		return;
 8000ff4:	e029      	b.n	800104a <Level_Exec+0x96>
	}
	if(levelResult < 0)
 8000ff6:	4b16      	ldr	r3, [pc, #88]	; (8001050 <Level_Exec+0x9c>)
 8000ff8:	2200      	movs	r2, #0
 8000ffa:	5e9b      	ldrsh	r3, [r3, r2]
 8000ffc:	2b00      	cmp	r3, #0
 8000ffe:	da0f      	bge.n	8001020 <Level_Exec+0x6c>
	{
		led_pos = levelResult + 8;
 8001000:	4b13      	ldr	r3, [pc, #76]	; (8001050 <Level_Exec+0x9c>)
 8001002:	2200      	movs	r2, #0
 8001004:	5e9b      	ldrsh	r3, [r3, r2]
 8001006:	b2db      	uxtb	r3, r3
 8001008:	3308      	adds	r3, #8
 800100a:	b2da      	uxtb	r2, r3
 800100c:	4b11      	ldr	r3, [pc, #68]	; (8001054 <Level_Exec+0xa0>)
 800100e:	701a      	strb	r2, [r3, #0]
		//lower limit
		if(led_pos > 250)
 8001010:	4b10      	ldr	r3, [pc, #64]	; (8001054 <Level_Exec+0xa0>)
 8001012:	781b      	ldrb	r3, [r3, #0]
 8001014:	2bfa      	cmp	r3, #250	; 0xfa
 8001016:	d912      	bls.n	800103e <Level_Exec+0x8a>
		{
			led_pos = 0;
 8001018:	4b0e      	ldr	r3, [pc, #56]	; (8001054 <Level_Exec+0xa0>)
 800101a:	2200      	movs	r2, #0
 800101c:	701a      	strb	r2, [r3, #0]
 800101e:	e00e      	b.n	800103e <Level_Exec+0x8a>
		}
	}
	else
	{	//levelPos > 0
		led_pos = levelResult + 7;
 8001020:	4b0b      	ldr	r3, [pc, #44]	; (8001050 <Level_Exec+0x9c>)
 8001022:	2200      	movs	r2, #0
 8001024:	5e9b      	ldrsh	r3, [r3, r2]
 8001026:	b2db      	uxtb	r3, r3
 8001028:	3307      	adds	r3, #7
 800102a:	b2da      	uxtb	r2, r3
 800102c:	4b09      	ldr	r3, [pc, #36]	; (8001054 <Level_Exec+0xa0>)
 800102e:	701a      	strb	r2, [r3, #0]
		//upper limit
		if(led_pos > 15)
 8001030:	4b08      	ldr	r3, [pc, #32]	; (8001054 <Level_Exec+0xa0>)
 8001032:	781b      	ldrb	r3, [r3, #0]
 8001034:	2b0f      	cmp	r3, #15
 8001036:	d902      	bls.n	800103e <Level_Exec+0x8a>
		{
			led_pos = 15;
 8001038:	4b06      	ldr	r3, [pc, #24]	; (8001054 <Level_Exec+0xa0>)
 800103a:	220f      	movs	r2, #15
 800103c:	701a      	strb	r2, [r3, #0]
		}
	}
	Neopixels_Single(led_pos);
 800103e:	4b05      	ldr	r3, [pc, #20]	; (8001054 <Level_Exec+0xa0>)
 8001040:	781b      	ldrb	r3, [r3, #0]
 8001042:	0018      	movs	r0, r3
 8001044:	f001 fb12 	bl	800266c <Neopixels_Single>
	return;
 8001048:	46c0      	nop			; (mov r8, r8)
}
 800104a:	46bd      	mov	sp, r7
 800104c:	b002      	add	sp, #8
 800104e:	bd80      	pop	{r7, pc}
 8001050:	2000004e 	.word	0x2000004e
 8001054:	20000050 	.word	0x20000050

08001058 <NVIC_DisableIRQ>:

 The function disables a device-specific interrupt in the NVIC interrupt controller.

 \param [in]      IRQn  External interrupt number. Value cannot be negative.
 */
__STATIC_INLINE void NVIC_DisableIRQ(IRQn_Type IRQn) {
 8001058:	b580      	push	{r7, lr}
 800105a:	b082      	sub	sp, #8
 800105c:	af00      	add	r7, sp, #0
 800105e:	0002      	movs	r2, r0
 8001060:	1dfb      	adds	r3, r7, #7
 8001062:	701a      	strb	r2, [r3, #0]
	NVIC->ICER[0] = (1 << ((uint32_t) (IRQn) & 0x1F));
 8001064:	1dfb      	adds	r3, r7, #7
 8001066:	781b      	ldrb	r3, [r3, #0]
 8001068:	001a      	movs	r2, r3
 800106a:	231f      	movs	r3, #31
 800106c:	4013      	ands	r3, r2
 800106e:	2201      	movs	r2, #1
 8001070:	409a      	lsls	r2, r3
 8001072:	0013      	movs	r3, r2
 8001074:	4a03      	ldr	r2, [pc, #12]	; (8001084 <NVIC_DisableIRQ+0x2c>)
 8001076:	0019      	movs	r1, r3
 8001078:	2380      	movs	r3, #128	; 0x80
 800107a:	50d1      	str	r1, [r2, r3]
}
 800107c:	46c0      	nop			; (mov r8, r8)
 800107e:	46bd      	mov	sp, r7
 8001080:	b002      	add	sp, #8
 8001082:	bd80      	pop	{r7, pc}
 8001084:	e000e100 	.word	0xe000e100

08001088 <NVIC_ClearPendingIRQ>:

 The function clears the pending bit of an external interrupt.

 \param [in]      IRQn  External interrupt number. Value cannot be negative.
 */
__STATIC_INLINE void NVIC_ClearPendingIRQ(IRQn_Type IRQn) {
 8001088:	b580      	push	{r7, lr}
 800108a:	b082      	sub	sp, #8
 800108c:	af00      	add	r7, sp, #0
 800108e:	0002      	movs	r2, r0
 8001090:	1dfb      	adds	r3, r7, #7
 8001092:	701a      	strb	r2, [r3, #0]
	NVIC->ICPR[0] = (1 << ((uint32_t) (IRQn) & 0x1F)); /* Clear pending interrupt */
 8001094:	1dfb      	adds	r3, r7, #7
 8001096:	781b      	ldrb	r3, [r3, #0]
 8001098:	001a      	movs	r2, r3
 800109a:	231f      	movs	r3, #31
 800109c:	4013      	ands	r3, r2
 800109e:	2201      	movs	r2, #1
 80010a0:	409a      	lsls	r2, r3
 80010a2:	0013      	movs	r3, r2
 80010a4:	4a04      	ldr	r2, [pc, #16]	; (80010b8 <NVIC_ClearPendingIRQ+0x30>)
 80010a6:	0019      	movs	r1, r3
 80010a8:	23c0      	movs	r3, #192	; 0xc0
 80010aa:	005b      	lsls	r3, r3, #1
 80010ac:	50d1      	str	r1, [r2, r3]
}
 80010ae:	46c0      	nop			; (mov r8, r8)
 80010b0:	46bd      	mov	sp, r7
 80010b2:	b002      	add	sp, #8
 80010b4:	bd80      	pop	{r7, pc}
 80010b6:	46c0      	nop			; (mov r8, r8)
 80010b8:	e000e100 	.word	0xe000e100

080010bc <PovD_Init>:
 * -> no more than 16x64 pixels!!
 * for full color rgb, the complete frame already takes 3kB!
 */

void PovD_Init()
{
 80010bc:	b580      	push	{r7, lr}
 80010be:	af00      	add	r7, sp, #0
	AppMgmt_Timebase = 1;
 80010c0:	4b08      	ldr	r3, [pc, #32]	; (80010e4 <PovD_Init+0x28>)
 80010c2:	2201      	movs	r2, #1
 80010c4:	801a      	strh	r2, [r3, #0]
	NvMem_init();
 80010c6:	f001 fb6f 	bl	80027a8 <NvMem_init>
	Accelerometer_init();
 80010ca:	f000 fca9 	bl	8001a20 <Accelerometer_init>
	Neopixels_Off();
 80010ce:	f001 fb35 	bl	800273c <Neopixels_Off>
	displayInit();
 80010d2:	f000 fe5f 	bl	8001d94 <displayInit>

	power_hold(10);
 80010d6:	200a      	movs	r0, #10
 80010d8:	f001 fcfa 	bl	8002ad0 <power_hold>
}
 80010dc:	46c0      	nop			; (mov r8, r8)
 80010de:	46bd      	mov	sp, r7
 80010e0:	bd80      	pop	{r7, pc}
 80010e2:	46c0      	nop			; (mov r8, r8)
 80010e4:	20000044 	.word	0x20000044

080010e8 <PovD_Exec>:

void PovD_Exec()
{
 80010e8:	b580      	push	{r7, lr}
 80010ea:	af00      	add	r7, sp, #0
			sprintf((char*)tempstring,"Error %i occured!\n",errorcode);
			USB_VCP_DataTx((uint8_t*)tempstring,0);
		}
		consoleExecute();
	}*/
}
 80010ec:	46c0      	nop			; (mov r8, r8)
 80010ee:	46bd      	mov	sp, r7
 80010f0:	bd80      	pop	{r7, pc}

080010f2 <PovD_DeInit>:

void PovD_DeInit()
{
 80010f2:	b580      	push	{r7, lr}
 80010f4:	af00      	add	r7, sp, #0
	Accelerometer_deInit();
 80010f6:	f000 fe25 	bl	8001d44 <Accelerometer_deInit>
	NVIC_DisableIRQ(TIM2_IRQn);
 80010fa:	200f      	movs	r0, #15
 80010fc:	f7ff ffac 	bl	8001058 <NVIC_DisableIRQ>
	NVIC_ClearPendingIRQ(TIM2_IRQn);
 8001100:	200f      	movs	r0, #15
 8001102:	f7ff ffc1 	bl	8001088 <NVIC_ClearPendingIRQ>
	NVIC_DisableIRQ(TIM3_IRQn);
 8001106:	2010      	movs	r0, #16
 8001108:	f7ff ffa6 	bl	8001058 <NVIC_DisableIRQ>
	NVIC_ClearPendingIRQ(TIM3_IRQn);
 800110c:	2010      	movs	r0, #16
 800110e:	f7ff ffbb 	bl	8001088 <NVIC_ClearPendingIRQ>

}
 8001112:	46c0      	nop			; (mov r8, r8)
 8001114:	46bd      	mov	sp, r7
 8001116:	bd80      	pop	{r7, pc}

08001118 <Playground_Init>:
**  					This method is called only once at the very beginning
**
**===========================================================================
*/
void Playground_Init()
{
 8001118:	b580      	push	{r7, lr}
 800111a:	af00      	add	r7, sp, #0
//-----------------don't change this code-block!------------------
	AppMgmt_Timebase = 100;
 800111c:	4b0c      	ldr	r3, [pc, #48]	; (8001150 <Playground_Init+0x38>)
 800111e:	2264      	movs	r2, #100	; 0x64
 8001120:	801a      	strh	r2, [r3, #0]
	Accelerometer_init();
 8001122:	f000 fc7d 	bl	8001a20 <Accelerometer_init>
	Accelerometer_setDataWidth(ACC_DATAWIDTH_8);
 8001126:	2000      	movs	r0, #0
 8001128:	f000 fd62 	bl	8001bf0 <Accelerometer_setDataWidth>
	Accelerometer_setDataRate(RATE_400Hz);
 800112c:	2001      	movs	r0, #1
 800112e:	f000 fd3a 	bl	8001ba6 <Accelerometer_setDataRate>
//--------------------------------------------------------------

	Neopixels_setColor(COLOR_RED);
 8001132:	2004      	movs	r0, #4
 8001134:	f001 f964 	bl	8002400 <Neopixels_setColor>
	Neopixels_setBrightness(2);
 8001138:	2002      	movs	r0, #2
 800113a:	f001 f985 	bl	8002448 <Neopixels_setBrightness>
	pos = 0;
 800113e:	4b05      	ldr	r3, [pc, #20]	; (8001154 <Playground_Init+0x3c>)
 8001140:	2200      	movs	r2, #0
 8001142:	701a      	strb	r2, [r3, #0]
	step = 1;
 8001144:	4b04      	ldr	r3, [pc, #16]	; (8001158 <Playground_Init+0x40>)
 8001146:	2201      	movs	r2, #1
 8001148:	701a      	strb	r2, [r3, #0]
}
 800114a:	46c0      	nop			; (mov r8, r8)
 800114c:	46bd      	mov	sp, r7
 800114e:	bd80      	pop	{r7, pc}
 8001150:	20000044 	.word	0x20000044
 8001154:	2000003c 	.word	0x2000003c
 8001158:	20000001 	.word	0x20000001

0800115c <Playground_Exec>:
**  					- this can be changed with the method "SetTimebase()"
**
**===========================================================================
*/
void Playground_Exec()
{
 800115c:	b580      	push	{r7, lr}
 800115e:	af00      	add	r7, sp, #0
	Neopixels_Single(pos);
 8001160:	4b15      	ldr	r3, [pc, #84]	; (80011b8 <Playground_Exec+0x5c>)
 8001162:	781b      	ldrb	r3, [r3, #0]
 8001164:	0018      	movs	r0, r3
 8001166:	f001 fa81 	bl	800266c <Neopixels_Single>
	pos += step;
 800116a:	4b13      	ldr	r3, [pc, #76]	; (80011b8 <Playground_Exec+0x5c>)
 800116c:	781a      	ldrb	r2, [r3, #0]
 800116e:	4b13      	ldr	r3, [pc, #76]	; (80011bc <Playground_Exec+0x60>)
 8001170:	781b      	ldrb	r3, [r3, #0]
 8001172:	b25b      	sxtb	r3, r3
 8001174:	b2db      	uxtb	r3, r3
 8001176:	18d3      	adds	r3, r2, r3
 8001178:	b2da      	uxtb	r2, r3
 800117a:	4b0f      	ldr	r3, [pc, #60]	; (80011b8 <Playground_Exec+0x5c>)
 800117c:	701a      	strb	r2, [r3, #0]
	if(pos >= 15)
 800117e:	4b0e      	ldr	r3, [pc, #56]	; (80011b8 <Playground_Exec+0x5c>)
 8001180:	781b      	ldrb	r3, [r3, #0]
 8001182:	2b0e      	cmp	r3, #14
 8001184:	d908      	bls.n	8001198 <Playground_Exec+0x3c>
	{
		step = -step;
 8001186:	4b0d      	ldr	r3, [pc, #52]	; (80011bc <Playground_Exec+0x60>)
 8001188:	781b      	ldrb	r3, [r3, #0]
 800118a:	b25b      	sxtb	r3, r3
 800118c:	b2db      	uxtb	r3, r3
 800118e:	425b      	negs	r3, r3
 8001190:	b2db      	uxtb	r3, r3
 8001192:	b25a      	sxtb	r2, r3
 8001194:	4b09      	ldr	r3, [pc, #36]	; (80011bc <Playground_Exec+0x60>)
 8001196:	701a      	strb	r2, [r3, #0]
	}
	if(pos == 0)
 8001198:	4b07      	ldr	r3, [pc, #28]	; (80011b8 <Playground_Exec+0x5c>)
 800119a:	781b      	ldrb	r3, [r3, #0]
 800119c:	2b00      	cmp	r3, #0
 800119e:	d108      	bne.n	80011b2 <Playground_Exec+0x56>
	{
		step = -step;
 80011a0:	4b06      	ldr	r3, [pc, #24]	; (80011bc <Playground_Exec+0x60>)
 80011a2:	781b      	ldrb	r3, [r3, #0]
 80011a4:	b25b      	sxtb	r3, r3
 80011a6:	b2db      	uxtb	r3, r3
 80011a8:	425b      	negs	r3, r3
 80011aa:	b2db      	uxtb	r3, r3
 80011ac:	b25a      	sxtb	r2, r3
 80011ae:	4b03      	ldr	r3, [pc, #12]	; (80011bc <Playground_Exec+0x60>)
 80011b0:	701a      	strb	r2, [r3, #0]
	}
}
 80011b2:	46c0      	nop			; (mov r8, r8)
 80011b4:	46bd      	mov	sp, r7
 80011b6:	bd80      	pop	{r7, pc}
 80011b8:	2000003c 	.word	0x2000003c
 80011bc:	20000001 	.word	0x20000001

080011c0 <NVIC_SetPriority>:
 \note The priority cannot be set for every core interrupt.

 \param [in]      IRQn  Interrupt number.
 \param [in]  priority  Priority to set.
 */
__STATIC_INLINE void NVIC_SetPriority(IRQn_Type IRQn, uint32_t priority) {
 80011c0:	b590      	push	{r4, r7, lr}
 80011c2:	b083      	sub	sp, #12
 80011c4:	af00      	add	r7, sp, #0
 80011c6:	0002      	movs	r2, r0
 80011c8:	6039      	str	r1, [r7, #0]
 80011ca:	1dfb      	adds	r3, r7, #7
 80011cc:	701a      	strb	r2, [r3, #0]
	if (IRQn < 0) {
 80011ce:	1dfb      	adds	r3, r7, #7
 80011d0:	781b      	ldrb	r3, [r3, #0]
 80011d2:	2b7f      	cmp	r3, #127	; 0x7f
 80011d4:	d932      	bls.n	800123c <NVIC_SetPriority+0x7c>
		SCB->SHP[_SHP_IDX(IRQn)] = (SCB->SHP[_SHP_IDX(IRQn)]
 80011d6:	4a2f      	ldr	r2, [pc, #188]	; (8001294 <NVIC_SetPriority+0xd4>)
 80011d8:	1dfb      	adds	r3, r7, #7
 80011da:	781b      	ldrb	r3, [r3, #0]
 80011dc:	0019      	movs	r1, r3
 80011de:	230f      	movs	r3, #15
 80011e0:	400b      	ands	r3, r1
 80011e2:	3b08      	subs	r3, #8
 80011e4:	089b      	lsrs	r3, r3, #2
 80011e6:	3306      	adds	r3, #6
 80011e8:	009b      	lsls	r3, r3, #2
 80011ea:	18d3      	adds	r3, r2, r3
 80011ec:	3304      	adds	r3, #4
 80011ee:	681b      	ldr	r3, [r3, #0]
				& ~(0xFF << _BIT_SHIFT(IRQn)))
 80011f0:	1dfa      	adds	r2, r7, #7
 80011f2:	7812      	ldrb	r2, [r2, #0]
 80011f4:	0011      	movs	r1, r2
 80011f6:	2203      	movs	r2, #3
 80011f8:	400a      	ands	r2, r1
 80011fa:	00d2      	lsls	r2, r2, #3
 80011fc:	21ff      	movs	r1, #255	; 0xff
 80011fe:	4091      	lsls	r1, r2
 8001200:	000a      	movs	r2, r1
 8001202:	43d2      	mvns	r2, r2
 8001204:	401a      	ands	r2, r3
 8001206:	0011      	movs	r1, r2
				| (((priority << (8 - __NVIC_PRIO_BITS)) & 0xFF)
 8001208:	683b      	ldr	r3, [r7, #0]
 800120a:	019b      	lsls	r3, r3, #6
 800120c:	22ff      	movs	r2, #255	; 0xff
 800120e:	401a      	ands	r2, r3
						<< _BIT_SHIFT(IRQn));
 8001210:	1dfb      	adds	r3, r7, #7
 8001212:	781b      	ldrb	r3, [r3, #0]
 8001214:	0018      	movs	r0, r3
 8001216:	2303      	movs	r3, #3
 8001218:	4003      	ands	r3, r0
 800121a:	00db      	lsls	r3, r3, #3
 800121c:	409a      	lsls	r2, r3
		SCB->SHP[_SHP_IDX(IRQn)] = (SCB->SHP[_SHP_IDX(IRQn)]
 800121e:	481d      	ldr	r0, [pc, #116]	; (8001294 <NVIC_SetPriority+0xd4>)
 8001220:	1dfb      	adds	r3, r7, #7
 8001222:	781b      	ldrb	r3, [r3, #0]
 8001224:	001c      	movs	r4, r3
 8001226:	230f      	movs	r3, #15
 8001228:	4023      	ands	r3, r4
 800122a:	3b08      	subs	r3, #8
 800122c:	089b      	lsrs	r3, r3, #2
				| (((priority << (8 - __NVIC_PRIO_BITS)) & 0xFF)
 800122e:	430a      	orrs	r2, r1
		SCB->SHP[_SHP_IDX(IRQn)] = (SCB->SHP[_SHP_IDX(IRQn)]
 8001230:	3306      	adds	r3, #6
 8001232:	009b      	lsls	r3, r3, #2
 8001234:	18c3      	adds	r3, r0, r3
 8001236:	3304      	adds	r3, #4
 8001238:	601a      	str	r2, [r3, #0]
		NVIC->IP[_IP_IDX(IRQn)] = (NVIC->IP[_IP_IDX(IRQn)]
				& ~(0xFF << _BIT_SHIFT(IRQn)))
				| (((priority << (8 - __NVIC_PRIO_BITS)) & 0xFF)
						<< _BIT_SHIFT(IRQn));
	}
}
 800123a:	e027      	b.n	800128c <NVIC_SetPriority+0xcc>
		NVIC->IP[_IP_IDX(IRQn)] = (NVIC->IP[_IP_IDX(IRQn)]
 800123c:	4a16      	ldr	r2, [pc, #88]	; (8001298 <NVIC_SetPriority+0xd8>)
 800123e:	1dfb      	adds	r3, r7, #7
 8001240:	781b      	ldrb	r3, [r3, #0]
 8001242:	b25b      	sxtb	r3, r3
 8001244:	089b      	lsrs	r3, r3, #2
 8001246:	33c0      	adds	r3, #192	; 0xc0
 8001248:	009b      	lsls	r3, r3, #2
 800124a:	589b      	ldr	r3, [r3, r2]
				& ~(0xFF << _BIT_SHIFT(IRQn)))
 800124c:	1dfa      	adds	r2, r7, #7
 800124e:	7812      	ldrb	r2, [r2, #0]
 8001250:	0011      	movs	r1, r2
 8001252:	2203      	movs	r2, #3
 8001254:	400a      	ands	r2, r1
 8001256:	00d2      	lsls	r2, r2, #3
 8001258:	21ff      	movs	r1, #255	; 0xff
 800125a:	4091      	lsls	r1, r2
 800125c:	000a      	movs	r2, r1
 800125e:	43d2      	mvns	r2, r2
 8001260:	401a      	ands	r2, r3
 8001262:	0011      	movs	r1, r2
				| (((priority << (8 - __NVIC_PRIO_BITS)) & 0xFF)
 8001264:	683b      	ldr	r3, [r7, #0]
 8001266:	019b      	lsls	r3, r3, #6
 8001268:	22ff      	movs	r2, #255	; 0xff
 800126a:	401a      	ands	r2, r3
						<< _BIT_SHIFT(IRQn));
 800126c:	1dfb      	adds	r3, r7, #7
 800126e:	781b      	ldrb	r3, [r3, #0]
 8001270:	0018      	movs	r0, r3
 8001272:	2303      	movs	r3, #3
 8001274:	4003      	ands	r3, r0
 8001276:	00db      	lsls	r3, r3, #3
 8001278:	409a      	lsls	r2, r3
		NVIC->IP[_IP_IDX(IRQn)] = (NVIC->IP[_IP_IDX(IRQn)]
 800127a:	4807      	ldr	r0, [pc, #28]	; (8001298 <NVIC_SetPriority+0xd8>)
 800127c:	1dfb      	adds	r3, r7, #7
 800127e:	781b      	ldrb	r3, [r3, #0]
 8001280:	b25b      	sxtb	r3, r3
 8001282:	089b      	lsrs	r3, r3, #2
				| (((priority << (8 - __NVIC_PRIO_BITS)) & 0xFF)
 8001284:	430a      	orrs	r2, r1
		NVIC->IP[_IP_IDX(IRQn)] = (NVIC->IP[_IP_IDX(IRQn)]
 8001286:	33c0      	adds	r3, #192	; 0xc0
 8001288:	009b      	lsls	r3, r3, #2
 800128a:	501a      	str	r2, [r3, r0]
}
 800128c:	46c0      	nop			; (mov r8, r8)
 800128e:	46bd      	mov	sp, r7
 8001290:	b003      	add	sp, #12
 8001292:	bd90      	pop	{r4, r7, pc}
 8001294:	e000ed00 	.word	0xe000ed00
 8001298:	e000e100 	.word	0xe000e100

0800129c <SysTick_Config>:
 \note     When the variable <b>__Vendor_SysTickConfig</b> is set to 1, then the
 function <b>SysTick_Config</b> is not included. In this case, the file <b><i>device</i>.h</b>
 must contain a vendor-specific implementation of this function.

 */
__STATIC_INLINE uint32_t SysTick_Config(uint32_t ticks) {
 800129c:	b580      	push	{r7, lr}
 800129e:	b082      	sub	sp, #8
 80012a0:	af00      	add	r7, sp, #0
 80012a2:	6078      	str	r0, [r7, #4]
	if ((ticks - 1) > SysTick_LOAD_RELOAD_Msk)
 80012a4:	687b      	ldr	r3, [r7, #4]
 80012a6:	1e5a      	subs	r2, r3, #1
 80012a8:	2380      	movs	r3, #128	; 0x80
 80012aa:	045b      	lsls	r3, r3, #17
 80012ac:	429a      	cmp	r2, r3
 80012ae:	d301      	bcc.n	80012b4 <SysTick_Config+0x18>
		return (1); /* Reload value impossible */
 80012b0:	2301      	movs	r3, #1
 80012b2:	e010      	b.n	80012d6 <SysTick_Config+0x3a>

	SysTick->LOAD = ticks - 1; /* set reload register */
 80012b4:	4b0a      	ldr	r3, [pc, #40]	; (80012e0 <SysTick_Config+0x44>)
 80012b6:	687a      	ldr	r2, [r7, #4]
 80012b8:	3a01      	subs	r2, #1
 80012ba:	605a      	str	r2, [r3, #4]
	NVIC_SetPriority(SysTick_IRQn, (1 << __NVIC_PRIO_BITS) - 1); /* set Priority for Systick Interrupt */
 80012bc:	2301      	movs	r3, #1
 80012be:	425b      	negs	r3, r3
 80012c0:	2103      	movs	r1, #3
 80012c2:	0018      	movs	r0, r3
 80012c4:	f7ff ff7c 	bl	80011c0 <NVIC_SetPriority>
	SysTick->VAL = 0; /* Load the SysTick Counter Value */
 80012c8:	4b05      	ldr	r3, [pc, #20]	; (80012e0 <SysTick_Config+0x44>)
 80012ca:	2200      	movs	r2, #0
 80012cc:	609a      	str	r2, [r3, #8]
	SysTick->CTRL = SysTick_CTRL_CLKSOURCE_Msk |
 80012ce:	4b04      	ldr	r3, [pc, #16]	; (80012e0 <SysTick_Config+0x44>)
 80012d0:	2207      	movs	r2, #7
 80012d2:	601a      	str	r2, [r3, #0]
	SysTick_CTRL_TICKINT_Msk |
	SysTick_CTRL_ENABLE_Msk; /* Enable SysTick IRQ and SysTick Timer */
	return (0); /* Function successful */
 80012d4:	2300      	movs	r3, #0
}
 80012d6:	0018      	movs	r0, r3
 80012d8:	46bd      	mov	sp, r7
 80012da:	b002      	add	sp, #8
 80012dc:	bd80      	pop	{r7, pc}
 80012de:	46c0      	nop			; (mov r8, r8)
 80012e0:	e000e010 	.word	0xe000e010

080012e4 <SysTick_Handler>:
**	clearing of the flag has to be done in the application code!
**
**===========================================================================
*/
void SysTick_Handler(void)
{
 80012e4:	b580      	push	{r7, lr}
 80012e6:	af00      	add	r7, sp, #0
	if(delayTimer)
 80012e8:	4b2a      	ldr	r3, [pc, #168]	; (8001394 <SysTick_Handler+0xb0>)
 80012ea:	681b      	ldr	r3, [r3, #0]
 80012ec:	2b00      	cmp	r3, #0
 80012ee:	d004      	beq.n	80012fa <SysTick_Handler+0x16>
	{
		delayTimer--;
 80012f0:	4b28      	ldr	r3, [pc, #160]	; (8001394 <SysTick_Handler+0xb0>)
 80012f2:	681b      	ldr	r3, [r3, #0]
 80012f4:	1e5a      	subs	r2, r3, #1
 80012f6:	4b27      	ldr	r3, [pc, #156]	; (8001394 <SysTick_Handler+0xb0>)
 80012f8:	601a      	str	r2, [r3, #0]
	}
	timer_ms--;
 80012fa:	4b27      	ldr	r3, [pc, #156]	; (8001398 <SysTick_Handler+0xb4>)
 80012fc:	781b      	ldrb	r3, [r3, #0]
 80012fe:	3b01      	subs	r3, #1
 8001300:	b2da      	uxtb	r2, r3
 8001302:	4b25      	ldr	r3, [pc, #148]	; (8001398 <SysTick_Handler+0xb4>)
 8001304:	701a      	strb	r2, [r3, #0]
	timerFlags |= TIMER_FLAG_1MS;
 8001306:	4b25      	ldr	r3, [pc, #148]	; (800139c <SysTick_Handler+0xb8>)
 8001308:	781b      	ldrb	r3, [r3, #0]
 800130a:	b2db      	uxtb	r3, r3
 800130c:	2201      	movs	r2, #1
 800130e:	4313      	orrs	r3, r2
 8001310:	b2da      	uxtb	r2, r3
 8001312:	4b22      	ldr	r3, [pc, #136]	; (800139c <SysTick_Handler+0xb8>)
 8001314:	701a      	strb	r2, [r3, #0]

	//10ms timebase
	if(!timer_ms)
 8001316:	4b20      	ldr	r3, [pc, #128]	; (8001398 <SysTick_Handler+0xb4>)
 8001318:	781b      	ldrb	r3, [r3, #0]
 800131a:	2b00      	cmp	r3, #0
 800131c:	d110      	bne.n	8001340 <SysTick_Handler+0x5c>
	{
		timerFlags |= TIMER_FLAG_10MS;
 800131e:	4b1f      	ldr	r3, [pc, #124]	; (800139c <SysTick_Handler+0xb8>)
 8001320:	781b      	ldrb	r3, [r3, #0]
 8001322:	b2db      	uxtb	r3, r3
 8001324:	2202      	movs	r2, #2
 8001326:	4313      	orrs	r3, r2
 8001328:	b2da      	uxtb	r2, r3
 800132a:	4b1c      	ldr	r3, [pc, #112]	; (800139c <SysTick_Handler+0xb8>)
 800132c:	701a      	strb	r2, [r3, #0]
		timer_ms = 10;
 800132e:	4b1a      	ldr	r3, [pc, #104]	; (8001398 <SysTick_Handler+0xb4>)
 8001330:	220a      	movs	r2, #10
 8001332:	701a      	strb	r2, [r3, #0]
		timer_10ms--;
 8001334:	4b1a      	ldr	r3, [pc, #104]	; (80013a0 <SysTick_Handler+0xbc>)
 8001336:	781b      	ldrb	r3, [r3, #0]
 8001338:	3b01      	subs	r3, #1
 800133a:	b2da      	uxtb	r2, r3
 800133c:	4b18      	ldr	r3, [pc, #96]	; (80013a0 <SysTick_Handler+0xbc>)
 800133e:	701a      	strb	r2, [r3, #0]
	}
	//100ms timebase
	if(!timer_10ms)
 8001340:	4b17      	ldr	r3, [pc, #92]	; (80013a0 <SysTick_Handler+0xbc>)
 8001342:	781b      	ldrb	r3, [r3, #0]
 8001344:	2b00      	cmp	r3, #0
 8001346:	d10a      	bne.n	800135e <SysTick_Handler+0x7a>
	{
		timerFlags |= TIMER_FLAG_100MS;
 8001348:	4b14      	ldr	r3, [pc, #80]	; (800139c <SysTick_Handler+0xb8>)
 800134a:	781b      	ldrb	r3, [r3, #0]
 800134c:	b2db      	uxtb	r3, r3
 800134e:	2204      	movs	r2, #4
 8001350:	4313      	orrs	r3, r2
 8001352:	b2da      	uxtb	r2, r3
 8001354:	4b11      	ldr	r3, [pc, #68]	; (800139c <SysTick_Handler+0xb8>)
 8001356:	701a      	strb	r2, [r3, #0]
		timer_10ms = 10;
 8001358:	4b11      	ldr	r3, [pc, #68]	; (80013a0 <SysTick_Handler+0xbc>)
 800135a:	220a      	movs	r2, #10
 800135c:	701a      	strb	r2, [r3, #0]
	}
	//application timer
	if(appTimer)
 800135e:	4b11      	ldr	r3, [pc, #68]	; (80013a4 <SysTick_Handler+0xc0>)
 8001360:	681b      	ldr	r3, [r3, #0]
 8001362:	2b00      	cmp	r3, #0
 8001364:	d005      	beq.n	8001372 <SysTick_Handler+0x8e>
	{
		appTimer--;
 8001366:	4b0f      	ldr	r3, [pc, #60]	; (80013a4 <SysTick_Handler+0xc0>)
 8001368:	681b      	ldr	r3, [r3, #0]
 800136a:	1e5a      	subs	r2, r3, #1
 800136c:	4b0d      	ldr	r3, [pc, #52]	; (80013a4 <SysTick_Handler+0xc0>)
 800136e:	601a      	str	r2, [r3, #0]
	else
	{
		timerFlags |= TIMER_FLAG_APP;
		appTimer = AppMgmt_Timebase;
	}
}
 8001370:	e00c      	b.n	800138c <SysTick_Handler+0xa8>
		timerFlags |= TIMER_FLAG_APP;
 8001372:	4b0a      	ldr	r3, [pc, #40]	; (800139c <SysTick_Handler+0xb8>)
 8001374:	781b      	ldrb	r3, [r3, #0]
 8001376:	b2db      	uxtb	r3, r3
 8001378:	2208      	movs	r2, #8
 800137a:	4313      	orrs	r3, r2
 800137c:	b2da      	uxtb	r2, r3
 800137e:	4b07      	ldr	r3, [pc, #28]	; (800139c <SysTick_Handler+0xb8>)
 8001380:	701a      	strb	r2, [r3, #0]
		appTimer = AppMgmt_Timebase;
 8001382:	4b09      	ldr	r3, [pc, #36]	; (80013a8 <SysTick_Handler+0xc4>)
 8001384:	881b      	ldrh	r3, [r3, #0]
 8001386:	001a      	movs	r2, r3
 8001388:	4b06      	ldr	r3, [pc, #24]	; (80013a4 <SysTick_Handler+0xc0>)
 800138a:	601a      	str	r2, [r3, #0]
}
 800138c:	46c0      	nop			; (mov r8, r8)
 800138e:	46bd      	mov	sp, r7
 8001390:	bd80      	pop	{r7, pc}
 8001392:	46c0      	nop			; (mov r8, r8)
 8001394:	20000054 	.word	0x20000054
 8001398:	20000002 	.word	0x20000002
 800139c:	2000003d 	.word	0x2000003d
 80013a0:	20000003 	.word	0x20000003
 80013a4:	20000004 	.word	0x20000004
 80013a8:	20000044 	.word	0x20000044

080013ac <delay>:
/**
 * blocking delay loop
 * @param ticks: number of ticks (ms) to wait
 */
void delay(uint32_t ticks)
{
 80013ac:	b580      	push	{r7, lr}
 80013ae:	b082      	sub	sp, #8
 80013b0:	af00      	add	r7, sp, #0
 80013b2:	6078      	str	r0, [r7, #4]
	delayTimer = ticks;
 80013b4:	4b06      	ldr	r3, [pc, #24]	; (80013d0 <delay+0x24>)
 80013b6:	687a      	ldr	r2, [r7, #4]
 80013b8:	601a      	str	r2, [r3, #0]
	while(delayTimer > 0);
 80013ba:	46c0      	nop			; (mov r8, r8)
 80013bc:	4b04      	ldr	r3, [pc, #16]	; (80013d0 <delay+0x24>)
 80013be:	681b      	ldr	r3, [r3, #0]
 80013c0:	2b00      	cmp	r3, #0
 80013c2:	d1fb      	bne.n	80013bc <delay+0x10>
}
 80013c4:	46c0      	nop			; (mov r8, r8)
 80013c6:	46c0      	nop			; (mov r8, r8)
 80013c8:	46bd      	mov	sp, r7
 80013ca:	b002      	add	sp, #8
 80013cc:	bd80      	pop	{r7, pc}
 80013ce:	46c0      	nop			; (mov r8, r8)
 80013d0:	20000054 	.word	0x20000054

080013d4 <main>:

int main(void)
{
 80013d4:	b580      	push	{r7, lr}
 80013d6:	af00      	add	r7, sp, #0
	SystemInit();
 80013d8:	f000 f894 	bl	8001504 <SystemInit>
	SystemCoreClockUpdate();
 80013dc:	f000 f8da 	bl	8001594 <SystemCoreClockUpdate>
	//the systick timer runs with 6MHz
	//config the timer for 1ms interval
	SysTick_Config(SystemCoreClock / 8 / 1000);
 80013e0:	4b2f      	ldr	r3, [pc, #188]	; (80014a0 <main+0xcc>)
 80013e2:	681b      	ldr	r3, [r3, #0]
 80013e4:	22fa      	movs	r2, #250	; 0xfa
 80013e6:	0151      	lsls	r1, r2, #5
 80013e8:	0018      	movs	r0, r3
 80013ea:	f7fe fe8d 	bl	8000108 <__udivsi3>
 80013ee:	0003      	movs	r3, r0
 80013f0:	0018      	movs	r0, r3
 80013f2:	f7ff ff53 	bl	800129c <SysTick_Config>
	//the systick_config just set the priority of the systick to 15  or so - very low!
	//set it back to 0
	NVIC_SetPriority(SysTick_IRQn,0);
 80013f6:	2301      	movs	r3, #1
 80013f8:	425b      	negs	r3, r3
 80013fa:	2100      	movs	r1, #0
 80013fc:	0018      	movs	r0, r3
 80013fe:	f7ff fedf 	bl	80011c0 <NVIC_SetPriority>
	SysTick_CLKSourceConfig(SysTick_CLKSource_HCLK_Div8);
 8001402:	2305      	movs	r3, #5
 8001404:	425b      	negs	r3, r3
 8001406:	0018      	movs	r0, r3
 8001408:	f7ff fb34 	bl	8000a74 <SysTick_CLKSourceConfig>

	power_init();
 800140c:	f001 fafa 	bl	8002a04 <power_init>
	Neopixels_init();	//this includes a quick led-test
 8001410:	f000 ff32 	bl	8002278 <Neopixels_init>

	if(power_UsbPresent()) {
 8001414:	f001 fb4e 	bl	8002ab4 <power_UsbPresent>
//		winusb_init_usbd();
//		usb_device_connect();
//		consoleInit();
	}
	//init application (run once)
	AppMgmt_AppInit();
 8001418:	f7ff fc0e 	bl	8000c38 <AppMgmt_AppInit>
//		if(power_UsbPresent()){
//			USB_Handler();
//		}

		//run application (called continously until button is held long enough to switch to another one or power is switched off)
		if(timerFlags & TIMER_FLAG_APP)
 800141c:	4b21      	ldr	r3, [pc, #132]	; (80014a4 <main+0xd0>)
 800141e:	781b      	ldrb	r3, [r3, #0]
 8001420:	b2db      	uxtb	r3, r3
 8001422:	001a      	movs	r2, r3
 8001424:	2308      	movs	r3, #8
 8001426:	4013      	ands	r3, r2
 8001428:	d009      	beq.n	800143e <main+0x6a>
		{
			timerFlags &= ~TIMER_FLAG_APP;
 800142a:	4b1e      	ldr	r3, [pc, #120]	; (80014a4 <main+0xd0>)
 800142c:	781b      	ldrb	r3, [r3, #0]
 800142e:	b2db      	uxtb	r3, r3
 8001430:	2208      	movs	r2, #8
 8001432:	4393      	bics	r3, r2
 8001434:	b2da      	uxtb	r2, r3
 8001436:	4b1b      	ldr	r3, [pc, #108]	; (80014a4 <main+0xd0>)
 8001438:	701a      	strb	r2, [r3, #0]
			AppMgmt_AppExec();
 800143a:	f7ff fc29 	bl	8000c90 <AppMgmt_AppExec>
		}
		if(timerFlags & TIMER_FLAG_100MS)
 800143e:	4b19      	ldr	r3, [pc, #100]	; (80014a4 <main+0xd0>)
 8001440:	781b      	ldrb	r3, [r3, #0]
 8001442:	b2db      	uxtb	r3, r3
 8001444:	001a      	movs	r2, r3
 8001446:	2304      	movs	r3, #4
 8001448:	4013      	ands	r3, r2
 800144a:	d0e7      	beq.n	800141c <main+0x48>
		{
			timerFlags &= ~TIMER_FLAG_100MS;
 800144c:	4b15      	ldr	r3, [pc, #84]	; (80014a4 <main+0xd0>)
 800144e:	781b      	ldrb	r3, [r3, #0]
 8001450:	b2db      	uxtb	r3, r3
 8001452:	2204      	movs	r2, #4
 8001454:	4393      	bics	r3, r2
 8001456:	b2da      	uxtb	r2, r3
 8001458:	4b12      	ldr	r3, [pc, #72]	; (80014a4 <main+0xd0>)
 800145a:	701a      	strb	r2, [r3, #0]
			power_exec();
 800145c:	f001 fb58 	bl	8002b10 <power_exec>

			if(power_flags & POWER_FLAG_SW_HOLD)
 8001460:	4b11      	ldr	r3, [pc, #68]	; (80014a8 <main+0xd4>)
 8001462:	781b      	ldrb	r3, [r3, #0]
 8001464:	001a      	movs	r2, r3
 8001466:	2304      	movs	r3, #4
 8001468:	4013      	ands	r3, r2
 800146a:	d008      	beq.n	800147e <main+0xaa>
			{
				power_flags &= ~POWER_FLAG_SW_HOLD;
 800146c:	4b0e      	ldr	r3, [pc, #56]	; (80014a8 <main+0xd4>)
 800146e:	781b      	ldrb	r3, [r3, #0]
 8001470:	2204      	movs	r2, #4
 8001472:	4393      	bics	r3, r2
 8001474:	b2da      	uxtb	r2, r3
 8001476:	4b0c      	ldr	r3, [pc, #48]	; (80014a8 <main+0xd4>)
 8001478:	701a      	strb	r2, [r3, #0]
				AppMgmt_CycleApps();
 800147a:	f7ff fc33 	bl	8000ce4 <AppMgmt_CycleApps>

			}
			//only if the swich is released after holding it for at least 0.6s
			if(power_flags & POWER_FLAG_SW_REL_HOLD)
 800147e:	4b0a      	ldr	r3, [pc, #40]	; (80014a8 <main+0xd4>)
 8001480:	781b      	ldrb	r3, [r3, #0]
 8001482:	001a      	movs	r2, r3
 8001484:	2308      	movs	r3, #8
 8001486:	4013      	ands	r3, r2
 8001488:	d0c8      	beq.n	800141c <main+0x48>
			{
				power_flags &= ~POWER_FLAG_SW_REL_HOLD;
 800148a:	4b07      	ldr	r3, [pc, #28]	; (80014a8 <main+0xd4>)
 800148c:	781b      	ldrb	r3, [r3, #0]
 800148e:	2208      	movs	r2, #8
 8001490:	4393      	bics	r3, r2
 8001492:	b2da      	uxtb	r2, r3
 8001494:	4b04      	ldr	r3, [pc, #16]	; (80014a8 <main+0xd4>)
 8001496:	701a      	strb	r2, [r3, #0]
				AppMgmt_LoadApp();
 8001498:	f7ff fc4c 	bl	8000d34 <AppMgmt_LoadApp>
		if(timerFlags & TIMER_FLAG_APP)
 800149c:	e7be      	b.n	800141c <main+0x48>
 800149e:	46c0      	nop			; (mov r8, r8)
 80014a0:	20000008 	.word	0x20000008
 80014a4:	2000003d 	.word	0x2000003d
 80014a8:	2000004c 	.word	0x2000004c

080014ac <NMI_Handler>:
  * @brief  This function handles NMI exception.
  * @param  None
  * @retval None
  */
void NMI_Handler(void)
{
 80014ac:	b580      	push	{r7, lr}
 80014ae:	af00      	add	r7, sp, #0
}
 80014b0:	46c0      	nop			; (mov r8, r8)
 80014b2:	46bd      	mov	sp, r7
 80014b4:	bd80      	pop	{r7, pc}

080014b6 <HardFault_Handler>:
  * @param  None
  * @retval None
  */

void HardFault_Handler(void)
{
 80014b6:	b580      	push	{r7, lr}
 80014b8:	af00      	add	r7, sp, #0
  /* Go to infinite loop when Hard Fault exception occurs */
  while (1)
 80014ba:	e7fe      	b.n	80014ba <HardFault_Handler+0x4>

080014bc <SVC_Handler>:
  * @brief  This function handles SVCall exception.
  * @param  None
  * @retval None
  */
void SVC_Handler(void)
{
 80014bc:	b580      	push	{r7, lr}
 80014be:	af00      	add	r7, sp, #0
}
 80014c0:	46c0      	nop			; (mov r8, r8)
 80014c2:	46bd      	mov	sp, r7
 80014c4:	bd80      	pop	{r7, pc}

080014c6 <PendSV_Handler>:
  * @brief  This function handles PendSVC exception.
  * @param  None
  * @retval None
  */
void PendSV_Handler(void)
{
 80014c6:	b580      	push	{r7, lr}
 80014c8:	af00      	add	r7, sp, #0
}
 80014ca:	46c0      	nop			; (mov r8, r8)
 80014cc:	46bd      	mov	sp, r7
 80014ce:	bd80      	pop	{r7, pc}

080014d0 <USB_IRQHandler>:
  * @brief  This function handles USB FS Handler.
  * @param  None
  * @retval None
  */
void USB_IRQHandler(void)
{
 80014d0:	b580      	push	{r7, lr}
 80014d2:	af00      	add	r7, sp, #0
	//USB_Istr();
}
 80014d4:	46c0      	nop			; (mov r8, r8)
 80014d6:	46bd      	mov	sp, r7
 80014d8:	bd80      	pop	{r7, pc}

080014da <EXTI2_3_IRQHandler>:

void EXTI2_3_IRQHandler(void)
{
 80014da:	b580      	push	{r7, lr}
 80014dc:	af00      	add	r7, sp, #0
	displayFindReturnPoint();
 80014de:	f000 fdd9 	bl	8002094 <displayFindReturnPoint>
}
 80014e2:	46c0      	nop			; (mov r8, r8)
 80014e4:	46bd      	mov	sp, r7
 80014e6:	bd80      	pop	{r7, pc}

080014e8 <TIM2_IRQHandler>:

void TIM2_IRQHandler(void)
{
 80014e8:	b580      	push	{r7, lr}
 80014ea:	af00      	add	r7, sp, #0
	displayEndOfLocktime();
 80014ec:	f000 fd62 	bl	8001fb4 <displayEndOfLocktime>
}
 80014f0:	46c0      	nop			; (mov r8, r8)
 80014f2:	46bd      	mov	sp, r7
 80014f4:	bd80      	pop	{r7, pc}

080014f6 <TIM3_IRQHandler>:

void TIM3_IRQHandler(void)
{
 80014f6:	b580      	push	{r7, lr}
 80014f8:	af00      	add	r7, sp, #0
	displaySendLine();
 80014fa:	f000 fcf1 	bl	8001ee0 <displaySendLine>
}
 80014fe:	46c0      	nop			; (mov r8, r8)
 8001500:	46bd      	mov	sp, r7
 8001502:	bd80      	pop	{r7, pc}

08001504 <SystemInit>:
  *         SystemCoreClock variable.
  * @param  None
  * @retval None
  */
void SystemInit (void)
{    
 8001504:	b580      	push	{r7, lr}
 8001506:	af00      	add	r7, sp, #0
  /* Set HSION bit */
  RCC->CR |= (uint32_t)0x00000001;
 8001508:	4b1b      	ldr	r3, [pc, #108]	; (8001578 <SystemInit+0x74>)
 800150a:	681a      	ldr	r2, [r3, #0]
 800150c:	4b1a      	ldr	r3, [pc, #104]	; (8001578 <SystemInit+0x74>)
 800150e:	2101      	movs	r1, #1
 8001510:	430a      	orrs	r2, r1
 8001512:	601a      	str	r2, [r3, #0]

  /* Reset SW[1:0], HPRE[3:0], PPRE[2:0], ADCPRE and MCOSEL[3:0] bits MCOPRE[2:0] */
  RCC->CFGR &= (uint32_t)0x80FFB80C;
 8001514:	4b18      	ldr	r3, [pc, #96]	; (8001578 <SystemInit+0x74>)
 8001516:	685a      	ldr	r2, [r3, #4]
 8001518:	4b17      	ldr	r3, [pc, #92]	; (8001578 <SystemInit+0x74>)
 800151a:	4918      	ldr	r1, [pc, #96]	; (800157c <SystemInit+0x78>)
 800151c:	400a      	ands	r2, r1
 800151e:	605a      	str	r2, [r3, #4]
  
  /* Reset HSEON, CSSON and PLLON bits */
  RCC->CR &= (uint32_t)0xFEF6FFFF;
 8001520:	4b15      	ldr	r3, [pc, #84]	; (8001578 <SystemInit+0x74>)
 8001522:	681a      	ldr	r2, [r3, #0]
 8001524:	4b14      	ldr	r3, [pc, #80]	; (8001578 <SystemInit+0x74>)
 8001526:	4916      	ldr	r1, [pc, #88]	; (8001580 <SystemInit+0x7c>)
 8001528:	400a      	ands	r2, r1
 800152a:	601a      	str	r2, [r3, #0]

  /* Reset HSEBYP bit */
  RCC->CR &= (uint32_t)0xFFFBFFFF;
 800152c:	4b12      	ldr	r3, [pc, #72]	; (8001578 <SystemInit+0x74>)
 800152e:	681a      	ldr	r2, [r3, #0]
 8001530:	4b11      	ldr	r3, [pc, #68]	; (8001578 <SystemInit+0x74>)
 8001532:	4914      	ldr	r1, [pc, #80]	; (8001584 <SystemInit+0x80>)
 8001534:	400a      	ands	r2, r1
 8001536:	601a      	str	r2, [r3, #0]

  /* Reset PLLSRC, PLLXTPRE and PLLMUL[3:0] bits */
  RCC->CFGR &= (uint32_t)0xFFC07FFF;
 8001538:	4b0f      	ldr	r3, [pc, #60]	; (8001578 <SystemInit+0x74>)
 800153a:	685a      	ldr	r2, [r3, #4]
 800153c:	4b0e      	ldr	r3, [pc, #56]	; (8001578 <SystemInit+0x74>)
 800153e:	4912      	ldr	r1, [pc, #72]	; (8001588 <SystemInit+0x84>)
 8001540:	400a      	ands	r2, r1
 8001542:	605a      	str	r2, [r3, #4]

  /* Reset PREDIV1[3:0] bits */
  RCC->CFGR2 &= (uint32_t)0xFFFFFFF0;
 8001544:	4b0c      	ldr	r3, [pc, #48]	; (8001578 <SystemInit+0x74>)
 8001546:	6ada      	ldr	r2, [r3, #44]	; 0x2c
 8001548:	4b0b      	ldr	r3, [pc, #44]	; (8001578 <SystemInit+0x74>)
 800154a:	210f      	movs	r1, #15
 800154c:	438a      	bics	r2, r1
 800154e:	62da      	str	r2, [r3, #44]	; 0x2c

  /* Reset USARTSW[1:0], I2CSW, CECSW and ADCSW bits */
  RCC->CFGR3 &= (uint32_t)0xFFFFFEAC;
 8001550:	4b09      	ldr	r3, [pc, #36]	; (8001578 <SystemInit+0x74>)
 8001552:	6b1a      	ldr	r2, [r3, #48]	; 0x30
 8001554:	4b08      	ldr	r3, [pc, #32]	; (8001578 <SystemInit+0x74>)
 8001556:	490d      	ldr	r1, [pc, #52]	; (800158c <SystemInit+0x88>)
 8001558:	400a      	ands	r2, r1
 800155a:	631a      	str	r2, [r3, #48]	; 0x30

  /* Reset HSI14 & HSI48 bit */
  RCC->CR2 &= (uint32_t)0xFFFEFFFE;
 800155c:	4b06      	ldr	r3, [pc, #24]	; (8001578 <SystemInit+0x74>)
 800155e:	6b5a      	ldr	r2, [r3, #52]	; 0x34
 8001560:	4b05      	ldr	r3, [pc, #20]	; (8001578 <SystemInit+0x74>)
 8001562:	490b      	ldr	r1, [pc, #44]	; (8001590 <SystemInit+0x8c>)
 8001564:	400a      	ands	r2, r1
 8001566:	635a      	str	r2, [r3, #52]	; 0x34

  /* Disable all interrupts */
  RCC->CIR = 0x00000000;
 8001568:	4b03      	ldr	r3, [pc, #12]	; (8001578 <SystemInit+0x74>)
 800156a:	2200      	movs	r2, #0
 800156c:	609a      	str	r2, [r3, #8]

  /* Configure the System clock frequency, AHB/APBx prescalers and Flash settings */
  SetSysClock();
 800156e:	f000 f893 	bl	8001698 <SetSysClock>
}
 8001572:	46c0      	nop			; (mov r8, r8)
 8001574:	46bd      	mov	sp, r7
 8001576:	bd80      	pop	{r7, pc}
 8001578:	40021000 	.word	0x40021000
 800157c:	80ffb80c 	.word	0x80ffb80c
 8001580:	fef6ffff 	.word	0xfef6ffff
 8001584:	fffbffff 	.word	0xfffbffff
 8001588:	ffc07fff 	.word	0xffc07fff
 800158c:	fffffeac 	.word	0xfffffeac
 8001590:	fffefffe 	.word	0xfffefffe

08001594 <SystemCoreClockUpdate>:
  *           value for HSE crystal.
  * @param  None
  * @retval None
  */
void SystemCoreClockUpdate (void)
{
 8001594:	b580      	push	{r7, lr}
 8001596:	b084      	sub	sp, #16
 8001598:	af00      	add	r7, sp, #0
  uint32_t tmp = 0, pllmull = 0, pllsource = 0, prediv1factor = 0;
 800159a:	2300      	movs	r3, #0
 800159c:	60fb      	str	r3, [r7, #12]
 800159e:	2300      	movs	r3, #0
 80015a0:	60bb      	str	r3, [r7, #8]
 80015a2:	2300      	movs	r3, #0
 80015a4:	607b      	str	r3, [r7, #4]
 80015a6:	2300      	movs	r3, #0
 80015a8:	603b      	str	r3, [r7, #0]

  /* Get SYSCLK source -------------------------------------------------------*/
  tmp = RCC->CFGR & RCC_CFGR_SWS;
 80015aa:	4b36      	ldr	r3, [pc, #216]	; (8001684 <SystemCoreClockUpdate+0xf0>)
 80015ac:	685b      	ldr	r3, [r3, #4]
 80015ae:	220c      	movs	r2, #12
 80015b0:	4013      	ands	r3, r2
 80015b2:	60fb      	str	r3, [r7, #12]
  
  switch (tmp)
 80015b4:	68fb      	ldr	r3, [r7, #12]
 80015b6:	2b0c      	cmp	r3, #12
 80015b8:	d048      	beq.n	800164c <SystemCoreClockUpdate+0xb8>
 80015ba:	68fb      	ldr	r3, [r7, #12]
 80015bc:	2b0c      	cmp	r3, #12
 80015be:	d849      	bhi.n	8001654 <SystemCoreClockUpdate+0xc0>
 80015c0:	68fb      	ldr	r3, [r7, #12]
 80015c2:	2b08      	cmp	r3, #8
 80015c4:	d011      	beq.n	80015ea <SystemCoreClockUpdate+0x56>
 80015c6:	68fb      	ldr	r3, [r7, #12]
 80015c8:	2b08      	cmp	r3, #8
 80015ca:	d843      	bhi.n	8001654 <SystemCoreClockUpdate+0xc0>
 80015cc:	68fb      	ldr	r3, [r7, #12]
 80015ce:	2b00      	cmp	r3, #0
 80015d0:	d003      	beq.n	80015da <SystemCoreClockUpdate+0x46>
 80015d2:	68fb      	ldr	r3, [r7, #12]
 80015d4:	2b04      	cmp	r3, #4
 80015d6:	d004      	beq.n	80015e2 <SystemCoreClockUpdate+0x4e>
 80015d8:	e03c      	b.n	8001654 <SystemCoreClockUpdate+0xc0>
  {
  case 0x00:  /* HSI used as system clock */
    SystemCoreClock = HSI_VALUE;
 80015da:	4b2b      	ldr	r3, [pc, #172]	; (8001688 <SystemCoreClockUpdate+0xf4>)
 80015dc:	4a2b      	ldr	r2, [pc, #172]	; (800168c <SystemCoreClockUpdate+0xf8>)
 80015de:	601a      	str	r2, [r3, #0]
    break;
 80015e0:	e03c      	b.n	800165c <SystemCoreClockUpdate+0xc8>
  case 0x04:  /* HSE used as system clock */
    SystemCoreClock = HSE_VALUE;
 80015e2:	4b29      	ldr	r3, [pc, #164]	; (8001688 <SystemCoreClockUpdate+0xf4>)
 80015e4:	4a29      	ldr	r2, [pc, #164]	; (800168c <SystemCoreClockUpdate+0xf8>)
 80015e6:	601a      	str	r2, [r3, #0]
    break;
 80015e8:	e038      	b.n	800165c <SystemCoreClockUpdate+0xc8>
  case 0x08:  /* PLL used as system clock */
    /* Get PLL clock source and multiplication factor ----------------------*/
    pllmull = RCC->CFGR & RCC_CFGR_PLLMULL;
 80015ea:	4b26      	ldr	r3, [pc, #152]	; (8001684 <SystemCoreClockUpdate+0xf0>)
 80015ec:	685a      	ldr	r2, [r3, #4]
 80015ee:	23f0      	movs	r3, #240	; 0xf0
 80015f0:	039b      	lsls	r3, r3, #14
 80015f2:	4013      	ands	r3, r2
 80015f4:	60bb      	str	r3, [r7, #8]
    pllsource = RCC->CFGR & RCC_CFGR_PLLSRC;
 80015f6:	4b23      	ldr	r3, [pc, #140]	; (8001684 <SystemCoreClockUpdate+0xf0>)
 80015f8:	685a      	ldr	r2, [r3, #4]
 80015fa:	23c0      	movs	r3, #192	; 0xc0
 80015fc:	025b      	lsls	r3, r3, #9
 80015fe:	4013      	ands	r3, r2
 8001600:	607b      	str	r3, [r7, #4]
    pllmull = ( pllmull >> 18) + 2;
 8001602:	68bb      	ldr	r3, [r7, #8]
 8001604:	0c9b      	lsrs	r3, r3, #18
 8001606:	3302      	adds	r3, #2
 8001608:	60bb      	str	r3, [r7, #8]

    if (pllsource == 0x00)
 800160a:	687b      	ldr	r3, [r7, #4]
 800160c:	2b00      	cmp	r3, #0
 800160e:	d10c      	bne.n	800162a <SystemCoreClockUpdate+0x96>
    {
      /* HSI oscillator clock divided by 2 selected as PLL clock entry */
      SystemCoreClock = (HSI_VALUE >> 1) * pllmull;
 8001610:	68b9      	ldr	r1, [r7, #8]
 8001612:	000a      	movs	r2, r1
 8001614:	0152      	lsls	r2, r2, #5
 8001616:	1a52      	subs	r2, r2, r1
 8001618:	0193      	lsls	r3, r2, #6
 800161a:	1a9b      	subs	r3, r3, r2
 800161c:	00db      	lsls	r3, r3, #3
 800161e:	185b      	adds	r3, r3, r1
 8001620:	021b      	lsls	r3, r3, #8
 8001622:	001a      	movs	r2, r3
 8001624:	4b18      	ldr	r3, [pc, #96]	; (8001688 <SystemCoreClockUpdate+0xf4>)
 8001626:	601a      	str	r2, [r3, #0]
    {
      prediv1factor = (RCC->CFGR2 & RCC_CFGR2_PREDIV1) + 1;
      /* HSE oscillator clock selected as PREDIV1 clock entry */
      SystemCoreClock = (HSE_VALUE / prediv1factor) * pllmull;
    }
    break;
 8001628:	e018      	b.n	800165c <SystemCoreClockUpdate+0xc8>
      prediv1factor = (RCC->CFGR2 & RCC_CFGR2_PREDIV1) + 1;
 800162a:	4b16      	ldr	r3, [pc, #88]	; (8001684 <SystemCoreClockUpdate+0xf0>)
 800162c:	6adb      	ldr	r3, [r3, #44]	; 0x2c
 800162e:	220f      	movs	r2, #15
 8001630:	4013      	ands	r3, r2
 8001632:	3301      	adds	r3, #1
 8001634:	603b      	str	r3, [r7, #0]
      SystemCoreClock = (HSE_VALUE / prediv1factor) * pllmull;
 8001636:	6839      	ldr	r1, [r7, #0]
 8001638:	4814      	ldr	r0, [pc, #80]	; (800168c <SystemCoreClockUpdate+0xf8>)
 800163a:	f7fe fd65 	bl	8000108 <__udivsi3>
 800163e:	0003      	movs	r3, r0
 8001640:	001a      	movs	r2, r3
 8001642:	68bb      	ldr	r3, [r7, #8]
 8001644:	435a      	muls	r2, r3
 8001646:	4b10      	ldr	r3, [pc, #64]	; (8001688 <SystemCoreClockUpdate+0xf4>)
 8001648:	601a      	str	r2, [r3, #0]
    break;
 800164a:	e007      	b.n	800165c <SystemCoreClockUpdate+0xc8>
  case 0x0C:  /* HSI48 used as system clock */
    SystemCoreClock = HSI48_VALUE;
 800164c:	4b0e      	ldr	r3, [pc, #56]	; (8001688 <SystemCoreClockUpdate+0xf4>)
 800164e:	4a10      	ldr	r2, [pc, #64]	; (8001690 <SystemCoreClockUpdate+0xfc>)
 8001650:	601a      	str	r2, [r3, #0]
    break;
 8001652:	e003      	b.n	800165c <SystemCoreClockUpdate+0xc8>
  default: /* HSI used as system clock */
    SystemCoreClock = HSI_VALUE;
 8001654:	4b0c      	ldr	r3, [pc, #48]	; (8001688 <SystemCoreClockUpdate+0xf4>)
 8001656:	4a0d      	ldr	r2, [pc, #52]	; (800168c <SystemCoreClockUpdate+0xf8>)
 8001658:	601a      	str	r2, [r3, #0]
    break;
 800165a:	46c0      	nop			; (mov r8, r8)

  }
  /* Compute HCLK clock frequency ----------------*/
  /* Get HCLK prescaler */
  tmp = AHBPrescTable[((RCC->CFGR & RCC_CFGR_HPRE) >> 4)];
 800165c:	4b09      	ldr	r3, [pc, #36]	; (8001684 <SystemCoreClockUpdate+0xf0>)
 800165e:	685b      	ldr	r3, [r3, #4]
 8001660:	091b      	lsrs	r3, r3, #4
 8001662:	220f      	movs	r2, #15
 8001664:	4013      	ands	r3, r2
 8001666:	4a0b      	ldr	r2, [pc, #44]	; (8001694 <SystemCoreClockUpdate+0x100>)
 8001668:	5cd3      	ldrb	r3, [r2, r3]
 800166a:	b2db      	uxtb	r3, r3
 800166c:	60fb      	str	r3, [r7, #12]
  /* HCLK clock frequency */
  SystemCoreClock >>= tmp;  
 800166e:	4b06      	ldr	r3, [pc, #24]	; (8001688 <SystemCoreClockUpdate+0xf4>)
 8001670:	681a      	ldr	r2, [r3, #0]
 8001672:	68fb      	ldr	r3, [r7, #12]
 8001674:	40da      	lsrs	r2, r3
 8001676:	4b04      	ldr	r3, [pc, #16]	; (8001688 <SystemCoreClockUpdate+0xf4>)
 8001678:	601a      	str	r2, [r3, #0]
}
 800167a:	46c0      	nop			; (mov r8, r8)
 800167c:	46bd      	mov	sp, r7
 800167e:	b004      	add	sp, #16
 8001680:	bd80      	pop	{r7, pc}
 8001682:	46c0      	nop			; (mov r8, r8)
 8001684:	40021000 	.word	0x40021000
 8001688:	20000008 	.word	0x20000008
 800168c:	007a1200 	.word	0x007a1200
 8001690:	02dc6c00 	.word	0x02dc6c00
 8001694:	2000000c 	.word	0x2000000c

08001698 <SetSysClock>:
  *         is reset to the default reset state (done in SystemInit() function).
  * @param  None
  * @retval None
  */
static void SetSysClock(void)
{
 8001698:	b580      	push	{r7, lr}
 800169a:	af00      	add	r7, sp, #0
   /* SYSCLK, HCLK, PCLK configuration ----------------------------------------*/
    /* At this stage the HSI is already enabled */
 
    /* Enable Prefetch Buffer and set Flash Latency */
    FLASH->ACR = FLASH_ACR_PRFTBE | FLASH_ACR_LATENCY;
 800169c:	4b13      	ldr	r3, [pc, #76]	; (80016ec <SetSysClock+0x54>)
 800169e:	2211      	movs	r2, #17
 80016a0:	601a      	str	r2, [r3, #0]
 
    /* HCLK = SYSCLK */
    RCC->CFGR |= (uint32_t)RCC_CFGR_HPRE_DIV1;
 80016a2:	4a13      	ldr	r2, [pc, #76]	; (80016f0 <SetSysClock+0x58>)
 80016a4:	4b12      	ldr	r3, [pc, #72]	; (80016f0 <SetSysClock+0x58>)
 80016a6:	6852      	ldr	r2, [r2, #4]
 80016a8:	605a      	str	r2, [r3, #4]

    /* PCLK = HCLK */
    RCC->CFGR |= (uint32_t)RCC_CFGR_PPRE_DIV1;
 80016aa:	4a11      	ldr	r2, [pc, #68]	; (80016f0 <SetSysClock+0x58>)
 80016ac:	4b10      	ldr	r3, [pc, #64]	; (80016f0 <SetSysClock+0x58>)
 80016ae:	6852      	ldr	r2, [r2, #4]
 80016b0:	605a      	str	r2, [r3, #4]

   /* Enable HSI48 */
    RCC->CR2 |= RCC_CR2_HSI48ON;
 80016b2:	4b0f      	ldr	r3, [pc, #60]	; (80016f0 <SetSysClock+0x58>)
 80016b4:	6b5a      	ldr	r2, [r3, #52]	; 0x34
 80016b6:	4b0e      	ldr	r3, [pc, #56]	; (80016f0 <SetSysClock+0x58>)
 80016b8:	2180      	movs	r1, #128	; 0x80
 80016ba:	0249      	lsls	r1, r1, #9
 80016bc:	430a      	orrs	r2, r1
 80016be:	635a      	str	r2, [r3, #52]	; 0x34
  /* Wait till HSI48RDY is set */
    while((RCC->CR2 & RCC_CR2_HSI48RDY) == 0)
 80016c0:	46c0      	nop			; (mov r8, r8)
 80016c2:	4b0b      	ldr	r3, [pc, #44]	; (80016f0 <SetSysClock+0x58>)
 80016c4:	6b5a      	ldr	r2, [r3, #52]	; 0x34
 80016c6:	2380      	movs	r3, #128	; 0x80
 80016c8:	029b      	lsls	r3, r3, #10
 80016ca:	4013      	ands	r3, r2
 80016cc:	d0f9      	beq.n	80016c2 <SetSysClock+0x2a>
    { }
  /* Select HSI48 as system clock source */
    RCC->CFGR &= (uint32_t)((uint32_t)~(RCC_CFGR_SW));
 80016ce:	4b08      	ldr	r3, [pc, #32]	; (80016f0 <SetSysClock+0x58>)
 80016d0:	685a      	ldr	r2, [r3, #4]
 80016d2:	4b07      	ldr	r3, [pc, #28]	; (80016f0 <SetSysClock+0x58>)
 80016d4:	2103      	movs	r1, #3
 80016d6:	438a      	bics	r2, r1
 80016d8:	605a      	str	r2, [r3, #4]
    RCC->CFGR |= (uint32_t)RCC_CFGR_SW_HSI48;
 80016da:	4b05      	ldr	r3, [pc, #20]	; (80016f0 <SetSysClock+0x58>)
 80016dc:	685a      	ldr	r2, [r3, #4]
 80016de:	4b04      	ldr	r3, [pc, #16]	; (80016f0 <SetSysClock+0x58>)
 80016e0:	2103      	movs	r1, #3
 80016e2:	430a      	orrs	r2, r1
 80016e4:	605a      	str	r2, [r3, #4]

}
 80016e6:	46c0      	nop			; (mov r8, r8)
 80016e8:	46bd      	mov	sp, r7
 80016ea:	bd80      	pop	{r7, pc}
 80016ec:	40022000 	.word	0x40022000
 80016f0:	40021000 	.word	0x40021000

080016f4 <NVIC_DisableIRQ>:
__STATIC_INLINE void NVIC_DisableIRQ(IRQn_Type IRQn) {
 80016f4:	b580      	push	{r7, lr}
 80016f6:	b082      	sub	sp, #8
 80016f8:	af00      	add	r7, sp, #0
 80016fa:	0002      	movs	r2, r0
 80016fc:	1dfb      	adds	r3, r7, #7
 80016fe:	701a      	strb	r2, [r3, #0]
	NVIC->ICER[0] = (1 << ((uint32_t) (IRQn) & 0x1F));
 8001700:	1dfb      	adds	r3, r7, #7
 8001702:	781b      	ldrb	r3, [r3, #0]
 8001704:	001a      	movs	r2, r3
 8001706:	231f      	movs	r3, #31
 8001708:	4013      	ands	r3, r2
 800170a:	2201      	movs	r2, #1
 800170c:	409a      	lsls	r2, r3
 800170e:	0013      	movs	r3, r2
 8001710:	4a03      	ldr	r2, [pc, #12]	; (8001720 <NVIC_DisableIRQ+0x2c>)
 8001712:	0019      	movs	r1, r3
 8001714:	2380      	movs	r3, #128	; 0x80
 8001716:	50d1      	str	r1, [r2, r3]
}
 8001718:	46c0      	nop			; (mov r8, r8)
 800171a:	46bd      	mov	sp, r7
 800171c:	b002      	add	sp, #8
 800171e:	bd80      	pop	{r7, pc}
 8001720:	e000e100 	.word	0xe000e100

08001724 <I2C_RdReg>:

/**
 * Origin of I2C_RdReg and I2C_WrReg:
 * https://hsel.co.uk/2014/08/13/stm32f0-mini-tutorial-using-the-i2c-peripheral-to-communicate-with-a-hmc5883l-digital-compass-ic/
 */
uint8_t I2C_RdReg(uint8_t Reg, uint8_t *Data, uint8_t DCnt) {
 8001724:	b590      	push	{r4, r7, lr}
 8001726:	b087      	sub	sp, #28
 8001728:	af02      	add	r7, sp, #8
 800172a:	6039      	str	r1, [r7, #0]
 800172c:	0011      	movs	r1, r2
 800172e:	1dfb      	adds	r3, r7, #7
 8001730:	1c02      	adds	r2, r0, #0
 8001732:	701a      	strb	r2, [r3, #0]
 8001734:	1dbb      	adds	r3, r7, #6
 8001736:	1c0a      	adds	r2, r1, #0
 8001738:	701a      	strb	r2, [r3, #0]
	uint8_t Cnt, SingleData = 0;
 800173a:	230e      	movs	r3, #14
 800173c:	18fb      	adds	r3, r7, r3
 800173e:	2200      	movs	r2, #0
 8001740:	701a      	strb	r2, [r3, #0]

	//Wait until I2C isn't busy
	//TODO: I2C connection breaks sometimes
	while (I2C_GetFlagStatus(I2C_ACC, I2C_FLAG_BUSY) == SET)
 8001742:	46c0      	nop			; (mov r8, r8)
 8001744:	2380      	movs	r3, #128	; 0x80
 8001746:	021b      	lsls	r3, r3, #8
 8001748:	4a3c      	ldr	r2, [pc, #240]	; (800183c <I2C_RdReg+0x118>)
 800174a:	0019      	movs	r1, r3
 800174c:	0010      	movs	r0, r2
 800174e:	f7ff f90b 	bl	8000968 <I2C_GetFlagStatus>
 8001752:	0003      	movs	r3, r0
 8001754:	2b01      	cmp	r3, #1
 8001756:	d0f5      	beq.n	8001744 <I2C_RdReg+0x20>
		;

	//first communication (try reading the status register)
	/* Configure slave address, nbytes, reload, end mode and start or stop generation */
	I2C_TransferHandling(I2C_ACC, ADDR_ACC, 1, I2C_SoftEnd_Mode,
 8001758:	4838      	ldr	r0, [pc, #224]	; (800183c <I2C_RdReg+0x118>)
 800175a:	2380      	movs	r3, #128	; 0x80
 800175c:	019b      	lsls	r3, r3, #6
 800175e:	9300      	str	r3, [sp, #0]
 8001760:	2300      	movs	r3, #0
 8001762:	2201      	movs	r2, #1
 8001764:	213a      	movs	r1, #58	; 0x3a
 8001766:	f7ff f8b1 	bl	80008cc <I2C_TransferHandling>
	I2C_Generate_Start_Write);
	//Ensure the transmit interrupted flag is set
	while (I2C_GetFlagStatus(I2C_ACC, I2C_FLAG_TXIS) == RESET)
 800176a:	46c0      	nop			; (mov r8, r8)
 800176c:	4b33      	ldr	r3, [pc, #204]	; (800183c <I2C_RdReg+0x118>)
 800176e:	2102      	movs	r1, #2
 8001770:	0018      	movs	r0, r3
 8001772:	f7ff f8f9 	bl	8000968 <I2C_GetFlagStatus>
 8001776:	1e03      	subs	r3, r0, #0
 8001778:	d0f8      	beq.n	800176c <I2C_RdReg+0x48>
		;
	//send reg address
	I2C_SendData(I2C_ACC, (uint8_t) Reg);
 800177a:	1dfb      	adds	r3, r7, #7
 800177c:	781b      	ldrb	r3, [r3, #0]
 800177e:	4a2f      	ldr	r2, [pc, #188]	; (800183c <I2C_RdReg+0x118>)
 8001780:	0019      	movs	r1, r3
 8001782:	0010      	movs	r0, r2
 8001784:	f7ff f8d6 	bl	8000934 <I2C_SendData>
	//Wait until transfer is complete!
	while (I2C_GetFlagStatus(I2C_ACC, I2C_FLAG_TC) == RESET)
 8001788:	46c0      	nop			; (mov r8, r8)
 800178a:	4b2c      	ldr	r3, [pc, #176]	; (800183c <I2C_RdReg+0x118>)
 800178c:	2140      	movs	r1, #64	; 0x40
 800178e:	0018      	movs	r0, r3
 8001790:	f7ff f8ea 	bl	8000968 <I2C_GetFlagStatus>
 8001794:	1e03      	subs	r3, r0, #0
 8001796:	d0f8      	beq.n	800178a <I2C_RdReg+0x66>
		;
	//initiate read
	I2C_TransferHandling(I2C_ACC, ADDR_ACC, DCnt, I2C_AutoEnd_Mode,
 8001798:	2380      	movs	r3, #128	; 0x80
 800179a:	0499      	lsls	r1, r3, #18
 800179c:	1dbb      	adds	r3, r7, #6
 800179e:	781a      	ldrb	r2, [r3, #0]
 80017a0:	4826      	ldr	r0, [pc, #152]	; (800183c <I2C_RdReg+0x118>)
 80017a2:	2390      	movs	r3, #144	; 0x90
 80017a4:	019b      	lsls	r3, r3, #6
 80017a6:	9300      	str	r3, [sp, #0]
 80017a8:	000b      	movs	r3, r1
 80017aa:	213a      	movs	r1, #58	; 0x3a
 80017ac:	f7ff f88e 	bl	80008cc <I2C_TransferHandling>
	I2C_Generate_Start_Read);

	//Read in DCnt pieces of data
	for (Cnt = 0; Cnt < DCnt; Cnt++) {
 80017b0:	230f      	movs	r3, #15
 80017b2:	18fb      	adds	r3, r7, r3
 80017b4:	2200      	movs	r2, #0
 80017b6:	701a      	strb	r2, [r3, #0]
 80017b8:	e025      	b.n	8001806 <I2C_RdReg+0xe2>
		//Wait until the RX register is full of luscious data!
		while (I2C_GetFlagStatus(I2C_ACC, I2C_FLAG_RXNE) == RESET)
 80017ba:	46c0      	nop			; (mov r8, r8)
 80017bc:	4b1f      	ldr	r3, [pc, #124]	; (800183c <I2C_RdReg+0x118>)
 80017be:	2104      	movs	r1, #4
 80017c0:	0018      	movs	r0, r3
 80017c2:	f7ff f8d1 	bl	8000968 <I2C_GetFlagStatus>
 80017c6:	1e03      	subs	r3, r0, #0
 80017c8:	d0f8      	beq.n	80017bc <I2C_RdReg+0x98>
			;
		//If we're only reading one byte, place that data direct into the
		//SingleData variable. If we're reading more than 1 piece of data
		//store in the array "Data" (a pointer from main)
		if (DCnt > 1) {
 80017ca:	1dbb      	adds	r3, r7, #6
 80017cc:	781b      	ldrb	r3, [r3, #0]
 80017ce:	2b01      	cmp	r3, #1
 80017d0:	d90b      	bls.n	80017ea <I2C_RdReg+0xc6>
			Data[Cnt] = I2C_ReceiveData(I2C_ACC);
 80017d2:	230f      	movs	r3, #15
 80017d4:	18fb      	adds	r3, r7, r3
 80017d6:	781b      	ldrb	r3, [r3, #0]
 80017d8:	683a      	ldr	r2, [r7, #0]
 80017da:	18d4      	adds	r4, r2, r3
 80017dc:	4b17      	ldr	r3, [pc, #92]	; (800183c <I2C_RdReg+0x118>)
 80017de:	0018      	movs	r0, r3
 80017e0:	f7ff f8b7 	bl	8000952 <I2C_ReceiveData>
 80017e4:	0003      	movs	r3, r0
 80017e6:	7023      	strb	r3, [r4, #0]
 80017e8:	e007      	b.n	80017fa <I2C_RdReg+0xd6>
		} else
			SingleData = I2C_ReceiveData(I2C_ACC);
 80017ea:	230e      	movs	r3, #14
 80017ec:	18fc      	adds	r4, r7, r3
 80017ee:	4b13      	ldr	r3, [pc, #76]	; (800183c <I2C_RdReg+0x118>)
 80017f0:	0018      	movs	r0, r3
 80017f2:	f7ff f8ae 	bl	8000952 <I2C_ReceiveData>
 80017f6:	0003      	movs	r3, r0
 80017f8:	7023      	strb	r3, [r4, #0]
	for (Cnt = 0; Cnt < DCnt; Cnt++) {
 80017fa:	210f      	movs	r1, #15
 80017fc:	187b      	adds	r3, r7, r1
 80017fe:	781a      	ldrb	r2, [r3, #0]
 8001800:	187b      	adds	r3, r7, r1
 8001802:	3201      	adds	r2, #1
 8001804:	701a      	strb	r2, [r3, #0]
 8001806:	230f      	movs	r3, #15
 8001808:	18fa      	adds	r2, r7, r3
 800180a:	1dbb      	adds	r3, r7, #6
 800180c:	7812      	ldrb	r2, [r2, #0]
 800180e:	781b      	ldrb	r3, [r3, #0]
 8001810:	429a      	cmp	r2, r3
 8001812:	d3d2      	bcc.n	80017ba <I2C_RdReg+0x96>
	}

	//Wait for the stop condition to be sent
	while (I2C_GetFlagStatus(I2C_ACC, I2C_FLAG_STOPF) == RESET)
 8001814:	46c0      	nop			; (mov r8, r8)
 8001816:	4b09      	ldr	r3, [pc, #36]	; (800183c <I2C_RdReg+0x118>)
 8001818:	2120      	movs	r1, #32
 800181a:	0018      	movs	r0, r3
 800181c:	f7ff f8a4 	bl	8000968 <I2C_GetFlagStatus>
 8001820:	1e03      	subs	r3, r0, #0
 8001822:	d0f8      	beq.n	8001816 <I2C_RdReg+0xf2>
		;

	//Clear the stop flag for next transfers
	I2C_ClearFlag(I2C_ACC, I2C_FLAG_STOPF);
 8001824:	4b05      	ldr	r3, [pc, #20]	; (800183c <I2C_RdReg+0x118>)
 8001826:	2120      	movs	r1, #32
 8001828:	0018      	movs	r0, r3
 800182a:	f7ff f8c1 	bl	80009b0 <I2C_ClearFlag>

	//Return a single piece of data if DCnt was
	//less than 1, otherwise 0 will be returned.
	return SingleData;
 800182e:	230e      	movs	r3, #14
 8001830:	18fb      	adds	r3, r7, r3
 8001832:	781b      	ldrb	r3, [r3, #0]
}
 8001834:	0018      	movs	r0, r3
 8001836:	46bd      	mov	sp, r7
 8001838:	b005      	add	sp, #20
 800183a:	bd90      	pop	{r4, r7, pc}
 800183c:	40005400 	.word	0x40005400

08001840 <I2C_WrReg>:

void I2C_WrReg(uint8_t Reg, uint8_t Val) {
 8001840:	b580      	push	{r7, lr}
 8001842:	b084      	sub	sp, #16
 8001844:	af02      	add	r7, sp, #8
 8001846:	0002      	movs	r2, r0
 8001848:	1dfb      	adds	r3, r7, #7
 800184a:	701a      	strb	r2, [r3, #0]
 800184c:	1dbb      	adds	r3, r7, #6
 800184e:	1c0a      	adds	r2, r1, #0
 8001850:	701a      	strb	r2, [r3, #0]

	//Wait until I2C isn't busy
	while (I2C_GetFlagStatus(I2C_ACC, I2C_FLAG_BUSY) == SET)
 8001852:	46c0      	nop			; (mov r8, r8)
 8001854:	2380      	movs	r3, #128	; 0x80
 8001856:	021b      	lsls	r3, r3, #8
 8001858:	4a29      	ldr	r2, [pc, #164]	; (8001900 <I2C_WrReg+0xc0>)
 800185a:	0019      	movs	r1, r3
 800185c:	0010      	movs	r0, r2
 800185e:	f7ff f883 	bl	8000968 <I2C_GetFlagStatus>
 8001862:	0003      	movs	r3, r0
 8001864:	2b01      	cmp	r3, #1
 8001866:	d0f5      	beq.n	8001854 <I2C_WrReg+0x14>
	//I2C interface... Regardless! Send the address of the HMC
	//sensor down the I2C Bus and generate a start saying we're
	//going to write one byte. I'll be completely honest,
	//the I2C peripheral doesn't make too much sense to me
	//and a lot of the code is from the Std peripheral library
	I2C_TransferHandling(I2C_ACC, ADDR_ACC, 1, I2C_Reload_Mode,
 8001868:	2380      	movs	r3, #128	; 0x80
 800186a:	045a      	lsls	r2, r3, #17
 800186c:	4824      	ldr	r0, [pc, #144]	; (8001900 <I2C_WrReg+0xc0>)
 800186e:	2380      	movs	r3, #128	; 0x80
 8001870:	019b      	lsls	r3, r3, #6
 8001872:	9300      	str	r3, [sp, #0]
 8001874:	0013      	movs	r3, r2
 8001876:	2201      	movs	r2, #1
 8001878:	213a      	movs	r1, #58	; 0x3a
 800187a:	f7ff f827 	bl	80008cc <I2C_TransferHandling>
	I2C_Generate_Start_Write);

	//Ensure the transmit interrupted flag is set
	while (I2C_GetFlagStatus(I2C_ACC, I2C_FLAG_TXIS) == RESET)
 800187e:	46c0      	nop			; (mov r8, r8)
 8001880:	4b1f      	ldr	r3, [pc, #124]	; (8001900 <I2C_WrReg+0xc0>)
 8001882:	2102      	movs	r1, #2
 8001884:	0018      	movs	r0, r3
 8001886:	f7ff f86f 	bl	8000968 <I2C_GetFlagStatus>
 800188a:	1e03      	subs	r3, r0, #0
 800188c:	d0f8      	beq.n	8001880 <I2C_WrReg+0x40>
		;

	//Send the address of the register we wish to write to
	I2C_SendData(I2C_ACC, Reg);
 800188e:	1dfb      	adds	r3, r7, #7
 8001890:	781b      	ldrb	r3, [r3, #0]
 8001892:	4a1b      	ldr	r2, [pc, #108]	; (8001900 <I2C_WrReg+0xc0>)
 8001894:	0019      	movs	r1, r3
 8001896:	0010      	movs	r0, r2
 8001898:	f7ff f84c 	bl	8000934 <I2C_SendData>

	//Ensure that the transfer complete reload flag is
	//set, essentially a standard TC flag
	while (I2C_GetFlagStatus(I2C_ACC, I2C_FLAG_TCR) == RESET)
 800189c:	46c0      	nop			; (mov r8, r8)
 800189e:	4b18      	ldr	r3, [pc, #96]	; (8001900 <I2C_WrReg+0xc0>)
 80018a0:	2180      	movs	r1, #128	; 0x80
 80018a2:	0018      	movs	r0, r3
 80018a4:	f7ff f860 	bl	8000968 <I2C_GetFlagStatus>
 80018a8:	1e03      	subs	r3, r0, #0
 80018aa:	d0f8      	beq.n	800189e <I2C_WrReg+0x5e>

	//Now that the HMC5883L knows which register
	//we want to write to, send the address again
	//and ensure the I2C peripheral doesn't add
	//any start or stop conditions
	I2C_TransferHandling(I2C_ACC, ADDR_ACC, 1, I2C_AutoEnd_Mode,
 80018ac:	2380      	movs	r3, #128	; 0x80
 80018ae:	049b      	lsls	r3, r3, #18
 80018b0:	4813      	ldr	r0, [pc, #76]	; (8001900 <I2C_WrReg+0xc0>)
 80018b2:	2200      	movs	r2, #0
 80018b4:	9200      	str	r2, [sp, #0]
 80018b6:	2201      	movs	r2, #1
 80018b8:	213a      	movs	r1, #58	; 0x3a
 80018ba:	f7ff f807 	bl	80008cc <I2C_TransferHandling>
	I2C_No_StartStop);

	//Again, wait until the transmit interrupted flag is set
	while (I2C_GetFlagStatus(I2C_ACC, I2C_FLAG_TXIS) == RESET)
 80018be:	46c0      	nop			; (mov r8, r8)
 80018c0:	4b0f      	ldr	r3, [pc, #60]	; (8001900 <I2C_WrReg+0xc0>)
 80018c2:	2102      	movs	r1, #2
 80018c4:	0018      	movs	r0, r3
 80018c6:	f7ff f84f 	bl	8000968 <I2C_GetFlagStatus>
 80018ca:	1e03      	subs	r3, r0, #0
 80018cc:	d0f8      	beq.n	80018c0 <I2C_WrReg+0x80>
		;

	//Send the value you wish you write to the register
	I2C_SendData(I2C_ACC, Val);
 80018ce:	1dbb      	adds	r3, r7, #6
 80018d0:	781b      	ldrb	r3, [r3, #0]
 80018d2:	4a0b      	ldr	r2, [pc, #44]	; (8001900 <I2C_WrReg+0xc0>)
 80018d4:	0019      	movs	r1, r3
 80018d6:	0010      	movs	r0, r2
 80018d8:	f7ff f82c 	bl	8000934 <I2C_SendData>

	//Wait for the stop flag to be set indicating
	//a stop condition has been sent
	while (I2C_GetFlagStatus(I2C_ACC, I2C_FLAG_STOPF) == RESET)
 80018dc:	46c0      	nop			; (mov r8, r8)
 80018de:	4b08      	ldr	r3, [pc, #32]	; (8001900 <I2C_WrReg+0xc0>)
 80018e0:	2120      	movs	r1, #32
 80018e2:	0018      	movs	r0, r3
 80018e4:	f7ff f840 	bl	8000968 <I2C_GetFlagStatus>
 80018e8:	1e03      	subs	r3, r0, #0
 80018ea:	d0f8      	beq.n	80018de <I2C_WrReg+0x9e>
		;

	//Clear the stop flag for the next potential transfer
	I2C_ClearFlag(I2C_ACC, I2C_FLAG_STOPF);
 80018ec:	4b04      	ldr	r3, [pc, #16]	; (8001900 <I2C_WrReg+0xc0>)
 80018ee:	2120      	movs	r1, #32
 80018f0:	0018      	movs	r0, r3
 80018f2:	f7ff f85d 	bl	80009b0 <I2C_ClearFlag>
}
 80018f6:	46c0      	nop			; (mov r8, r8)
 80018f8:	46bd      	mov	sp, r7
 80018fa:	b002      	add	sp, #8
 80018fc:	bd80      	pop	{r7, pc}
 80018fe:	46c0      	nop			; (mov r8, r8)
 8001900:	40005400 	.word	0x40005400

08001904 <I2C_BitHandling>:

void I2C_BitHandling(uint8_t reg, uint8_t bitmask, uint8_t set) {
 8001904:	b5b0      	push	{r4, r5, r7, lr}
 8001906:	b084      	sub	sp, #16
 8001908:	af00      	add	r7, sp, #0
 800190a:	0004      	movs	r4, r0
 800190c:	0008      	movs	r0, r1
 800190e:	0011      	movs	r1, r2
 8001910:	1dfb      	adds	r3, r7, #7
 8001912:	1c22      	adds	r2, r4, #0
 8001914:	701a      	strb	r2, [r3, #0]
 8001916:	1dbb      	adds	r3, r7, #6
 8001918:	1c02      	adds	r2, r0, #0
 800191a:	701a      	strb	r2, [r3, #0]
 800191c:	1d7b      	adds	r3, r7, #5
 800191e:	1c0a      	adds	r2, r1, #0
 8001920:	701a      	strb	r2, [r3, #0]
	uint8_t tempReg = I2C_RdReg(reg, rxBuf, 1u);
 8001922:	250f      	movs	r5, #15
 8001924:	197c      	adds	r4, r7, r5
 8001926:	4917      	ldr	r1, [pc, #92]	; (8001984 <I2C_BitHandling+0x80>)
 8001928:	1dfb      	adds	r3, r7, #7
 800192a:	781b      	ldrb	r3, [r3, #0]
 800192c:	2201      	movs	r2, #1
 800192e:	0018      	movs	r0, r3
 8001930:	f7ff fef8 	bl	8001724 <I2C_RdReg>
 8001934:	0003      	movs	r3, r0
 8001936:	7023      	strb	r3, [r4, #0]
	if (set) {
 8001938:	1d7b      	adds	r3, r7, #5
 800193a:	781b      	ldrb	r3, [r3, #0]
 800193c:	2b00      	cmp	r3, #0
 800193e:	d007      	beq.n	8001950 <I2C_BitHandling+0x4c>
		//set bits
		tempReg |= bitmask;
 8001940:	197b      	adds	r3, r7, r5
 8001942:	1979      	adds	r1, r7, r5
 8001944:	1dba      	adds	r2, r7, #6
 8001946:	7809      	ldrb	r1, [r1, #0]
 8001948:	7812      	ldrb	r2, [r2, #0]
 800194a:	430a      	orrs	r2, r1
 800194c:	701a      	strb	r2, [r3, #0]
 800194e:	e00c      	b.n	800196a <I2C_BitHandling+0x66>
	} else {
		//reset bits
		tempReg &= ~bitmask;
 8001950:	1dbb      	adds	r3, r7, #6
 8001952:	781b      	ldrb	r3, [r3, #0]
 8001954:	b25b      	sxtb	r3, r3
 8001956:	43db      	mvns	r3, r3
 8001958:	b25b      	sxtb	r3, r3
 800195a:	210f      	movs	r1, #15
 800195c:	187a      	adds	r2, r7, r1
 800195e:	7812      	ldrb	r2, [r2, #0]
 8001960:	b252      	sxtb	r2, r2
 8001962:	4013      	ands	r3, r2
 8001964:	b25a      	sxtb	r2, r3
 8001966:	187b      	adds	r3, r7, r1
 8001968:	701a      	strb	r2, [r3, #0]
	}
	//write back the register
	I2C_WrReg(reg, tempReg);
 800196a:	230f      	movs	r3, #15
 800196c:	18fb      	adds	r3, r7, r3
 800196e:	781a      	ldrb	r2, [r3, #0]
 8001970:	1dfb      	adds	r3, r7, #7
 8001972:	781b      	ldrb	r3, [r3, #0]
 8001974:	0011      	movs	r1, r2
 8001976:	0018      	movs	r0, r3
 8001978:	f7ff ff62 	bl	8001840 <I2C_WrReg>
}
 800197c:	46c0      	nop			; (mov r8, r8)
 800197e:	46bd      	mov	sp, r7
 8001980:	b004      	add	sp, #16
 8001982:	bdb0      	pop	{r4, r5, r7, pc}
 8001984:	20000058 	.word	0x20000058

08001988 <Accelerometer_goStandby>:

uint8_t Accelerometer_goStandby() {
 8001988:	b580      	push	{r7, lr}
 800198a:	af00      	add	r7, sp, #0
	if (!isActive) {
 800198c:	4b0f      	ldr	r3, [pc, #60]	; (80019cc <Accelerometer_goStandby+0x44>)
 800198e:	781b      	ldrb	r3, [r3, #0]
 8001990:	2b00      	cmp	r3, #0
 8001992:	d101      	bne.n	8001998 <Accelerometer_goStandby+0x10>
		return 0;
 8001994:	2300      	movs	r3, #0
 8001996:	e015      	b.n	80019c4 <Accelerometer_goStandby+0x3c>
	}
	//reset the Active-bit
	I2C_BitHandling(REG_CTRL_REG_1, 1 << 0, 0);
 8001998:	2200      	movs	r2, #0
 800199a:	2101      	movs	r1, #1
 800199c:	202a      	movs	r0, #42	; 0x2a
 800199e:	f7ff ffb1 	bl	8001904 <I2C_BitHandling>
	delay(100);
 80019a2:	2064      	movs	r0, #100	; 0x64
 80019a4:	f7ff fd02 	bl	80013ac <delay>
	//check, if the sensor is inactive
	if (I2C_RdReg(REG_SYSMOD, rxBuf, 1) != 0) {
 80019a8:	4b09      	ldr	r3, [pc, #36]	; (80019d0 <Accelerometer_goStandby+0x48>)
 80019aa:	2201      	movs	r2, #1
 80019ac:	0019      	movs	r1, r3
 80019ae:	200b      	movs	r0, #11
 80019b0:	f7ff feb8 	bl	8001724 <I2C_RdReg>
 80019b4:	1e03      	subs	r3, r0, #0
 80019b6:	d001      	beq.n	80019bc <Accelerometer_goStandby+0x34>
		return 1;
 80019b8:	2301      	movs	r3, #1
 80019ba:	e003      	b.n	80019c4 <Accelerometer_goStandby+0x3c>
	}
	isActive = 0;
 80019bc:	4b03      	ldr	r3, [pc, #12]	; (80019cc <Accelerometer_goStandby+0x44>)
 80019be:	2200      	movs	r2, #0
 80019c0:	701a      	strb	r2, [r3, #0]
	return 0;
 80019c2:	2300      	movs	r3, #0
}
 80019c4:	0018      	movs	r0, r3
 80019c6:	46bd      	mov	sp, r7
 80019c8:	bd80      	pop	{r7, pc}
 80019ca:	46c0      	nop			; (mov r8, r8)
 80019cc:	2000003e 	.word	0x2000003e
 80019d0:	20000058 	.word	0x20000058

080019d4 <Accelerometer_goActive>:
uint8_t Accelerometer_goActive() {
 80019d4:	b580      	push	{r7, lr}
 80019d6:	af00      	add	r7, sp, #0

	if (isActive) {
 80019d8:	4b0f      	ldr	r3, [pc, #60]	; (8001a18 <Accelerometer_goActive+0x44>)
 80019da:	781b      	ldrb	r3, [r3, #0]
 80019dc:	2b00      	cmp	r3, #0
 80019de:	d001      	beq.n	80019e4 <Accelerometer_goActive+0x10>
		return 0;
 80019e0:	2300      	movs	r3, #0
 80019e2:	e016      	b.n	8001a12 <Accelerometer_goActive+0x3e>
	}
	//set the Active-bit
	I2C_BitHandling(REG_CTRL_REG_1, 1 << 0, 1);
 80019e4:	2201      	movs	r2, #1
 80019e6:	2101      	movs	r1, #1
 80019e8:	202a      	movs	r0, #42	; 0x2a
 80019ea:	f7ff ff8b 	bl	8001904 <I2C_BitHandling>
	delay(100);
 80019ee:	2064      	movs	r0, #100	; 0x64
 80019f0:	f7ff fcdc 	bl	80013ac <delay>
	//check, if the sensor is active
	if (I2C_RdReg(REG_SYSMOD, rxBuf, 1) != 1) {
 80019f4:	4b09      	ldr	r3, [pc, #36]	; (8001a1c <Accelerometer_goActive+0x48>)
 80019f6:	2201      	movs	r2, #1
 80019f8:	0019      	movs	r1, r3
 80019fa:	200b      	movs	r0, #11
 80019fc:	f7ff fe92 	bl	8001724 <I2C_RdReg>
 8001a00:	0003      	movs	r3, r0
 8001a02:	2b01      	cmp	r3, #1
 8001a04:	d001      	beq.n	8001a0a <Accelerometer_goActive+0x36>

		return 1;
 8001a06:	2301      	movs	r3, #1
 8001a08:	e003      	b.n	8001a12 <Accelerometer_goActive+0x3e>
	}
	isActive = 1;
 8001a0a:	4b03      	ldr	r3, [pc, #12]	; (8001a18 <Accelerometer_goActive+0x44>)
 8001a0c:	2201      	movs	r2, #1
 8001a0e:	701a      	strb	r2, [r3, #0]
	return 0;
 8001a10:	2300      	movs	r3, #0
}
 8001a12:	0018      	movs	r0, r3
 8001a14:	46bd      	mov	sp, r7
 8001a16:	bd80      	pop	{r7, pc}
 8001a18:	2000003e 	.word	0x2000003e
 8001a1c:	20000058 	.word	0x20000058

08001a20 <Accelerometer_init>:

uint8_t Accelerometer_init() {
 8001a20:	b590      	push	{r4, r7, lr}
 8001a22:	b08b      	sub	sp, #44	; 0x2c
 8001a24:	af00      	add	r7, sp, #0

	//enable clock for periphery modules
	RCC_AHBPeriphClockCmd(RCC_AHBPeriph_GPIOA, ENABLE);
 8001a26:	2380      	movs	r3, #128	; 0x80
 8001a28:	029b      	lsls	r3, r3, #10
 8001a2a:	2101      	movs	r1, #1
 8001a2c:	0018      	movs	r0, r3
 8001a2e:	f7ff f83b 	bl	8000aa8 <RCC_AHBPeriphClockCmd>
	RCC_AHBPeriphClockCmd(RCC_AHBPeriph_GPIOF, ENABLE);
 8001a32:	2380      	movs	r3, #128	; 0x80
 8001a34:	03db      	lsls	r3, r3, #15
 8001a36:	2101      	movs	r1, #1
 8001a38:	0018      	movs	r0, r3
 8001a3a:	f7ff f835 	bl	8000aa8 <RCC_AHBPeriphClockCmd>
	RCC_APB1PeriphClockCmd(RCC_APB1Periph_I2C1, ENABLE);
 8001a3e:	2380      	movs	r3, #128	; 0x80
 8001a40:	039b      	lsls	r3, r3, #14
 8001a42:	2101      	movs	r1, #1
 8001a44:	0018      	movs	r0, r3
 8001a46:	f7ff f86f 	bl	8000b28 <RCC_APB1PeriphClockCmd>

	//gpio init
	GPIO_InitTypeDef GPIO_InitStruct;
	//configure PINs PF0 and PF1 as AF OD out
	GPIO_InitStruct.GPIO_Pin = GPIO_Pin_0 | GPIO_Pin_1;
 8001a4a:	2420      	movs	r4, #32
 8001a4c:	193b      	adds	r3, r7, r4
 8001a4e:	2203      	movs	r2, #3
 8001a50:	601a      	str	r2, [r3, #0]
	GPIO_InitStruct.GPIO_Mode = GPIO_Mode_AF;
 8001a52:	193b      	adds	r3, r7, r4
 8001a54:	2202      	movs	r2, #2
 8001a56:	711a      	strb	r2, [r3, #4]
	GPIO_InitStruct.GPIO_OType = GPIO_OType_OD;
 8001a58:	193b      	adds	r3, r7, r4
 8001a5a:	2201      	movs	r2, #1
 8001a5c:	719a      	strb	r2, [r3, #6]
	GPIO_InitStruct.GPIO_Speed = GPIO_Speed_Level_1;
 8001a5e:	193b      	adds	r3, r7, r4
 8001a60:	2200      	movs	r2, #0
 8001a62:	715a      	strb	r2, [r3, #5]
	GPIO_Init(GPIOF, &GPIO_InitStruct);
 8001a64:	193b      	adds	r3, r7, r4
 8001a66:	4a39      	ldr	r2, [pc, #228]	; (8001b4c <Accelerometer_init+0x12c>)
 8001a68:	0019      	movs	r1, r3
 8001a6a:	0010      	movs	r0, r2
 8001a6c:	f7fe fd5a 	bl	8000524 <GPIO_Init>

	//remap
	GPIO_PinAFConfig(GPIOF, GPIO_PinSource0, GPIO_AF_1);
 8001a70:	4b36      	ldr	r3, [pc, #216]	; (8001b4c <Accelerometer_init+0x12c>)
 8001a72:	2201      	movs	r2, #1
 8001a74:	2100      	movs	r1, #0
 8001a76:	0018      	movs	r0, r3
 8001a78:	f7fe fe28 	bl	80006cc <GPIO_PinAFConfig>
	GPIO_PinAFConfig(GPIOF, GPIO_PinSource1, GPIO_AF_1);
 8001a7c:	4b33      	ldr	r3, [pc, #204]	; (8001b4c <Accelerometer_init+0x12c>)
 8001a7e:	2201      	movs	r2, #1
 8001a80:	2101      	movs	r1, #1
 8001a82:	0018      	movs	r0, r3
 8001a84:	f7fe fe22 	bl	80006cc <GPIO_PinAFConfig>

	//configure PINs PA2 and PA3 as inputs for the interrupt lines
	GPIO_InitStruct.GPIO_Pin = GPIO_Pin_2 | GPIO_Pin_3;
 8001a88:	0021      	movs	r1, r4
 8001a8a:	187b      	adds	r3, r7, r1
 8001a8c:	220c      	movs	r2, #12
 8001a8e:	601a      	str	r2, [r3, #0]
	GPIO_InitStruct.GPIO_Mode = GPIO_Mode_IN;
 8001a90:	187b      	adds	r3, r7, r1
 8001a92:	2200      	movs	r2, #0
 8001a94:	711a      	strb	r2, [r3, #4]
	GPIO_InitStruct.GPIO_PuPd = GPIO_PuPd_UP;
 8001a96:	187b      	adds	r3, r7, r1
 8001a98:	2201      	movs	r2, #1
 8001a9a:	71da      	strb	r2, [r3, #7]
	GPIO_InitStruct.GPIO_Speed = GPIO_Speed_50MHz;
 8001a9c:	187b      	adds	r3, r7, r1
 8001a9e:	2203      	movs	r2, #3
 8001aa0:	715a      	strb	r2, [r3, #5]
	GPIO_Init(GPIOA, &GPIO_InitStruct);
 8001aa2:	187a      	adds	r2, r7, r1
 8001aa4:	2390      	movs	r3, #144	; 0x90
 8001aa6:	05db      	lsls	r3, r3, #23
 8001aa8:	0011      	movs	r1, r2
 8001aaa:	0018      	movs	r0, r3
 8001aac:	f7fe fd3a 	bl	8000524 <GPIO_Init>

	//i2c init
	//I2C_DeInit(I2C1);
	I2C_InitTypeDef I2C_InitStruct;
	I2C_InitStruct.I2C_Ack = I2C_Ack_Enable;
 8001ab0:	1d3b      	adds	r3, r7, #4
 8001ab2:	2200      	movs	r2, #0
 8001ab4:	615a      	str	r2, [r3, #20]
	I2C_InitStruct.I2C_AnalogFilter = I2C_AnalogFilter_Enable;
 8001ab6:	1d3b      	adds	r3, r7, #4
 8001ab8:	2200      	movs	r2, #0
 8001aba:	605a      	str	r2, [r3, #4]
	I2C_InitStruct.I2C_OwnAddress1 = 0xAB;
 8001abc:	1d3b      	adds	r3, r7, #4
 8001abe:	22ab      	movs	r2, #171	; 0xab
 8001ac0:	611a      	str	r2, [r3, #16]
	I2C_InitStruct.I2C_DigitalFilter = 0;
 8001ac2:	1d3b      	adds	r3, r7, #4
 8001ac4:	2200      	movs	r2, #0
 8001ac6:	609a      	str	r2, [r3, #8]
	I2C_InitStruct.I2C_AcknowledgedAddress = I2C_AcknowledgedAddress_7bit;
 8001ac8:	1d3b      	adds	r3, r7, #4
 8001aca:	2200      	movs	r2, #0
 8001acc:	619a      	str	r2, [r3, #24]
	I2C_InitStruct.I2C_Mode = I2C_Mode_I2C;
 8001ace:	1d3b      	adds	r3, r7, #4
 8001ad0:	2200      	movs	r2, #0
 8001ad2:	60da      	str	r2, [r3, #12]
	I2C_InitStruct.I2C_Timing = 0x0010020A; //should be 400kHz for the 8Mhz HSI
 8001ad4:	1d3b      	adds	r3, r7, #4
 8001ad6:	4a1e      	ldr	r2, [pc, #120]	; (8001b50 <Accelerometer_init+0x130>)
 8001ad8:	601a      	str	r2, [r3, #0]
	I2C_Init(I2C_ACC, &I2C_InitStruct);
 8001ada:	1d3b      	adds	r3, r7, #4
 8001adc:	4a1d      	ldr	r2, [pc, #116]	; (8001b54 <Accelerometer_init+0x134>)
 8001ade:	0019      	movs	r1, r3
 8001ae0:	0010      	movs	r0, r2
 8001ae2:	f7fe fe6d 	bl	80007c0 <I2C_Init>

	I2C_Cmd(I2C_ACC, ENABLE);
 8001ae6:	4b1b      	ldr	r3, [pc, #108]	; (8001b54 <Accelerometer_init+0x134>)
 8001ae8:	2101      	movs	r1, #1
 8001aea:	0018      	movs	r0, r3
 8001aec:	f7fe fed0 	bl	8000890 <I2C_Cmd>

	delay(50);
 8001af0:	2032      	movs	r0, #50	; 0x32
 8001af2:	f7ff fc5b 	bl	80013ac <delay>

	if (I2C_RdReg(REG_WHO_AM_I, rxBuf, 1) != 0x5A) //read the device ID to verify communication
 8001af6:	4b18      	ldr	r3, [pc, #96]	; (8001b58 <Accelerometer_init+0x138>)
 8001af8:	2201      	movs	r2, #1
 8001afa:	0019      	movs	r1, r3
 8001afc:	200d      	movs	r0, #13
 8001afe:	f7ff fe11 	bl	8001724 <I2C_RdReg>
 8001b02:	0003      	movs	r3, r0
 8001b04:	2b5a      	cmp	r3, #90	; 0x5a
 8001b06:	d001      	beq.n	8001b0c <Accelerometer_init+0xec>
			{
		return 1;
 8001b08:	2301      	movs	r3, #1
 8001b0a:	e01b      	b.n	8001b44 <Accelerometer_init+0x124>
	}

	//set to highres mode
	I2C_BitHandling(REG_CTRL_REG_2, 1 << 1, SET);
 8001b0c:	2201      	movs	r2, #1
 8001b0e:	2102      	movs	r1, #2
 8001b10:	202b      	movs	r0, #43	; 0x2b
 8001b12:	f7ff fef7 	bl	8001904 <I2C_BitHandling>

	//set the sensor as always active (disable auto sleep) <- default
	//set to active and 10 bit mode, DataRate to 12.5Hz
	I2C_BitHandling(REG_CTRL_REG_1, (1 << 0 | 1 << 3 | 1 << 5), SET);
 8001b16:	2201      	movs	r2, #1
 8001b18:	2129      	movs	r1, #41	; 0x29
 8001b1a:	202a      	movs	r0, #42	; 0x2a
 8001b1c:	f7ff fef2 	bl	8001904 <I2C_BitHandling>

	//check, if the sensor is active
	if (I2C_RdReg(REG_SYSMOD, rxBuf, 1) != 1) {
 8001b20:	4b0d      	ldr	r3, [pc, #52]	; (8001b58 <Accelerometer_init+0x138>)
 8001b22:	2201      	movs	r2, #1
 8001b24:	0019      	movs	r1, r3
 8001b26:	200b      	movs	r0, #11
 8001b28:	f7ff fdfc 	bl	8001724 <I2C_RdReg>
 8001b2c:	0003      	movs	r3, r0
 8001b2e:	2b01      	cmp	r3, #1
 8001b30:	d004      	beq.n	8001b3c <Accelerometer_init+0x11c>
		isActive = 0;
 8001b32:	4b0a      	ldr	r3, [pc, #40]	; (8001b5c <Accelerometer_init+0x13c>)
 8001b34:	2200      	movs	r2, #0
 8001b36:	701a      	strb	r2, [r3, #0]
		return 2;
 8001b38:	2302      	movs	r3, #2
 8001b3a:	e003      	b.n	8001b44 <Accelerometer_init+0x124>
	}
	isActive = 1;
 8001b3c:	4b07      	ldr	r3, [pc, #28]	; (8001b5c <Accelerometer_init+0x13c>)
 8001b3e:	2201      	movs	r2, #1
 8001b40:	701a      	strb	r2, [r3, #0]
	return 0;
 8001b42:	2300      	movs	r3, #0
}
 8001b44:	0018      	movs	r0, r3
 8001b46:	46bd      	mov	sp, r7
 8001b48:	b00b      	add	sp, #44	; 0x2c
 8001b4a:	bd90      	pop	{r4, r7, pc}
 8001b4c:	48001400 	.word	0x48001400
 8001b50:	0010020a 	.word	0x0010020a
 8001b54:	40005400 	.word	0x40005400
 8001b58:	20000058 	.word	0x20000058
 8001b5c:	2000003e 	.word	0x2000003e

08001b60 <Accelerometer_setRange>:

uint8_t Accelerometer_setRange(Accelerometer_Ranges range) {
 8001b60:	b580      	push	{r7, lr}
 8001b62:	b082      	sub	sp, #8
 8001b64:	af00      	add	r7, sp, #0
 8001b66:	0002      	movs	r2, r0
 8001b68:	1dfb      	adds	r3, r7, #7
 8001b6a:	701a      	strb	r2, [r3, #0]
	//deactivate the sensor
	if (Accelerometer_goStandby()) {
 8001b6c:	f7ff ff0c 	bl	8001988 <Accelerometer_goStandby>
 8001b70:	1e03      	subs	r3, r0, #0
 8001b72:	d001      	beq.n	8001b78 <Accelerometer_setRange+0x18>
		return 1;
 8001b74:	2301      	movs	r3, #1
 8001b76:	e012      	b.n	8001b9e <Accelerometer_setRange+0x3e>
	}
	//clear bits in register to change
	I2C_BitHandling(REG_XYZ_DATA_CFG, 0x03, Bit_RESET);
 8001b78:	2200      	movs	r2, #0
 8001b7a:	2103      	movs	r1, #3
 8001b7c:	200e      	movs	r0, #14
 8001b7e:	f7ff fec1 	bl	8001904 <I2C_BitHandling>
	//set range
	I2C_BitHandling(REG_XYZ_DATA_CFG, range, Bit_SET);
 8001b82:	1dfb      	adds	r3, r7, #7
 8001b84:	781b      	ldrb	r3, [r3, #0]
 8001b86:	2201      	movs	r2, #1
 8001b88:	0019      	movs	r1, r3
 8001b8a:	200e      	movs	r0, #14
 8001b8c:	f7ff feba 	bl	8001904 <I2C_BitHandling>

	if (Accelerometer_goActive()) {
 8001b90:	f7ff ff20 	bl	80019d4 <Accelerometer_goActive>
 8001b94:	1e03      	subs	r3, r0, #0
 8001b96:	d001      	beq.n	8001b9c <Accelerometer_setRange+0x3c>
		return 3;
 8001b98:	2303      	movs	r3, #3
 8001b9a:	e000      	b.n	8001b9e <Accelerometer_setRange+0x3e>
	}
	return 0;
 8001b9c:	2300      	movs	r3, #0
}
 8001b9e:	0018      	movs	r0, r3
 8001ba0:	46bd      	mov	sp, r7
 8001ba2:	b002      	add	sp, #8
 8001ba4:	bd80      	pop	{r7, pc}

08001ba6 <Accelerometer_setDataRate>:

uint8_t Accelerometer_setDataRate(Accelerometer_dataRates dataRate) {
 8001ba6:	b580      	push	{r7, lr}
 8001ba8:	b082      	sub	sp, #8
 8001baa:	af00      	add	r7, sp, #0
 8001bac:	0002      	movs	r2, r0
 8001bae:	1dfb      	adds	r3, r7, #7
 8001bb0:	701a      	strb	r2, [r3, #0]
	//deactivate the sensor
	if (Accelerometer_goStandby()) {
 8001bb2:	f7ff fee9 	bl	8001988 <Accelerometer_goStandby>
 8001bb6:	1e03      	subs	r3, r0, #0
 8001bb8:	d001      	beq.n	8001bbe <Accelerometer_setDataRate+0x18>
		return 1;
 8001bba:	2301      	movs	r3, #1
 8001bbc:	e014      	b.n	8001be8 <Accelerometer_setDataRate+0x42>
	}
	//clear bits in register to change
	I2C_BitHandling(REG_CTRL_REG_1, 0x38, Bit_RESET);
 8001bbe:	2200      	movs	r2, #0
 8001bc0:	2138      	movs	r1, #56	; 0x38
 8001bc2:	202a      	movs	r0, #42	; 0x2a
 8001bc4:	f7ff fe9e 	bl	8001904 <I2C_BitHandling>
	//set range
	I2C_BitHandling(REG_CTRL_REG_1, dataRate << 3, Bit_SET);
 8001bc8:	1dfb      	adds	r3, r7, #7
 8001bca:	781b      	ldrb	r3, [r3, #0]
 8001bcc:	00db      	lsls	r3, r3, #3
 8001bce:	b2db      	uxtb	r3, r3
 8001bd0:	2201      	movs	r2, #1
 8001bd2:	0019      	movs	r1, r3
 8001bd4:	202a      	movs	r0, #42	; 0x2a
 8001bd6:	f7ff fe95 	bl	8001904 <I2C_BitHandling>

	if (Accelerometer_goActive()) {
 8001bda:	f7ff fefb 	bl	80019d4 <Accelerometer_goActive>
 8001bde:	1e03      	subs	r3, r0, #0
 8001be0:	d001      	beq.n	8001be6 <Accelerometer_setDataRate+0x40>
		return 3;
 8001be2:	2303      	movs	r3, #3
 8001be4:	e000      	b.n	8001be8 <Accelerometer_setDataRate+0x42>
	}
	return 0;
 8001be6:	2300      	movs	r3, #0
}
 8001be8:	0018      	movs	r0, r3
 8001bea:	46bd      	mov	sp, r7
 8001bec:	b002      	add	sp, #8
 8001bee:	bd80      	pop	{r7, pc}

08001bf0 <Accelerometer_setDataWidth>:

uint8_t Accelerometer_setDataWidth(uint8_t DataWidth) {
 8001bf0:	b580      	push	{r7, lr}
 8001bf2:	b082      	sub	sp, #8
 8001bf4:	af00      	add	r7, sp, #0
 8001bf6:	0002      	movs	r2, r0
 8001bf8:	1dfb      	adds	r3, r7, #7
 8001bfa:	701a      	strb	r2, [r3, #0]
	//deactivate the sensor
	if (Accelerometer_goStandby()) {
 8001bfc:	f7ff fec4 	bl	8001988 <Accelerometer_goStandby>
 8001c00:	1e03      	subs	r3, r0, #0
 8001c02:	d001      	beq.n	8001c08 <Accelerometer_setDataWidth+0x18>
		return 1;
 8001c04:	2301      	movs	r3, #1
 8001c06:	e020      	b.n	8001c4a <Accelerometer_setDataWidth+0x5a>
	}
	//clear bits in register to change
	I2C_BitHandling(REG_CTRL_REG_1, 0x3E, Bit_RESET);
 8001c08:	2200      	movs	r2, #0
 8001c0a:	213e      	movs	r1, #62	; 0x3e
 8001c0c:	202a      	movs	r0, #42	; 0x2a
 8001c0e:	f7ff fe79 	bl	8001904 <I2C_BitHandling>

	//decide what to do
	switch (DataWidth) {
 8001c12:	1dfb      	adds	r3, r7, #7
 8001c14:	781b      	ldrb	r3, [r3, #0]
 8001c16:	2b00      	cmp	r3, #0
 8001c18:	d002      	beq.n	8001c20 <Accelerometer_setDataWidth+0x30>
 8001c1a:	2b01      	cmp	r3, #1
 8001c1c:	d006      	beq.n	8001c2c <Accelerometer_setDataWidth+0x3c>
 8001c1e:	e00b      	b.n	8001c38 <Accelerometer_setDataWidth+0x48>
	case ACC_DATAWIDTH_8:
		//set F_READ and leave highest data rate
		I2C_BitHandling(REG_CTRL_REG_1, 1 << 1, Bit_SET);
 8001c20:	2201      	movs	r2, #1
 8001c22:	2102      	movs	r1, #2
 8001c24:	202a      	movs	r0, #42	; 0x2a
 8001c26:	f7ff fe6d 	bl	8001904 <I2C_BitHandling>
		break;
 8001c2a:	e007      	b.n	8001c3c <Accelerometer_setDataWidth+0x4c>
	case ACC_DATAWIDTH_10:
		//limit output data rate to 12.5Hz and leave F_READ reset
		I2C_BitHandling(REG_CTRL_REG_1, (1 << 3 | 1 << 5), Bit_SET);
 8001c2c:	2201      	movs	r2, #1
 8001c2e:	2128      	movs	r1, #40	; 0x28
 8001c30:	202a      	movs	r0, #42	; 0x2a
 8001c32:	f7ff fe67 	bl	8001904 <I2C_BitHandling>
		break;
 8001c36:	e001      	b.n	8001c3c <Accelerometer_setDataWidth+0x4c>
	default:
		return 2;
 8001c38:	2302      	movs	r3, #2
 8001c3a:	e006      	b.n	8001c4a <Accelerometer_setDataWidth+0x5a>
		break;
	}
	if (Accelerometer_goActive()) {
 8001c3c:	f7ff feca 	bl	80019d4 <Accelerometer_goActive>
 8001c40:	1e03      	subs	r3, r0, #0
 8001c42:	d001      	beq.n	8001c48 <Accelerometer_setDataWidth+0x58>
		return 3;
 8001c44:	2303      	movs	r3, #3
 8001c46:	e000      	b.n	8001c4a <Accelerometer_setDataWidth+0x5a>
	}
	return 0;
 8001c48:	2300      	movs	r3, #0
}
 8001c4a:	0018      	movs	r0, r3
 8001c4c:	46bd      	mov	sp, r7
 8001c4e:	b002      	add	sp, #8
 8001c50:	bd80      	pop	{r7, pc}
	...

08001c54 <Accelerometer_read8>:

//read when in fast (8-bit) mode
//needs the fast-read mode enabled as well
//max. sample frequency (because of communication) ~ 7kHz
acc8_t Accelerometer_read8() {
 8001c54:	b590      	push	{r4, r7, lr}
 8001c56:	b085      	sub	sp, #20
 8001c58:	af00      	add	r7, sp, #0
	uint8_t rxBuf[3];
	acc8_t acc_result;

	I2C_RdReg(REG_OUT_X_MSB, rxBuf, 3);
 8001c5a:	2408      	movs	r4, #8
 8001c5c:	193b      	adds	r3, r7, r4
 8001c5e:	2203      	movs	r2, #3
 8001c60:	0019      	movs	r1, r3
 8001c62:	2001      	movs	r0, #1
 8001c64:	f7ff fd5e 	bl	8001724 <I2C_RdReg>
	//rxbuf[0] contains full 8 bit of data.
	//the first bit defines the sign!
	acc_result.x = rxBuf[0];
 8001c68:	0021      	movs	r1, r4
 8001c6a:	187b      	adds	r3, r7, r1
 8001c6c:	781b      	ldrb	r3, [r3, #0]
 8001c6e:	b25a      	sxtb	r2, r3
 8001c70:	1d3b      	adds	r3, r7, #4
 8001c72:	701a      	strb	r2, [r3, #0]
	acc_result.y = rxBuf[1];
 8001c74:	187b      	adds	r3, r7, r1
 8001c76:	785b      	ldrb	r3, [r3, #1]
 8001c78:	b25a      	sxtb	r2, r3
 8001c7a:	1d3b      	adds	r3, r7, #4
 8001c7c:	705a      	strb	r2, [r3, #1]
	acc_result.z = rxBuf[2];
 8001c7e:	187b      	adds	r3, r7, r1
 8001c80:	789b      	ldrb	r3, [r3, #2]
 8001c82:	b25a      	sxtb	r2, r3
 8001c84:	1d3b      	adds	r3, r7, #4
 8001c86:	709a      	strb	r2, [r3, #2]
	return acc_result;
 8001c88:	200c      	movs	r0, #12
 8001c8a:	183b      	adds	r3, r7, r0
 8001c8c:	1d3a      	adds	r2, r7, #4
 8001c8e:	8811      	ldrh	r1, [r2, #0]
 8001c90:	8019      	strh	r1, [r3, #0]
 8001c92:	7892      	ldrb	r2, [r2, #2]
 8001c94:	709a      	strb	r2, [r3, #2]
 8001c96:	183a      	adds	r2, r7, r0
 8001c98:	2300      	movs	r3, #0
 8001c9a:	7811      	ldrb	r1, [r2, #0]
 8001c9c:	20ff      	movs	r0, #255	; 0xff
 8001c9e:	4001      	ands	r1, r0
 8001ca0:	20ff      	movs	r0, #255	; 0xff
 8001ca2:	4383      	bics	r3, r0
 8001ca4:	430b      	orrs	r3, r1
 8001ca6:	7851      	ldrb	r1, [r2, #1]
 8001ca8:	20ff      	movs	r0, #255	; 0xff
 8001caa:	4001      	ands	r1, r0
 8001cac:	0209      	lsls	r1, r1, #8
 8001cae:	4807      	ldr	r0, [pc, #28]	; (8001ccc <Accelerometer_read8+0x78>)
 8001cb0:	4003      	ands	r3, r0
 8001cb2:	430b      	orrs	r3, r1
 8001cb4:	7892      	ldrb	r2, [r2, #2]
 8001cb6:	21ff      	movs	r1, #255	; 0xff
 8001cb8:	400a      	ands	r2, r1
 8001cba:	0412      	lsls	r2, r2, #16
 8001cbc:	4904      	ldr	r1, [pc, #16]	; (8001cd0 <Accelerometer_read8+0x7c>)
 8001cbe:	400b      	ands	r3, r1
 8001cc0:	4313      	orrs	r3, r2
}
 8001cc2:	0018      	movs	r0, r3
 8001cc4:	46bd      	mov	sp, r7
 8001cc6:	b005      	add	sp, #20
 8001cc8:	bd90      	pop	{r4, r7, pc}
 8001cca:	46c0      	nop			; (mov r8, r8)
 8001ccc:	ffff00ff 	.word	0xffff00ff
 8001cd0:	ff00ffff 	.word	0xff00ffff

08001cd4 <Accelerometer_initIrq>:
	acc_result.z = ((int16_t) rxBuf[4] << 2) | (rxBuf[5] & 0x60 >> 6);
	return acc_result;
}

//TODO: don't forget to implement and register the interrupt handler in startup code
void Accelerometer_initIrq() {
 8001cd4:	b580      	push	{r7, lr}
 8001cd6:	b084      	sub	sp, #16
 8001cd8:	af00      	add	r7, sp, #0
	Accelerometer_goStandby();
 8001cda:	f7ff fe55 	bl	8001988 <Accelerometer_goStandby>

	//interrupt pins are defined for push/pull low active by default -> leave that

	//enable the wanted interrupt source
	I2C_BitHandling(REG_CTRL_REG_4, 1 << 0, Bit_SET);
 8001cde:	2201      	movs	r2, #1
 8001ce0:	2101      	movs	r1, #1
 8001ce2:	202d      	movs	r0, #45	; 0x2d
 8001ce4:	f7ff fe0e 	bl	8001904 <I2C_BitHandling>
	//and route it to the corresponding pin
	I2C_BitHandling(REG_CTRL_REG_5, 1 << 0, Bit_SET);
 8001ce8:	2201      	movs	r2, #1
 8001cea:	2101      	movs	r1, #1
 8001cec:	202e      	movs	r0, #46	; 0x2e
 8001cee:	f7ff fe09 	bl	8001904 <I2C_BitHandling>

	//set up the Interrupt in the STM32!
	//INT1 is connected to PA2 -> EXTI2 line
	//enable the clock for the syscfg module
	RCC_APB2PeriphClockCmd(RCC_APB2Periph_SYSCFG, ENABLE);
 8001cf2:	2101      	movs	r1, #1
 8001cf4:	2001      	movs	r0, #1
 8001cf6:	f7fe fef7 	bl	8000ae8 <RCC_APB2PeriphClockCmd>
	//enable PA2 interrupt source
	SYSCFG_EXTILineConfig(EXTI_PortSourceGPIOA, EXTI_PinSource2);
 8001cfa:	2102      	movs	r1, #2
 8001cfc:	2000      	movs	r0, #0
 8001cfe:	f7fe ff53 	bl	8000ba8 <SYSCFG_EXTILineConfig>
	//configure and enable the exti2 line
	EXTI_InitTypeDef EXTI_InitStruct;
	EXTI_InitStruct.EXTI_Line = EXTI_Line2;
 8001d02:	2108      	movs	r1, #8
 8001d04:	187b      	adds	r3, r7, r1
 8001d06:	2204      	movs	r2, #4
 8001d08:	601a      	str	r2, [r3, #0]
	EXTI_InitStruct.EXTI_Mode = EXTI_Mode_Interrupt;
 8001d0a:	187b      	adds	r3, r7, r1
 8001d0c:	2200      	movs	r2, #0
 8001d0e:	711a      	strb	r2, [r3, #4]
	EXTI_InitStruct.EXTI_Trigger = EXTI_Trigger_Falling;
 8001d10:	187b      	adds	r3, r7, r1
 8001d12:	220c      	movs	r2, #12
 8001d14:	715a      	strb	r2, [r3, #5]
	EXTI_InitStruct.EXTI_LineCmd = ENABLE;
 8001d16:	187b      	adds	r3, r7, r1
 8001d18:	2201      	movs	r2, #1
 8001d1a:	719a      	strb	r2, [r3, #6]
	EXTI_Init(&EXTI_InitStruct);
 8001d1c:	187b      	adds	r3, r7, r1
 8001d1e:	0018      	movs	r0, r3
 8001d20:	f7fe fb82 	bl	8000428 <EXTI_Init>
	//enable and set exti2 interrupt
	NVIC_InitTypeDef NVIC_InitStruct;
	NVIC_InitStruct.NVIC_IRQChannel = EXTI2_3_IRQn;
 8001d24:	1d3b      	adds	r3, r7, #4
 8001d26:	2206      	movs	r2, #6
 8001d28:	701a      	strb	r2, [r3, #0]
	NVIC_InitStruct.NVIC_IRQChannelCmd = ENABLE;
 8001d2a:	1d3b      	adds	r3, r7, #4
 8001d2c:	2201      	movs	r2, #1
 8001d2e:	709a      	strb	r2, [r3, #2]
	NVIC_Init(&NVIC_InitStruct);
 8001d30:	1d3b      	adds	r3, r7, #4
 8001d32:	0018      	movs	r0, r3
 8001d34:	f7fe fe48 	bl	80009c8 <NVIC_Init>

	//activate sensor again
	Accelerometer_goActive();
 8001d38:	f7ff fe4c 	bl	80019d4 <Accelerometer_goActive>
}
 8001d3c:	46c0      	nop			; (mov r8, r8)
 8001d3e:	46bd      	mov	sp, r7
 8001d40:	b004      	add	sp, #16
 8001d42:	bd80      	pop	{r7, pc}

08001d44 <Accelerometer_deInit>:

//sends sensor into standby, deactivates I2C and the interrupts
//important especially after using the interrupts
void Accelerometer_deInit()
{
 8001d44:	b580      	push	{r7, lr}
 8001d46:	af00      	add	r7, sp, #0
	Accelerometer_goStandby();
 8001d48:	f7ff fe1e 	bl	8001988 <Accelerometer_goStandby>
	I2C_DeInit(I2C_ACC);
 8001d4c:	4b05      	ldr	r3, [pc, #20]	; (8001d64 <Accelerometer_deInit+0x20>)
 8001d4e:	0018      	movs	r0, r3
 8001d50:	f7fe fd0e 	bl	8000770 <I2C_DeInit>
	EXTI_DeInit();
 8001d54:	f7fe fb4e 	bl	80003f4 <EXTI_DeInit>
	NVIC_DisableIRQ(EXTI2_3_IRQn);
 8001d58:	2006      	movs	r0, #6
 8001d5a:	f7ff fccb 	bl	80016f4 <NVIC_DisableIRQ>
}
 8001d5e:	46c0      	nop			; (mov r8, r8)
 8001d60:	46bd      	mov	sp, r7
 8001d62:	bd80      	pop	{r7, pc}
 8001d64:	40005400 	.word	0x40005400

08001d68 <NVIC_EnableIRQ>:
__STATIC_INLINE void NVIC_EnableIRQ(IRQn_Type IRQn) {
 8001d68:	b580      	push	{r7, lr}
 8001d6a:	b082      	sub	sp, #8
 8001d6c:	af00      	add	r7, sp, #0
 8001d6e:	0002      	movs	r2, r0
 8001d70:	1dfb      	adds	r3, r7, #7
 8001d72:	701a      	strb	r2, [r3, #0]
	NVIC->ISER[0] = (1 << ((uint32_t) (IRQn) & 0x1F));
 8001d74:	1dfb      	adds	r3, r7, #7
 8001d76:	781b      	ldrb	r3, [r3, #0]
 8001d78:	001a      	movs	r2, r3
 8001d7a:	231f      	movs	r3, #31
 8001d7c:	4013      	ands	r3, r2
 8001d7e:	2201      	movs	r2, #1
 8001d80:	409a      	lsls	r2, r3
 8001d82:	4b03      	ldr	r3, [pc, #12]	; (8001d90 <NVIC_EnableIRQ+0x28>)
 8001d84:	601a      	str	r2, [r3, #0]
}
 8001d86:	46c0      	nop			; (mov r8, r8)
 8001d88:	46bd      	mov	sp, r7
 8001d8a:	b002      	add	sp, #8
 8001d8c:	bd80      	pop	{r7, pc}
 8001d8e:	46c0      	nop			; (mov r8, r8)
 8001d90:	e000e100 	.word	0xe000e100

08001d94 <displayInit>:
 *
 *
 *TODO: test and optimize all the timings in this class
 */

void displayInit() {
 8001d94:	b5b0      	push	{r4, r5, r7, lr}
 8001d96:	af00      	add	r7, sp, #0
	//set up mma8653 with +-4g-Range, low res and high sampling rate
	//set up interrupt-driven sensor readout
	Accelerometer_setRange(RANGE_8G);
 8001d98:	2002      	movs	r0, #2
 8001d9a:	f7ff fee1 	bl	8001b60 <Accelerometer_setRange>
	Accelerometer_setDataWidth(ACC_DATAWIDTH_8);
 8001d9e:	2000      	movs	r0, #0
 8001da0:	f7ff ff26 	bl	8001bf0 <Accelerometer_setDataWidth>
	Accelerometer_setDataRate(RATE_200Hz);
 8001da4:	2002      	movs	r0, #2
 8001da6:	f7ff fefe 	bl	8001ba6 <Accelerometer_setDataRate>
	Accelerometer_initIrq();
 8001daa:	f7ff ff93 	bl	8001cd4 <Accelerometer_initIrq>

	Neopixels_Off();
 8001dae:	f000 fcc5 	bl	800273c <Neopixels_Off>

	//set up timer TIM2 for measuring t_frame
	//upcounting,12MHz-> prescaler = 4,
	RCC_APB1PeriphClockCmd(RCC_APB1Periph_TIM2, ENABLE);
 8001db2:	2101      	movs	r1, #1
 8001db4:	2001      	movs	r0, #1
 8001db6:	f7fe feb7 	bl	8000b28 <RCC_APB1PeriphClockCmd>
	TIM2->CR1 = 0;
 8001dba:	2380      	movs	r3, #128	; 0x80
 8001dbc:	05db      	lsls	r3, r3, #23
 8001dbe:	2200      	movs	r2, #0
 8001dc0:	801a      	strh	r2, [r3, #0]
	TIM2->PSC = 48;
 8001dc2:	2380      	movs	r3, #128	; 0x80
 8001dc4:	05db      	lsls	r3, r3, #23
 8001dc6:	2230      	movs	r2, #48	; 0x30
 8001dc8:	851a      	strh	r2, [r3, #40]	; 0x28
	//reset the counter:
	TIM2->EGR |= TIM_EGR_UG;
 8001dca:	2380      	movs	r3, #128	; 0x80
 8001dcc:	05db      	lsls	r3, r3, #23
 8001dce:	8a9b      	ldrh	r3, [r3, #20]
 8001dd0:	b29a      	uxth	r2, r3
 8001dd2:	2380      	movs	r3, #128	; 0x80
 8001dd4:	05db      	lsls	r3, r3, #23
 8001dd6:	2101      	movs	r1, #1
 8001dd8:	430a      	orrs	r2, r1
 8001dda:	b292      	uxth	r2, r2
 8001ddc:	829a      	strh	r2, [r3, #20]
	TIM2->CR1 |= TIM_CR1_CEN;
 8001dde:	2380      	movs	r3, #128	; 0x80
 8001de0:	05db      	lsls	r3, r3, #23
 8001de2:	881b      	ldrh	r3, [r3, #0]
 8001de4:	b29a      	uxth	r2, r3
 8001de6:	2380      	movs	r3, #128	; 0x80
 8001de8:	05db      	lsls	r3, r3, #23
 8001dea:	2101      	movs	r1, #1
 8001dec:	430a      	orrs	r2, r1
 8001dee:	b292      	uxth	r2, r2
 8001df0:	801a      	strh	r2, [r3, #0]

	//setup TIM2 Compare Channel 1 for setting the length of the LockTime!
	//the data-ready interrupt from the sensor is ignored during that time
	//set to 30 ms (a faster swipe doesn't seem to be possible by hand)
	TIM2->DIER |= TIM_DIER_CC1IE;
 8001df2:	2380      	movs	r3, #128	; 0x80
 8001df4:	05db      	lsls	r3, r3, #23
 8001df6:	899b      	ldrh	r3, [r3, #12]
 8001df8:	b29a      	uxth	r2, r3
 8001dfa:	2380      	movs	r3, #128	; 0x80
 8001dfc:	05db      	lsls	r3, r3, #23
 8001dfe:	2102      	movs	r1, #2
 8001e00:	430a      	orrs	r2, r1
 8001e02:	b292      	uxth	r2, r2
 8001e04:	819a      	strh	r2, [r3, #12]
	TIM2->CCR1 = 30000;
 8001e06:	2380      	movs	r3, #128	; 0x80
 8001e08:	05db      	lsls	r3, r3, #23
 8001e0a:	4a30      	ldr	r2, [pc, #192]	; (8001ecc <displayInit+0x138>)
 8001e0c:	635a      	str	r2, [r3, #52]	; 0x34
	TIM2->CCER |= TIM_CCER_CC1E;
 8001e0e:	2380      	movs	r3, #128	; 0x80
 8001e10:	05db      	lsls	r3, r3, #23
 8001e12:	8c1b      	ldrh	r3, [r3, #32]
 8001e14:	b29a      	uxth	r2, r3
 8001e16:	2380      	movs	r3, #128	; 0x80
 8001e18:	05db      	lsls	r3, r3, #23
 8001e1a:	2101      	movs	r1, #1
 8001e1c:	430a      	orrs	r2, r1
 8001e1e:	b292      	uxth	r2, r2
 8001e20:	841a      	strh	r2, [r3, #32]
	NVIC_EnableIRQ(TIM2_IRQn);
 8001e22:	200f      	movs	r0, #15
 8001e24:	f7ff ffa0 	bl	8001d68 <NVIC_EnableIRQ>

	//set up timer TIM3 for triggering the lines with t_line (= t_frame/LINECOUNT)
	//upcounting 12Mhz, autoreload @ t_frame/LINECOUNT, interrupt @ overflow
	RCC_APB1PeriphClockCmd(RCC_APB1Periph_TIM3, ENABLE);
 8001e28:	2101      	movs	r1, #1
 8001e2a:	2002      	movs	r0, #2
 8001e2c:	f7fe fe7c 	bl	8000b28 <RCC_APB1PeriphClockCmd>
	TIM3->CR1 = 0;
 8001e30:	4b27      	ldr	r3, [pc, #156]	; (8001ed0 <displayInit+0x13c>)
 8001e32:	2200      	movs	r2, #0
 8001e34:	801a      	strh	r2, [r3, #0]
	TIM3->PSC = 48;
 8001e36:	4b26      	ldr	r3, [pc, #152]	; (8001ed0 <displayInit+0x13c>)
 8001e38:	2230      	movs	r2, #48	; 0x30
 8001e3a:	851a      	strh	r2, [r3, #40]	; 0x28
	TIM3->DIER |= TIM_DIER_UIE;
 8001e3c:	4b24      	ldr	r3, [pc, #144]	; (8001ed0 <displayInit+0x13c>)
 8001e3e:	899b      	ldrh	r3, [r3, #12]
 8001e40:	b29b      	uxth	r3, r3
 8001e42:	4a23      	ldr	r2, [pc, #140]	; (8001ed0 <displayInit+0x13c>)
 8001e44:	2101      	movs	r1, #1
 8001e46:	430b      	orrs	r3, r1
 8001e48:	b29b      	uxth	r3, r3
 8001e4a:	8193      	strh	r3, [r2, #12]
	//clear interrupt flag
	TIM3->SR &= ~TIM_SR_UIF;
 8001e4c:	4b20      	ldr	r3, [pc, #128]	; (8001ed0 <displayInit+0x13c>)
 8001e4e:	8a1b      	ldrh	r3, [r3, #16]
 8001e50:	b29b      	uxth	r3, r3
 8001e52:	4a1f      	ldr	r2, [pc, #124]	; (8001ed0 <displayInit+0x13c>)
 8001e54:	2101      	movs	r1, #1
 8001e56:	438b      	bics	r3, r1
 8001e58:	b29b      	uxth	r3, r3
 8001e5a:	8213      	strh	r3, [r2, #16]
	//enable the IRQ
	NVIC_EnableIRQ(TIM3_IRQn);
 8001e5c:	2010      	movs	r0, #16
 8001e5e:	f7ff ff83 	bl	8001d68 <NVIC_EnableIRQ>
//		NvMem_write(NVMEM_AD_GLOBAL_GREEN, 255);
//		NvMem_write(NVMEM_AD_GLOBAL_RED, 255);
//	}

	//init the display data
	RowsOverscan = NvMem_read(NVMEM_AD_OVERSCAN);
 8001e62:	2004      	movs	r0, #4
 8001e64:	f000 fcd2 	bl	800280c <NvMem_read>
 8001e68:	0003      	movs	r3, r0
 8001e6a:	b2da      	uxtb	r2, r3
 8001e6c:	4b19      	ldr	r3, [pc, #100]	; (8001ed4 <displayInit+0x140>)
 8001e6e:	701a      	strb	r2, [r3, #0]
	RowsVisible = NvMem_read(NVMEM_AD_ROWS_VISIBLE);
 8001e70:	2003      	movs	r0, #3
 8001e72:	f000 fccb 	bl	800280c <NvMem_read>
 8001e76:	0003      	movs	r3, r0
 8001e78:	b2da      	uxtb	r2, r3
 8001e7a:	4b17      	ldr	r3, [pc, #92]	; (8001ed8 <displayInit+0x144>)
 8001e7c:	701a      	strb	r2, [r3, #0]

	RowsLogic = RowsVisible + 2 * RowsOverscan;
 8001e7e:	4b15      	ldr	r3, [pc, #84]	; (8001ed4 <displayInit+0x140>)
 8001e80:	781b      	ldrb	r3, [r3, #0]
 8001e82:	b2db      	uxtb	r3, r3
 8001e84:	18db      	adds	r3, r3, r3
 8001e86:	b2da      	uxtb	r2, r3
 8001e88:	4b13      	ldr	r3, [pc, #76]	; (8001ed8 <displayInit+0x144>)
 8001e8a:	781b      	ldrb	r3, [r3, #0]
 8001e8c:	b2db      	uxtb	r3, r3
 8001e8e:	18d3      	adds	r3, r2, r3
 8001e90:	b2da      	uxtb	r2, r3
 8001e92:	4b12      	ldr	r3, [pc, #72]	; (8001edc <displayInit+0x148>)
 8001e94:	701a      	strb	r2, [r3, #0]

	//set the color to whatever is defined in NvMem
	Neopixels_setColorFullRGB(NvMem_read(NVMEM_AD_GLOBAL_RED),
 8001e96:	2000      	movs	r0, #0
 8001e98:	f000 fcb8 	bl	800280c <NvMem_read>
 8001e9c:	0003      	movs	r3, r0
 8001e9e:	b2dc      	uxtb	r4, r3
			NvMem_read(NVMEM_AD_GLOBAL_GREEN),
 8001ea0:	2001      	movs	r0, #1
 8001ea2:	f000 fcb3 	bl	800280c <NvMem_read>
 8001ea6:	0003      	movs	r3, r0
	Neopixels_setColorFullRGB(NvMem_read(NVMEM_AD_GLOBAL_RED),
 8001ea8:	b2dd      	uxtb	r5, r3
			NvMem_read(NVMEM_AD_GLOBAL_BLUE));
 8001eaa:	2002      	movs	r0, #2
 8001eac:	f000 fcae 	bl	800280c <NvMem_read>
 8001eb0:	0003      	movs	r3, r0
	Neopixels_setColorFullRGB(NvMem_read(NVMEM_AD_GLOBAL_RED),
 8001eb2:	b2db      	uxtb	r3, r3
 8001eb4:	001a      	movs	r2, r3
 8001eb6:	0029      	movs	r1, r5
 8001eb8:	0020      	movs	r0, r4
 8001eba:	f000 fa7f 	bl	80023bc <Neopixels_setColorFullRGB>
	Neopixels_setBrightness(31);
 8001ebe:	201f      	movs	r0, #31
 8001ec0:	f000 fac2 	bl	8002448 <Neopixels_setBrightness>

}
 8001ec4:	46c0      	nop			; (mov r8, r8)
 8001ec6:	46bd      	mov	sp, r7
 8001ec8:	bdb0      	pop	{r4, r5, r7, pc}
 8001eca:	46c0      	nop			; (mov r8, r8)
 8001ecc:	00007530 	.word	0x00007530
 8001ed0:	40000400 	.word	0x40000400
 8001ed4:	2000005c 	.word	0x2000005c
 8001ed8:	200000a1 	.word	0x200000a1
 8001edc:	200000a2 	.word	0x200000a2

08001ee0 <displaySendLine>:

//called 2 times for every row
//first call should switch on the LEDs according to rowData, 2nd should switch them off to insert a blank row
//without this blank row, the rows are squeezed together too much
void displaySendLine() {
 8001ee0:	b580      	push	{r7, lr}
 8001ee2:	af00      	add	r7, sp, #0
	//clear interrupt flag
	TIM3->SR &= ~TIM_SR_UIF;
 8001ee4:	4b2c      	ldr	r3, [pc, #176]	; (8001f98 <displaySendLine+0xb8>)
 8001ee6:	8a1b      	ldrh	r3, [r3, #16]
 8001ee8:	b29b      	uxth	r3, r3
 8001eea:	4a2b      	ldr	r2, [pc, #172]	; (8001f98 <displaySendLine+0xb8>)
 8001eec:	2101      	movs	r1, #1
 8001eee:	438b      	bics	r3, r1
 8001ef0:	b29b      	uxth	r3, r3
 8001ef2:	8213      	strh	r3, [r2, #16]

	//left side is the row, right side the gap
	if (DisplayPosition == DISP_POS_ROW_START) {
 8001ef4:	4b29      	ldr	r3, [pc, #164]	; (8001f9c <displaySendLine+0xbc>)
 8001ef6:	781b      	ldrb	r3, [r3, #0]
 8001ef8:	b2db      	uxtb	r3, r3
 8001efa:	2b00      	cmp	r3, #0
 8001efc:	d129      	bne.n	8001f52 <displaySendLine+0x72>
		//if row is in the visible area
		if (RowNumber >= RowsOverscan
 8001efe:	4b28      	ldr	r3, [pc, #160]	; (8001fa0 <displaySendLine+0xc0>)
 8001f00:	781b      	ldrb	r3, [r3, #0]
 8001f02:	b2da      	uxtb	r2, r3
 8001f04:	4b27      	ldr	r3, [pc, #156]	; (8001fa4 <displaySendLine+0xc4>)
 8001f06:	781b      	ldrb	r3, [r3, #0]
 8001f08:	b2db      	uxtb	r3, r3
 8001f0a:	429a      	cmp	r2, r3
 8001f0c:	d31b      	bcc.n	8001f46 <displaySendLine+0x66>
				&& RowNumber < RowsOverscan + RowsVisible) {
 8001f0e:	4b24      	ldr	r3, [pc, #144]	; (8001fa0 <displaySendLine+0xc0>)
 8001f10:	781b      	ldrb	r3, [r3, #0]
 8001f12:	b2db      	uxtb	r3, r3
 8001f14:	001a      	movs	r2, r3
 8001f16:	4b23      	ldr	r3, [pc, #140]	; (8001fa4 <displaySendLine+0xc4>)
 8001f18:	781b      	ldrb	r3, [r3, #0]
 8001f1a:	b2db      	uxtb	r3, r3
 8001f1c:	0019      	movs	r1, r3
 8001f1e:	4b22      	ldr	r3, [pc, #136]	; (8001fa8 <displaySendLine+0xc8>)
 8001f20:	781b      	ldrb	r3, [r3, #0]
 8001f22:	b2db      	uxtb	r3, r3
 8001f24:	18cb      	adds	r3, r1, r3
 8001f26:	429a      	cmp	r2, r3
 8001f28:	da0d      	bge.n	8001f46 <displaySendLine+0x66>
			Neopixels_setPattern(NvMem_read(NVMEM_AD_PICTURE_START + RowNumber));
 8001f2a:	4b1d      	ldr	r3, [pc, #116]	; (8001fa0 <displaySendLine+0xc0>)
 8001f2c:	781b      	ldrb	r3, [r3, #0]
 8001f2e:	b2db      	uxtb	r3, r3
 8001f30:	b29b      	uxth	r3, r3
 8001f32:	3305      	adds	r3, #5
 8001f34:	b29b      	uxth	r3, r3
 8001f36:	0018      	movs	r0, r3
 8001f38:	f000 fc68 	bl	800280c <NvMem_read>
 8001f3c:	0003      	movs	r3, r0
 8001f3e:	0018      	movs	r0, r3
 8001f40:	f000 fb3e 	bl	80025c0 <Neopixels_setPattern>
 8001f44:	e001      	b.n	8001f4a <displaySendLine+0x6a>
		} else {
			//switch off the display
			Neopixels_Off();
 8001f46:	f000 fbf9 	bl	800273c <Neopixels_Off>
		}
		DisplayPosition = DISP_POS_GAP_START;
 8001f4a:	4b14      	ldr	r3, [pc, #80]	; (8001f9c <displaySendLine+0xbc>)
 8001f4c:	2201      	movs	r2, #1
 8001f4e:	701a      	strb	r2, [r3, #0]
			TIM3->CR1 &= ~TIM_CR1_CEN;
		}

	}

}
 8001f50:	e01f      	b.n	8001f92 <displaySendLine+0xb2>
		Neopixels_Off();
 8001f52:	f000 fbf3 	bl	800273c <Neopixels_Off>
		RowNumber += rowStep;
 8001f56:	4b15      	ldr	r3, [pc, #84]	; (8001fac <displaySendLine+0xcc>)
 8001f58:	781b      	ldrb	r3, [r3, #0]
 8001f5a:	b25b      	sxtb	r3, r3
 8001f5c:	b2da      	uxtb	r2, r3
 8001f5e:	4b10      	ldr	r3, [pc, #64]	; (8001fa0 <displaySendLine+0xc0>)
 8001f60:	781b      	ldrb	r3, [r3, #0]
 8001f62:	b2db      	uxtb	r3, r3
 8001f64:	18d3      	adds	r3, r2, r3
 8001f66:	b2da      	uxtb	r2, r3
 8001f68:	4b0d      	ldr	r3, [pc, #52]	; (8001fa0 <displaySendLine+0xc0>)
 8001f6a:	701a      	strb	r2, [r3, #0]
		DisplayPosition = DISP_POS_ROW_START;
 8001f6c:	4b0b      	ldr	r3, [pc, #44]	; (8001f9c <displaySendLine+0xbc>)
 8001f6e:	2200      	movs	r2, #0
 8001f70:	701a      	strb	r2, [r3, #0]
		if (RowNumber >= RowsLogic) {
 8001f72:	4b0b      	ldr	r3, [pc, #44]	; (8001fa0 <displaySendLine+0xc0>)
 8001f74:	781b      	ldrb	r3, [r3, #0]
 8001f76:	b2da      	uxtb	r2, r3
 8001f78:	4b0d      	ldr	r3, [pc, #52]	; (8001fb0 <displaySendLine+0xd0>)
 8001f7a:	781b      	ldrb	r3, [r3, #0]
 8001f7c:	b2db      	uxtb	r3, r3
 8001f7e:	429a      	cmp	r2, r3
 8001f80:	d307      	bcc.n	8001f92 <displaySendLine+0xb2>
			TIM3->CR1 &= ~TIM_CR1_CEN;
 8001f82:	4b05      	ldr	r3, [pc, #20]	; (8001f98 <displaySendLine+0xb8>)
 8001f84:	881b      	ldrh	r3, [r3, #0]
 8001f86:	b29b      	uxth	r3, r3
 8001f88:	4a03      	ldr	r2, [pc, #12]	; (8001f98 <displaySendLine+0xb8>)
 8001f8a:	2101      	movs	r1, #1
 8001f8c:	438b      	bics	r3, r1
 8001f8e:	b29b      	uxth	r3, r3
 8001f90:	8013      	strh	r3, [r2, #0]
}
 8001f92:	46c0      	nop			; (mov r8, r8)
 8001f94:	46bd      	mov	sp, r7
 8001f96:	bd80      	pop	{r7, pc}
 8001f98:	40000400 	.word	0x40000400
 8001f9c:	200000a0 	.word	0x200000a0
 8001fa0:	20000040 	.word	0x20000040
 8001fa4:	2000005c 	.word	0x2000005c
 8001fa8:	200000a1 	.word	0x200000a1
 8001fac:	2000003f 	.word	0x2000003f
 8001fb0:	200000a2 	.word	0x200000a2

08001fb4 <displayEndOfLocktime>:

//triggered by TIM2 CompareMatch
void displayEndOfLocktime() {
 8001fb4:	b580      	push	{r7, lr}
 8001fb6:	af00      	add	r7, sp, #0
	//clear the flag and read the data (so the sensor releases the INT line)
	EXTI->PR |= EXTI_PR_PR2;
 8001fb8:	4b0d      	ldr	r3, [pc, #52]	; (8001ff0 <displayEndOfLocktime+0x3c>)
 8001fba:	695a      	ldr	r2, [r3, #20]
 8001fbc:	4b0c      	ldr	r3, [pc, #48]	; (8001ff0 <displayEndOfLocktime+0x3c>)
 8001fbe:	2104      	movs	r1, #4
 8001fc0:	430a      	orrs	r2, r1
 8001fc2:	615a      	str	r2, [r3, #20]
	Accelerometer_read8();
 8001fc4:	f7ff fe46 	bl	8001c54 <Accelerometer_read8>

	//reenable the EXTI interrupt
	EXTI->IMR |= EXTI_EMR_MR2;
 8001fc8:	4b09      	ldr	r3, [pc, #36]	; (8001ff0 <displayEndOfLocktime+0x3c>)
 8001fca:	681a      	ldr	r2, [r3, #0]
 8001fcc:	4b08      	ldr	r3, [pc, #32]	; (8001ff0 <displayEndOfLocktime+0x3c>)
 8001fce:	2104      	movs	r1, #4
 8001fd0:	430a      	orrs	r2, r1
 8001fd2:	601a      	str	r2, [r3, #0]

	//clear Flag for this Interrupt
	TIM2->SR &= ~TIM_SR_CC1IF;
 8001fd4:	2380      	movs	r3, #128	; 0x80
 8001fd6:	05db      	lsls	r3, r3, #23
 8001fd8:	8a1b      	ldrh	r3, [r3, #16]
 8001fda:	b29a      	uxth	r2, r3
 8001fdc:	2380      	movs	r3, #128	; 0x80
 8001fde:	05db      	lsls	r3, r3, #23
 8001fe0:	2102      	movs	r1, #2
 8001fe2:	438a      	bics	r2, r1
 8001fe4:	b292      	uxth	r2, r2
 8001fe6:	821a      	strh	r2, [r3, #16]
}
 8001fe8:	46c0      	nop			; (mov r8, r8)
 8001fea:	46bd      	mov	sp, r7
 8001fec:	bd80      	pop	{r7, pc}
 8001fee:	46c0      	nop			; (mov r8, r8)
 8001ff0:	40010400 	.word	0x40010400

08001ff4 <displayFrameStart>:

void displayFrameStart() {
 8001ff4:	b580      	push	{r7, lr}
 8001ff6:	b082      	sub	sp, #8
 8001ff8:	af00      	add	r7, sp, #0

	//deactivate the peak detection for some time after a valid return point
	//by deactivating the EXTI interrupt
	EXTI->IMR &= ~EXTI_EMR_MR2;
 8001ffa:	4b23      	ldr	r3, [pc, #140]	; (8002088 <displayFrameStart+0x94>)
 8001ffc:	681a      	ldr	r2, [r3, #0]
 8001ffe:	4b22      	ldr	r3, [pc, #136]	; (8002088 <displayFrameStart+0x94>)
 8002000:	2104      	movs	r1, #4
 8002002:	438a      	bics	r2, r1
 8002004:	601a      	str	r2, [r3, #0]

	//take the counter value from timer2:
	uint32_t tFrame = TIM2->CNT;
 8002006:	2380      	movs	r3, #128	; 0x80
 8002008:	05db      	lsls	r3, r3, #23
 800200a:	6a5b      	ldr	r3, [r3, #36]	; 0x24
 800200c:	607b      	str	r3, [r7, #4]

	//calculate t_row and save it to the auto-reload register of tim3
	TIM3->ARR = (uint16_t) (tFrame / (RowsLogic * 2));
 800200e:	4b1f      	ldr	r3, [pc, #124]	; (800208c <displayFrameStart+0x98>)
 8002010:	781b      	ldrb	r3, [r3, #0]
 8002012:	b2db      	uxtb	r3, r3
 8002014:	005b      	lsls	r3, r3, #1
 8002016:	0019      	movs	r1, r3
 8002018:	6878      	ldr	r0, [r7, #4]
 800201a:	f7fe f875 	bl	8000108 <__udivsi3>
 800201e:	0003      	movs	r3, r0
 8002020:	b29a      	uxth	r2, r3
 8002022:	4b1b      	ldr	r3, [pc, #108]	; (8002090 <displayFrameStart+0x9c>)
 8002024:	62da      	str	r2, [r3, #44]	; 0x2c
	//clear interrupt flag for TIM3
	TIM3->SR &= ~TIM_SR_UIF;
 8002026:	4b1a      	ldr	r3, [pc, #104]	; (8002090 <displayFrameStart+0x9c>)
 8002028:	8a1b      	ldrh	r3, [r3, #16]
 800202a:	b29b      	uxth	r3, r3
 800202c:	4a18      	ldr	r2, [pc, #96]	; (8002090 <displayFrameStart+0x9c>)
 800202e:	2101      	movs	r1, #1
 8002030:	438b      	bics	r3, r1
 8002032:	b29b      	uxth	r3, r3
 8002034:	8213      	strh	r3, [r2, #16]
	//reset both timers
	TIM2->EGR |= TIM_EGR_UG;
 8002036:	2380      	movs	r3, #128	; 0x80
 8002038:	05db      	lsls	r3, r3, #23
 800203a:	8a9b      	ldrh	r3, [r3, #20]
 800203c:	b29a      	uxth	r2, r3
 800203e:	2380      	movs	r3, #128	; 0x80
 8002040:	05db      	lsls	r3, r3, #23
 8002042:	2101      	movs	r1, #1
 8002044:	430a      	orrs	r2, r1
 8002046:	b292      	uxth	r2, r2
 8002048:	829a      	strh	r2, [r3, #20]
	TIM3->EGR |= TIM_EGR_UG;
 800204a:	4b11      	ldr	r3, [pc, #68]	; (8002090 <displayFrameStart+0x9c>)
 800204c:	8a9b      	ldrh	r3, [r3, #20]
 800204e:	b29b      	uxth	r3, r3
 8002050:	4a0f      	ldr	r2, [pc, #60]	; (8002090 <displayFrameStart+0x9c>)
 8002052:	2101      	movs	r1, #1
 8002054:	430b      	orrs	r3, r1
 8002056:	b29b      	uxth	r3, r3
 8002058:	8293      	strh	r3, [r2, #20]
	//start both timers
	TIM2->CR1 |= TIM_CR1_CEN;
 800205a:	2380      	movs	r3, #128	; 0x80
 800205c:	05db      	lsls	r3, r3, #23
 800205e:	881b      	ldrh	r3, [r3, #0]
 8002060:	b29a      	uxth	r2, r3
 8002062:	2380      	movs	r3, #128	; 0x80
 8002064:	05db      	lsls	r3, r3, #23
 8002066:	2101      	movs	r1, #1
 8002068:	430a      	orrs	r2, r1
 800206a:	b292      	uxth	r2, r2
 800206c:	801a      	strh	r2, [r3, #0]
	TIM3->CR1 |= TIM_CR1_CEN;
 800206e:	4b08      	ldr	r3, [pc, #32]	; (8002090 <displayFrameStart+0x9c>)
 8002070:	881b      	ldrh	r3, [r3, #0]
 8002072:	b29b      	uxth	r3, r3
 8002074:	4a06      	ldr	r2, [pc, #24]	; (8002090 <displayFrameStart+0x9c>)
 8002076:	2101      	movs	r1, #1
 8002078:	430b      	orrs	r3, r1
 800207a:	b29b      	uxth	r3, r3
 800207c:	8013      	strh	r3, [r2, #0]
}
 800207e:	46c0      	nop			; (mov r8, r8)
 8002080:	46bd      	mov	sp, r7
 8002082:	b002      	add	sp, #8
 8002084:	bd80      	pop	{r7, pc}
 8002086:	46c0      	nop			; (mov r8, r8)
 8002088:	40010400 	.word	0x40010400
 800208c:	200000a2 	.word	0x200000a2
 8002090:	40000400 	.word	0x40000400

08002094 <displayFindReturnPoint>:

//now this should be called with the sensors IRQ
void displayFindReturnPoint() {
 8002094:	b580      	push	{r7, lr}
 8002096:	b082      	sub	sp, #8
 8002098:	af00      	add	r7, sp, #0
	//the Interrupt-flag is not reset until the work in this ISR is done!

	//read the output of the sensor
	//the low-pass filtering is done by the sensor!
	//this also lets the sensor release the interrupt line
	int8_t acc = Accelerometer_read8().x;
 800209a:	f7ff fddb 	bl	8001c54 <Accelerometer_read8>
 800209e:	0003      	movs	r3, r0
 80020a0:	001a      	movs	r2, r3
 80020a2:	003b      	movs	r3, r7
 80020a4:	1c11      	adds	r1, r2, #0
 80020a6:	7019      	strb	r1, [r3, #0]
 80020a8:	0411      	lsls	r1, r2, #16
 80020aa:	0e09      	lsrs	r1, r1, #24
 80020ac:	7059      	strb	r1, [r3, #1]
 80020ae:	0212      	lsls	r2, r2, #8
 80020b0:	0e12      	lsrs	r2, r2, #24
 80020b2:	709a      	strb	r2, [r3, #2]
 80020b4:	1dbb      	adds	r3, r7, #6
 80020b6:	003a      	movs	r2, r7
 80020b8:	7812      	ldrb	r2, [r2, #0]
 80020ba:	701a      	strb	r2, [r3, #0]

	//separate value and sign for faster calculations
	uint8_t accAbs;
	if (acc >= 0) {
 80020bc:	1dbb      	adds	r3, r7, #6
 80020be:	781b      	ldrb	r3, [r3, #0]
 80020c0:	2b7f      	cmp	r3, #127	; 0x7f
 80020c2:	d804      	bhi.n	80020ce <displayFindReturnPoint+0x3a>
		accAbs = acc;
 80020c4:	1dfb      	adds	r3, r7, #7
 80020c6:	1dba      	adds	r2, r7, #6
 80020c8:	7812      	ldrb	r2, [r2, #0]
 80020ca:	701a      	strb	r2, [r3, #0]
 80020cc:	e004      	b.n	80020d8 <displayFindReturnPoint+0x44>
	} else {
		accAbs = -acc;
 80020ce:	1dbb      	adds	r3, r7, #6
 80020d0:	781a      	ldrb	r2, [r3, #0]
 80020d2:	1dfb      	adds	r3, r7, #7
 80020d4:	4252      	negs	r2, r2
 80020d6:	701a      	strb	r2, [r3, #0]
	 * the return doesn't happen in one point, but takes some time (>10ms)
	 * ->stop the time measurement as soon as the acc gets higher that the threshold,
	 * ->start the next meas and the display if the acc gets lower than the threshold again
	 */

	switch (movementState) {
 80020d8:	4b5f      	ldr	r3, [pc, #380]	; (8002258 <displayFindReturnPoint+0x1c4>)
 80020da:	781b      	ldrb	r3, [r3, #0]
 80020dc:	b2db      	uxtb	r3, r3
 80020de:	2b04      	cmp	r3, #4
 80020e0:	d900      	bls.n	80020e4 <displayFindReturnPoint+0x50>
 80020e2:	e093      	b.n	800220c <displayFindReturnPoint+0x178>
 80020e4:	009a      	lsls	r2, r3, #2
 80020e6:	4b5d      	ldr	r3, [pc, #372]	; (800225c <displayFindReturnPoint+0x1c8>)
 80020e8:	18d3      	adds	r3, r2, r3
 80020ea:	681b      	ldr	r3, [r3, #0]
 80020ec:	469f      	mov	pc, r3
	case STATE_UNKNOWN:
		if (accAbs > ACC_RETURN_TH) {	//this could be the first return point
 80020ee:	1dfb      	adds	r3, r7, #7
 80020f0:	781b      	ldrb	r3, [r3, #0]
 80020f2:	2b64      	cmp	r3, #100	; 0x64
 80020f4:	d800      	bhi.n	80020f8 <displayFindReturnPoint+0x64>
 80020f6:	e080      	b.n	80021fa <displayFindReturnPoint+0x166>
										//stop TIM2
			TIM2->CR1 &= ~TIM_CR1_CEN;
 80020f8:	2380      	movs	r3, #128	; 0x80
 80020fa:	05db      	lsls	r3, r3, #23
 80020fc:	881b      	ldrh	r3, [r3, #0]
 80020fe:	b29a      	uxth	r2, r3
 8002100:	2380      	movs	r3, #128	; 0x80
 8002102:	05db      	lsls	r3, r3, #23
 8002104:	2101      	movs	r1, #1
 8002106:	438a      	bics	r2, r1
 8002108:	b292      	uxth	r2, r2
 800210a:	801a      	strh	r2, [r3, #0]
			//prevent TIM3 from triggering a new row by stopping it
			TIM3->CR1 &= ~TIM_CR1_CEN;
 800210c:	4b54      	ldr	r3, [pc, #336]	; (8002260 <displayFindReturnPoint+0x1cc>)
 800210e:	881b      	ldrh	r3, [r3, #0]
 8002110:	b29b      	uxth	r3, r3
 8002112:	4a53      	ldr	r2, [pc, #332]	; (8002260 <displayFindReturnPoint+0x1cc>)
 8002114:	2101      	movs	r1, #1
 8002116:	438b      	bics	r3, r1
 8002118:	b29b      	uxth	r3, r3
 800211a:	8013      	strh	r3, [r2, #0]

			if (acc > 0) {
 800211c:	1dbb      	adds	r3, r7, #6
 800211e:	781b      	ldrb	r3, [r3, #0]
 8002120:	b25b      	sxtb	r3, r3
 8002122:	2b00      	cmp	r3, #0
 8002124:	dd03      	ble.n	800212e <displayFindReturnPoint+0x9a>
				movementState = STATE_RIGHT_END;
 8002126:	4b4c      	ldr	r3, [pc, #304]	; (8002258 <displayFindReturnPoint+0x1c4>)
 8002128:	2203      	movs	r2, #3
 800212a:	701a      	strb	r2, [r3, #0]
			} else {
				movementState = STATE_LEFT_END;
			}
		}
		break;
 800212c:	e065      	b.n	80021fa <displayFindReturnPoint+0x166>
				movementState = STATE_LEFT_END;
 800212e:	4b4a      	ldr	r3, [pc, #296]	; (8002258 <displayFindReturnPoint+0x1c4>)
 8002130:	2201      	movs	r2, #1
 8002132:	701a      	strb	r2, [r3, #0]
		break;
 8002134:	e061      	b.n	80021fa <displayFindReturnPoint+0x166>
	case STATE_LEFT_END:
		if (accAbs < ACC_RETURN_TH) {
 8002136:	1dfb      	adds	r3, r7, #7
 8002138:	781b      	ldrb	r3, [r3, #0]
 800213a:	2b63      	cmp	r3, #99	; 0x63
 800213c:	d85f      	bhi.n	80021fe <displayFindReturnPoint+0x16a>
			rowStep = 1;
 800213e:	4b49      	ldr	r3, [pc, #292]	; (8002264 <displayFindReturnPoint+0x1d0>)
 8002140:	2201      	movs	r2, #1
 8002142:	701a      	strb	r2, [r3, #0]
			RowNumber = 0;
 8002144:	4b48      	ldr	r3, [pc, #288]	; (8002268 <displayFindReturnPoint+0x1d4>)
 8002146:	2200      	movs	r2, #0
 8002148:	701a      	strb	r2, [r3, #0]
			DisplayPosition = DISP_POS_ROW_START;
 800214a:	4b48      	ldr	r3, [pc, #288]	; (800226c <displayFindReturnPoint+0x1d8>)
 800214c:	2200      	movs	r2, #0
 800214e:	701a      	strb	r2, [r3, #0]
			//end of return phase
			displayFrameStart();
 8002150:	f7ff ff50 	bl	8001ff4 <displayFrameStart>
			movementState = STATE_MOVE_FORW;
 8002154:	4b40      	ldr	r3, [pc, #256]	; (8002258 <displayFindReturnPoint+0x1c4>)
 8002156:	2202      	movs	r2, #2
 8002158:	701a      	strb	r2, [r3, #0]
		}
		break;
 800215a:	e050      	b.n	80021fe <displayFindReturnPoint+0x16a>
	case STATE_RIGHT_END:
		if (accAbs < ACC_RETURN_TH) {
 800215c:	1dfb      	adds	r3, r7, #7
 800215e:	781b      	ldrb	r3, [r3, #0]
 8002160:	2b63      	cmp	r3, #99	; 0x63
 8002162:	d84e      	bhi.n	8002202 <displayFindReturnPoint+0x16e>
			//end of return phase
			rowStep = -1;
 8002164:	4b3f      	ldr	r3, [pc, #252]	; (8002264 <displayFindReturnPoint+0x1d0>)
 8002166:	22ff      	movs	r2, #255	; 0xff
 8002168:	701a      	strb	r2, [r3, #0]
			RowNumber = RowsLogic;
 800216a:	4b41      	ldr	r3, [pc, #260]	; (8002270 <displayFindReturnPoint+0x1dc>)
 800216c:	781b      	ldrb	r3, [r3, #0]
 800216e:	b2da      	uxtb	r2, r3
 8002170:	4b3d      	ldr	r3, [pc, #244]	; (8002268 <displayFindReturnPoint+0x1d4>)
 8002172:	701a      	strb	r2, [r3, #0]
			DisplayPosition = DISP_POS_GAP_START;
 8002174:	4b3d      	ldr	r3, [pc, #244]	; (800226c <displayFindReturnPoint+0x1d8>)
 8002176:	2201      	movs	r2, #1
 8002178:	701a      	strb	r2, [r3, #0]
			displayFrameStart();
 800217a:	f7ff ff3b 	bl	8001ff4 <displayFrameStart>

			movementState = STATE_MOVE_BACKW;
 800217e:	4b36      	ldr	r3, [pc, #216]	; (8002258 <displayFindReturnPoint+0x1c4>)
 8002180:	2204      	movs	r2, #4
 8002182:	701a      	strb	r2, [r3, #0]
		}
		break;
 8002184:	e03d      	b.n	8002202 <displayFindReturnPoint+0x16e>
	case STATE_MOVE_FORW:
		if (acc > ACC_RETURN_TH) {
 8002186:	1dbb      	adds	r3, r7, #6
 8002188:	781b      	ldrb	r3, [r3, #0]
 800218a:	b25b      	sxtb	r3, r3
 800218c:	2b64      	cmp	r3, #100	; 0x64
 800218e:	dd3a      	ble.n	8002206 <displayFindReturnPoint+0x172>
			//stop TIM2
			TIM2->CR1 &= ~TIM_CR1_CEN;
 8002190:	2380      	movs	r3, #128	; 0x80
 8002192:	05db      	lsls	r3, r3, #23
 8002194:	881b      	ldrh	r3, [r3, #0]
 8002196:	b29a      	uxth	r2, r3
 8002198:	2380      	movs	r3, #128	; 0x80
 800219a:	05db      	lsls	r3, r3, #23
 800219c:	2101      	movs	r1, #1
 800219e:	438a      	bics	r2, r1
 80021a0:	b292      	uxth	r2, r2
 80021a2:	801a      	strh	r2, [r3, #0]
			//prevent TIM3 from triggering a new row by stopping it
			TIM3->CR1 &= ~TIM_CR1_CEN;
 80021a4:	4b2e      	ldr	r3, [pc, #184]	; (8002260 <displayFindReturnPoint+0x1cc>)
 80021a6:	881b      	ldrh	r3, [r3, #0]
 80021a8:	b29b      	uxth	r3, r3
 80021aa:	4a2d      	ldr	r2, [pc, #180]	; (8002260 <displayFindReturnPoint+0x1cc>)
 80021ac:	2101      	movs	r1, #1
 80021ae:	438b      	bics	r3, r1
 80021b0:	b29b      	uxth	r3, r3
 80021b2:	8013      	strh	r3, [r2, #0]
			//switch off the display
			Neopixels_Off();
 80021b4:	f000 fac2 	bl	800273c <Neopixels_Off>
			movementState = STATE_RIGHT_END;
 80021b8:	4b27      	ldr	r3, [pc, #156]	; (8002258 <displayFindReturnPoint+0x1c4>)
 80021ba:	2203      	movs	r2, #3
 80021bc:	701a      	strb	r2, [r3, #0]
		}
		break;
 80021be:	e022      	b.n	8002206 <displayFindReturnPoint+0x172>
	case STATE_MOVE_BACKW:
		if (acc < -ACC_RETURN_TH) {
 80021c0:	1dbb      	adds	r3, r7, #6
 80021c2:	781b      	ldrb	r3, [r3, #0]
 80021c4:	b25b      	sxtb	r3, r3
 80021c6:	3364      	adds	r3, #100	; 0x64
 80021c8:	da1f      	bge.n	800220a <displayFindReturnPoint+0x176>
			//stop TIM2
			TIM2->CR1 &= ~TIM_CR1_CEN;
 80021ca:	2380      	movs	r3, #128	; 0x80
 80021cc:	05db      	lsls	r3, r3, #23
 80021ce:	881b      	ldrh	r3, [r3, #0]
 80021d0:	b29a      	uxth	r2, r3
 80021d2:	2380      	movs	r3, #128	; 0x80
 80021d4:	05db      	lsls	r3, r3, #23
 80021d6:	2101      	movs	r1, #1
 80021d8:	438a      	bics	r2, r1
 80021da:	b292      	uxth	r2, r2
 80021dc:	801a      	strh	r2, [r3, #0]
			//prevent TIM3 from triggering a new row by stopping it
			TIM3->CR1 &= ~TIM_CR1_CEN;
 80021de:	4b20      	ldr	r3, [pc, #128]	; (8002260 <displayFindReturnPoint+0x1cc>)
 80021e0:	881b      	ldrh	r3, [r3, #0]
 80021e2:	b29b      	uxth	r3, r3
 80021e4:	4a1e      	ldr	r2, [pc, #120]	; (8002260 <displayFindReturnPoint+0x1cc>)
 80021e6:	2101      	movs	r1, #1
 80021e8:	438b      	bics	r3, r1
 80021ea:	b29b      	uxth	r3, r3
 80021ec:	8013      	strh	r3, [r2, #0]
			//switch off the display
			Neopixels_Off();
 80021ee:	f000 faa5 	bl	800273c <Neopixels_Off>
			movementState = STATE_LEFT_END;
 80021f2:	4b19      	ldr	r3, [pc, #100]	; (8002258 <displayFindReturnPoint+0x1c4>)
 80021f4:	2201      	movs	r2, #1
 80021f6:	701a      	strb	r2, [r3, #0]
		}
		break;
 80021f8:	e007      	b.n	800220a <displayFindReturnPoint+0x176>
		break;
 80021fa:	46c0      	nop			; (mov r8, r8)
 80021fc:	e006      	b.n	800220c <displayFindReturnPoint+0x178>
		break;
 80021fe:	46c0      	nop			; (mov r8, r8)
 8002200:	e004      	b.n	800220c <displayFindReturnPoint+0x178>
		break;
 8002202:	46c0      	nop			; (mov r8, r8)
 8002204:	e002      	b.n	800220c <displayFindReturnPoint+0x178>
		break;
 8002206:	46c0      	nop			; (mov r8, r8)
 8002208:	e000      	b.n	800220c <displayFindReturnPoint+0x178>
		break;
 800220a:	46c0      	nop			; (mov r8, r8)
	}

	//no state other than STATE_UNKNOWN should last longer than T_FRAME_MAX
	//-> if TIM2 exceeds this time, stop it and
	//if this value is out of bounds, reset TIM2 and return to STATE_UNKNOWN
	if (TIM2->CNT > T_FRAME_MAX) {	//reset the counter:
 800220c:	2380      	movs	r3, #128	; 0x80
 800220e:	05db      	lsls	r3, r3, #23
 8002210:	6a5b      	ldr	r3, [r3, #36]	; 0x24
 8002212:	4a18      	ldr	r2, [pc, #96]	; (8002274 <displayFindReturnPoint+0x1e0>)
 8002214:	4293      	cmp	r3, r2
 8002216:	d918      	bls.n	800224a <displayFindReturnPoint+0x1b6>
		TIM2->EGR |= TIM_EGR_UG;
 8002218:	2380      	movs	r3, #128	; 0x80
 800221a:	05db      	lsls	r3, r3, #23
 800221c:	8a9b      	ldrh	r3, [r3, #20]
 800221e:	b29a      	uxth	r2, r3
 8002220:	2380      	movs	r3, #128	; 0x80
 8002222:	05db      	lsls	r3, r3, #23
 8002224:	2101      	movs	r1, #1
 8002226:	430a      	orrs	r2, r1
 8002228:	b292      	uxth	r2, r2
 800222a:	829a      	strh	r2, [r3, #20]
		//and stop it
		TIM2->CR1 |= TIM_CR1_CEN;
 800222c:	2380      	movs	r3, #128	; 0x80
 800222e:	05db      	lsls	r3, r3, #23
 8002230:	881b      	ldrh	r3, [r3, #0]
 8002232:	b29a      	uxth	r2, r3
 8002234:	2380      	movs	r3, #128	; 0x80
 8002236:	05db      	lsls	r3, r3, #23
 8002238:	2101      	movs	r1, #1
 800223a:	430a      	orrs	r2, r1
 800223c:	b292      	uxth	r2, r2
 800223e:	801a      	strh	r2, [r3, #0]
		//switch off the display
		Neopixels_Off();
 8002240:	f000 fa7c 	bl	800273c <Neopixels_Off>
		//set state
		movementState = STATE_UNKNOWN;
 8002244:	4b04      	ldr	r3, [pc, #16]	; (8002258 <displayFindReturnPoint+0x1c4>)
 8002246:	2200      	movs	r2, #0
 8002248:	701a      	strb	r2, [r3, #0]
	}

	EXTI_ClearITPendingBit(EXTI_Line2);
 800224a:	2004      	movs	r0, #4
 800224c:	f7fe f95c 	bl	8000508 <EXTI_ClearITPendingBit>

}
 8002250:	46c0      	nop			; (mov r8, r8)
 8002252:	46bd      	mov	sp, r7
 8002254:	b002      	add	sp, #8
 8002256:	bd80      	pop	{r7, pc}
 8002258:	200000a3 	.word	0x200000a3
 800225c:	08002f68 	.word	0x08002f68
 8002260:	40000400 	.word	0x40000400
 8002264:	2000003f 	.word	0x2000003f
 8002268:	20000040 	.word	0x20000040
 800226c:	200000a0 	.word	0x200000a0
 8002270:	200000a2 	.word	0x200000a2
 8002274:	003fffc0 	.word	0x003fffc0

08002278 <Neopixels_init>:

#define LED_CNT		16
colorVrgb leds[LED_CNT];
uint8_t spiSendData[12 + 4 * LED_CNT];

void Neopixels_init() {
 8002278:	b580      	push	{r7, lr}
 800227a:	b082      	sub	sp, #8
 800227c:	af00      	add	r7, sp, #0

	//that's what a bare-metal implementation would look like:

	//enable clock for periphery modules
	RCC->AHBENR |= RCC_AHBENR_GPIOAEN | RCC_AHBENR_DMAEN;
 800227e:	4b31      	ldr	r3, [pc, #196]	; (8002344 <Neopixels_init+0xcc>)
 8002280:	695a      	ldr	r2, [r3, #20]
 8002282:	4b30      	ldr	r3, [pc, #192]	; (8002344 <Neopixels_init+0xcc>)
 8002284:	4930      	ldr	r1, [pc, #192]	; (8002348 <Neopixels_init+0xd0>)
 8002286:	430a      	orrs	r2, r1
 8002288:	615a      	str	r2, [r3, #20]
	RCC->APB2ENR |= RCC_APB2ENR_SPI1EN;
 800228a:	4b2e      	ldr	r3, [pc, #184]	; (8002344 <Neopixels_init+0xcc>)
 800228c:	699a      	ldr	r2, [r3, #24]
 800228e:	4b2d      	ldr	r3, [pc, #180]	; (8002344 <Neopixels_init+0xcc>)
 8002290:	2180      	movs	r1, #128	; 0x80
 8002292:	0149      	lsls	r1, r1, #5
 8002294:	430a      	orrs	r2, r1
 8002296:	619a      	str	r2, [r3, #24]

	//gpio
	//configure PINs PA7 and PA5 as AF out
	GPIOA->MODER &= ~(GPIO_MODER_MODER5 | GPIO_MODER_MODER7);
 8002298:	2390      	movs	r3, #144	; 0x90
 800229a:	05db      	lsls	r3, r3, #23
 800229c:	681a      	ldr	r2, [r3, #0]
 800229e:	2390      	movs	r3, #144	; 0x90
 80022a0:	05db      	lsls	r3, r3, #23
 80022a2:	492a      	ldr	r1, [pc, #168]	; (800234c <Neopixels_init+0xd4>)
 80022a4:	400a      	ands	r2, r1
 80022a6:	601a      	str	r2, [r3, #0]
	GPIOA->MODER |= GPIO_MODER_MODER5_1 | GPIO_MODER_MODER7_1;
 80022a8:	2390      	movs	r3, #144	; 0x90
 80022aa:	05db      	lsls	r3, r3, #23
 80022ac:	681a      	ldr	r2, [r3, #0]
 80022ae:	2390      	movs	r3, #144	; 0x90
 80022b0:	05db      	lsls	r3, r3, #23
 80022b2:	2188      	movs	r1, #136	; 0x88
 80022b4:	0209      	lsls	r1, r1, #8
 80022b6:	430a      	orrs	r2, r1
 80022b8:	601a      	str	r2, [r3, #0]
	//configure PINs PA7 and PA5 as high speed out
	GPIOA->OSPEEDR |= GPIO_OSPEEDER_OSPEEDR5 | GPIO_OSPEEDER_OSPEEDR7;
 80022ba:	2390      	movs	r3, #144	; 0x90
 80022bc:	05db      	lsls	r3, r3, #23
 80022be:	689a      	ldr	r2, [r3, #8]
 80022c0:	2390      	movs	r3, #144	; 0x90
 80022c2:	05db      	lsls	r3, r3, #23
 80022c4:	21cc      	movs	r1, #204	; 0xcc
 80022c6:	0209      	lsls	r1, r1, #8
 80022c8:	430a      	orrs	r2, r1
 80022ca:	609a      	str	r2, [r3, #8]

	//init the SPI module
	//Full-Duplex Master, NSS pin not used, Clock Prescaler 8, MSB first, Cpol 1, CPHA 1
	SPI1->CR1 = SPI_CR1_SSM | SPI_CR1_SSI | SPI_CR1_BR_1 | SPI_CR1_MSTR
 80022cc:	4b20      	ldr	r3, [pc, #128]	; (8002350 <Neopixels_init+0xd8>)
 80022ce:	4a21      	ldr	r2, [pc, #132]	; (8002354 <Neopixels_init+0xdc>)
 80022d0:	801a      	strh	r2, [r3, #0]
			| SPI_CR1_CPOL | SPI_CR1_CPHA;
	//data size 8b (default in CR2)
	//enable dma request for tx
	SPI1->CR2 = SPI_CR2_TXDMAEN;
 80022d2:	4b1f      	ldr	r3, [pc, #124]	; (8002350 <Neopixels_init+0xd8>)
 80022d4:	2202      	movs	r2, #2
 80022d6:	809a      	strh	r2, [r3, #4]
	//enable SPI:
	SPI1->CR1 |= SPI_CR1_SPE;
 80022d8:	4b1d      	ldr	r3, [pc, #116]	; (8002350 <Neopixels_init+0xd8>)
 80022da:	881b      	ldrh	r3, [r3, #0]
 80022dc:	b29b      	uxth	r3, r3
 80022de:	4a1c      	ldr	r2, [pc, #112]	; (8002350 <Neopixels_init+0xd8>)
 80022e0:	2140      	movs	r1, #64	; 0x40
 80022e2:	430b      	orrs	r3, r1
 80022e4:	b29b      	uxth	r3, r3
 80022e6:	8013      	strh	r3, [r2, #0]

	//config DMA for SPI TX
	//priority high, memToPer, Memory Increment
	DMA1_Channel3->CCR |= DMA_CCR_PL_1 | DMA_CCR_MINC | DMA_CCR_DIR;
 80022e8:	4b1b      	ldr	r3, [pc, #108]	; (8002358 <Neopixels_init+0xe0>)
 80022ea:	681a      	ldr	r2, [r3, #0]
 80022ec:	4b1a      	ldr	r3, [pc, #104]	; (8002358 <Neopixels_init+0xe0>)
 80022ee:	491b      	ldr	r1, [pc, #108]	; (800235c <Neopixels_init+0xe4>)
 80022f0:	430a      	orrs	r2, r1
 80022f2:	601a      	str	r2, [r3, #0]
	//memory Address
	DMA1_Channel3->CMAR = (uint32_t) spiSendData;
 80022f4:	4b18      	ldr	r3, [pc, #96]	; (8002358 <Neopixels_init+0xe0>)
 80022f6:	4a1a      	ldr	r2, [pc, #104]	; (8002360 <Neopixels_init+0xe8>)
 80022f8:	60da      	str	r2, [r3, #12]
	//peripheral address
	DMA1_Channel3->CPAR = (uint32_t) &(SPI1->DR);
 80022fa:	4b17      	ldr	r3, [pc, #92]	; (8002358 <Neopixels_init+0xe0>)
 80022fc:	4a19      	ldr	r2, [pc, #100]	; (8002364 <Neopixels_init+0xec>)
 80022fe:	609a      	str	r2, [r3, #8]

	Neopixels_Off();
 8002300:	f000 fa1c 	bl	800273c <Neopixels_Off>
	Neopixels_setColor(COLOR_WHITE);
 8002304:	2007      	movs	r0, #7
 8002306:	f000 f87b 	bl	8002400 <Neopixels_setColor>
	globalColor.global = 10;
 800230a:	4b17      	ldr	r3, [pc, #92]	; (8002368 <Neopixels_init+0xf0>)
 800230c:	220a      	movs	r2, #10
 800230e:	701a      	strb	r2, [r3, #0]

	//LED-Test
	for(uint8_t i = 0; i<16; i++) {
 8002310:	1dfb      	adds	r3, r7, #7
 8002312:	2200      	movs	r2, #0
 8002314:	701a      	strb	r2, [r3, #0]
 8002316:	e00c      	b.n	8002332 <Neopixels_init+0xba>
		Neopixels_Single(i);
 8002318:	1dfb      	adds	r3, r7, #7
 800231a:	781b      	ldrb	r3, [r3, #0]
 800231c:	0018      	movs	r0, r3
 800231e:	f000 f9a5 	bl	800266c <Neopixels_Single>
		delay(20);
 8002322:	2014      	movs	r0, #20
 8002324:	f7ff f842 	bl	80013ac <delay>
	for(uint8_t i = 0; i<16; i++) {
 8002328:	1dfb      	adds	r3, r7, #7
 800232a:	781a      	ldrb	r2, [r3, #0]
 800232c:	1dfb      	adds	r3, r7, #7
 800232e:	3201      	adds	r2, #1
 8002330:	701a      	strb	r2, [r3, #0]
 8002332:	1dfb      	adds	r3, r7, #7
 8002334:	781b      	ldrb	r3, [r3, #0]
 8002336:	2b0f      	cmp	r3, #15
 8002338:	d9ee      	bls.n	8002318 <Neopixels_init+0xa0>
	}
}
 800233a:	46c0      	nop			; (mov r8, r8)
 800233c:	46c0      	nop			; (mov r8, r8)
 800233e:	46bd      	mov	sp, r7
 8002340:	b002      	add	sp, #8
 8002342:	bd80      	pop	{r7, pc}
 8002344:	40021000 	.word	0x40021000
 8002348:	00020001 	.word	0x00020001
 800234c:	ffff33ff 	.word	0xffff33ff
 8002350:	40013000 	.word	0x40013000
 8002354:	00000317 	.word	0x00000317
 8002358:	40020030 	.word	0x40020030
 800235c:	00002090 	.word	0x00002090
 8002360:	200000e4 	.word	0x200000e4
 8002364:	4001300c 	.word	0x4001300c
 8002368:	20000048 	.word	0x20000048

0800236c <Neopixels_setColorHSV>:
 * @param h: hue (position on a color-circle) 0...1535
 * @param s: saturation (how intense the color is. 0 is grey or white) 0...255
 * @param v: value (the brightness - 0 is black or off in case of leds) 0...255
 */
void Neopixels_setColorHSV(uint16_t h, uint8_t s, uint8_t v)
{
 800236c:	b590      	push	{r4, r7, lr}
 800236e:	b085      	sub	sp, #20
 8002370:	af02      	add	r7, sp, #8
 8002372:	0004      	movs	r4, r0
 8002374:	0008      	movs	r0, r1
 8002376:	0011      	movs	r1, r2
 8002378:	1dbb      	adds	r3, r7, #6
 800237a:	1c22      	adds	r2, r4, #0
 800237c:	801a      	strh	r2, [r3, #0]
 800237e:	1d7b      	adds	r3, r7, #5
 8002380:	1c02      	adds	r2, r0, #0
 8002382:	701a      	strb	r2, [r3, #0]
 8002384:	1d3b      	adds	r3, r7, #4
 8002386:	1c0a      	adds	r2, r1, #0
 8002388:	701a      	strb	r2, [r3, #0]
	fast_hsv2rgb_32bit(h, s, v, &globalColor.red, &globalColor.green, &globalColor.blue);
 800238a:	4c09      	ldr	r4, [pc, #36]	; (80023b0 <Neopixels_setColorHSV+0x44>)
 800238c:	1d3b      	adds	r3, r7, #4
 800238e:	781a      	ldrb	r2, [r3, #0]
 8002390:	1d7b      	adds	r3, r7, #5
 8002392:	7819      	ldrb	r1, [r3, #0]
 8002394:	1dbb      	adds	r3, r7, #6
 8002396:	8818      	ldrh	r0, [r3, #0]
 8002398:	4b06      	ldr	r3, [pc, #24]	; (80023b4 <Neopixels_setColorHSV+0x48>)
 800239a:	9301      	str	r3, [sp, #4]
 800239c:	4b06      	ldr	r3, [pc, #24]	; (80023b8 <Neopixels_setColorHSV+0x4c>)
 800239e:	9300      	str	r3, [sp, #0]
 80023a0:	0023      	movs	r3, r4
 80023a2:	f000 fc89 	bl	8002cb8 <fast_hsv2rgb_32bit>
}
 80023a6:	46c0      	nop			; (mov r8, r8)
 80023a8:	46bd      	mov	sp, r7
 80023aa:	b003      	add	sp, #12
 80023ac:	bd90      	pop	{r4, r7, pc}
 80023ae:	46c0      	nop			; (mov r8, r8)
 80023b0:	2000004b 	.word	0x2000004b
 80023b4:	20000049 	.word	0x20000049
 80023b8:	2000004a 	.word	0x2000004a

080023bc <Neopixels_setColorFullRGB>:
void Neopixels_setColorFullRGB(uint8_t red, uint8_t green, uint8_t blue) {
 80023bc:	b590      	push	{r4, r7, lr}
 80023be:	b083      	sub	sp, #12
 80023c0:	af00      	add	r7, sp, #0
 80023c2:	0004      	movs	r4, r0
 80023c4:	0008      	movs	r0, r1
 80023c6:	0011      	movs	r1, r2
 80023c8:	1dfb      	adds	r3, r7, #7
 80023ca:	1c22      	adds	r2, r4, #0
 80023cc:	701a      	strb	r2, [r3, #0]
 80023ce:	1dbb      	adds	r3, r7, #6
 80023d0:	1c02      	adds	r2, r0, #0
 80023d2:	701a      	strb	r2, [r3, #0]
 80023d4:	1d7b      	adds	r3, r7, #5
 80023d6:	1c0a      	adds	r2, r1, #0
 80023d8:	701a      	strb	r2, [r3, #0]
	globalColor.red = red;
 80023da:	4b08      	ldr	r3, [pc, #32]	; (80023fc <Neopixels_setColorFullRGB+0x40>)
 80023dc:	1dfa      	adds	r2, r7, #7
 80023de:	7812      	ldrb	r2, [r2, #0]
 80023e0:	70da      	strb	r2, [r3, #3]
	globalColor.green = green;
 80023e2:	4b06      	ldr	r3, [pc, #24]	; (80023fc <Neopixels_setColorFullRGB+0x40>)
 80023e4:	1dba      	adds	r2, r7, #6
 80023e6:	7812      	ldrb	r2, [r2, #0]
 80023e8:	709a      	strb	r2, [r3, #2]
	globalColor.blue = blue;
 80023ea:	4b04      	ldr	r3, [pc, #16]	; (80023fc <Neopixels_setColorFullRGB+0x40>)
 80023ec:	1d7a      	adds	r2, r7, #5
 80023ee:	7812      	ldrb	r2, [r2, #0]
 80023f0:	705a      	strb	r2, [r3, #1]
}
 80023f2:	46c0      	nop			; (mov r8, r8)
 80023f4:	46bd      	mov	sp, r7
 80023f6:	b003      	add	sp, #12
 80023f8:	bd90      	pop	{r4, r7, pc}
 80023fa:	46c0      	nop			; (mov r8, r8)
 80023fc:	20000048 	.word	0x20000048

08002400 <Neopixels_setColor>:

void Neopixels_setColor(uint8_t color_idx)
{
 8002400:	b580      	push	{r7, lr}
 8002402:	b082      	sub	sp, #8
 8002404:	af00      	add	r7, sp, #0
 8002406:	0002      	movs	r2, r0
 8002408:	1dfb      	adds	r3, r7, #7
 800240a:	701a      	strb	r2, [r3, #0]
	globalColor.blue = (color_idx&1)<<7;
 800240c:	1dfb      	adds	r3, r7, #7
 800240e:	781b      	ldrb	r3, [r3, #0]
 8002410:	01db      	lsls	r3, r3, #7
 8002412:	b2da      	uxtb	r2, r3
 8002414:	4b0b      	ldr	r3, [pc, #44]	; (8002444 <Neopixels_setColor+0x44>)
 8002416:	705a      	strb	r2, [r3, #1]
	globalColor.green = (color_idx&2)<<6;
 8002418:	1dfb      	adds	r3, r7, #7
 800241a:	781b      	ldrb	r3, [r3, #0]
 800241c:	019b      	lsls	r3, r3, #6
 800241e:	b2db      	uxtb	r3, r3
 8002420:	227f      	movs	r2, #127	; 0x7f
 8002422:	4393      	bics	r3, r2
 8002424:	b2da      	uxtb	r2, r3
 8002426:	4b07      	ldr	r3, [pc, #28]	; (8002444 <Neopixels_setColor+0x44>)
 8002428:	709a      	strb	r2, [r3, #2]
	globalColor.red = (color_idx&4)<<5;
 800242a:	1dfb      	adds	r3, r7, #7
 800242c:	781b      	ldrb	r3, [r3, #0]
 800242e:	015b      	lsls	r3, r3, #5
 8002430:	b2db      	uxtb	r3, r3
 8002432:	227f      	movs	r2, #127	; 0x7f
 8002434:	4393      	bics	r3, r2
 8002436:	b2da      	uxtb	r2, r3
 8002438:	4b02      	ldr	r3, [pc, #8]	; (8002444 <Neopixels_setColor+0x44>)
 800243a:	70da      	strb	r2, [r3, #3]
}
 800243c:	46c0      	nop			; (mov r8, r8)
 800243e:	46bd      	mov	sp, r7
 8002440:	b002      	add	sp, #8
 8002442:	bd80      	pop	{r7, pc}
 8002444:	20000048 	.word	0x20000048

08002448 <Neopixels_setBrightness>:

void Neopixels_setBrightness(uint8_t brightness)
{
 8002448:	b580      	push	{r7, lr}
 800244a:	b082      	sub	sp, #8
 800244c:	af00      	add	r7, sp, #0
 800244e:	0002      	movs	r2, r0
 8002450:	1dfb      	adds	r3, r7, #7
 8002452:	701a      	strb	r2, [r3, #0]
	//the global-value in the Led-frame is only 5 bit (max.31)!
	if (brightness > 0x1F) {
 8002454:	1dfb      	adds	r3, r7, #7
 8002456:	781b      	ldrb	r3, [r3, #0]
 8002458:	2b1f      	cmp	r3, #31
 800245a:	d902      	bls.n	8002462 <Neopixels_setBrightness+0x1a>
		brightness = 0x1F;
 800245c:	1dfb      	adds	r3, r7, #7
 800245e:	221f      	movs	r2, #31
 8002460:	701a      	strb	r2, [r3, #0]
	}
	globalColor.global = brightness;
 8002462:	4b04      	ldr	r3, [pc, #16]	; (8002474 <Neopixels_setBrightness+0x2c>)
 8002464:	1dfa      	adds	r2, r7, #7
 8002466:	7812      	ldrb	r2, [r2, #0]
 8002468:	701a      	strb	r2, [r3, #0]
}
 800246a:	46c0      	nop			; (mov r8, r8)
 800246c:	46bd      	mov	sp, r7
 800246e:	b002      	add	sp, #8
 8002470:	bd80      	pop	{r7, pc}
 8002472:	46c0      	nop			; (mov r8, r8)
 8002474:	20000048 	.word	0x20000048

08002478 <updateStripe>:

void updateStripe() {
 8002478:	b580      	push	{r7, lr}
 800247a:	b082      	sub	sp, #8
 800247c:	af00      	add	r7, sp, #0
	uint8_t ledIdx = 0;
 800247e:	1dfb      	adds	r3, r7, #7
 8002480:	2200      	movs	r2, #0
 8002482:	701a      	strb	r2, [r3, #0]
	uint8_t byteIdx = 0;
 8002484:	1dbb      	adds	r3, r7, #6
 8002486:	2200      	movs	r2, #0
 8002488:	701a      	strb	r2, [r3, #0]

	//disable the DMA channel
	DMA1_Channel3->CCR &= ~DMA_CCR_EN;
 800248a:	4b4a      	ldr	r3, [pc, #296]	; (80025b4 <updateStripe+0x13c>)
 800248c:	681a      	ldr	r2, [r3, #0]
 800248e:	4b49      	ldr	r3, [pc, #292]	; (80025b4 <updateStripe+0x13c>)
 8002490:	2101      	movs	r1, #1
 8002492:	438a      	bics	r2, r1
 8002494:	601a      	str	r2, [r3, #0]
	//start frame
	for (uint8_t i = 0; i < 4; i++) {
 8002496:	1d7b      	adds	r3, r7, #5
 8002498:	2200      	movs	r2, #0
 800249a:	701a      	strb	r2, [r3, #0]
 800249c:	e00e      	b.n	80024bc <updateStripe+0x44>
		spiSendData[byteIdx] = 0x00;
 800249e:	1dbb      	adds	r3, r7, #6
 80024a0:	781b      	ldrb	r3, [r3, #0]
 80024a2:	4a45      	ldr	r2, [pc, #276]	; (80025b8 <updateStripe+0x140>)
 80024a4:	2100      	movs	r1, #0
 80024a6:	54d1      	strb	r1, [r2, r3]
		byteIdx++;
 80024a8:	1dbb      	adds	r3, r7, #6
 80024aa:	781a      	ldrb	r2, [r3, #0]
 80024ac:	1dbb      	adds	r3, r7, #6
 80024ae:	3201      	adds	r2, #1
 80024b0:	701a      	strb	r2, [r3, #0]
	for (uint8_t i = 0; i < 4; i++) {
 80024b2:	1d7b      	adds	r3, r7, #5
 80024b4:	781a      	ldrb	r2, [r3, #0]
 80024b6:	1d7b      	adds	r3, r7, #5
 80024b8:	3201      	adds	r2, #1
 80024ba:	701a      	strb	r2, [r3, #0]
 80024bc:	1d7b      	adds	r3, r7, #5
 80024be:	781b      	ldrb	r3, [r3, #0]
 80024c0:	2b03      	cmp	r3, #3
 80024c2:	d9ec      	bls.n	800249e <updateStripe+0x26>
	}

	for (uint8_t i = 0; i < LED_CNT; i++) {
 80024c4:	1d3b      	adds	r3, r7, #4
 80024c6:	2200      	movs	r2, #0
 80024c8:	701a      	strb	r2, [r3, #0]
 80024ca:	e04b      	b.n	8002564 <updateStripe+0xec>
		//led frame
		spiSendData[byteIdx] = 0xE0 | (leds[ledIdx].global & 0x1F); //global
 80024cc:	1dfb      	adds	r3, r7, #7
 80024ce:	781a      	ldrb	r2, [r3, #0]
 80024d0:	4b3a      	ldr	r3, [pc, #232]	; (80025bc <updateStripe+0x144>)
 80024d2:	0092      	lsls	r2, r2, #2
 80024d4:	5cd2      	ldrb	r2, [r2, r3]
 80024d6:	1dbb      	adds	r3, r7, #6
 80024d8:	781b      	ldrb	r3, [r3, #0]
 80024da:	2120      	movs	r1, #32
 80024dc:	4249      	negs	r1, r1
 80024de:	430a      	orrs	r2, r1
 80024e0:	b2d1      	uxtb	r1, r2
 80024e2:	4a35      	ldr	r2, [pc, #212]	; (80025b8 <updateStripe+0x140>)
 80024e4:	54d1      	strb	r1, [r2, r3]
		byteIdx++;
 80024e6:	1dbb      	adds	r3, r7, #6
 80024e8:	781a      	ldrb	r2, [r3, #0]
 80024ea:	1dbb      	adds	r3, r7, #6
 80024ec:	3201      	adds	r2, #1
 80024ee:	701a      	strb	r2, [r3, #0]
		spiSendData[byteIdx] = leds[ledIdx].blue;
 80024f0:	1dfb      	adds	r3, r7, #7
 80024f2:	781a      	ldrb	r2, [r3, #0]
 80024f4:	1dbb      	adds	r3, r7, #6
 80024f6:	781b      	ldrb	r3, [r3, #0]
 80024f8:	4930      	ldr	r1, [pc, #192]	; (80025bc <updateStripe+0x144>)
 80024fa:	0092      	lsls	r2, r2, #2
 80024fc:	188a      	adds	r2, r1, r2
 80024fe:	3201      	adds	r2, #1
 8002500:	7811      	ldrb	r1, [r2, #0]
 8002502:	4a2d      	ldr	r2, [pc, #180]	; (80025b8 <updateStripe+0x140>)
 8002504:	54d1      	strb	r1, [r2, r3]
		byteIdx++;
 8002506:	1dbb      	adds	r3, r7, #6
 8002508:	781a      	ldrb	r2, [r3, #0]
 800250a:	1dbb      	adds	r3, r7, #6
 800250c:	3201      	adds	r2, #1
 800250e:	701a      	strb	r2, [r3, #0]
		spiSendData[byteIdx] = leds[ledIdx].green;
 8002510:	1dfb      	adds	r3, r7, #7
 8002512:	781a      	ldrb	r2, [r3, #0]
 8002514:	1dbb      	adds	r3, r7, #6
 8002516:	781b      	ldrb	r3, [r3, #0]
 8002518:	4928      	ldr	r1, [pc, #160]	; (80025bc <updateStripe+0x144>)
 800251a:	0092      	lsls	r2, r2, #2
 800251c:	188a      	adds	r2, r1, r2
 800251e:	3202      	adds	r2, #2
 8002520:	7811      	ldrb	r1, [r2, #0]
 8002522:	4a25      	ldr	r2, [pc, #148]	; (80025b8 <updateStripe+0x140>)
 8002524:	54d1      	strb	r1, [r2, r3]
		byteIdx++;
 8002526:	1dbb      	adds	r3, r7, #6
 8002528:	781a      	ldrb	r2, [r3, #0]
 800252a:	1dbb      	adds	r3, r7, #6
 800252c:	3201      	adds	r2, #1
 800252e:	701a      	strb	r2, [r3, #0]
		spiSendData[byteIdx] = leds[ledIdx].red;
 8002530:	1dfb      	adds	r3, r7, #7
 8002532:	781a      	ldrb	r2, [r3, #0]
 8002534:	1dbb      	adds	r3, r7, #6
 8002536:	781b      	ldrb	r3, [r3, #0]
 8002538:	4920      	ldr	r1, [pc, #128]	; (80025bc <updateStripe+0x144>)
 800253a:	0092      	lsls	r2, r2, #2
 800253c:	188a      	adds	r2, r1, r2
 800253e:	3203      	adds	r2, #3
 8002540:	7811      	ldrb	r1, [r2, #0]
 8002542:	4a1d      	ldr	r2, [pc, #116]	; (80025b8 <updateStripe+0x140>)
 8002544:	54d1      	strb	r1, [r2, r3]
		byteIdx++;
 8002546:	1dbb      	adds	r3, r7, #6
 8002548:	781a      	ldrb	r2, [r3, #0]
 800254a:	1dbb      	adds	r3, r7, #6
 800254c:	3201      	adds	r2, #1
 800254e:	701a      	strb	r2, [r3, #0]
		ledIdx++;
 8002550:	1dfb      	adds	r3, r7, #7
 8002552:	781a      	ldrb	r2, [r3, #0]
 8002554:	1dfb      	adds	r3, r7, #7
 8002556:	3201      	adds	r2, #1
 8002558:	701a      	strb	r2, [r3, #0]
	for (uint8_t i = 0; i < LED_CNT; i++) {
 800255a:	1d3b      	adds	r3, r7, #4
 800255c:	781a      	ldrb	r2, [r3, #0]
 800255e:	1d3b      	adds	r3, r7, #4
 8002560:	3201      	adds	r2, #1
 8002562:	701a      	strb	r2, [r3, #0]
 8002564:	1d3b      	adds	r3, r7, #4
 8002566:	781b      	ldrb	r3, [r3, #0]
 8002568:	2b0f      	cmp	r3, #15
 800256a:	d9af      	bls.n	80024cc <updateStripe+0x54>
	}
	//end frame
	//this is not the Frame as stated in the Datasheet! our LEDs (SK9822) seem to be a bit different from the original APA102 here!
	//but it works this way...
	for (uint8_t i = 0; i < 8; i++) {
 800256c:	1cfb      	adds	r3, r7, #3
 800256e:	2200      	movs	r2, #0
 8002570:	701a      	strb	r2, [r3, #0]
 8002572:	e00e      	b.n	8002592 <updateStripe+0x11a>
		spiSendData[byteIdx] = 0x00;
 8002574:	1dbb      	adds	r3, r7, #6
 8002576:	781b      	ldrb	r3, [r3, #0]
 8002578:	4a0f      	ldr	r2, [pc, #60]	; (80025b8 <updateStripe+0x140>)
 800257a:	2100      	movs	r1, #0
 800257c:	54d1      	strb	r1, [r2, r3]
		byteIdx++;
 800257e:	1dbb      	adds	r3, r7, #6
 8002580:	781a      	ldrb	r2, [r3, #0]
 8002582:	1dbb      	adds	r3, r7, #6
 8002584:	3201      	adds	r2, #1
 8002586:	701a      	strb	r2, [r3, #0]
	for (uint8_t i = 0; i < 8; i++) {
 8002588:	1cfb      	adds	r3, r7, #3
 800258a:	781a      	ldrb	r2, [r3, #0]
 800258c:	1cfb      	adds	r3, r7, #3
 800258e:	3201      	adds	r2, #1
 8002590:	701a      	strb	r2, [r3, #0]
 8002592:	1cfb      	adds	r3, r7, #3
 8002594:	781b      	ldrb	r3, [r3, #0]
 8002596:	2b07      	cmp	r3, #7
 8002598:	d9ec      	bls.n	8002574 <updateStripe+0xfc>
	}

	//now the DMA has to send the spiSendData to the SPI tx fifo :)
	DMA1_Channel3->CNDTR = 12 + 4 * LED_CNT;
 800259a:	4b06      	ldr	r3, [pc, #24]	; (80025b4 <updateStripe+0x13c>)
 800259c:	224c      	movs	r2, #76	; 0x4c
 800259e:	605a      	str	r2, [r3, #4]
	DMA1_Channel3->CCR |= DMA_CCR_EN;
 80025a0:	4b04      	ldr	r3, [pc, #16]	; (80025b4 <updateStripe+0x13c>)
 80025a2:	681a      	ldr	r2, [r3, #0]
 80025a4:	4b03      	ldr	r3, [pc, #12]	; (80025b4 <updateStripe+0x13c>)
 80025a6:	2101      	movs	r1, #1
 80025a8:	430a      	orrs	r2, r1
 80025aa:	601a      	str	r2, [r3, #0]
}
 80025ac:	46c0      	nop			; (mov r8, r8)
 80025ae:	46bd      	mov	sp, r7
 80025b0:	b002      	add	sp, #8
 80025b2:	bd80      	pop	{r7, pc}
 80025b4:	40020030 	.word	0x40020030
 80025b8:	200000e4 	.word	0x200000e4
 80025bc:	200000a4 	.word	0x200000a4

080025c0 <Neopixels_setPattern>:

//so far only one global color
void Neopixels_setPattern(uint16_t mask) {
 80025c0:	b580      	push	{r7, lr}
 80025c2:	b084      	sub	sp, #16
 80025c4:	af00      	add	r7, sp, #0
 80025c6:	0002      	movs	r2, r0
 80025c8:	1dbb      	adds	r3, r7, #6
 80025ca:	801a      	strh	r2, [r3, #0]

	for (uint16_t i = 0; i < 16; i++) {
 80025cc:	230e      	movs	r3, #14
 80025ce:	18fb      	adds	r3, r7, r3
 80025d0:	2200      	movs	r2, #0
 80025d2:	801a      	strh	r2, [r3, #0]
 80025d4:	e03a      	b.n	800264c <Neopixels_setPattern+0x8c>
		if (mask & (1 << i)) {	//led shall be active
 80025d6:	1dbb      	adds	r3, r7, #6
 80025d8:	881a      	ldrh	r2, [r3, #0]
 80025da:	210e      	movs	r1, #14
 80025dc:	187b      	adds	r3, r7, r1
 80025de:	881b      	ldrh	r3, [r3, #0]
 80025e0:	411a      	asrs	r2, r3
 80025e2:	0013      	movs	r3, r2
 80025e4:	2201      	movs	r2, #1
 80025e6:	4013      	ands	r3, r2
 80025e8:	d00a      	beq.n	8002600 <Neopixels_setPattern+0x40>
			leds[i] = globalColor;
 80025ea:	187b      	adds	r3, r7, r1
 80025ec:	881b      	ldrh	r3, [r3, #0]
 80025ee:	4a1d      	ldr	r2, [pc, #116]	; (8002664 <Neopixels_setPattern+0xa4>)
 80025f0:	009b      	lsls	r3, r3, #2
 80025f2:	491d      	ldr	r1, [pc, #116]	; (8002668 <Neopixels_setPattern+0xa8>)
 80025f4:	18d3      	adds	r3, r2, r3
 80025f6:	2204      	movs	r2, #4
 80025f8:	0018      	movs	r0, r3
 80025fa:	f000 fc9f 	bl	8002f3c <memcpy>
 80025fe:	e01f      	b.n	8002640 <Neopixels_setPattern+0x80>
		} else {	//led shall be off
			leds[i].global = 0;
 8002600:	200e      	movs	r0, #14
 8002602:	183b      	adds	r3, r7, r0
 8002604:	881a      	ldrh	r2, [r3, #0]
 8002606:	4b17      	ldr	r3, [pc, #92]	; (8002664 <Neopixels_setPattern+0xa4>)
 8002608:	0092      	lsls	r2, r2, #2
 800260a:	2100      	movs	r1, #0
 800260c:	54d1      	strb	r1, [r2, r3]
			leds[i].blue = 0;
 800260e:	0001      	movs	r1, r0
 8002610:	187b      	adds	r3, r7, r1
 8002612:	881b      	ldrh	r3, [r3, #0]
 8002614:	4a13      	ldr	r2, [pc, #76]	; (8002664 <Neopixels_setPattern+0xa4>)
 8002616:	009b      	lsls	r3, r3, #2
 8002618:	18d3      	adds	r3, r2, r3
 800261a:	3301      	adds	r3, #1
 800261c:	2200      	movs	r2, #0
 800261e:	701a      	strb	r2, [r3, #0]
			leds[i].green = 0;
 8002620:	187b      	adds	r3, r7, r1
 8002622:	881b      	ldrh	r3, [r3, #0]
 8002624:	4a0f      	ldr	r2, [pc, #60]	; (8002664 <Neopixels_setPattern+0xa4>)
 8002626:	009b      	lsls	r3, r3, #2
 8002628:	18d3      	adds	r3, r2, r3
 800262a:	3302      	adds	r3, #2
 800262c:	2200      	movs	r2, #0
 800262e:	701a      	strb	r2, [r3, #0]
			leds[i].red = 0;
 8002630:	187b      	adds	r3, r7, r1
 8002632:	881b      	ldrh	r3, [r3, #0]
 8002634:	4a0b      	ldr	r2, [pc, #44]	; (8002664 <Neopixels_setPattern+0xa4>)
 8002636:	009b      	lsls	r3, r3, #2
 8002638:	18d3      	adds	r3, r2, r3
 800263a:	3303      	adds	r3, #3
 800263c:	2200      	movs	r2, #0
 800263e:	701a      	strb	r2, [r3, #0]
	for (uint16_t i = 0; i < 16; i++) {
 8002640:	210e      	movs	r1, #14
 8002642:	187b      	adds	r3, r7, r1
 8002644:	881a      	ldrh	r2, [r3, #0]
 8002646:	187b      	adds	r3, r7, r1
 8002648:	3201      	adds	r2, #1
 800264a:	801a      	strh	r2, [r3, #0]
 800264c:	230e      	movs	r3, #14
 800264e:	18fb      	adds	r3, r7, r3
 8002650:	881b      	ldrh	r3, [r3, #0]
 8002652:	2b0f      	cmp	r3, #15
 8002654:	d9bf      	bls.n	80025d6 <Neopixels_setPattern+0x16>
		}
	}
	updateStripe();
 8002656:	f7ff ff0f 	bl	8002478 <updateStripe>
}
 800265a:	46c0      	nop			; (mov r8, r8)
 800265c:	46bd      	mov	sp, r7
 800265e:	b004      	add	sp, #16
 8002660:	bd80      	pop	{r7, pc}
 8002662:	46c0      	nop			; (mov r8, r8)
 8002664:	200000a4 	.word	0x200000a4
 8002668:	20000048 	.word	0x20000048

0800266c <Neopixels_Single>:

void Neopixels_Single(uint8_t index) {
 800266c:	b580      	push	{r7, lr}
 800266e:	b082      	sub	sp, #8
 8002670:	af00      	add	r7, sp, #0
 8002672:	0002      	movs	r2, r0
 8002674:	1dfb      	adds	r3, r7, #7
 8002676:	701a      	strb	r2, [r3, #0]
	Neopixels_setPattern(1 << index);
 8002678:	1dfb      	adds	r3, r7, #7
 800267a:	781b      	ldrb	r3, [r3, #0]
 800267c:	2201      	movs	r2, #1
 800267e:	409a      	lsls	r2, r3
 8002680:	0013      	movs	r3, r2
 8002682:	b29b      	uxth	r3, r3
 8002684:	0018      	movs	r0, r3
 8002686:	f7ff ff9b 	bl	80025c0 <Neopixels_setPattern>
}
 800268a:	46c0      	nop			; (mov r8, r8)
 800268c:	46bd      	mov	sp, r7
 800268e:	b002      	add	sp, #8
 8002690:	bd80      	pop	{r7, pc}

08002692 <Neopixels_Bargraph>:
/**
 * @param group3: 3 lit pixels are grouped together (every 4th is a gap) to increase readability,
 * as humans are very good at counting up to 3, but poor at counting more than 3
 */
void Neopixels_Bargraph(uint8_t hight, bool group3)
{
 8002692:	b580      	push	{r7, lr}
 8002694:	b084      	sub	sp, #16
 8002696:	af00      	add	r7, sp, #0
 8002698:	0002      	movs	r2, r0
 800269a:	1dfb      	adds	r3, r7, #7
 800269c:	701a      	strb	r2, [r3, #0]
 800269e:	1dbb      	adds	r3, r7, #6
 80026a0:	1c0a      	adds	r2, r1, #0
 80026a2:	701a      	strb	r2, [r3, #0]
	uint16_t pattern = 0;
 80026a4:	230e      	movs	r3, #14
 80026a6:	18fb      	adds	r3, r7, r3
 80026a8:	2200      	movs	r2, #0
 80026aa:	801a      	strh	r2, [r3, #0]
	uint8_t leftouts = 0;
 80026ac:	230d      	movs	r3, #13
 80026ae:	18fb      	adds	r3, r7, r3
 80026b0:	2200      	movs	r2, #0
 80026b2:	701a      	strb	r2, [r3, #0]
	for(uint8_t ledidx = 0; ledidx < 16; ledidx++)
 80026b4:	230c      	movs	r3, #12
 80026b6:	18fb      	adds	r3, r7, r3
 80026b8:	2200      	movs	r2, #0
 80026ba:	701a      	strb	r2, [r3, #0]
 80026bc:	e02f      	b.n	800271e <Neopixels_Bargraph+0x8c>
	{
		if(group3)
 80026be:	1dbb      	adds	r3, r7, #6
 80026c0:	781b      	ldrb	r3, [r3, #0]
 80026c2:	2b00      	cmp	r3, #0
 80026c4:	d00e      	beq.n	80026e4 <Neopixels_Bargraph+0x52>
		{
			if(ledidx % 4 == 3)
 80026c6:	230c      	movs	r3, #12
 80026c8:	18fb      	adds	r3, r7, r3
 80026ca:	781b      	ldrb	r3, [r3, #0]
 80026cc:	2203      	movs	r2, #3
 80026ce:	4013      	ands	r3, r2
 80026d0:	b2db      	uxtb	r3, r3
 80026d2:	2b03      	cmp	r3, #3
 80026d4:	d106      	bne.n	80026e4 <Neopixels_Bargraph+0x52>
			{
				//every 4th led shall be left out (never be lit and not be counted)
				leftouts++;
 80026d6:	210d      	movs	r1, #13
 80026d8:	187b      	adds	r3, r7, r1
 80026da:	781a      	ldrb	r2, [r3, #0]
 80026dc:	187b      	adds	r3, r7, r1
 80026de:	3201      	adds	r2, #1
 80026e0:	701a      	strb	r2, [r3, #0]
				continue;
 80026e2:	e016      	b.n	8002712 <Neopixels_Bargraph+0x80>
			}
		}
		if(ledidx-leftouts<hight)
 80026e4:	210c      	movs	r1, #12
 80026e6:	187b      	adds	r3, r7, r1
 80026e8:	781a      	ldrb	r2, [r3, #0]
 80026ea:	230d      	movs	r3, #13
 80026ec:	18fb      	adds	r3, r7, r3
 80026ee:	781b      	ldrb	r3, [r3, #0]
 80026f0:	1ad2      	subs	r2, r2, r3
 80026f2:	1dfb      	adds	r3, r7, #7
 80026f4:	781b      	ldrb	r3, [r3, #0]
 80026f6:	429a      	cmp	r2, r3
 80026f8:	da0b      	bge.n	8002712 <Neopixels_Bargraph+0x80>
		{
			pattern += 1<<ledidx;
 80026fa:	187b      	adds	r3, r7, r1
 80026fc:	781b      	ldrb	r3, [r3, #0]
 80026fe:	2201      	movs	r2, #1
 8002700:	409a      	lsls	r2, r3
 8002702:	0013      	movs	r3, r2
 8002704:	b299      	uxth	r1, r3
 8002706:	220e      	movs	r2, #14
 8002708:	18bb      	adds	r3, r7, r2
 800270a:	18ba      	adds	r2, r7, r2
 800270c:	8812      	ldrh	r2, [r2, #0]
 800270e:	188a      	adds	r2, r1, r2
 8002710:	801a      	strh	r2, [r3, #0]
	for(uint8_t ledidx = 0; ledidx < 16; ledidx++)
 8002712:	210c      	movs	r1, #12
 8002714:	187b      	adds	r3, r7, r1
 8002716:	781a      	ldrb	r2, [r3, #0]
 8002718:	187b      	adds	r3, r7, r1
 800271a:	3201      	adds	r2, #1
 800271c:	701a      	strb	r2, [r3, #0]
 800271e:	230c      	movs	r3, #12
 8002720:	18fb      	adds	r3, r7, r3
 8002722:	781b      	ldrb	r3, [r3, #0]
 8002724:	2b0f      	cmp	r3, #15
 8002726:	d9ca      	bls.n	80026be <Neopixels_Bargraph+0x2c>
		}

	}
	Neopixels_setPattern(pattern);
 8002728:	230e      	movs	r3, #14
 800272a:	18fb      	adds	r3, r7, r3
 800272c:	881b      	ldrh	r3, [r3, #0]
 800272e:	0018      	movs	r0, r3
 8002730:	f7ff ff46 	bl	80025c0 <Neopixels_setPattern>
	return;
 8002734:	46c0      	nop			; (mov r8, r8)
}
 8002736:	46bd      	mov	sp, r7
 8002738:	b004      	add	sp, #16
 800273a:	bd80      	pop	{r7, pc}

0800273c <Neopixels_Off>:


void Neopixels_Off() {
 800273c:	b580      	push	{r7, lr}
 800273e:	b082      	sub	sp, #8
 8002740:	af00      	add	r7, sp, #0
	for (uint16_t i = 0; i < 16; i++) {
 8002742:	1dbb      	adds	r3, r7, #6
 8002744:	2200      	movs	r2, #0
 8002746:	801a      	strh	r2, [r3, #0]
 8002748:	e022      	b.n	8002790 <Neopixels_Off+0x54>

		leds[i].global = 0;
 800274a:	1dbb      	adds	r3, r7, #6
 800274c:	881a      	ldrh	r2, [r3, #0]
 800274e:	4b15      	ldr	r3, [pc, #84]	; (80027a4 <Neopixels_Off+0x68>)
 8002750:	0092      	lsls	r2, r2, #2
 8002752:	2100      	movs	r1, #0
 8002754:	54d1      	strb	r1, [r2, r3]
		leds[i].blue = 0;
 8002756:	1dbb      	adds	r3, r7, #6
 8002758:	881b      	ldrh	r3, [r3, #0]
 800275a:	4a12      	ldr	r2, [pc, #72]	; (80027a4 <Neopixels_Off+0x68>)
 800275c:	009b      	lsls	r3, r3, #2
 800275e:	18d3      	adds	r3, r2, r3
 8002760:	3301      	adds	r3, #1
 8002762:	2200      	movs	r2, #0
 8002764:	701a      	strb	r2, [r3, #0]
		leds[i].green = 0;
 8002766:	1dbb      	adds	r3, r7, #6
 8002768:	881b      	ldrh	r3, [r3, #0]
 800276a:	4a0e      	ldr	r2, [pc, #56]	; (80027a4 <Neopixels_Off+0x68>)
 800276c:	009b      	lsls	r3, r3, #2
 800276e:	18d3      	adds	r3, r2, r3
 8002770:	3302      	adds	r3, #2
 8002772:	2200      	movs	r2, #0
 8002774:	701a      	strb	r2, [r3, #0]
		leds[i].red = 0;
 8002776:	1dbb      	adds	r3, r7, #6
 8002778:	881b      	ldrh	r3, [r3, #0]
 800277a:	4a0a      	ldr	r2, [pc, #40]	; (80027a4 <Neopixels_Off+0x68>)
 800277c:	009b      	lsls	r3, r3, #2
 800277e:	18d3      	adds	r3, r2, r3
 8002780:	3303      	adds	r3, #3
 8002782:	2200      	movs	r2, #0
 8002784:	701a      	strb	r2, [r3, #0]
	for (uint16_t i = 0; i < 16; i++) {
 8002786:	1dbb      	adds	r3, r7, #6
 8002788:	881a      	ldrh	r2, [r3, #0]
 800278a:	1dbb      	adds	r3, r7, #6
 800278c:	3201      	adds	r2, #1
 800278e:	801a      	strh	r2, [r3, #0]
 8002790:	1dbb      	adds	r3, r7, #6
 8002792:	881b      	ldrh	r3, [r3, #0]
 8002794:	2b0f      	cmp	r3, #15
 8002796:	d9d8      	bls.n	800274a <Neopixels_Off+0xe>

	}
	updateStripe();
 8002798:	f7ff fe6e 	bl	8002478 <updateStripe>
}
 800279c:	46c0      	nop			; (mov r8, r8)
 800279e:	46bd      	mov	sp, r7
 80027a0:	b002      	add	sp, #8
 80027a2:	bd80      	pop	{r7, pc}
 80027a4:	200000a4 	.word	0x200000a4

080027a8 <NvMem_init>:
bool NvMem_Writable;

/**
 * loads user data from flash into memory for easy access and change in the application
 */
void NvMem_init() {
 80027a8:	b580      	push	{r7, lr}
 80027aa:	b082      	sub	sp, #8
 80027ac:	af00      	add	r7, sp, #0

	//enable flash-if clock
	RCC->AHBENR |= RCC_AHBENR_FLITFEN;
 80027ae:	4b13      	ldr	r3, [pc, #76]	; (80027fc <NvMem_init+0x54>)
 80027b0:	695a      	ldr	r2, [r3, #20]
 80027b2:	4b12      	ldr	r3, [pc, #72]	; (80027fc <NvMem_init+0x54>)
 80027b4:	2110      	movs	r1, #16
 80027b6:	430a      	orrs	r2, r1
 80027b8:	615a      	str	r2, [r3, #20]

	for (uint16_t ad = 0; ad < NVMEM_WORDS_ALLOCATED; ad++) {
 80027ba:	1dbb      	adds	r3, r7, #6
 80027bc:	2200      	movs	r2, #0
 80027be:	801a      	strh	r2, [r3, #0]
 80027c0:	e010      	b.n	80027e4 <NvMem_init+0x3c>
		//NvMem_RamBuffer[ad] = ~READ16(NVMEM_FLASH_BASE+2*ad);
		NvMem_RamBuffer[ad] = ~NvMem_FlashData[ad];
 80027c2:	1dbb      	adds	r3, r7, #6
 80027c4:	881a      	ldrh	r2, [r3, #0]
 80027c6:	4b0e      	ldr	r3, [pc, #56]	; (8002800 <NvMem_init+0x58>)
 80027c8:	0052      	lsls	r2, r2, #1
 80027ca:	5ad3      	ldrh	r3, [r2, r3]
 80027cc:	1dba      	adds	r2, r7, #6
 80027ce:	8812      	ldrh	r2, [r2, #0]
 80027d0:	43db      	mvns	r3, r3
 80027d2:	b299      	uxth	r1, r3
 80027d4:	4b0b      	ldr	r3, [pc, #44]	; (8002804 <NvMem_init+0x5c>)
 80027d6:	0052      	lsls	r2, r2, #1
 80027d8:	52d1      	strh	r1, [r2, r3]
	for (uint16_t ad = 0; ad < NVMEM_WORDS_ALLOCATED; ad++) {
 80027da:	1dbb      	adds	r3, r7, #6
 80027dc:	881a      	ldrh	r2, [r3, #0]
 80027de:	1dbb      	adds	r3, r7, #6
 80027e0:	3201      	adds	r2, #1
 80027e2:	801a      	strh	r2, [r3, #0]
 80027e4:	1dbb      	adds	r3, r7, #6
 80027e6:	881b      	ldrh	r3, [r3, #0]
 80027e8:	2b14      	cmp	r3, #20
 80027ea:	d9ea      	bls.n	80027c2 <NvMem_init+0x1a>
	}
	NvMem_Writable = true;
 80027ec:	4b06      	ldr	r3, [pc, #24]	; (8002808 <NvMem_init+0x60>)
 80027ee:	2201      	movs	r2, #1
 80027f0:	701a      	strb	r2, [r3, #0]
}
 80027f2:	46c0      	nop			; (mov r8, r8)
 80027f4:	46bd      	mov	sp, r7
 80027f6:	b002      	add	sp, #8
 80027f8:	bd80      	pop	{r7, pc}
 80027fa:	46c0      	nop			; (mov r8, r8)
 80027fc:	40021000 	.word	0x40021000
 8002800:	08007c00 	.word	0x08007c00
 8002804:	20000130 	.word	0x20000130
 8002808:	2000015a 	.word	0x2000015a

0800280c <NvMem_read>:

/**
 * Reads 16 bit form the user space in flash
 * address: 16-bit address (512 addresses per used flash page)
 */
uint16_t NvMem_read(uint16_t address) {
 800280c:	b580      	push	{r7, lr}
 800280e:	b082      	sub	sp, #8
 8002810:	af00      	add	r7, sp, #0
 8002812:	0002      	movs	r2, r0
 8002814:	1dbb      	adds	r3, r7, #6
 8002816:	801a      	strh	r2, [r3, #0]
	if (address > NVMEM_AD_TOP) {
 8002818:	1dbb      	adds	r3, r7, #6
 800281a:	881a      	ldrh	r2, [r3, #0]
 800281c:	2380      	movs	r3, #128	; 0x80
 800281e:	009b      	lsls	r3, r3, #2
 8002820:	429a      	cmp	r2, r3
 8002822:	d301      	bcc.n	8002828 <NvMem_read+0x1c>
		return ERR_NVMEM_OUTOFRANGE;
 8002824:	2301      	movs	r3, #1
 8002826:	e004      	b.n	8002832 <NvMem_read+0x26>
	}
	return NvMem_RamBuffer[address];
 8002828:	1dbb      	adds	r3, r7, #6
 800282a:	881a      	ldrh	r2, [r3, #0]
 800282c:	4b03      	ldr	r3, [pc, #12]	; (800283c <NvMem_read+0x30>)
 800282e:	0052      	lsls	r2, r2, #1
 8002830:	5ad3      	ldrh	r3, [r2, r3]
}
 8002832:	0018      	movs	r0, r3
 8002834:	46bd      	mov	sp, r7
 8002836:	b002      	add	sp, #8
 8002838:	bd80      	pop	{r7, pc}
 800283a:	46c0      	nop			; (mov r8, r8)
 800283c:	20000130 	.word	0x20000130

08002840 <NvMem_write>:
 * Writes 16 bit to the user space in flash
 * address: 16-bit address (512 addresses per used flash page)
 * data: data to write
 * returns: errorcode
 */
uint8_t NvMem_write(uint16_t address, uint16_t data) {
 8002840:	b580      	push	{r7, lr}
 8002842:	b082      	sub	sp, #8
 8002844:	af00      	add	r7, sp, #0
 8002846:	0002      	movs	r2, r0
 8002848:	1dbb      	adds	r3, r7, #6
 800284a:	801a      	strh	r2, [r3, #0]
 800284c:	1d3b      	adds	r3, r7, #4
 800284e:	1c0a      	adds	r2, r1, #0
 8002850:	801a      	strh	r2, [r3, #0]
	if (address > NVMEM_AD_TOP) {
 8002852:	1dbb      	adds	r3, r7, #6
 8002854:	881a      	ldrh	r2, [r3, #0]
 8002856:	2380      	movs	r3, #128	; 0x80
 8002858:	009b      	lsls	r3, r3, #2
 800285a:	429a      	cmp	r2, r3
 800285c:	d301      	bcc.n	8002862 <NvMem_write+0x22>
		return ERR_NVMEM_OUTOFRANGE;
 800285e:	2301      	movs	r3, #1
 8002860:	e010      	b.n	8002884 <NvMem_write+0x44>
	}
	if (!NvMem_Writable) {
 8002862:	4b0a      	ldr	r3, [pc, #40]	; (800288c <NvMem_write+0x4c>)
 8002864:	781b      	ldrb	r3, [r3, #0]
 8002866:	2201      	movs	r2, #1
 8002868:	4053      	eors	r3, r2
 800286a:	b2db      	uxtb	r3, r3
 800286c:	2b00      	cmp	r3, #0
 800286e:	d001      	beq.n	8002874 <NvMem_write+0x34>
		return ERR_NVMEM_ALREADYWRITTEN;
 8002870:	2302      	movs	r3, #2
 8002872:	e007      	b.n	8002884 <NvMem_write+0x44>
	}
	NvMem_RamBuffer[address] = data;
 8002874:	1dbb      	adds	r3, r7, #6
 8002876:	881a      	ldrh	r2, [r3, #0]
 8002878:	4b05      	ldr	r3, [pc, #20]	; (8002890 <NvMem_write+0x50>)
 800287a:	0052      	lsls	r2, r2, #1
 800287c:	1d39      	adds	r1, r7, #4
 800287e:	8809      	ldrh	r1, [r1, #0]
 8002880:	52d1      	strh	r1, [r2, r3]
	return 0;
 8002882:	2300      	movs	r3, #0
}
 8002884:	0018      	movs	r0, r3
 8002886:	46bd      	mov	sp, r7
 8002888:	b002      	add	sp, #8
 800288a:	bd80      	pop	{r7, pc}
 800288c:	2000015a 	.word	0x2000015a
 8002890:	20000130 	.word	0x20000130

08002894 <NvMem_SaveToFlash>:
/**
 * This is the only place we're writing to flash
 * This can only be done once for every start of the device!
 * The erasing and writing takes some time, during this time the device is not responsive and must not be unpowered!
 */
uint8_t NvMem_SaveToFlash() {
 8002894:	b580      	push	{r7, lr}
 8002896:	b084      	sub	sp, #16
 8002898:	af00      	add	r7, sp, #0

	//wait till flash is ready
	while (FLASH->SR & FLASH_SR_BSY) {
 800289a:	46c0      	nop			; (mov r8, r8)
 800289c:	4b52      	ldr	r3, [pc, #328]	; (80029e8 <NvMem_SaveToFlash+0x154>)
 800289e:	68db      	ldr	r3, [r3, #12]
 80028a0:	2201      	movs	r2, #1
 80028a2:	4013      	ands	r3, r2
 80028a4:	d1fa      	bne.n	800289c <NvMem_SaveToFlash+0x8>

	}
	//unlock flash
	if ((FLASH->CR & FLASH_CR_LOCK) != 0) {
 80028a6:	4b50      	ldr	r3, [pc, #320]	; (80029e8 <NvMem_SaveToFlash+0x154>)
 80028a8:	691b      	ldr	r3, [r3, #16]
 80028aa:	2280      	movs	r2, #128	; 0x80
 80028ac:	4013      	ands	r3, r2
 80028ae:	d005      	beq.n	80028bc <NvMem_SaveToFlash+0x28>
		FLASH->KEYR = FLASH_FKEY1;
 80028b0:	4b4d      	ldr	r3, [pc, #308]	; (80029e8 <NvMem_SaveToFlash+0x154>)
 80028b2:	4a4e      	ldr	r2, [pc, #312]	; (80029ec <NvMem_SaveToFlash+0x158>)
 80028b4:	605a      	str	r2, [r3, #4]
		FLASH->KEYR = FLASH_FKEY2;
 80028b6:	4b4c      	ldr	r3, [pc, #304]	; (80029e8 <NvMem_SaveToFlash+0x154>)
 80028b8:	4a4d      	ldr	r2, [pc, #308]	; (80029f0 <NvMem_SaveToFlash+0x15c>)
 80028ba:	605a      	str	r2, [r3, #4]
	}
	//erase all pages assigned to the nvmem
	FLASH->CR |= FLASH_CR_PER;
 80028bc:	4b4a      	ldr	r3, [pc, #296]	; (80029e8 <NvMem_SaveToFlash+0x154>)
 80028be:	691a      	ldr	r2, [r3, #16]
 80028c0:	4b49      	ldr	r3, [pc, #292]	; (80029e8 <NvMem_SaveToFlash+0x154>)
 80028c2:	2102      	movs	r1, #2
 80028c4:	430a      	orrs	r2, r1
 80028c6:	611a      	str	r2, [r3, #16]
	for (uint8_t i = 0; i < NVMEM_PAGE_COUNT; i++) {
 80028c8:	230f      	movs	r3, #15
 80028ca:	18fb      	adds	r3, r7, r3
 80028cc:	2200      	movs	r2, #0
 80028ce:	701a      	strb	r2, [r3, #0]
 80028d0:	e025      	b.n	800291e <NvMem_SaveToFlash+0x8a>
		FLASH->AR = NVMEM_FLASH_BASE + i * NVMEM_FLASH_PAGESIZE;
 80028d2:	230f      	movs	r3, #15
 80028d4:	18fb      	adds	r3, r7, r3
 80028d6:	781b      	ldrb	r3, [r3, #0]
 80028d8:	4a46      	ldr	r2, [pc, #280]	; (80029f4 <NvMem_SaveToFlash+0x160>)
 80028da:	4694      	mov	ip, r2
 80028dc:	4463      	add	r3, ip
 80028de:	029a      	lsls	r2, r3, #10
 80028e0:	4b41      	ldr	r3, [pc, #260]	; (80029e8 <NvMem_SaveToFlash+0x154>)
 80028e2:	615a      	str	r2, [r3, #20]
		FLASH->CR |= FLASH_CR_STRT;
 80028e4:	4b40      	ldr	r3, [pc, #256]	; (80029e8 <NvMem_SaveToFlash+0x154>)
 80028e6:	691a      	ldr	r2, [r3, #16]
 80028e8:	4b3f      	ldr	r3, [pc, #252]	; (80029e8 <NvMem_SaveToFlash+0x154>)
 80028ea:	2140      	movs	r1, #64	; 0x40
 80028ec:	430a      	orrs	r2, r1
 80028ee:	611a      	str	r2, [r3, #16]
		while ((FLASH->SR & FLASH_SR_BSY) != 0) {
 80028f0:	46c0      	nop			; (mov r8, r8)
 80028f2:	4b3d      	ldr	r3, [pc, #244]	; (80029e8 <NvMem_SaveToFlash+0x154>)
 80028f4:	68db      	ldr	r3, [r3, #12]
 80028f6:	2201      	movs	r2, #1
 80028f8:	4013      	ands	r3, r2
 80028fa:	d1fa      	bne.n	80028f2 <NvMem_SaveToFlash+0x5e>

		}
		if ((FLASH->SR & FLASH_SR_EOP) != 0) {
 80028fc:	4b3a      	ldr	r3, [pc, #232]	; (80029e8 <NvMem_SaveToFlash+0x154>)
 80028fe:	68db      	ldr	r3, [r3, #12]
 8002900:	2220      	movs	r2, #32
 8002902:	4013      	ands	r3, r2
 8002904:	d003      	beq.n	800290e <NvMem_SaveToFlash+0x7a>
			FLASH->SR = FLASH_SR_EOP;
 8002906:	4b38      	ldr	r3, [pc, #224]	; (80029e8 <NvMem_SaveToFlash+0x154>)
 8002908:	2220      	movs	r2, #32
 800290a:	60da      	str	r2, [r3, #12]
 800290c:	e001      	b.n	8002912 <NvMem_SaveToFlash+0x7e>
		} else {
			return ERR_FLASH_ERASEFAIL;
 800290e:	2303      	movs	r3, #3
 8002910:	e065      	b.n	80029de <NvMem_SaveToFlash+0x14a>
	for (uint8_t i = 0; i < NVMEM_PAGE_COUNT; i++) {
 8002912:	210f      	movs	r1, #15
 8002914:	187b      	adds	r3, r7, r1
 8002916:	781a      	ldrb	r2, [r3, #0]
 8002918:	187b      	adds	r3, r7, r1
 800291a:	3201      	adds	r2, #1
 800291c:	701a      	strb	r2, [r3, #0]
 800291e:	230f      	movs	r3, #15
 8002920:	18fb      	adds	r3, r7, r3
 8002922:	781b      	ldrb	r3, [r3, #0]
 8002924:	2b00      	cmp	r3, #0
 8002926:	d0d4      	beq.n	80028d2 <NvMem_SaveToFlash+0x3e>
		}
	}
	FLASH->CR &= ~FLASH_CR_PER;
 8002928:	4b2f      	ldr	r3, [pc, #188]	; (80029e8 <NvMem_SaveToFlash+0x154>)
 800292a:	691a      	ldr	r2, [r3, #16]
 800292c:	4b2e      	ldr	r3, [pc, #184]	; (80029e8 <NvMem_SaveToFlash+0x154>)
 800292e:	2102      	movs	r1, #2
 8002930:	438a      	bics	r2, r1
 8002932:	611a      	str	r2, [r3, #16]
	//write data
	while ((FLASH->SR & FLASH_SR_BSY) != 0) {
 8002934:	46c0      	nop			; (mov r8, r8)
 8002936:	4b2c      	ldr	r3, [pc, #176]	; (80029e8 <NvMem_SaveToFlash+0x154>)
 8002938:	68db      	ldr	r3, [r3, #12]
 800293a:	2201      	movs	r2, #1
 800293c:	4013      	ands	r3, r2
 800293e:	d1fa      	bne.n	8002936 <NvMem_SaveToFlash+0xa2>

	}
	uint32_t flash_ad = NVMEM_FLASH_BASE;
 8002940:	4b2d      	ldr	r3, [pc, #180]	; (80029f8 <NvMem_SaveToFlash+0x164>)
 8002942:	60bb      	str	r3, [r7, #8]
	for (uint16_t ad = 0; ad < NVMEM_AD_TOP; ad++) {
 8002944:	1dbb      	adds	r3, r7, #6
 8002946:	2200      	movs	r2, #0
 8002948:	801a      	strh	r2, [r3, #0]
 800294a:	e03e      	b.n	80029ca <NvMem_SaveToFlash+0x136>
		FLASH->CR |= FLASH_CR_PG;
 800294c:	4b26      	ldr	r3, [pc, #152]	; (80029e8 <NvMem_SaveToFlash+0x154>)
 800294e:	691a      	ldr	r2, [r3, #16]
 8002950:	4b25      	ldr	r3, [pc, #148]	; (80029e8 <NvMem_SaveToFlash+0x154>)
 8002952:	2101      	movs	r1, #1
 8002954:	430a      	orrs	r2, r1
 8002956:	611a      	str	r2, [r3, #16]
		uint16_t value_to_write = ~NvMem_RamBuffer[ad];
 8002958:	1dbb      	adds	r3, r7, #6
 800295a:	881a      	ldrh	r2, [r3, #0]
 800295c:	4b27      	ldr	r3, [pc, #156]	; (80029fc <NvMem_SaveToFlash+0x168>)
 800295e:	0052      	lsls	r2, r2, #1
 8002960:	5ad2      	ldrh	r2, [r2, r3]
 8002962:	1d3b      	adds	r3, r7, #4
 8002964:	43d2      	mvns	r2, r2
 8002966:	801a      	strh	r2, [r3, #0]
		*(uint16_t*) (flash_ad) = value_to_write;
 8002968:	68bb      	ldr	r3, [r7, #8]
 800296a:	1d3a      	adds	r2, r7, #4
 800296c:	8812      	ldrh	r2, [r2, #0]
 800296e:	801a      	strh	r2, [r3, #0]
		while ((FLASH->SR & FLASH_SR_BSY) != 0) {
 8002970:	46c0      	nop			; (mov r8, r8)
 8002972:	4b1d      	ldr	r3, [pc, #116]	; (80029e8 <NvMem_SaveToFlash+0x154>)
 8002974:	68db      	ldr	r3, [r3, #12]
 8002976:	2201      	movs	r2, #1
 8002978:	4013      	ands	r3, r2
 800297a:	d1fa      	bne.n	8002972 <NvMem_SaveToFlash+0xde>

		}
		if (FLASH->SR & FLASH_SR_PGERR) {
 800297c:	4b1a      	ldr	r3, [pc, #104]	; (80029e8 <NvMem_SaveToFlash+0x154>)
 800297e:	68db      	ldr	r3, [r3, #12]
 8002980:	2204      	movs	r2, #4
 8002982:	4013      	ands	r3, r2
 8002984:	d001      	beq.n	800298a <NvMem_SaveToFlash+0xf6>
			return ERR_FLASH_NOTERASED;
 8002986:	2305      	movs	r3, #5
 8002988:	e029      	b.n	80029de <NvMem_SaveToFlash+0x14a>
		}
		if (FLASH->SR & FLASH_SR_WRPRTERR) {
 800298a:	4b17      	ldr	r3, [pc, #92]	; (80029e8 <NvMem_SaveToFlash+0x154>)
 800298c:	68db      	ldr	r3, [r3, #12]
 800298e:	2210      	movs	r2, #16
 8002990:	4013      	ands	r3, r2
 8002992:	d001      	beq.n	8002998 <NvMem_SaveToFlash+0x104>
			return ERR_FLASH_WRPTERR;
 8002994:	2306      	movs	r3, #6
 8002996:	e022      	b.n	80029de <NvMem_SaveToFlash+0x14a>
		}
		uint16_t readback = READ16(flash_ad);
 8002998:	68ba      	ldr	r2, [r7, #8]
 800299a:	1cbb      	adds	r3, r7, #2
 800299c:	8812      	ldrh	r2, [r2, #0]
 800299e:	801a      	strh	r2, [r3, #0]
		if (readback != (uint16_t) ~(NvMem_RamBuffer[ad])) {
 80029a0:	1dbb      	adds	r3, r7, #6
 80029a2:	881a      	ldrh	r2, [r3, #0]
 80029a4:	4b15      	ldr	r3, [pc, #84]	; (80029fc <NvMem_SaveToFlash+0x168>)
 80029a6:	0052      	lsls	r2, r2, #1
 80029a8:	5ad3      	ldrh	r3, [r2, r3]
 80029aa:	43db      	mvns	r3, r3
 80029ac:	b29b      	uxth	r3, r3
 80029ae:	1cba      	adds	r2, r7, #2
 80029b0:	8812      	ldrh	r2, [r2, #0]
 80029b2:	429a      	cmp	r2, r3
 80029b4:	d001      	beq.n	80029ba <NvMem_SaveToFlash+0x126>
			return ERR_FLASH_WRONGREADBACK;
 80029b6:	2304      	movs	r3, #4
 80029b8:	e011      	b.n	80029de <NvMem_SaveToFlash+0x14a>
		}
		flash_ad += 2;
 80029ba:	68bb      	ldr	r3, [r7, #8]
 80029bc:	3302      	adds	r3, #2
 80029be:	60bb      	str	r3, [r7, #8]
	for (uint16_t ad = 0; ad < NVMEM_AD_TOP; ad++) {
 80029c0:	1dbb      	adds	r3, r7, #6
 80029c2:	881a      	ldrh	r2, [r3, #0]
 80029c4:	1dbb      	adds	r3, r7, #6
 80029c6:	3201      	adds	r2, #1
 80029c8:	801a      	strh	r2, [r3, #0]
 80029ca:	1dbb      	adds	r3, r7, #6
 80029cc:	881a      	ldrh	r2, [r3, #0]
 80029ce:	23ff      	movs	r3, #255	; 0xff
 80029d0:	005b      	lsls	r3, r3, #1
 80029d2:	429a      	cmp	r2, r3
 80029d4:	d9ba      	bls.n	800294c <NvMem_SaveToFlash+0xb8>
	}
	NvMem_Writable = false;
 80029d6:	4b0a      	ldr	r3, [pc, #40]	; (8002a00 <NvMem_SaveToFlash+0x16c>)
 80029d8:	2200      	movs	r2, #0
 80029da:	701a      	strb	r2, [r3, #0]
	return 0;
 80029dc:	2300      	movs	r3, #0
}
 80029de:	0018      	movs	r0, r3
 80029e0:	46bd      	mov	sp, r7
 80029e2:	b004      	add	sp, #16
 80029e4:	bd80      	pop	{r7, pc}
 80029e6:	46c0      	nop			; (mov r8, r8)
 80029e8:	40022000 	.word	0x40022000
 80029ec:	45670123 	.word	0x45670123
 80029f0:	cdef89ab 	.word	0xcdef89ab
 80029f4:	0002001f 	.word	0x0002001f
 80029f8:	08007c00 	.word	0x08007c00
 80029fc:	20000130 	.word	0x20000130
 8002a00:	2000015a 	.word	0x2000015a

08002a04 <power_init>:





void power_init() {
 8002a04:	b580      	push	{r7, lr}
 8002a06:	b082      	sub	sp, #8
 8002a08:	af00      	add	r7, sp, #0
	//enable clock for periphery modules
	RCC_AHBPeriphClockCmd(RCC_AHBPeriph_GPIOA, ENABLE);
 8002a0a:	2380      	movs	r3, #128	; 0x80
 8002a0c:	029b      	lsls	r3, r3, #10
 8002a0e:	2101      	movs	r1, #1
 8002a10:	0018      	movs	r0, r3
 8002a12:	f7fe f849 	bl	8000aa8 <RCC_AHBPeriphClockCmd>
	RCC_AHBPeriphClockCmd(RCC_AHBPeriph_GPIOB, ENABLE);
 8002a16:	2380      	movs	r3, #128	; 0x80
 8002a18:	02db      	lsls	r3, r3, #11
 8002a1a:	2101      	movs	r1, #1
 8002a1c:	0018      	movs	r0, r3
 8002a1e:	f7fe f843 	bl	8000aa8 <RCC_AHBPeriphClockCmd>

	//init gpios
	//PB1
	GPIO_InitTypeDef GPIO_InitStruct;
	GPIO_InitStruct.GPIO_Pin = GPIO_Pin_1;
 8002a22:	003b      	movs	r3, r7
 8002a24:	2202      	movs	r2, #2
 8002a26:	601a      	str	r2, [r3, #0]
	GPIO_InitStruct.GPIO_Mode = GPIO_Mode_IN;
 8002a28:	003b      	movs	r3, r7
 8002a2a:	2200      	movs	r2, #0
 8002a2c:	711a      	strb	r2, [r3, #4]
	GPIO_Init(GPIOB, &GPIO_InitStruct);
 8002a2e:	003b      	movs	r3, r7
 8002a30:	4a1d      	ldr	r2, [pc, #116]	; (8002aa8 <power_init+0xa4>)
 8002a32:	0019      	movs	r1, r3
 8002a34:	0010      	movs	r0, r2
 8002a36:	f7fd fd75 	bl	8000524 <GPIO_Init>
	//PA4
	GPIO_InitStruct.GPIO_Pin = GPIO_Pin_4;
 8002a3a:	003b      	movs	r3, r7
 8002a3c:	2210      	movs	r2, #16
 8002a3e:	601a      	str	r2, [r3, #0]
	GPIO_InitStruct.GPIO_Mode = GPIO_Mode_OUT;
 8002a40:	003b      	movs	r3, r7
 8002a42:	2201      	movs	r2, #1
 8002a44:	711a      	strb	r2, [r3, #4]
	GPIO_InitStruct.GPIO_OType = GPIO_OType_PP;
 8002a46:	003b      	movs	r3, r7
 8002a48:	2200      	movs	r2, #0
 8002a4a:	719a      	strb	r2, [r3, #6]
	GPIO_Init(GPIOA, &GPIO_InitStruct);
 8002a4c:	003a      	movs	r2, r7
 8002a4e:	2390      	movs	r3, #144	; 0x90
 8002a50:	05db      	lsls	r3, r3, #23
 8002a52:	0011      	movs	r1, r2
 8002a54:	0018      	movs	r0, r3
 8002a56:	f7fd fd65 	bl	8000524 <GPIO_Init>
	GPIO_WriteBit(GPIOA, GPIO_Pin_4, Bit_SET);
 8002a5a:	2390      	movs	r3, #144	; 0x90
 8002a5c:	05db      	lsls	r3, r3, #23
 8002a5e:	2201      	movs	r2, #1
 8002a60:	2110      	movs	r1, #16
 8002a62:	0018      	movs	r0, r3
 8002a64:	f7fd fe15 	bl	8000692 <GPIO_WriteBit>
	//PA1
	GPIO_InitStruct.GPIO_Pin = GPIO_Pin_1;
 8002a68:	003b      	movs	r3, r7
 8002a6a:	2202      	movs	r2, #2
 8002a6c:	601a      	str	r2, [r3, #0]
	GPIO_InitStruct.GPIO_Mode = GPIO_Mode_IN;
 8002a6e:	003b      	movs	r3, r7
 8002a70:	2200      	movs	r2, #0
 8002a72:	711a      	strb	r2, [r3, #4]
	GPIO_Init(GPIOA, &GPIO_InitStruct);
 8002a74:	003a      	movs	r2, r7
 8002a76:	2390      	movs	r3, #144	; 0x90
 8002a78:	05db      	lsls	r3, r3, #23
 8002a7a:	0011      	movs	r1, r2
 8002a7c:	0018      	movs	r0, r3
 8002a7e:	f7fd fd51 	bl	8000524 <GPIO_Init>

	//TODO: implement Vbat measurement

	if(power_UsbPresent())
 8002a82:	f000 f817 	bl	8002ab4 <power_UsbPresent>
 8002a86:	1e03      	subs	r3, r0, #0
 8002a88:	d003      	beq.n	8002a92 <power_init+0x8e>
	{
		power_timer = 0;	//if connected to USB, the battery supply is switched off
 8002a8a:	4b08      	ldr	r3, [pc, #32]	; (8002aac <power_init+0xa8>)
 8002a8c:	2200      	movs	r2, #0
 8002a8e:	701a      	strb	r2, [r3, #0]
 8002a90:	e002      	b.n	8002a98 <power_init+0x94>
	}
	else
	{
		power_timer = 100; //the system is always on for at least 10 sec
 8002a92:	4b06      	ldr	r3, [pc, #24]	; (8002aac <power_init+0xa8>)
 8002a94:	2264      	movs	r2, #100	; 0x64
 8002a96:	701a      	strb	r2, [r3, #0]
	}
	power_flags = 0;
 8002a98:	4b05      	ldr	r3, [pc, #20]	; (8002ab0 <power_init+0xac>)
 8002a9a:	2200      	movs	r2, #0
 8002a9c:	701a      	strb	r2, [r3, #0]
}
 8002a9e:	46c0      	nop			; (mov r8, r8)
 8002aa0:	46bd      	mov	sp, r7
 8002aa2:	b002      	add	sp, #8
 8002aa4:	bd80      	pop	{r7, pc}
 8002aa6:	46c0      	nop			; (mov r8, r8)
 8002aa8:	48000400 	.word	0x48000400
 8002aac:	2000015b 	.word	0x2000015b
 8002ab0:	2000004c 	.word	0x2000004c

08002ab4 <power_UsbPresent>:

uint8_t power_UsbPresent() {
 8002ab4:	b580      	push	{r7, lr}
 8002ab6:	af00      	add	r7, sp, #0
	return GPIO_ReadInputDataBit(GPIOB, GPIO_Pin_1);
 8002ab8:	4b04      	ldr	r3, [pc, #16]	; (8002acc <power_UsbPresent+0x18>)
 8002aba:	2102      	movs	r1, #2
 8002abc:	0018      	movs	r0, r3
 8002abe:	f7fd fdc5 	bl	800064c <GPIO_ReadInputDataBit>
 8002ac2:	0003      	movs	r3, r0
}
 8002ac4:	0018      	movs	r0, r3
 8002ac6:	46bd      	mov	sp, r7
 8002ac8:	bd80      	pop	{r7, pc}
 8002aca:	46c0      	nop			; (mov r8, r8)
 8002acc:	48000400 	.word	0x48000400

08002ad0 <power_hold>:
 * after this time, the battery-supply is switched off
 * max time is 25seconds
 * 0 switches off immediatly
 */
void power_hold(uint8_t sec)
{
 8002ad0:	b580      	push	{r7, lr}
 8002ad2:	b082      	sub	sp, #8
 8002ad4:	af00      	add	r7, sp, #0
 8002ad6:	0002      	movs	r2, r0
 8002ad8:	1dfb      	adds	r3, r7, #7
 8002ada:	701a      	strb	r2, [r3, #0]
	if(sec > 25)
 8002adc:	1dfb      	adds	r3, r7, #7
 8002ade:	781b      	ldrb	r3, [r3, #0]
 8002ae0:	2b19      	cmp	r3, #25
 8002ae2:	d902      	bls.n	8002aea <power_hold+0x1a>
	{
		sec = 25;
 8002ae4:	1dfb      	adds	r3, r7, #7
 8002ae6:	2219      	movs	r2, #25
 8002ae8:	701a      	strb	r2, [r3, #0]
	}
	if(!power_UsbPresent())
 8002aea:	f7ff ffe3 	bl	8002ab4 <power_UsbPresent>
 8002aee:	1e03      	subs	r3, r0, #0
 8002af0:	d108      	bne.n	8002b04 <power_hold+0x34>
	{
		power_timer = sec * 10;
 8002af2:	1dfb      	adds	r3, r7, #7
 8002af4:	781b      	ldrb	r3, [r3, #0]
 8002af6:	1c1a      	adds	r2, r3, #0
 8002af8:	0092      	lsls	r2, r2, #2
 8002afa:	18d3      	adds	r3, r2, r3
 8002afc:	18db      	adds	r3, r3, r3
 8002afe:	b2da      	uxtb	r2, r3
 8002b00:	4b02      	ldr	r3, [pc, #8]	; (8002b0c <power_hold+0x3c>)
 8002b02:	701a      	strb	r2, [r3, #0]
	}
}
 8002b04:	46c0      	nop			; (mov r8, r8)
 8002b06:	46bd      	mov	sp, r7
 8002b08:	b002      	add	sp, #8
 8002b0a:	bd80      	pop	{r7, pc}
 8002b0c:	2000015b 	.word	0x2000015b

08002b10 <power_exec>:
/**
 * has to be called every 100ms - needed for the power_hold and button detection
 *
 */
void power_exec()
{
 8002b10:	b580      	push	{r7, lr}
 8002b12:	af00      	add	r7, sp, #0
//========State-Machine for the Button=============================
	switch(power_buttonState)
 8002b14:	4b63      	ldr	r3, [pc, #396]	; (8002ca4 <power_exec+0x194>)
 8002b16:	781b      	ldrb	r3, [r3, #0]
 8002b18:	2b03      	cmp	r3, #3
 8002b1a:	d100      	bne.n	8002b1e <power_exec+0xe>
 8002b1c:	e07b      	b.n	8002c16 <power_exec+0x106>
 8002b1e:	dd00      	ble.n	8002b22 <power_exec+0x12>
 8002b20:	e0a9      	b.n	8002c76 <power_exec+0x166>
 8002b22:	2b02      	cmp	r3, #2
 8002b24:	d03a      	beq.n	8002b9c <power_exec+0x8c>
 8002b26:	dd00      	ble.n	8002b2a <power_exec+0x1a>
 8002b28:	e0a5      	b.n	8002c76 <power_exec+0x166>
 8002b2a:	2b00      	cmp	r3, #0
 8002b2c:	d002      	beq.n	8002b34 <power_exec+0x24>
 8002b2e:	2b01      	cmp	r3, #1
 8002b30:	d017      	beq.n	8002b62 <power_exec+0x52>
 8002b32:	e0a0      	b.n	8002c76 <power_exec+0x166>
	{
	case 0: //released
		//decrease the doubleClickDetector while the button is released -> this limits the pause between the tho clicks
		if(doubleClickDetector)
 8002b34:	4b5c      	ldr	r3, [pc, #368]	; (8002ca8 <power_exec+0x198>)
 8002b36:	781b      	ldrb	r3, [r3, #0]
 8002b38:	2b00      	cmp	r3, #0
 8002b3a:	d005      	beq.n	8002b48 <power_exec+0x38>
		{
			doubleClickDetector--;
 8002b3c:	4b5a      	ldr	r3, [pc, #360]	; (8002ca8 <power_exec+0x198>)
 8002b3e:	781b      	ldrb	r3, [r3, #0]
 8002b40:	3b01      	subs	r3, #1
 8002b42:	b2da      	uxtb	r2, r3
 8002b44:	4b58      	ldr	r3, [pc, #352]	; (8002ca8 <power_exec+0x198>)
 8002b46:	701a      	strb	r2, [r3, #0]
		}
		//detect button presses
		//the button pulls the pin down, so the logic is inverted!
		if(!GPIO_ReadInputDataBit(GPIOA, GPIO_Pin_1))
 8002b48:	2390      	movs	r3, #144	; 0x90
 8002b4a:	05db      	lsls	r3, r3, #23
 8002b4c:	2102      	movs	r1, #2
 8002b4e:	0018      	movs	r0, r3
 8002b50:	f7fd fd7c 	bl	800064c <GPIO_ReadInputDataBit>
 8002b54:	1e03      	subs	r3, r0, #0
 8002b56:	d000      	beq.n	8002b5a <power_exec+0x4a>
 8002b58:	e088      	b.n	8002c6c <power_exec+0x15c>
		{
			power_buttonState = 1;	//change state to bouncing
 8002b5a:	4b52      	ldr	r3, [pc, #328]	; (8002ca4 <power_exec+0x194>)
 8002b5c:	2201      	movs	r2, #1
 8002b5e:	701a      	strb	r2, [r3, #0]
		}
		break;
 8002b60:	e084      	b.n	8002c6c <power_exec+0x15c>
	case 1: //bouncing
		//check if pin is still high
		if(!GPIO_ReadInputDataBit(GPIOA, GPIO_Pin_1))
 8002b62:	2390      	movs	r3, #144	; 0x90
 8002b64:	05db      	lsls	r3, r3, #23
 8002b66:	2102      	movs	r1, #2
 8002b68:	0018      	movs	r0, r3
 8002b6a:	f7fd fd6f 	bl	800064c <GPIO_ReadInputDataBit>
 8002b6e:	1e03      	subs	r3, r0, #0
 8002b70:	d110      	bne.n	8002b94 <power_exec+0x84>
		{
			//now the button is surely pressed
			power_flags |= POWER_FLAG_SW_PRESS;
 8002b72:	4b4e      	ldr	r3, [pc, #312]	; (8002cac <power_exec+0x19c>)
 8002b74:	781b      	ldrb	r3, [r3, #0]
 8002b76:	2201      	movs	r2, #1
 8002b78:	4313      	orrs	r3, r2
 8002b7a:	b2da      	uxtb	r2, r3
 8002b7c:	4b4b      	ldr	r3, [pc, #300]	; (8002cac <power_exec+0x19c>)
 8002b7e:	701a      	strb	r2, [r3, #0]
			power_buttonHoldTime = 1;
 8002b80:	4b4b      	ldr	r3, [pc, #300]	; (8002cb0 <power_exec+0x1a0>)
 8002b82:	2201      	movs	r2, #1
 8002b84:	701a      	strb	r2, [r3, #0]
			power_buttonState = 2;	//change state to pressed / holding
 8002b86:	4b47      	ldr	r3, [pc, #284]	; (8002ca4 <power_exec+0x194>)
 8002b88:	2202      	movs	r2, #2
 8002b8a:	701a      	strb	r2, [r3, #0]
			//whenever the button is pressed, the lightshaker should stay on for another 10 seconds
			power_hold(10);
 8002b8c:	200a      	movs	r0, #10
 8002b8e:	f7ff ff9f 	bl	8002ad0 <power_hold>
		}
		else
		{
			power_buttonState = 0; //false alarm -> back to released
		}
		break;
 8002b92:	e070      	b.n	8002c76 <power_exec+0x166>
			power_buttonState = 0; //false alarm -> back to released
 8002b94:	4b43      	ldr	r3, [pc, #268]	; (8002ca4 <power_exec+0x194>)
 8002b96:	2200      	movs	r2, #0
 8002b98:	701a      	strb	r2, [r3, #0]
		break;
 8002b9a:	e06c      	b.n	8002c76 <power_exec+0x166>
	case 2: //pressed
		//count the holding-time
		power_buttonHoldTime++;
 8002b9c:	4b44      	ldr	r3, [pc, #272]	; (8002cb0 <power_exec+0x1a0>)
 8002b9e:	781b      	ldrb	r3, [r3, #0]
 8002ba0:	3301      	adds	r3, #1
 8002ba2:	b2da      	uxtb	r2, r3
 8002ba4:	4b42      	ldr	r3, [pc, #264]	; (8002cb0 <power_exec+0x1a0>)
 8002ba6:	701a      	strb	r2, [r3, #0]
		if(power_buttonHoldTime >= POWER_SW_MINHOLDTIME)
 8002ba8:	4b41      	ldr	r3, [pc, #260]	; (8002cb0 <power_exec+0x1a0>)
 8002baa:	781b      	ldrb	r3, [r3, #0]
 8002bac:	2b07      	cmp	r3, #7
 8002bae:	d90d      	bls.n	8002bcc <power_exec+0xbc>
		{
			power_flags |= POWER_FLAG_SW_HOLD;
 8002bb0:	4b3e      	ldr	r3, [pc, #248]	; (8002cac <power_exec+0x19c>)
 8002bb2:	781b      	ldrb	r3, [r3, #0]
 8002bb4:	2204      	movs	r2, #4
 8002bb6:	4313      	orrs	r3, r2
 8002bb8:	b2da      	uxtb	r2, r3
 8002bba:	4b3c      	ldr	r3, [pc, #240]	; (8002cac <power_exec+0x19c>)
 8002bbc:	701a      	strb	r2, [r3, #0]
			power_buttonState = 3; //long hold
 8002bbe:	4b39      	ldr	r3, [pc, #228]	; (8002ca4 <power_exec+0x194>)
 8002bc0:	2203      	movs	r2, #3
 8002bc2:	701a      	strb	r2, [r3, #0]
			power_buttonHoldTime = 0;
 8002bc4:	4b3a      	ldr	r3, [pc, #232]	; (8002cb0 <power_exec+0x1a0>)
 8002bc6:	2200      	movs	r2, #0
 8002bc8:	701a      	strb	r2, [r3, #0]
			break;
 8002bca:	e054      	b.n	8002c76 <power_exec+0x166>
		}
		if(GPIO_ReadInputDataBit(GPIOA, GPIO_Pin_1)) //released before it's a hold
 8002bcc:	2390      	movs	r3, #144	; 0x90
 8002bce:	05db      	lsls	r3, r3, #23
 8002bd0:	2102      	movs	r1, #2
 8002bd2:	0018      	movs	r0, r3
 8002bd4:	f7fd fd3a 	bl	800064c <GPIO_ReadInputDataBit>
 8002bd8:	1e03      	subs	r3, r0, #0
 8002bda:	d049      	beq.n	8002c70 <power_exec+0x160>
		{
			//a click can only count for a double-click if the button is released before it's counted as a 'hold'
			//if the doubleClickDetector is not 0, we have a valid double-click!
			if(doubleClickDetector)
 8002bdc:	4b32      	ldr	r3, [pc, #200]	; (8002ca8 <power_exec+0x198>)
 8002bde:	781b      	ldrb	r3, [r3, #0]
 8002be0:	2b00      	cmp	r3, #0
 8002be2:	d00a      	beq.n	8002bfa <power_exec+0xea>
			{
				power_flags |= POWER_FLAG_SW_DOUBLE;
 8002be4:	4b31      	ldr	r3, [pc, #196]	; (8002cac <power_exec+0x19c>)
 8002be6:	781b      	ldrb	r3, [r3, #0]
 8002be8:	2210      	movs	r2, #16
 8002bea:	4313      	orrs	r3, r2
 8002bec:	b2da      	uxtb	r2, r3
 8002bee:	4b2f      	ldr	r3, [pc, #188]	; (8002cac <power_exec+0x19c>)
 8002bf0:	701a      	strb	r2, [r3, #0]
				doubleClickDetector = 0;
 8002bf2:	4b2d      	ldr	r3, [pc, #180]	; (8002ca8 <power_exec+0x198>)
 8002bf4:	2200      	movs	r2, #0
 8002bf6:	701a      	strb	r2, [r3, #0]
 8002bf8:	e002      	b.n	8002c00 <power_exec+0xf0>
			}
			else
			{
				//set the doubleclickDetector to a value indicating the maximum time for the double-click
				//the detector is now "armed"
				doubleClickDetector = 6;
 8002bfa:	4b2b      	ldr	r3, [pc, #172]	; (8002ca8 <power_exec+0x198>)
 8002bfc:	2206      	movs	r2, #6
 8002bfe:	701a      	strb	r2, [r3, #0]
			}
			power_flags |= POWER_FLAG_SW_RELEASE;
 8002c00:	4b2a      	ldr	r3, [pc, #168]	; (8002cac <power_exec+0x19c>)
 8002c02:	781b      	ldrb	r3, [r3, #0]
 8002c04:	2202      	movs	r2, #2
 8002c06:	4313      	orrs	r3, r2
 8002c08:	b2da      	uxtb	r2, r3
 8002c0a:	4b28      	ldr	r3, [pc, #160]	; (8002cac <power_exec+0x19c>)
 8002c0c:	701a      	strb	r2, [r3, #0]
			power_buttonState = 0;	//pin is low -> button was just released
 8002c0e:	4b25      	ldr	r3, [pc, #148]	; (8002ca4 <power_exec+0x194>)
 8002c10:	2200      	movs	r2, #0
 8002c12:	701a      	strb	r2, [r3, #0]
		}
		break;
 8002c14:	e02c      	b.n	8002c70 <power_exec+0x160>
	case 3: //long hold
		//count the holding-time
		power_buttonHoldTime++;
 8002c16:	4b26      	ldr	r3, [pc, #152]	; (8002cb0 <power_exec+0x1a0>)
 8002c18:	781b      	ldrb	r3, [r3, #0]
 8002c1a:	3301      	adds	r3, #1
 8002c1c:	b2da      	uxtb	r2, r3
 8002c1e:	4b24      	ldr	r3, [pc, #144]	; (8002cb0 <power_exec+0x1a0>)
 8002c20:	701a      	strb	r2, [r3, #0]
		if(power_buttonHoldTime >= POWER_SW_MINHOLDTIME)
 8002c22:	4b23      	ldr	r3, [pc, #140]	; (8002cb0 <power_exec+0x1a0>)
 8002c24:	781b      	ldrb	r3, [r3, #0]
 8002c26:	2b07      	cmp	r3, #7
 8002c28:	d90d      	bls.n	8002c46 <power_exec+0x136>
		{
			power_flags |= POWER_FLAG_SW_HOLD;	//set the flag again
 8002c2a:	4b20      	ldr	r3, [pc, #128]	; (8002cac <power_exec+0x19c>)
 8002c2c:	781b      	ldrb	r3, [r3, #0]
 8002c2e:	2204      	movs	r2, #4
 8002c30:	4313      	orrs	r3, r2
 8002c32:	b2da      	uxtb	r2, r3
 8002c34:	4b1d      	ldr	r3, [pc, #116]	; (8002cac <power_exec+0x19c>)
 8002c36:	701a      	strb	r2, [r3, #0]
			power_buttonState = 3; //state is the same
 8002c38:	4b1a      	ldr	r3, [pc, #104]	; (8002ca4 <power_exec+0x194>)
 8002c3a:	2203      	movs	r2, #3
 8002c3c:	701a      	strb	r2, [r3, #0]
			power_buttonHoldTime = 0; //but the timer is reset
 8002c3e:	4b1c      	ldr	r3, [pc, #112]	; (8002cb0 <power_exec+0x1a0>)
 8002c40:	2200      	movs	r2, #0
 8002c42:	701a      	strb	r2, [r3, #0]
			break;
 8002c44:	e017      	b.n	8002c76 <power_exec+0x166>
		}
		if(GPIO_ReadInputDataBit(GPIOA, GPIO_Pin_1)) //released from a hold
 8002c46:	2390      	movs	r3, #144	; 0x90
 8002c48:	05db      	lsls	r3, r3, #23
 8002c4a:	2102      	movs	r1, #2
 8002c4c:	0018      	movs	r0, r3
 8002c4e:	f7fd fcfd 	bl	800064c <GPIO_ReadInputDataBit>
 8002c52:	1e03      	subs	r3, r0, #0
 8002c54:	d00e      	beq.n	8002c74 <power_exec+0x164>
		{
			power_flags |= POWER_FLAG_SW_REL_HOLD;
 8002c56:	4b15      	ldr	r3, [pc, #84]	; (8002cac <power_exec+0x19c>)
 8002c58:	781b      	ldrb	r3, [r3, #0]
 8002c5a:	2208      	movs	r2, #8
 8002c5c:	4313      	orrs	r3, r2
 8002c5e:	b2da      	uxtb	r2, r3
 8002c60:	4b12      	ldr	r3, [pc, #72]	; (8002cac <power_exec+0x19c>)
 8002c62:	701a      	strb	r2, [r3, #0]
			power_buttonState = 0;	//pin is low -> button was just released
 8002c64:	4b0f      	ldr	r3, [pc, #60]	; (8002ca4 <power_exec+0x194>)
 8002c66:	2200      	movs	r2, #0
 8002c68:	701a      	strb	r2, [r3, #0]
		}
		break;
 8002c6a:	e003      	b.n	8002c74 <power_exec+0x164>
		break;
 8002c6c:	46c0      	nop			; (mov r8, r8)
 8002c6e:	e002      	b.n	8002c76 <power_exec+0x166>
		break;
 8002c70:	46c0      	nop			; (mov r8, r8)
 8002c72:	e000      	b.n	8002c76 <power_exec+0x166>
		break;
 8002c74:	46c0      	nop			; (mov r8, r8)

	}
//=============================================================================

	//count power_hold time and shut down if exceeded
	if (power_timer)
 8002c76:	4b0f      	ldr	r3, [pc, #60]	; (8002cb4 <power_exec+0x1a4>)
 8002c78:	781b      	ldrb	r3, [r3, #0]
 8002c7a:	b2db      	uxtb	r3, r3
 8002c7c:	2b00      	cmp	r3, #0
 8002c7e:	d007      	beq.n	8002c90 <power_exec+0x180>
	{
		power_timer--;
 8002c80:	4b0c      	ldr	r3, [pc, #48]	; (8002cb4 <power_exec+0x1a4>)
 8002c82:	781b      	ldrb	r3, [r3, #0]
 8002c84:	b2db      	uxtb	r3, r3
 8002c86:	3b01      	subs	r3, #1
 8002c88:	b2da      	uxtb	r2, r3
 8002c8a:	4b0a      	ldr	r3, [pc, #40]	; (8002cb4 <power_exec+0x1a4>)
 8002c8c:	701a      	strb	r2, [r3, #0]
	else
	{
		//shut down the battery supply
		GPIO_WriteBit(GPIOA, GPIO_Pin_4, Bit_RESET);
	}
}
 8002c8e:	e006      	b.n	8002c9e <power_exec+0x18e>
		GPIO_WriteBit(GPIOA, GPIO_Pin_4, Bit_RESET);
 8002c90:	2390      	movs	r3, #144	; 0x90
 8002c92:	05db      	lsls	r3, r3, #23
 8002c94:	2200      	movs	r2, #0
 8002c96:	2110      	movs	r1, #16
 8002c98:	0018      	movs	r0, r3
 8002c9a:	f7fd fcfa 	bl	8000692 <GPIO_WriteBit>
}
 8002c9e:	46c0      	nop			; (mov r8, r8)
 8002ca0:	46bd      	mov	sp, r7
 8002ca2:	bd80      	pop	{r7, pc}
 8002ca4:	2000015c 	.word	0x2000015c
 8002ca8:	2000015d 	.word	0x2000015d
 8002cac:	2000004c 	.word	0x2000004c
 8002cb0:	2000015e 	.word	0x2000015e
 8002cb4:	2000015b 	.word	0x2000015b

08002cb8 <fast_hsv2rgb_32bit>:
 * IN THE SOFTWARE.
 */
#include "utilHsvToRgb.h"

void fast_hsv2rgb_32bit(uint16_t h, uint8_t s, uint8_t v, uint8_t *r, uint8_t *g , uint8_t *b)
{
 8002cb8:	b590      	push	{r4, r7, lr}
 8002cba:	b08b      	sub	sp, #44	; 0x2c
 8002cbc:	af00      	add	r7, sp, #0
 8002cbe:	0004      	movs	r4, r0
 8002cc0:	0008      	movs	r0, r1
 8002cc2:	0011      	movs	r1, r2
 8002cc4:	603b      	str	r3, [r7, #0]
 8002cc6:	1dbb      	adds	r3, r7, #6
 8002cc8:	1c22      	adds	r2, r4, #0
 8002cca:	801a      	strh	r2, [r3, #0]
 8002ccc:	1d7b      	adds	r3, r7, #5
 8002cce:	1c02      	adds	r2, r0, #0
 8002cd0:	701a      	strb	r2, [r3, #0]
 8002cd2:	1d3b      	adds	r3, r7, #4
 8002cd4:	1c0a      	adds	r2, r1, #0
 8002cd6:	701a      	strb	r2, [r3, #0]
	HSV_MONOCHROMATIC_TEST(s, v, r, g, b);	// Exit with grayscale if s == 0
 8002cd8:	1d7b      	adds	r3, r7, #5
 8002cda:	781b      	ldrb	r3, [r3, #0]
 8002cdc:	2b00      	cmp	r3, #0
 8002cde:	d10c      	bne.n	8002cfa <fast_hsv2rgb_32bit+0x42>
 8002ce0:	6bfb      	ldr	r3, [r7, #60]	; 0x3c
 8002ce2:	1d3a      	adds	r2, r7, #4
 8002ce4:	7812      	ldrb	r2, [r2, #0]
 8002ce6:	701a      	strb	r2, [r3, #0]
 8002ce8:	6bfb      	ldr	r3, [r7, #60]	; 0x3c
 8002cea:	781a      	ldrb	r2, [r3, #0]
 8002cec:	6bbb      	ldr	r3, [r7, #56]	; 0x38
 8002cee:	701a      	strb	r2, [r3, #0]
 8002cf0:	6bbb      	ldr	r3, [r7, #56]	; 0x38
 8002cf2:	781a      	ldrb	r2, [r3, #0]
 8002cf4:	683b      	ldr	r3, [r7, #0]
 8002cf6:	701a      	strb	r2, [r3, #0]
 8002cf8:	e0b7      	b.n	8002e6a <fast_hsv2rgb_32bit+0x1b2>

	uint8_t sextant = h >> 8;
 8002cfa:	1dbb      	adds	r3, r7, #6
 8002cfc:	881b      	ldrh	r3, [r3, #0]
 8002cfe:	0a1b      	lsrs	r3, r3, #8
 8002d00:	b29a      	uxth	r2, r3
 8002d02:	2127      	movs	r1, #39	; 0x27
 8002d04:	187b      	adds	r3, r7, r1
 8002d06:	701a      	strb	r2, [r3, #0]

	HSV_SEXTANT_TEST(sextant);		// Optional: Limit hue sextants to defined space
 8002d08:	000a      	movs	r2, r1
 8002d0a:	18bb      	adds	r3, r7, r2
 8002d0c:	781b      	ldrb	r3, [r3, #0]
 8002d0e:	2b05      	cmp	r3, #5
 8002d10:	d902      	bls.n	8002d18 <fast_hsv2rgb_32bit+0x60>
 8002d12:	18bb      	adds	r3, r7, r2
 8002d14:	2205      	movs	r2, #5
 8002d16:	701a      	strb	r2, [r3, #0]

	HSV_POINTER_SWAP(sextant, r, g, b);	// Swap pointers depending which sextant we are in
 8002d18:	2327      	movs	r3, #39	; 0x27
 8002d1a:	18fb      	adds	r3, r7, r3
 8002d1c:	781b      	ldrb	r3, [r3, #0]
 8002d1e:	2202      	movs	r2, #2
 8002d20:	4013      	ands	r3, r2
 8002d22:	d005      	beq.n	8002d30 <fast_hsv2rgb_32bit+0x78>
 8002d24:	683b      	ldr	r3, [r7, #0]
 8002d26:	623b      	str	r3, [r7, #32]
 8002d28:	6bfb      	ldr	r3, [r7, #60]	; 0x3c
 8002d2a:	603b      	str	r3, [r7, #0]
 8002d2c:	6a3b      	ldr	r3, [r7, #32]
 8002d2e:	63fb      	str	r3, [r7, #60]	; 0x3c
 8002d30:	2327      	movs	r3, #39	; 0x27
 8002d32:	18fb      	adds	r3, r7, r3
 8002d34:	781b      	ldrb	r3, [r3, #0]
 8002d36:	2204      	movs	r2, #4
 8002d38:	4013      	ands	r3, r2
 8002d3a:	d005      	beq.n	8002d48 <fast_hsv2rgb_32bit+0x90>
 8002d3c:	6bbb      	ldr	r3, [r7, #56]	; 0x38
 8002d3e:	61fb      	str	r3, [r7, #28]
 8002d40:	6bfb      	ldr	r3, [r7, #60]	; 0x3c
 8002d42:	63bb      	str	r3, [r7, #56]	; 0x38
 8002d44:	69fb      	ldr	r3, [r7, #28]
 8002d46:	63fb      	str	r3, [r7, #60]	; 0x3c
 8002d48:	2127      	movs	r1, #39	; 0x27
 8002d4a:	187b      	adds	r3, r7, r1
 8002d4c:	781b      	ldrb	r3, [r3, #0]
 8002d4e:	2206      	movs	r2, #6
 8002d50:	4013      	ands	r3, r2
 8002d52:	d10b      	bne.n	8002d6c <fast_hsv2rgb_32bit+0xb4>
 8002d54:	187b      	adds	r3, r7, r1
 8002d56:	781b      	ldrb	r3, [r3, #0]
 8002d58:	2201      	movs	r2, #1
 8002d5a:	4013      	ands	r3, r2
 8002d5c:	d112      	bne.n	8002d84 <fast_hsv2rgb_32bit+0xcc>
 8002d5e:	683b      	ldr	r3, [r7, #0]
 8002d60:	617b      	str	r3, [r7, #20]
 8002d62:	6bbb      	ldr	r3, [r7, #56]	; 0x38
 8002d64:	603b      	str	r3, [r7, #0]
 8002d66:	697b      	ldr	r3, [r7, #20]
 8002d68:	63bb      	str	r3, [r7, #56]	; 0x38
 8002d6a:	e00b      	b.n	8002d84 <fast_hsv2rgb_32bit+0xcc>
 8002d6c:	2327      	movs	r3, #39	; 0x27
 8002d6e:	18fb      	adds	r3, r7, r3
 8002d70:	781b      	ldrb	r3, [r3, #0]
 8002d72:	2201      	movs	r2, #1
 8002d74:	4013      	ands	r3, r2
 8002d76:	d005      	beq.n	8002d84 <fast_hsv2rgb_32bit+0xcc>
 8002d78:	683b      	ldr	r3, [r7, #0]
 8002d7a:	61bb      	str	r3, [r7, #24]
 8002d7c:	6bbb      	ldr	r3, [r7, #56]	; 0x38
 8002d7e:	603b      	str	r3, [r7, #0]
 8002d80:	69bb      	ldr	r3, [r7, #24]
 8002d82:	63bb      	str	r3, [r7, #56]	; 0x38

	*g = v;		// Top level
 8002d84:	6bbb      	ldr	r3, [r7, #56]	; 0x38
 8002d86:	1d3a      	adds	r2, r7, #4
 8002d88:	7812      	ldrb	r2, [r2, #0]
 8002d8a:	701a      	strb	r2, [r3, #0]
	/*
	 * Bottom level: v * (1.0 - s)
	 * --> (v * (255 - s) + error_corr + 1) / 256
	 */
	uint16_t ww;		// Intermediate result
	ww = v * (255 - s);	// We don't use ~s to prevent size-promotion side effects
 8002d8c:	1d3b      	adds	r3, r7, #4
 8002d8e:	781b      	ldrb	r3, [r3, #0]
 8002d90:	b29a      	uxth	r2, r3
 8002d92:	1d7b      	adds	r3, r7, #5
 8002d94:	781b      	ldrb	r3, [r3, #0]
 8002d96:	21ff      	movs	r1, #255	; 0xff
 8002d98:	1acb      	subs	r3, r1, r3
 8002d9a:	b299      	uxth	r1, r3
 8002d9c:	2012      	movs	r0, #18
 8002d9e:	183b      	adds	r3, r7, r0
 8002da0:	434a      	muls	r2, r1
 8002da2:	801a      	strh	r2, [r3, #0]
	ww += 1;		// Error correction
 8002da4:	183b      	adds	r3, r7, r0
 8002da6:	183a      	adds	r2, r7, r0
 8002da8:	8812      	ldrh	r2, [r2, #0]
 8002daa:	3201      	adds	r2, #1
 8002dac:	801a      	strh	r2, [r3, #0]
	ww += ww >> 8;		// Error correction
 8002dae:	183b      	adds	r3, r7, r0
 8002db0:	881b      	ldrh	r3, [r3, #0]
 8002db2:	0a1b      	lsrs	r3, r3, #8
 8002db4:	b299      	uxth	r1, r3
 8002db6:	183b      	adds	r3, r7, r0
 8002db8:	183a      	adds	r2, r7, r0
 8002dba:	8812      	ldrh	r2, [r2, #0]
 8002dbc:	188a      	adds	r2, r1, r2
 8002dbe:	801a      	strh	r2, [r3, #0]
	*b = ww >> 8;
 8002dc0:	183b      	adds	r3, r7, r0
 8002dc2:	881b      	ldrh	r3, [r3, #0]
 8002dc4:	0a1b      	lsrs	r3, r3, #8
 8002dc6:	b29b      	uxth	r3, r3
 8002dc8:	b2da      	uxtb	r2, r3
 8002dca:	6bfb      	ldr	r3, [r7, #60]	; 0x3c
 8002dcc:	701a      	strb	r2, [r3, #0]

	uint8_t h_fraction = h & 0xff;	// 0...255
 8002dce:	2111      	movs	r1, #17
 8002dd0:	187b      	adds	r3, r7, r1
 8002dd2:	1dba      	adds	r2, r7, #6
 8002dd4:	8812      	ldrh	r2, [r2, #0]
 8002dd6:	701a      	strb	r2, [r3, #0]
	uint32_t d;			// Intermediate result

	if(!(sextant & 1)) {
 8002dd8:	2327      	movs	r3, #39	; 0x27
 8002dda:	18fb      	adds	r3, r7, r3
 8002ddc:	781b      	ldrb	r3, [r3, #0]
 8002dde:	2201      	movs	r2, #1
 8002de0:	4013      	ands	r3, r2
 8002de2:	d122      	bne.n	8002e2a <fast_hsv2rgb_32bit+0x172>
		// *r = ...slope_up...;
		d = v * (uint32_t)((255 << 8) - (uint16_t)(s * (256 - h_fraction)));
 8002de4:	1d3b      	adds	r3, r7, #4
 8002de6:	781b      	ldrb	r3, [r3, #0]
 8002de8:	1d7a      	adds	r2, r7, #5
 8002dea:	7812      	ldrb	r2, [r2, #0]
 8002dec:	b292      	uxth	r2, r2
 8002dee:	1879      	adds	r1, r7, r1
 8002df0:	7809      	ldrb	r1, [r1, #0]
 8002df2:	2080      	movs	r0, #128	; 0x80
 8002df4:	0040      	lsls	r0, r0, #1
 8002df6:	1a41      	subs	r1, r0, r1
 8002df8:	b289      	uxth	r1, r1
 8002dfa:	434a      	muls	r2, r1
 8002dfc:	b292      	uxth	r2, r2
 8002dfe:	0011      	movs	r1, r2
 8002e00:	22ff      	movs	r2, #255	; 0xff
 8002e02:	0212      	lsls	r2, r2, #8
 8002e04:	1a52      	subs	r2, r2, r1
 8002e06:	4353      	muls	r3, r2
 8002e08:	60fb      	str	r3, [r7, #12]
		d += d >> 8;	// Error correction
 8002e0a:	68fb      	ldr	r3, [r7, #12]
 8002e0c:	0a1b      	lsrs	r3, r3, #8
 8002e0e:	68fa      	ldr	r2, [r7, #12]
 8002e10:	18d3      	adds	r3, r2, r3
 8002e12:	60fb      	str	r3, [r7, #12]
		d += v;		// Error correction
 8002e14:	1d3b      	adds	r3, r7, #4
 8002e16:	781b      	ldrb	r3, [r3, #0]
 8002e18:	68fa      	ldr	r2, [r7, #12]
 8002e1a:	18d3      	adds	r3, r2, r3
 8002e1c:	60fb      	str	r3, [r7, #12]
		*r = d >> 16;
 8002e1e:	68fb      	ldr	r3, [r7, #12]
 8002e20:	0c1b      	lsrs	r3, r3, #16
 8002e22:	b2da      	uxtb	r2, r3
 8002e24:	683b      	ldr	r3, [r7, #0]
 8002e26:	701a      	strb	r2, [r3, #0]
 8002e28:	e01f      	b.n	8002e6a <fast_hsv2rgb_32bit+0x1b2>
	} else {
		// *r = ...slope_down...;
		d = v * (uint32_t)((255 << 8) - (uint16_t)(s * h_fraction));
 8002e2a:	1d3b      	adds	r3, r7, #4
 8002e2c:	781b      	ldrb	r3, [r3, #0]
 8002e2e:	1d7a      	adds	r2, r7, #5
 8002e30:	7812      	ldrb	r2, [r2, #0]
 8002e32:	b292      	uxth	r2, r2
 8002e34:	2111      	movs	r1, #17
 8002e36:	1879      	adds	r1, r7, r1
 8002e38:	7809      	ldrb	r1, [r1, #0]
 8002e3a:	b289      	uxth	r1, r1
 8002e3c:	434a      	muls	r2, r1
 8002e3e:	b292      	uxth	r2, r2
 8002e40:	0011      	movs	r1, r2
 8002e42:	22ff      	movs	r2, #255	; 0xff
 8002e44:	0212      	lsls	r2, r2, #8
 8002e46:	1a52      	subs	r2, r2, r1
 8002e48:	4353      	muls	r3, r2
 8002e4a:	60fb      	str	r3, [r7, #12]
		d += d >> 8;	// Error correction
 8002e4c:	68fb      	ldr	r3, [r7, #12]
 8002e4e:	0a1b      	lsrs	r3, r3, #8
 8002e50:	68fa      	ldr	r2, [r7, #12]
 8002e52:	18d3      	adds	r3, r2, r3
 8002e54:	60fb      	str	r3, [r7, #12]
		d += v;		// Error correction
 8002e56:	1d3b      	adds	r3, r7, #4
 8002e58:	781b      	ldrb	r3, [r3, #0]
 8002e5a:	68fa      	ldr	r2, [r7, #12]
 8002e5c:	18d3      	adds	r3, r2, r3
 8002e5e:	60fb      	str	r3, [r7, #12]
		*r = d >> 16;
 8002e60:	68fb      	ldr	r3, [r7, #12]
 8002e62:	0c1b      	lsrs	r3, r3, #16
 8002e64:	b2da      	uxtb	r2, r3
 8002e66:	683b      	ldr	r3, [r7, #0]
 8002e68:	701a      	strb	r2, [r3, #0]
	}
}
 8002e6a:	46bd      	mov	sp, r7
 8002e6c:	b00b      	add	sp, #44	; 0x2c
 8002e6e:	bd90      	pop	{r4, r7, pc}

08002e70 <Reset_Handler>:

  .section .text.Reset_Handler
  .weak Reset_Handler
  .type Reset_Handler, %function
Reset_Handler:
  ldr   r0, =_estack
 8002e70:	4813      	ldr	r0, [pc, #76]	; (8002ec0 <LoopForever+0x2>)
  mov   sp, r0          /* set stack pointer */
 8002e72:	4685      	mov	sp, r0

/*Check if boot space corresponds to test memory*/
 
    LDR R0,=0x00000004
 8002e74:	4813      	ldr	r0, [pc, #76]	; (8002ec4 <LoopForever+0x6>)
    LDR R1, [R0]
 8002e76:	6801      	ldr	r1, [r0, #0]
    LSRS R1, R1, #24
 8002e78:	0e09      	lsrs	r1, r1, #24
    LDR R2,=0x1F
 8002e7a:	4a13      	ldr	r2, [pc, #76]	; (8002ec8 <LoopForever+0xa>)
    CMP R1, R2
 8002e7c:	4291      	cmp	r1, r2
    BNE ApplicationStart
 8002e7e:	d105      	bne.n	8002e8c <ApplicationStart>

 /*SYSCFG clock enable*/

    LDR R0,=0x40021018
 8002e80:	4812      	ldr	r0, [pc, #72]	; (8002ecc <LoopForever+0xe>)
    LDR R1,=0x00000001
 8002e82:	4913      	ldr	r1, [pc, #76]	; (8002ed0 <LoopForever+0x12>)
    STR R1, [R0]
 8002e84:	6001      	str	r1, [r0, #0]

/*Set CFGR1 register with flash memory remap at address 0*/
    LDR R0,=0x40010000
 8002e86:	4813      	ldr	r0, [pc, #76]	; (8002ed4 <LoopForever+0x16>)
    LDR R1,=0x00000000
 8002e88:	4913      	ldr	r1, [pc, #76]	; (8002ed8 <LoopForever+0x1a>)
    STR R1, [R0]
 8002e8a:	6001      	str	r1, [r0, #0]

08002e8c <ApplicationStart>:

ApplicationStart:
/* Copy the data segment initializers from flash to SRAM */
  ldr r0, =_sdata
 8002e8c:	4813      	ldr	r0, [pc, #76]	; (8002edc <LoopForever+0x1e>)
  ldr r1, =_edata
 8002e8e:	4914      	ldr	r1, [pc, #80]	; (8002ee0 <LoopForever+0x22>)
  ldr r2, =_sidata
 8002e90:	4a14      	ldr	r2, [pc, #80]	; (8002ee4 <LoopForever+0x26>)
  movs r3, #0
 8002e92:	2300      	movs	r3, #0
  b LoopCopyDataInit
 8002e94:	e002      	b.n	8002e9c <LoopCopyDataInit>

08002e96 <CopyDataInit>:

CopyDataInit:
  ldr r4, [r2, r3]
 8002e96:	58d4      	ldr	r4, [r2, r3]
  str r4, [r0, r3]
 8002e98:	50c4      	str	r4, [r0, r3]
  adds r3, r3, #4
 8002e9a:	3304      	adds	r3, #4

08002e9c <LoopCopyDataInit>:

LoopCopyDataInit:
  adds r4, r0, r3
 8002e9c:	18c4      	adds	r4, r0, r3
  cmp r4, r1
 8002e9e:	428c      	cmp	r4, r1
  bcc CopyDataInit
 8002ea0:	d3f9      	bcc.n	8002e96 <CopyDataInit>
  
/* Zero fill the bss segment. */
  ldr r2, =_sbss
 8002ea2:	4a11      	ldr	r2, [pc, #68]	; (8002ee8 <LoopForever+0x2a>)
  ldr r4, =_ebss
 8002ea4:	4c11      	ldr	r4, [pc, #68]	; (8002eec <LoopForever+0x2e>)
  movs r3, #0
 8002ea6:	2300      	movs	r3, #0
  b LoopFillZerobss
 8002ea8:	e001      	b.n	8002eae <LoopFillZerobss>

08002eaa <FillZerobss>:

FillZerobss:
  str  r3, [r2]
 8002eaa:	6013      	str	r3, [r2, #0]
  adds r2, r2, #4
 8002eac:	3204      	adds	r2, #4

08002eae <LoopFillZerobss>:

LoopFillZerobss:
  cmp r2, r4
 8002eae:	42a2      	cmp	r2, r4
  bcc FillZerobss
 8002eb0:	d3fb      	bcc.n	8002eaa <FillZerobss>

/* Call the clock system intitialization function.*/
  bl  SystemInit
 8002eb2:	f7fe fb27 	bl	8001504 <SystemInit>
/* Call static constructors */
  bl __libc_init_array
 8002eb6:	f000 f81d 	bl	8002ef4 <__libc_init_array>
/* Call the application's entry point.*/
  bl main
 8002eba:	f7fe fa8b 	bl	80013d4 <main>

08002ebe <LoopForever>:

LoopForever:
    b LoopForever
 8002ebe:	e7fe      	b.n	8002ebe <LoopForever>
  ldr   r0, =_estack
 8002ec0:	20001800 	.word	0x20001800
    LDR R0,=0x00000004
 8002ec4:	00000004 	.word	0x00000004
    LDR R2,=0x1F
 8002ec8:	0000001f 	.word	0x0000001f
    LDR R0,=0x40021018
 8002ecc:	40021018 	.word	0x40021018
    LDR R1,=0x00000001
 8002ed0:	00000001 	.word	0x00000001
    LDR R0,=0x40010000
 8002ed4:	40010000 	.word	0x40010000
    LDR R1,=0x00000000
 8002ed8:	00000000 	.word	0x00000000
  ldr r0, =_sdata
 8002edc:	20000000 	.word	0x20000000
  ldr r1, =_edata
 8002ee0:	2000001c 	.word	0x2000001c
  ldr r2, =_sidata
 8002ee4:	08002f84 	.word	0x08002f84
  ldr r2, =_sbss
 8002ee8:	2000001c 	.word	0x2000001c
  ldr r4, =_ebss
 8002eec:	20000160 	.word	0x20000160

08002ef0 <ADC1_IRQHandler>:
 * @retval : None
*/
    .section .text.Default_Handler,"ax",%progbits
Default_Handler:
Infinite_Loop:
  b Infinite_Loop
 8002ef0:	e7fe      	b.n	8002ef0 <ADC1_IRQHandler>
	...

08002ef4 <__libc_init_array>:
 8002ef4:	b570      	push	{r4, r5, r6, lr}
 8002ef6:	2600      	movs	r6, #0
 8002ef8:	4d0c      	ldr	r5, [pc, #48]	; (8002f2c <__libc_init_array+0x38>)
 8002efa:	4c0d      	ldr	r4, [pc, #52]	; (8002f30 <__libc_init_array+0x3c>)
 8002efc:	1b64      	subs	r4, r4, r5
 8002efe:	10a4      	asrs	r4, r4, #2
 8002f00:	42a6      	cmp	r6, r4
 8002f02:	d109      	bne.n	8002f18 <__libc_init_array+0x24>
 8002f04:	2600      	movs	r6, #0
 8002f06:	f000 f823 	bl	8002f50 <_init>
 8002f0a:	4d0a      	ldr	r5, [pc, #40]	; (8002f34 <__libc_init_array+0x40>)
 8002f0c:	4c0a      	ldr	r4, [pc, #40]	; (8002f38 <__libc_init_array+0x44>)
 8002f0e:	1b64      	subs	r4, r4, r5
 8002f10:	10a4      	asrs	r4, r4, #2
 8002f12:	42a6      	cmp	r6, r4
 8002f14:	d105      	bne.n	8002f22 <__libc_init_array+0x2e>
 8002f16:	bd70      	pop	{r4, r5, r6, pc}
 8002f18:	00b3      	lsls	r3, r6, #2
 8002f1a:	58eb      	ldr	r3, [r5, r3]
 8002f1c:	4798      	blx	r3
 8002f1e:	3601      	adds	r6, #1
 8002f20:	e7ee      	b.n	8002f00 <__libc_init_array+0xc>
 8002f22:	00b3      	lsls	r3, r6, #2
 8002f24:	58eb      	ldr	r3, [r5, r3]
 8002f26:	4798      	blx	r3
 8002f28:	3601      	adds	r6, #1
 8002f2a:	e7f2      	b.n	8002f12 <__libc_init_array+0x1e>
 8002f2c:	08002f7c 	.word	0x08002f7c
 8002f30:	08002f7c 	.word	0x08002f7c
 8002f34:	08002f7c 	.word	0x08002f7c
 8002f38:	08002f80 	.word	0x08002f80

08002f3c <memcpy>:
 8002f3c:	2300      	movs	r3, #0
 8002f3e:	b510      	push	{r4, lr}
 8002f40:	429a      	cmp	r2, r3
 8002f42:	d100      	bne.n	8002f46 <memcpy+0xa>
 8002f44:	bd10      	pop	{r4, pc}
 8002f46:	5ccc      	ldrb	r4, [r1, r3]
 8002f48:	54c4      	strb	r4, [r0, r3]
 8002f4a:	3301      	adds	r3, #1
 8002f4c:	e7f8      	b.n	8002f40 <memcpy+0x4>
	...

08002f50 <_init>:
 8002f50:	b5f8      	push	{r3, r4, r5, r6, r7, lr}
 8002f52:	46c0      	nop			; (mov r8, r8)
 8002f54:	bcf8      	pop	{r3, r4, r5, r6, r7}
 8002f56:	bc08      	pop	{r3}
 8002f58:	469e      	mov	lr, r3
 8002f5a:	4770      	bx	lr

08002f5c <_fini>:
 8002f5c:	b5f8      	push	{r3, r4, r5, r6, r7, lr}
 8002f5e:	46c0      	nop			; (mov r8, r8)
 8002f60:	bcf8      	pop	{r3, r4, r5, r6, r7}
 8002f62:	bc08      	pop	{r3}
 8002f64:	469e      	mov	lr, r3
 8002f66:	4770      	bx	lr
