
POV_Seismograph.elf:     file format elf32-littlearm

Sections:
Idx Name          Size      VMA       LMA       File off  Algn
  0 .isr_vector   000000c0  08000000  08000000  00010000  2**0
                  CONTENTS, ALLOC, LOAD, READONLY, DATA
  1 .text         00007398  080000c0  080000c0  000100c0  2**2
                  CONTENTS, ALLOC, LOAD, READONLY, CODE
  2 .rodata       00000220  08007458  08007458  00017458  2**2
                  CONTENTS, ALLOC, LOAD, READONLY, DATA
  3 .init_array   00000004  08007678  08007678  00017678  2**2
                  CONTENTS, ALLOC, LOAD, DATA
  4 .fini_array   00000004  0800767c  0800767c  0001767c  2**2
                  CONTENTS, ALLOC, LOAD, DATA
  5 .data         00000124  20000000  08007680  00020000  2**2
                  CONTENTS, ALLOC, LOAD, DATA
  6 .bss          00000c94  20000124  080077a4  00020124  2**2
                  ALLOC
  7 ._user_heap_stack 00000080  20000db8  080077a4  00020db8  2**0
                  ALLOC
  8 .ARM.attributes 00000028  00000000  00000000  00020124  2**0
                  CONTENTS, READONLY
  9 .debug_info   00009ffb  00000000  00000000  0002014c  2**0
                  CONTENTS, READONLY, DEBUGGING
 10 .debug_abbrev 00002501  00000000  00000000  0002a147  2**0
                  CONTENTS, READONLY, DEBUGGING
 11 .debug_aranges 00000d40  00000000  00000000  0002c648  2**3
                  CONTENTS, READONLY, DEBUGGING
 12 .debug_ranges 00000c70  00000000  00000000  0002d388  2**3
                  CONTENTS, READONLY, DEBUGGING
 13 .debug_line   00004b95  00000000  00000000  0002dff8  2**0
                  CONTENTS, READONLY, DEBUGGING
 14 .debug_str    000031ae  00000000  00000000  00032b8d  2**0
                  CONTENTS, READONLY, DEBUGGING
 15 .comment      0000007e  00000000  00000000  00035d3b  2**0
                  CONTENTS, READONLY
 16 .debug_frame  000031fc  00000000  00000000  00035dbc  2**2
                  CONTENTS, READONLY, DEBUGGING

Disassembly of section .text:

080000c0 <__do_global_dtors_aux>:
 80000c0:	b510      	push	{r4, lr}
 80000c2:	4c06      	ldr	r4, [pc, #24]	; (80000dc <__do_global_dtors_aux+0x1c>)
 80000c4:	7823      	ldrb	r3, [r4, #0]
 80000c6:	2b00      	cmp	r3, #0
 80000c8:	d107      	bne.n	80000da <__do_global_dtors_aux+0x1a>
 80000ca:	4b05      	ldr	r3, [pc, #20]	; (80000e0 <__do_global_dtors_aux+0x20>)
 80000cc:	2b00      	cmp	r3, #0
 80000ce:	d002      	beq.n	80000d6 <__do_global_dtors_aux+0x16>
 80000d0:	4804      	ldr	r0, [pc, #16]	; (80000e4 <__do_global_dtors_aux+0x24>)
 80000d2:	e000      	b.n	80000d6 <__do_global_dtors_aux+0x16>
 80000d4:	bf00      	nop
 80000d6:	2301      	movs	r3, #1
 80000d8:	7023      	strb	r3, [r4, #0]
 80000da:	bd10      	pop	{r4, pc}
 80000dc:	20000124 	.word	0x20000124
 80000e0:	00000000 	.word	0x00000000
 80000e4:	08007440 	.word	0x08007440

080000e8 <frame_dummy>:
 80000e8:	4b04      	ldr	r3, [pc, #16]	; (80000fc <frame_dummy+0x14>)
 80000ea:	b510      	push	{r4, lr}
 80000ec:	2b00      	cmp	r3, #0
 80000ee:	d003      	beq.n	80000f8 <frame_dummy+0x10>
 80000f0:	4903      	ldr	r1, [pc, #12]	; (8000100 <frame_dummy+0x18>)
 80000f2:	4804      	ldr	r0, [pc, #16]	; (8000104 <frame_dummy+0x1c>)
 80000f4:	e000      	b.n	80000f8 <frame_dummy+0x10>
 80000f6:	bf00      	nop
 80000f8:	bd10      	pop	{r4, pc}
 80000fa:	46c0      	nop			; (mov r8, r8)
 80000fc:	00000000 	.word	0x00000000
 8000100:	20000128 	.word	0x20000128
 8000104:	08007440 	.word	0x08007440

08000108 <__aeabi_uidiv>:
 8000108:	2200      	movs	r2, #0
 800010a:	0843      	lsrs	r3, r0, #1
 800010c:	428b      	cmp	r3, r1
 800010e:	d374      	bcc.n	80001fa <__aeabi_uidiv+0xf2>
 8000110:	0903      	lsrs	r3, r0, #4
 8000112:	428b      	cmp	r3, r1
 8000114:	d35f      	bcc.n	80001d6 <__aeabi_uidiv+0xce>
 8000116:	0a03      	lsrs	r3, r0, #8
 8000118:	428b      	cmp	r3, r1
 800011a:	d344      	bcc.n	80001a6 <__aeabi_uidiv+0x9e>
 800011c:	0b03      	lsrs	r3, r0, #12
 800011e:	428b      	cmp	r3, r1
 8000120:	d328      	bcc.n	8000174 <__aeabi_uidiv+0x6c>
 8000122:	0c03      	lsrs	r3, r0, #16
 8000124:	428b      	cmp	r3, r1
 8000126:	d30d      	bcc.n	8000144 <__aeabi_uidiv+0x3c>
 8000128:	22ff      	movs	r2, #255	; 0xff
 800012a:	0209      	lsls	r1, r1, #8
 800012c:	ba12      	rev	r2, r2
 800012e:	0c03      	lsrs	r3, r0, #16
 8000130:	428b      	cmp	r3, r1
 8000132:	d302      	bcc.n	800013a <__aeabi_uidiv+0x32>
 8000134:	1212      	asrs	r2, r2, #8
 8000136:	0209      	lsls	r1, r1, #8
 8000138:	d065      	beq.n	8000206 <__aeabi_uidiv+0xfe>
 800013a:	0b03      	lsrs	r3, r0, #12
 800013c:	428b      	cmp	r3, r1
 800013e:	d319      	bcc.n	8000174 <__aeabi_uidiv+0x6c>
 8000140:	e000      	b.n	8000144 <__aeabi_uidiv+0x3c>
 8000142:	0a09      	lsrs	r1, r1, #8
 8000144:	0bc3      	lsrs	r3, r0, #15
 8000146:	428b      	cmp	r3, r1
 8000148:	d301      	bcc.n	800014e <__aeabi_uidiv+0x46>
 800014a:	03cb      	lsls	r3, r1, #15
 800014c:	1ac0      	subs	r0, r0, r3
 800014e:	4152      	adcs	r2, r2
 8000150:	0b83      	lsrs	r3, r0, #14
 8000152:	428b      	cmp	r3, r1
 8000154:	d301      	bcc.n	800015a <__aeabi_uidiv+0x52>
 8000156:	038b      	lsls	r3, r1, #14
 8000158:	1ac0      	subs	r0, r0, r3
 800015a:	4152      	adcs	r2, r2
 800015c:	0b43      	lsrs	r3, r0, #13
 800015e:	428b      	cmp	r3, r1
 8000160:	d301      	bcc.n	8000166 <__aeabi_uidiv+0x5e>
 8000162:	034b      	lsls	r3, r1, #13
 8000164:	1ac0      	subs	r0, r0, r3
 8000166:	4152      	adcs	r2, r2
 8000168:	0b03      	lsrs	r3, r0, #12
 800016a:	428b      	cmp	r3, r1
 800016c:	d301      	bcc.n	8000172 <__aeabi_uidiv+0x6a>
 800016e:	030b      	lsls	r3, r1, #12
 8000170:	1ac0      	subs	r0, r0, r3
 8000172:	4152      	adcs	r2, r2
 8000174:	0ac3      	lsrs	r3, r0, #11
 8000176:	428b      	cmp	r3, r1
 8000178:	d301      	bcc.n	800017e <__aeabi_uidiv+0x76>
 800017a:	02cb      	lsls	r3, r1, #11
 800017c:	1ac0      	subs	r0, r0, r3
 800017e:	4152      	adcs	r2, r2
 8000180:	0a83      	lsrs	r3, r0, #10
 8000182:	428b      	cmp	r3, r1
 8000184:	d301      	bcc.n	800018a <__aeabi_uidiv+0x82>
 8000186:	028b      	lsls	r3, r1, #10
 8000188:	1ac0      	subs	r0, r0, r3
 800018a:	4152      	adcs	r2, r2
 800018c:	0a43      	lsrs	r3, r0, #9
 800018e:	428b      	cmp	r3, r1
 8000190:	d301      	bcc.n	8000196 <__aeabi_uidiv+0x8e>
 8000192:	024b      	lsls	r3, r1, #9
 8000194:	1ac0      	subs	r0, r0, r3
 8000196:	4152      	adcs	r2, r2
 8000198:	0a03      	lsrs	r3, r0, #8
 800019a:	428b      	cmp	r3, r1
 800019c:	d301      	bcc.n	80001a2 <__aeabi_uidiv+0x9a>
 800019e:	020b      	lsls	r3, r1, #8
 80001a0:	1ac0      	subs	r0, r0, r3
 80001a2:	4152      	adcs	r2, r2
 80001a4:	d2cd      	bcs.n	8000142 <__aeabi_uidiv+0x3a>
 80001a6:	09c3      	lsrs	r3, r0, #7
 80001a8:	428b      	cmp	r3, r1
 80001aa:	d301      	bcc.n	80001b0 <__aeabi_uidiv+0xa8>
 80001ac:	01cb      	lsls	r3, r1, #7
 80001ae:	1ac0      	subs	r0, r0, r3
 80001b0:	4152      	adcs	r2, r2
 80001b2:	0983      	lsrs	r3, r0, #6
 80001b4:	428b      	cmp	r3, r1
 80001b6:	d301      	bcc.n	80001bc <__aeabi_uidiv+0xb4>
 80001b8:	018b      	lsls	r3, r1, #6
 80001ba:	1ac0      	subs	r0, r0, r3
 80001bc:	4152      	adcs	r2, r2
 80001be:	0943      	lsrs	r3, r0, #5
 80001c0:	428b      	cmp	r3, r1
 80001c2:	d301      	bcc.n	80001c8 <__aeabi_uidiv+0xc0>
 80001c4:	014b      	lsls	r3, r1, #5
 80001c6:	1ac0      	subs	r0, r0, r3
 80001c8:	4152      	adcs	r2, r2
 80001ca:	0903      	lsrs	r3, r0, #4
 80001cc:	428b      	cmp	r3, r1
 80001ce:	d301      	bcc.n	80001d4 <__aeabi_uidiv+0xcc>
 80001d0:	010b      	lsls	r3, r1, #4
 80001d2:	1ac0      	subs	r0, r0, r3
 80001d4:	4152      	adcs	r2, r2
 80001d6:	08c3      	lsrs	r3, r0, #3
 80001d8:	428b      	cmp	r3, r1
 80001da:	d301      	bcc.n	80001e0 <__aeabi_uidiv+0xd8>
 80001dc:	00cb      	lsls	r3, r1, #3
 80001de:	1ac0      	subs	r0, r0, r3
 80001e0:	4152      	adcs	r2, r2
 80001e2:	0883      	lsrs	r3, r0, #2
 80001e4:	428b      	cmp	r3, r1
 80001e6:	d301      	bcc.n	80001ec <__aeabi_uidiv+0xe4>
 80001e8:	008b      	lsls	r3, r1, #2
 80001ea:	1ac0      	subs	r0, r0, r3
 80001ec:	4152      	adcs	r2, r2
 80001ee:	0843      	lsrs	r3, r0, #1
 80001f0:	428b      	cmp	r3, r1
 80001f2:	d301      	bcc.n	80001f8 <__aeabi_uidiv+0xf0>
 80001f4:	004b      	lsls	r3, r1, #1
 80001f6:	1ac0      	subs	r0, r0, r3
 80001f8:	4152      	adcs	r2, r2
 80001fa:	1a41      	subs	r1, r0, r1
 80001fc:	d200      	bcs.n	8000200 <__aeabi_uidiv+0xf8>
 80001fe:	4601      	mov	r1, r0
 8000200:	4152      	adcs	r2, r2
 8000202:	4610      	mov	r0, r2
 8000204:	4770      	bx	lr
 8000206:	e7ff      	b.n	8000208 <__aeabi_uidiv+0x100>
 8000208:	b501      	push	{r0, lr}
 800020a:	2000      	movs	r0, #0
 800020c:	f000 f806 	bl	800021c <__aeabi_idiv0>
 8000210:	bd02      	pop	{r1, pc}
 8000212:	46c0      	nop			; (mov r8, r8)

08000214 <__aeabi_uidivmod>:
 8000214:	2900      	cmp	r1, #0
 8000216:	d0f7      	beq.n	8000208 <__aeabi_uidiv+0x100>
 8000218:	e776      	b.n	8000108 <__aeabi_uidiv>
 800021a:	4770      	bx	lr

0800021c <__aeabi_idiv0>:
 800021c:	4770      	bx	lr
 800021e:	46c0      	nop			; (mov r8, r8)

08000220 <__aeabi_cdrcmple>:
 8000220:	4684      	mov	ip, r0
 8000222:	1c10      	adds	r0, r2, #0
 8000224:	4662      	mov	r2, ip
 8000226:	468c      	mov	ip, r1
 8000228:	1c19      	adds	r1, r3, #0
 800022a:	4663      	mov	r3, ip
 800022c:	e000      	b.n	8000230 <__aeabi_cdcmpeq>
 800022e:	46c0      	nop			; (mov r8, r8)

08000230 <__aeabi_cdcmpeq>:
 8000230:	b51f      	push	{r0, r1, r2, r3, r4, lr}
 8000232:	f000 ff37 	bl	80010a4 <__ledf2>
 8000236:	2800      	cmp	r0, #0
 8000238:	d401      	bmi.n	800023e <__aeabi_cdcmpeq+0xe>
 800023a:	2100      	movs	r1, #0
 800023c:	42c8      	cmn	r0, r1
 800023e:	bd1f      	pop	{r0, r1, r2, r3, r4, pc}

08000240 <__aeabi_dcmpeq>:
 8000240:	b510      	push	{r4, lr}
 8000242:	f000 fe8b 	bl	8000f5c <__eqdf2>
 8000246:	4240      	negs	r0, r0
 8000248:	3001      	adds	r0, #1
 800024a:	bd10      	pop	{r4, pc}

0800024c <__aeabi_dcmplt>:
 800024c:	b510      	push	{r4, lr}
 800024e:	f000 ff29 	bl	80010a4 <__ledf2>
 8000252:	2800      	cmp	r0, #0
 8000254:	db01      	blt.n	800025a <__aeabi_dcmplt+0xe>
 8000256:	2000      	movs	r0, #0
 8000258:	bd10      	pop	{r4, pc}
 800025a:	2001      	movs	r0, #1
 800025c:	bd10      	pop	{r4, pc}
 800025e:	46c0      	nop			; (mov r8, r8)

08000260 <__aeabi_dcmple>:
 8000260:	b510      	push	{r4, lr}
 8000262:	f000 ff1f 	bl	80010a4 <__ledf2>
 8000266:	2800      	cmp	r0, #0
 8000268:	dd01      	ble.n	800026e <__aeabi_dcmple+0xe>
 800026a:	2000      	movs	r0, #0
 800026c:	bd10      	pop	{r4, pc}
 800026e:	2001      	movs	r0, #1
 8000270:	bd10      	pop	{r4, pc}
 8000272:	46c0      	nop			; (mov r8, r8)

08000274 <__aeabi_dcmpgt>:
 8000274:	b510      	push	{r4, lr}
 8000276:	f000 feb1 	bl	8000fdc <__gedf2>
 800027a:	2800      	cmp	r0, #0
 800027c:	dc01      	bgt.n	8000282 <__aeabi_dcmpgt+0xe>
 800027e:	2000      	movs	r0, #0
 8000280:	bd10      	pop	{r4, pc}
 8000282:	2001      	movs	r0, #1
 8000284:	bd10      	pop	{r4, pc}
 8000286:	46c0      	nop			; (mov r8, r8)

08000288 <__aeabi_dcmpge>:
 8000288:	b510      	push	{r4, lr}
 800028a:	f000 fea7 	bl	8000fdc <__gedf2>
 800028e:	2800      	cmp	r0, #0
 8000290:	da01      	bge.n	8000296 <__aeabi_dcmpge+0xe>
 8000292:	2000      	movs	r0, #0
 8000294:	bd10      	pop	{r4, pc}
 8000296:	2001      	movs	r0, #1
 8000298:	bd10      	pop	{r4, pc}
 800029a:	46c0      	nop			; (mov r8, r8)

0800029c <__aeabi_d2uiz>:
 800029c:	b570      	push	{r4, r5, r6, lr}
 800029e:	2200      	movs	r2, #0
 80002a0:	4b0c      	ldr	r3, [pc, #48]	; (80002d4 <__aeabi_d2uiz+0x38>)
 80002a2:	0004      	movs	r4, r0
 80002a4:	000d      	movs	r5, r1
 80002a6:	f7ff ffef 	bl	8000288 <__aeabi_dcmpge>
 80002aa:	2800      	cmp	r0, #0
 80002ac:	d104      	bne.n	80002b8 <__aeabi_d2uiz+0x1c>
 80002ae:	0020      	movs	r0, r4
 80002b0:	0029      	movs	r1, r5
 80002b2:	f001 fd4f 	bl	8001d54 <__aeabi_d2iz>
 80002b6:	bd70      	pop	{r4, r5, r6, pc}
 80002b8:	4b06      	ldr	r3, [pc, #24]	; (80002d4 <__aeabi_d2uiz+0x38>)
 80002ba:	2200      	movs	r2, #0
 80002bc:	0020      	movs	r0, r4
 80002be:	0029      	movs	r1, r5
 80002c0:	f001 f9d4 	bl	800166c <__aeabi_dsub>
 80002c4:	f001 fd46 	bl	8001d54 <__aeabi_d2iz>
 80002c8:	2380      	movs	r3, #128	; 0x80
 80002ca:	061b      	lsls	r3, r3, #24
 80002cc:	469c      	mov	ip, r3
 80002ce:	4460      	add	r0, ip
 80002d0:	e7f1      	b.n	80002b6 <__aeabi_d2uiz+0x1a>
 80002d2:	46c0      	nop			; (mov r8, r8)
 80002d4:	41e00000 	.word	0x41e00000

080002d8 <__aeabi_dadd>:
 80002d8:	b5f8      	push	{r3, r4, r5, r6, r7, lr}
 80002da:	4656      	mov	r6, sl
 80002dc:	465f      	mov	r7, fp
 80002de:	464d      	mov	r5, r9
 80002e0:	4644      	mov	r4, r8
 80002e2:	b4f0      	push	{r4, r5, r6, r7}
 80002e4:	000f      	movs	r7, r1
 80002e6:	0ffd      	lsrs	r5, r7, #31
 80002e8:	46aa      	mov	sl, r5
 80002ea:	0309      	lsls	r1, r1, #12
 80002ec:	007c      	lsls	r4, r7, #1
 80002ee:	002e      	movs	r6, r5
 80002f0:	005f      	lsls	r7, r3, #1
 80002f2:	0f45      	lsrs	r5, r0, #29
 80002f4:	0a49      	lsrs	r1, r1, #9
 80002f6:	0d7f      	lsrs	r7, r7, #21
 80002f8:	4329      	orrs	r1, r5
 80002fa:	00c5      	lsls	r5, r0, #3
 80002fc:	0318      	lsls	r0, r3, #12
 80002fe:	46bc      	mov	ip, r7
 8000300:	0a40      	lsrs	r0, r0, #9
 8000302:	0f57      	lsrs	r7, r2, #29
 8000304:	0d64      	lsrs	r4, r4, #21
 8000306:	0fdb      	lsrs	r3, r3, #31
 8000308:	4338      	orrs	r0, r7
 800030a:	00d2      	lsls	r2, r2, #3
 800030c:	459a      	cmp	sl, r3
 800030e:	d100      	bne.n	8000312 <__aeabi_dadd+0x3a>
 8000310:	e0aa      	b.n	8000468 <__aeabi_dadd+0x190>
 8000312:	4666      	mov	r6, ip
 8000314:	1ba6      	subs	r6, r4, r6
 8000316:	2e00      	cmp	r6, #0
 8000318:	dc00      	bgt.n	800031c <__aeabi_dadd+0x44>
 800031a:	e0ff      	b.n	800051c <__aeabi_dadd+0x244>
 800031c:	4663      	mov	r3, ip
 800031e:	2b00      	cmp	r3, #0
 8000320:	d139      	bne.n	8000396 <__aeabi_dadd+0xbe>
 8000322:	0003      	movs	r3, r0
 8000324:	4313      	orrs	r3, r2
 8000326:	d000      	beq.n	800032a <__aeabi_dadd+0x52>
 8000328:	e0d9      	b.n	80004de <__aeabi_dadd+0x206>
 800032a:	076b      	lsls	r3, r5, #29
 800032c:	d009      	beq.n	8000342 <__aeabi_dadd+0x6a>
 800032e:	230f      	movs	r3, #15
 8000330:	402b      	ands	r3, r5
 8000332:	2b04      	cmp	r3, #4
 8000334:	d005      	beq.n	8000342 <__aeabi_dadd+0x6a>
 8000336:	1d2b      	adds	r3, r5, #4
 8000338:	42ab      	cmp	r3, r5
 800033a:	41ad      	sbcs	r5, r5
 800033c:	426d      	negs	r5, r5
 800033e:	1949      	adds	r1, r1, r5
 8000340:	001d      	movs	r5, r3
 8000342:	020b      	lsls	r3, r1, #8
 8000344:	d400      	bmi.n	8000348 <__aeabi_dadd+0x70>
 8000346:	e082      	b.n	800044e <__aeabi_dadd+0x176>
 8000348:	4bca      	ldr	r3, [pc, #808]	; (8000674 <__aeabi_dadd+0x39c>)
 800034a:	3401      	adds	r4, #1
 800034c:	429c      	cmp	r4, r3
 800034e:	d100      	bne.n	8000352 <__aeabi_dadd+0x7a>
 8000350:	e0fe      	b.n	8000550 <__aeabi_dadd+0x278>
 8000352:	000a      	movs	r2, r1
 8000354:	4656      	mov	r6, sl
 8000356:	4bc8      	ldr	r3, [pc, #800]	; (8000678 <__aeabi_dadd+0x3a0>)
 8000358:	08ed      	lsrs	r5, r5, #3
 800035a:	401a      	ands	r2, r3
 800035c:	0750      	lsls	r0, r2, #29
 800035e:	0564      	lsls	r4, r4, #21
 8000360:	0252      	lsls	r2, r2, #9
 8000362:	4305      	orrs	r5, r0
 8000364:	0b12      	lsrs	r2, r2, #12
 8000366:	0d64      	lsrs	r4, r4, #21
 8000368:	2100      	movs	r1, #0
 800036a:	0312      	lsls	r2, r2, #12
 800036c:	0d0b      	lsrs	r3, r1, #20
 800036e:	051b      	lsls	r3, r3, #20
 8000370:	0564      	lsls	r4, r4, #21
 8000372:	0b12      	lsrs	r2, r2, #12
 8000374:	431a      	orrs	r2, r3
 8000376:	0863      	lsrs	r3, r4, #1
 8000378:	4cc0      	ldr	r4, [pc, #768]	; (800067c <__aeabi_dadd+0x3a4>)
 800037a:	07f6      	lsls	r6, r6, #31
 800037c:	4014      	ands	r4, r2
 800037e:	431c      	orrs	r4, r3
 8000380:	0064      	lsls	r4, r4, #1
 8000382:	0864      	lsrs	r4, r4, #1
 8000384:	4334      	orrs	r4, r6
 8000386:	0028      	movs	r0, r5
 8000388:	0021      	movs	r1, r4
 800038a:	bc3c      	pop	{r2, r3, r4, r5}
 800038c:	4690      	mov	r8, r2
 800038e:	4699      	mov	r9, r3
 8000390:	46a2      	mov	sl, r4
 8000392:	46ab      	mov	fp, r5
 8000394:	bdf8      	pop	{r3, r4, r5, r6, r7, pc}
 8000396:	4bb7      	ldr	r3, [pc, #732]	; (8000674 <__aeabi_dadd+0x39c>)
 8000398:	429c      	cmp	r4, r3
 800039a:	d0c6      	beq.n	800032a <__aeabi_dadd+0x52>
 800039c:	2380      	movs	r3, #128	; 0x80
 800039e:	041b      	lsls	r3, r3, #16
 80003a0:	4318      	orrs	r0, r3
 80003a2:	2e38      	cmp	r6, #56	; 0x38
 80003a4:	dd00      	ble.n	80003a8 <__aeabi_dadd+0xd0>
 80003a6:	e0eb      	b.n	8000580 <__aeabi_dadd+0x2a8>
 80003a8:	2e1f      	cmp	r6, #31
 80003aa:	dd00      	ble.n	80003ae <__aeabi_dadd+0xd6>
 80003ac:	e11e      	b.n	80005ec <__aeabi_dadd+0x314>
 80003ae:	2320      	movs	r3, #32
 80003b0:	1b9b      	subs	r3, r3, r6
 80003b2:	469c      	mov	ip, r3
 80003b4:	0003      	movs	r3, r0
 80003b6:	4667      	mov	r7, ip
 80003b8:	40bb      	lsls	r3, r7
 80003ba:	4698      	mov	r8, r3
 80003bc:	0013      	movs	r3, r2
 80003be:	4647      	mov	r7, r8
 80003c0:	40f3      	lsrs	r3, r6
 80003c2:	433b      	orrs	r3, r7
 80003c4:	4667      	mov	r7, ip
 80003c6:	40ba      	lsls	r2, r7
 80003c8:	1e57      	subs	r7, r2, #1
 80003ca:	41ba      	sbcs	r2, r7
 80003cc:	4313      	orrs	r3, r2
 80003ce:	0002      	movs	r2, r0
 80003d0:	40f2      	lsrs	r2, r6
 80003d2:	1aeb      	subs	r3, r5, r3
 80003d4:	429d      	cmp	r5, r3
 80003d6:	41b6      	sbcs	r6, r6
 80003d8:	001d      	movs	r5, r3
 80003da:	1a8a      	subs	r2, r1, r2
 80003dc:	4276      	negs	r6, r6
 80003de:	1b91      	subs	r1, r2, r6
 80003e0:	020b      	lsls	r3, r1, #8
 80003e2:	d531      	bpl.n	8000448 <__aeabi_dadd+0x170>
 80003e4:	024a      	lsls	r2, r1, #9
 80003e6:	0a56      	lsrs	r6, r2, #9
 80003e8:	2e00      	cmp	r6, #0
 80003ea:	d100      	bne.n	80003ee <__aeabi_dadd+0x116>
 80003ec:	e0b4      	b.n	8000558 <__aeabi_dadd+0x280>
 80003ee:	0030      	movs	r0, r6
 80003f0:	f001 fd60 	bl	8001eb4 <__clzsi2>
 80003f4:	0003      	movs	r3, r0
 80003f6:	3b08      	subs	r3, #8
 80003f8:	2b1f      	cmp	r3, #31
 80003fa:	dd00      	ble.n	80003fe <__aeabi_dadd+0x126>
 80003fc:	e0b5      	b.n	800056a <__aeabi_dadd+0x292>
 80003fe:	2220      	movs	r2, #32
 8000400:	0029      	movs	r1, r5
 8000402:	1ad2      	subs	r2, r2, r3
 8000404:	40d1      	lsrs	r1, r2
 8000406:	409e      	lsls	r6, r3
 8000408:	000a      	movs	r2, r1
 800040a:	409d      	lsls	r5, r3
 800040c:	4332      	orrs	r2, r6
 800040e:	429c      	cmp	r4, r3
 8000410:	dd00      	ble.n	8000414 <__aeabi_dadd+0x13c>
 8000412:	e0b1      	b.n	8000578 <__aeabi_dadd+0x2a0>
 8000414:	1b1c      	subs	r4, r3, r4
 8000416:	1c63      	adds	r3, r4, #1
 8000418:	2b1f      	cmp	r3, #31
 800041a:	dd00      	ble.n	800041e <__aeabi_dadd+0x146>
 800041c:	e0d5      	b.n	80005ca <__aeabi_dadd+0x2f2>
 800041e:	2120      	movs	r1, #32
 8000420:	0014      	movs	r4, r2
 8000422:	0028      	movs	r0, r5
 8000424:	1ac9      	subs	r1, r1, r3
 8000426:	408c      	lsls	r4, r1
 8000428:	40d8      	lsrs	r0, r3
 800042a:	408d      	lsls	r5, r1
 800042c:	4304      	orrs	r4, r0
 800042e:	40da      	lsrs	r2, r3
 8000430:	1e68      	subs	r0, r5, #1
 8000432:	4185      	sbcs	r5, r0
 8000434:	0011      	movs	r1, r2
 8000436:	4325      	orrs	r5, r4
 8000438:	2400      	movs	r4, #0
 800043a:	e776      	b.n	800032a <__aeabi_dadd+0x52>
 800043c:	4641      	mov	r1, r8
 800043e:	4331      	orrs	r1, r6
 8000440:	d100      	bne.n	8000444 <__aeabi_dadd+0x16c>
 8000442:	e234      	b.n	80008ae <__aeabi_dadd+0x5d6>
 8000444:	0031      	movs	r1, r6
 8000446:	4645      	mov	r5, r8
 8000448:	076b      	lsls	r3, r5, #29
 800044a:	d000      	beq.n	800044e <__aeabi_dadd+0x176>
 800044c:	e76f      	b.n	800032e <__aeabi_dadd+0x56>
 800044e:	4656      	mov	r6, sl
 8000450:	0748      	lsls	r0, r1, #29
 8000452:	08ed      	lsrs	r5, r5, #3
 8000454:	08c9      	lsrs	r1, r1, #3
 8000456:	4305      	orrs	r5, r0
 8000458:	4b86      	ldr	r3, [pc, #536]	; (8000674 <__aeabi_dadd+0x39c>)
 800045a:	429c      	cmp	r4, r3
 800045c:	d035      	beq.n	80004ca <__aeabi_dadd+0x1f2>
 800045e:	030a      	lsls	r2, r1, #12
 8000460:	0564      	lsls	r4, r4, #21
 8000462:	0b12      	lsrs	r2, r2, #12
 8000464:	0d64      	lsrs	r4, r4, #21
 8000466:	e77f      	b.n	8000368 <__aeabi_dadd+0x90>
 8000468:	4663      	mov	r3, ip
 800046a:	1ae3      	subs	r3, r4, r3
 800046c:	469b      	mov	fp, r3
 800046e:	2b00      	cmp	r3, #0
 8000470:	dc00      	bgt.n	8000474 <__aeabi_dadd+0x19c>
 8000472:	e08b      	b.n	800058c <__aeabi_dadd+0x2b4>
 8000474:	4667      	mov	r7, ip
 8000476:	2f00      	cmp	r7, #0
 8000478:	d03c      	beq.n	80004f4 <__aeabi_dadd+0x21c>
 800047a:	4f7e      	ldr	r7, [pc, #504]	; (8000674 <__aeabi_dadd+0x39c>)
 800047c:	42bc      	cmp	r4, r7
 800047e:	d100      	bne.n	8000482 <__aeabi_dadd+0x1aa>
 8000480:	e753      	b.n	800032a <__aeabi_dadd+0x52>
 8000482:	2780      	movs	r7, #128	; 0x80
 8000484:	043f      	lsls	r7, r7, #16
 8000486:	4338      	orrs	r0, r7
 8000488:	465b      	mov	r3, fp
 800048a:	2b38      	cmp	r3, #56	; 0x38
 800048c:	dc00      	bgt.n	8000490 <__aeabi_dadd+0x1b8>
 800048e:	e0f7      	b.n	8000680 <__aeabi_dadd+0x3a8>
 8000490:	4302      	orrs	r2, r0
 8000492:	1e50      	subs	r0, r2, #1
 8000494:	4182      	sbcs	r2, r0
 8000496:	2000      	movs	r0, #0
 8000498:	b2d2      	uxtb	r2, r2
 800049a:	1953      	adds	r3, r2, r5
 800049c:	1842      	adds	r2, r0, r1
 800049e:	42ab      	cmp	r3, r5
 80004a0:	4189      	sbcs	r1, r1
 80004a2:	001d      	movs	r5, r3
 80004a4:	4249      	negs	r1, r1
 80004a6:	1889      	adds	r1, r1, r2
 80004a8:	020b      	lsls	r3, r1, #8
 80004aa:	d5cd      	bpl.n	8000448 <__aeabi_dadd+0x170>
 80004ac:	4b71      	ldr	r3, [pc, #452]	; (8000674 <__aeabi_dadd+0x39c>)
 80004ae:	3401      	adds	r4, #1
 80004b0:	429c      	cmp	r4, r3
 80004b2:	d100      	bne.n	80004b6 <__aeabi_dadd+0x1de>
 80004b4:	e13d      	b.n	8000732 <__aeabi_dadd+0x45a>
 80004b6:	2001      	movs	r0, #1
 80004b8:	4a6f      	ldr	r2, [pc, #444]	; (8000678 <__aeabi_dadd+0x3a0>)
 80004ba:	086b      	lsrs	r3, r5, #1
 80004bc:	400a      	ands	r2, r1
 80004be:	4028      	ands	r0, r5
 80004c0:	4318      	orrs	r0, r3
 80004c2:	07d5      	lsls	r5, r2, #31
 80004c4:	4305      	orrs	r5, r0
 80004c6:	0851      	lsrs	r1, r2, #1
 80004c8:	e72f      	b.n	800032a <__aeabi_dadd+0x52>
 80004ca:	002b      	movs	r3, r5
 80004cc:	430b      	orrs	r3, r1
 80004ce:	d100      	bne.n	80004d2 <__aeabi_dadd+0x1fa>
 80004d0:	e1cb      	b.n	800086a <__aeabi_dadd+0x592>
 80004d2:	2380      	movs	r3, #128	; 0x80
 80004d4:	031b      	lsls	r3, r3, #12
 80004d6:	430b      	orrs	r3, r1
 80004d8:	031a      	lsls	r2, r3, #12
 80004da:	0b12      	lsrs	r2, r2, #12
 80004dc:	e744      	b.n	8000368 <__aeabi_dadd+0x90>
 80004de:	3e01      	subs	r6, #1
 80004e0:	2e00      	cmp	r6, #0
 80004e2:	d16d      	bne.n	80005c0 <__aeabi_dadd+0x2e8>
 80004e4:	1aae      	subs	r6, r5, r2
 80004e6:	42b5      	cmp	r5, r6
 80004e8:	419b      	sbcs	r3, r3
 80004ea:	1a09      	subs	r1, r1, r0
 80004ec:	425b      	negs	r3, r3
 80004ee:	1ac9      	subs	r1, r1, r3
 80004f0:	0035      	movs	r5, r6
 80004f2:	e775      	b.n	80003e0 <__aeabi_dadd+0x108>
 80004f4:	0007      	movs	r7, r0
 80004f6:	4317      	orrs	r7, r2
 80004f8:	d100      	bne.n	80004fc <__aeabi_dadd+0x224>
 80004fa:	e716      	b.n	800032a <__aeabi_dadd+0x52>
 80004fc:	2301      	movs	r3, #1
 80004fe:	425b      	negs	r3, r3
 8000500:	469c      	mov	ip, r3
 8000502:	44e3      	add	fp, ip
 8000504:	465b      	mov	r3, fp
 8000506:	2b00      	cmp	r3, #0
 8000508:	d000      	beq.n	800050c <__aeabi_dadd+0x234>
 800050a:	e0e0      	b.n	80006ce <__aeabi_dadd+0x3f6>
 800050c:	18aa      	adds	r2, r5, r2
 800050e:	42aa      	cmp	r2, r5
 8000510:	419b      	sbcs	r3, r3
 8000512:	1809      	adds	r1, r1, r0
 8000514:	425b      	negs	r3, r3
 8000516:	1859      	adds	r1, r3, r1
 8000518:	0015      	movs	r5, r2
 800051a:	e7c5      	b.n	80004a8 <__aeabi_dadd+0x1d0>
 800051c:	2e00      	cmp	r6, #0
 800051e:	d175      	bne.n	800060c <__aeabi_dadd+0x334>
 8000520:	1c66      	adds	r6, r4, #1
 8000522:	0576      	lsls	r6, r6, #21
 8000524:	0d76      	lsrs	r6, r6, #21
 8000526:	2e01      	cmp	r6, #1
 8000528:	dc00      	bgt.n	800052c <__aeabi_dadd+0x254>
 800052a:	e0f3      	b.n	8000714 <__aeabi_dadd+0x43c>
 800052c:	1aae      	subs	r6, r5, r2
 800052e:	46b0      	mov	r8, r6
 8000530:	4545      	cmp	r5, r8
 8000532:	41bf      	sbcs	r7, r7
 8000534:	1a0e      	subs	r6, r1, r0
 8000536:	427f      	negs	r7, r7
 8000538:	1bf6      	subs	r6, r6, r7
 800053a:	0237      	lsls	r7, r6, #8
 800053c:	d400      	bmi.n	8000540 <__aeabi_dadd+0x268>
 800053e:	e08f      	b.n	8000660 <__aeabi_dadd+0x388>
 8000540:	1b55      	subs	r5, r2, r5
 8000542:	42aa      	cmp	r2, r5
 8000544:	41b6      	sbcs	r6, r6
 8000546:	1a41      	subs	r1, r0, r1
 8000548:	4276      	negs	r6, r6
 800054a:	1b8e      	subs	r6, r1, r6
 800054c:	469a      	mov	sl, r3
 800054e:	e74b      	b.n	80003e8 <__aeabi_dadd+0x110>
 8000550:	4656      	mov	r6, sl
 8000552:	2200      	movs	r2, #0
 8000554:	2500      	movs	r5, #0
 8000556:	e707      	b.n	8000368 <__aeabi_dadd+0x90>
 8000558:	0028      	movs	r0, r5
 800055a:	f001 fcab 	bl	8001eb4 <__clzsi2>
 800055e:	3020      	adds	r0, #32
 8000560:	0003      	movs	r3, r0
 8000562:	3b08      	subs	r3, #8
 8000564:	2b1f      	cmp	r3, #31
 8000566:	dc00      	bgt.n	800056a <__aeabi_dadd+0x292>
 8000568:	e749      	b.n	80003fe <__aeabi_dadd+0x126>
 800056a:	002a      	movs	r2, r5
 800056c:	3828      	subs	r0, #40	; 0x28
 800056e:	4082      	lsls	r2, r0
 8000570:	2500      	movs	r5, #0
 8000572:	429c      	cmp	r4, r3
 8000574:	dc00      	bgt.n	8000578 <__aeabi_dadd+0x2a0>
 8000576:	e74d      	b.n	8000414 <__aeabi_dadd+0x13c>
 8000578:	493f      	ldr	r1, [pc, #252]	; (8000678 <__aeabi_dadd+0x3a0>)
 800057a:	1ae4      	subs	r4, r4, r3
 800057c:	4011      	ands	r1, r2
 800057e:	e6d4      	b.n	800032a <__aeabi_dadd+0x52>
 8000580:	4302      	orrs	r2, r0
 8000582:	1e50      	subs	r0, r2, #1
 8000584:	4182      	sbcs	r2, r0
 8000586:	b2d3      	uxtb	r3, r2
 8000588:	2200      	movs	r2, #0
 800058a:	e722      	b.n	80003d2 <__aeabi_dadd+0xfa>
 800058c:	2b00      	cmp	r3, #0
 800058e:	d000      	beq.n	8000592 <__aeabi_dadd+0x2ba>
 8000590:	e0f3      	b.n	800077a <__aeabi_dadd+0x4a2>
 8000592:	1c63      	adds	r3, r4, #1
 8000594:	469c      	mov	ip, r3
 8000596:	055b      	lsls	r3, r3, #21
 8000598:	0d5b      	lsrs	r3, r3, #21
 800059a:	2b01      	cmp	r3, #1
 800059c:	dc00      	bgt.n	80005a0 <__aeabi_dadd+0x2c8>
 800059e:	e09f      	b.n	80006e0 <__aeabi_dadd+0x408>
 80005a0:	4b34      	ldr	r3, [pc, #208]	; (8000674 <__aeabi_dadd+0x39c>)
 80005a2:	459c      	cmp	ip, r3
 80005a4:	d100      	bne.n	80005a8 <__aeabi_dadd+0x2d0>
 80005a6:	e0c3      	b.n	8000730 <__aeabi_dadd+0x458>
 80005a8:	18aa      	adds	r2, r5, r2
 80005aa:	1809      	adds	r1, r1, r0
 80005ac:	42aa      	cmp	r2, r5
 80005ae:	4180      	sbcs	r0, r0
 80005b0:	4240      	negs	r0, r0
 80005b2:	1841      	adds	r1, r0, r1
 80005b4:	07cd      	lsls	r5, r1, #31
 80005b6:	0852      	lsrs	r2, r2, #1
 80005b8:	4315      	orrs	r5, r2
 80005ba:	0849      	lsrs	r1, r1, #1
 80005bc:	4664      	mov	r4, ip
 80005be:	e6b4      	b.n	800032a <__aeabi_dadd+0x52>
 80005c0:	4b2c      	ldr	r3, [pc, #176]	; (8000674 <__aeabi_dadd+0x39c>)
 80005c2:	429c      	cmp	r4, r3
 80005c4:	d000      	beq.n	80005c8 <__aeabi_dadd+0x2f0>
 80005c6:	e6ec      	b.n	80003a2 <__aeabi_dadd+0xca>
 80005c8:	e6af      	b.n	800032a <__aeabi_dadd+0x52>
 80005ca:	0011      	movs	r1, r2
 80005cc:	3c1f      	subs	r4, #31
 80005ce:	40e1      	lsrs	r1, r4
 80005d0:	000c      	movs	r4, r1
 80005d2:	2b20      	cmp	r3, #32
 80005d4:	d100      	bne.n	80005d8 <__aeabi_dadd+0x300>
 80005d6:	e07f      	b.n	80006d8 <__aeabi_dadd+0x400>
 80005d8:	2140      	movs	r1, #64	; 0x40
 80005da:	1acb      	subs	r3, r1, r3
 80005dc:	409a      	lsls	r2, r3
 80005de:	4315      	orrs	r5, r2
 80005e0:	1e6a      	subs	r2, r5, #1
 80005e2:	4195      	sbcs	r5, r2
 80005e4:	2100      	movs	r1, #0
 80005e6:	4325      	orrs	r5, r4
 80005e8:	2400      	movs	r4, #0
 80005ea:	e72d      	b.n	8000448 <__aeabi_dadd+0x170>
 80005ec:	0033      	movs	r3, r6
 80005ee:	0007      	movs	r7, r0
 80005f0:	3b20      	subs	r3, #32
 80005f2:	40df      	lsrs	r7, r3
 80005f4:	003b      	movs	r3, r7
 80005f6:	2e20      	cmp	r6, #32
 80005f8:	d070      	beq.n	80006dc <__aeabi_dadd+0x404>
 80005fa:	2740      	movs	r7, #64	; 0x40
 80005fc:	1bbe      	subs	r6, r7, r6
 80005fe:	40b0      	lsls	r0, r6
 8000600:	4302      	orrs	r2, r0
 8000602:	1e50      	subs	r0, r2, #1
 8000604:	4182      	sbcs	r2, r0
 8000606:	4313      	orrs	r3, r2
 8000608:	2200      	movs	r2, #0
 800060a:	e6e2      	b.n	80003d2 <__aeabi_dadd+0xfa>
 800060c:	2c00      	cmp	r4, #0
 800060e:	d04f      	beq.n	80006b0 <__aeabi_dadd+0x3d8>
 8000610:	4c18      	ldr	r4, [pc, #96]	; (8000674 <__aeabi_dadd+0x39c>)
 8000612:	45a4      	cmp	ip, r4
 8000614:	d100      	bne.n	8000618 <__aeabi_dadd+0x340>
 8000616:	e0ab      	b.n	8000770 <__aeabi_dadd+0x498>
 8000618:	2480      	movs	r4, #128	; 0x80
 800061a:	0424      	lsls	r4, r4, #16
 800061c:	4276      	negs	r6, r6
 800061e:	4321      	orrs	r1, r4
 8000620:	2e38      	cmp	r6, #56	; 0x38
 8000622:	dd00      	ble.n	8000626 <__aeabi_dadd+0x34e>
 8000624:	e0df      	b.n	80007e6 <__aeabi_dadd+0x50e>
 8000626:	2e1f      	cmp	r6, #31
 8000628:	dd00      	ble.n	800062c <__aeabi_dadd+0x354>
 800062a:	e143      	b.n	80008b4 <__aeabi_dadd+0x5dc>
 800062c:	2720      	movs	r7, #32
 800062e:	1bbc      	subs	r4, r7, r6
 8000630:	46a1      	mov	r9, r4
 8000632:	000c      	movs	r4, r1
 8000634:	464f      	mov	r7, r9
 8000636:	40bc      	lsls	r4, r7
 8000638:	46a0      	mov	r8, r4
 800063a:	002c      	movs	r4, r5
 800063c:	4647      	mov	r7, r8
 800063e:	40f4      	lsrs	r4, r6
 8000640:	433c      	orrs	r4, r7
 8000642:	464f      	mov	r7, r9
 8000644:	40bd      	lsls	r5, r7
 8000646:	1e6f      	subs	r7, r5, #1
 8000648:	41bd      	sbcs	r5, r7
 800064a:	40f1      	lsrs	r1, r6
 800064c:	432c      	orrs	r4, r5
 800064e:	1b15      	subs	r5, r2, r4
 8000650:	42aa      	cmp	r2, r5
 8000652:	4192      	sbcs	r2, r2
 8000654:	1a41      	subs	r1, r0, r1
 8000656:	4252      	negs	r2, r2
 8000658:	1a89      	subs	r1, r1, r2
 800065a:	4664      	mov	r4, ip
 800065c:	469a      	mov	sl, r3
 800065e:	e6bf      	b.n	80003e0 <__aeabi_dadd+0x108>
 8000660:	4641      	mov	r1, r8
 8000662:	4645      	mov	r5, r8
 8000664:	4331      	orrs	r1, r6
 8000666:	d000      	beq.n	800066a <__aeabi_dadd+0x392>
 8000668:	e6be      	b.n	80003e8 <__aeabi_dadd+0x110>
 800066a:	2600      	movs	r6, #0
 800066c:	2400      	movs	r4, #0
 800066e:	2500      	movs	r5, #0
 8000670:	e6f2      	b.n	8000458 <__aeabi_dadd+0x180>
 8000672:	46c0      	nop			; (mov r8, r8)
 8000674:	000007ff 	.word	0x000007ff
 8000678:	ff7fffff 	.word	0xff7fffff
 800067c:	800fffff 	.word	0x800fffff
 8000680:	2b1f      	cmp	r3, #31
 8000682:	dc59      	bgt.n	8000738 <__aeabi_dadd+0x460>
 8000684:	2720      	movs	r7, #32
 8000686:	1aff      	subs	r7, r7, r3
 8000688:	46bc      	mov	ip, r7
 800068a:	0007      	movs	r7, r0
 800068c:	4663      	mov	r3, ip
 800068e:	409f      	lsls	r7, r3
 8000690:	465b      	mov	r3, fp
 8000692:	46b9      	mov	r9, r7
 8000694:	0017      	movs	r7, r2
 8000696:	40df      	lsrs	r7, r3
 8000698:	46b8      	mov	r8, r7
 800069a:	464f      	mov	r7, r9
 800069c:	4643      	mov	r3, r8
 800069e:	431f      	orrs	r7, r3
 80006a0:	4663      	mov	r3, ip
 80006a2:	409a      	lsls	r2, r3
 80006a4:	1e53      	subs	r3, r2, #1
 80006a6:	419a      	sbcs	r2, r3
 80006a8:	465b      	mov	r3, fp
 80006aa:	433a      	orrs	r2, r7
 80006ac:	40d8      	lsrs	r0, r3
 80006ae:	e6f4      	b.n	800049a <__aeabi_dadd+0x1c2>
 80006b0:	000c      	movs	r4, r1
 80006b2:	432c      	orrs	r4, r5
 80006b4:	d05c      	beq.n	8000770 <__aeabi_dadd+0x498>
 80006b6:	43f6      	mvns	r6, r6
 80006b8:	2e00      	cmp	r6, #0
 80006ba:	d155      	bne.n	8000768 <__aeabi_dadd+0x490>
 80006bc:	1b55      	subs	r5, r2, r5
 80006be:	42aa      	cmp	r2, r5
 80006c0:	41a4      	sbcs	r4, r4
 80006c2:	1a41      	subs	r1, r0, r1
 80006c4:	4264      	negs	r4, r4
 80006c6:	1b09      	subs	r1, r1, r4
 80006c8:	469a      	mov	sl, r3
 80006ca:	4664      	mov	r4, ip
 80006cc:	e688      	b.n	80003e0 <__aeabi_dadd+0x108>
 80006ce:	4f96      	ldr	r7, [pc, #600]	; (8000928 <__aeabi_dadd+0x650>)
 80006d0:	42bc      	cmp	r4, r7
 80006d2:	d000      	beq.n	80006d6 <__aeabi_dadd+0x3fe>
 80006d4:	e6d8      	b.n	8000488 <__aeabi_dadd+0x1b0>
 80006d6:	e628      	b.n	800032a <__aeabi_dadd+0x52>
 80006d8:	2200      	movs	r2, #0
 80006da:	e780      	b.n	80005de <__aeabi_dadd+0x306>
 80006dc:	2000      	movs	r0, #0
 80006de:	e78f      	b.n	8000600 <__aeabi_dadd+0x328>
 80006e0:	000b      	movs	r3, r1
 80006e2:	432b      	orrs	r3, r5
 80006e4:	2c00      	cmp	r4, #0
 80006e6:	d000      	beq.n	80006ea <__aeabi_dadd+0x412>
 80006e8:	e0c2      	b.n	8000870 <__aeabi_dadd+0x598>
 80006ea:	2b00      	cmp	r3, #0
 80006ec:	d100      	bne.n	80006f0 <__aeabi_dadd+0x418>
 80006ee:	e101      	b.n	80008f4 <__aeabi_dadd+0x61c>
 80006f0:	0003      	movs	r3, r0
 80006f2:	4313      	orrs	r3, r2
 80006f4:	d100      	bne.n	80006f8 <__aeabi_dadd+0x420>
 80006f6:	e618      	b.n	800032a <__aeabi_dadd+0x52>
 80006f8:	18ab      	adds	r3, r5, r2
 80006fa:	42ab      	cmp	r3, r5
 80006fc:	41b6      	sbcs	r6, r6
 80006fe:	1809      	adds	r1, r1, r0
 8000700:	4276      	negs	r6, r6
 8000702:	1871      	adds	r1, r6, r1
 8000704:	020a      	lsls	r2, r1, #8
 8000706:	d400      	bmi.n	800070a <__aeabi_dadd+0x432>
 8000708:	e109      	b.n	800091e <__aeabi_dadd+0x646>
 800070a:	4a88      	ldr	r2, [pc, #544]	; (800092c <__aeabi_dadd+0x654>)
 800070c:	001d      	movs	r5, r3
 800070e:	4011      	ands	r1, r2
 8000710:	4664      	mov	r4, ip
 8000712:	e60a      	b.n	800032a <__aeabi_dadd+0x52>
 8000714:	2c00      	cmp	r4, #0
 8000716:	d15b      	bne.n	80007d0 <__aeabi_dadd+0x4f8>
 8000718:	000e      	movs	r6, r1
 800071a:	432e      	orrs	r6, r5
 800071c:	d000      	beq.n	8000720 <__aeabi_dadd+0x448>
 800071e:	e08a      	b.n	8000836 <__aeabi_dadd+0x55e>
 8000720:	0001      	movs	r1, r0
 8000722:	4311      	orrs	r1, r2
 8000724:	d100      	bne.n	8000728 <__aeabi_dadd+0x450>
 8000726:	e0c2      	b.n	80008ae <__aeabi_dadd+0x5d6>
 8000728:	0001      	movs	r1, r0
 800072a:	0015      	movs	r5, r2
 800072c:	469a      	mov	sl, r3
 800072e:	e5fc      	b.n	800032a <__aeabi_dadd+0x52>
 8000730:	4664      	mov	r4, ip
 8000732:	2100      	movs	r1, #0
 8000734:	2500      	movs	r5, #0
 8000736:	e68f      	b.n	8000458 <__aeabi_dadd+0x180>
 8000738:	2320      	movs	r3, #32
 800073a:	425b      	negs	r3, r3
 800073c:	469c      	mov	ip, r3
 800073e:	44dc      	add	ip, fp
 8000740:	4663      	mov	r3, ip
 8000742:	0007      	movs	r7, r0
 8000744:	40df      	lsrs	r7, r3
 8000746:	465b      	mov	r3, fp
 8000748:	46bc      	mov	ip, r7
 800074a:	2b20      	cmp	r3, #32
 800074c:	d100      	bne.n	8000750 <__aeabi_dadd+0x478>
 800074e:	e0ac      	b.n	80008aa <__aeabi_dadd+0x5d2>
 8000750:	2340      	movs	r3, #64	; 0x40
 8000752:	465f      	mov	r7, fp
 8000754:	1bdb      	subs	r3, r3, r7
 8000756:	4098      	lsls	r0, r3
 8000758:	4302      	orrs	r2, r0
 800075a:	1e50      	subs	r0, r2, #1
 800075c:	4182      	sbcs	r2, r0
 800075e:	4663      	mov	r3, ip
 8000760:	4313      	orrs	r3, r2
 8000762:	001a      	movs	r2, r3
 8000764:	2000      	movs	r0, #0
 8000766:	e698      	b.n	800049a <__aeabi_dadd+0x1c2>
 8000768:	4c6f      	ldr	r4, [pc, #444]	; (8000928 <__aeabi_dadd+0x650>)
 800076a:	45a4      	cmp	ip, r4
 800076c:	d000      	beq.n	8000770 <__aeabi_dadd+0x498>
 800076e:	e757      	b.n	8000620 <__aeabi_dadd+0x348>
 8000770:	0001      	movs	r1, r0
 8000772:	0015      	movs	r5, r2
 8000774:	4664      	mov	r4, ip
 8000776:	469a      	mov	sl, r3
 8000778:	e5d7      	b.n	800032a <__aeabi_dadd+0x52>
 800077a:	2c00      	cmp	r4, #0
 800077c:	d139      	bne.n	80007f2 <__aeabi_dadd+0x51a>
 800077e:	000c      	movs	r4, r1
 8000780:	432c      	orrs	r4, r5
 8000782:	d06e      	beq.n	8000862 <__aeabi_dadd+0x58a>
 8000784:	43db      	mvns	r3, r3
 8000786:	2b00      	cmp	r3, #0
 8000788:	d01a      	beq.n	80007c0 <__aeabi_dadd+0x4e8>
 800078a:	4c67      	ldr	r4, [pc, #412]	; (8000928 <__aeabi_dadd+0x650>)
 800078c:	45a4      	cmp	ip, r4
 800078e:	d068      	beq.n	8000862 <__aeabi_dadd+0x58a>
 8000790:	2b38      	cmp	r3, #56	; 0x38
 8000792:	dd00      	ble.n	8000796 <__aeabi_dadd+0x4be>
 8000794:	e0a4      	b.n	80008e0 <__aeabi_dadd+0x608>
 8000796:	2b1f      	cmp	r3, #31
 8000798:	dd00      	ble.n	800079c <__aeabi_dadd+0x4c4>
 800079a:	e0ae      	b.n	80008fa <__aeabi_dadd+0x622>
 800079c:	2420      	movs	r4, #32
 800079e:	000f      	movs	r7, r1
 80007a0:	1ae4      	subs	r4, r4, r3
 80007a2:	40a7      	lsls	r7, r4
 80007a4:	46b9      	mov	r9, r7
 80007a6:	002f      	movs	r7, r5
 80007a8:	40df      	lsrs	r7, r3
 80007aa:	46b8      	mov	r8, r7
 80007ac:	46a3      	mov	fp, r4
 80007ae:	464f      	mov	r7, r9
 80007b0:	4644      	mov	r4, r8
 80007b2:	4327      	orrs	r7, r4
 80007b4:	465c      	mov	r4, fp
 80007b6:	40a5      	lsls	r5, r4
 80007b8:	1e6c      	subs	r4, r5, #1
 80007ba:	41a5      	sbcs	r5, r4
 80007bc:	40d9      	lsrs	r1, r3
 80007be:	433d      	orrs	r5, r7
 80007c0:	18ad      	adds	r5, r5, r2
 80007c2:	4295      	cmp	r5, r2
 80007c4:	419b      	sbcs	r3, r3
 80007c6:	1809      	adds	r1, r1, r0
 80007c8:	425b      	negs	r3, r3
 80007ca:	1859      	adds	r1, r3, r1
 80007cc:	4664      	mov	r4, ip
 80007ce:	e66b      	b.n	80004a8 <__aeabi_dadd+0x1d0>
 80007d0:	000c      	movs	r4, r1
 80007d2:	432c      	orrs	r4, r5
 80007d4:	d115      	bne.n	8000802 <__aeabi_dadd+0x52a>
 80007d6:	0001      	movs	r1, r0
 80007d8:	4311      	orrs	r1, r2
 80007da:	d07b      	beq.n	80008d4 <__aeabi_dadd+0x5fc>
 80007dc:	0001      	movs	r1, r0
 80007de:	0015      	movs	r5, r2
 80007e0:	469a      	mov	sl, r3
 80007e2:	4c51      	ldr	r4, [pc, #324]	; (8000928 <__aeabi_dadd+0x650>)
 80007e4:	e5a1      	b.n	800032a <__aeabi_dadd+0x52>
 80007e6:	430d      	orrs	r5, r1
 80007e8:	1e69      	subs	r1, r5, #1
 80007ea:	418d      	sbcs	r5, r1
 80007ec:	2100      	movs	r1, #0
 80007ee:	b2ec      	uxtb	r4, r5
 80007f0:	e72d      	b.n	800064e <__aeabi_dadd+0x376>
 80007f2:	4c4d      	ldr	r4, [pc, #308]	; (8000928 <__aeabi_dadd+0x650>)
 80007f4:	45a4      	cmp	ip, r4
 80007f6:	d034      	beq.n	8000862 <__aeabi_dadd+0x58a>
 80007f8:	2480      	movs	r4, #128	; 0x80
 80007fa:	0424      	lsls	r4, r4, #16
 80007fc:	425b      	negs	r3, r3
 80007fe:	4321      	orrs	r1, r4
 8000800:	e7c6      	b.n	8000790 <__aeabi_dadd+0x4b8>
 8000802:	0004      	movs	r4, r0
 8000804:	4314      	orrs	r4, r2
 8000806:	d04e      	beq.n	80008a6 <__aeabi_dadd+0x5ce>
 8000808:	08ed      	lsrs	r5, r5, #3
 800080a:	074c      	lsls	r4, r1, #29
 800080c:	432c      	orrs	r4, r5
 800080e:	2580      	movs	r5, #128	; 0x80
 8000810:	08c9      	lsrs	r1, r1, #3
 8000812:	032d      	lsls	r5, r5, #12
 8000814:	4229      	tst	r1, r5
 8000816:	d008      	beq.n	800082a <__aeabi_dadd+0x552>
 8000818:	08c6      	lsrs	r6, r0, #3
 800081a:	422e      	tst	r6, r5
 800081c:	d105      	bne.n	800082a <__aeabi_dadd+0x552>
 800081e:	08d2      	lsrs	r2, r2, #3
 8000820:	0741      	lsls	r1, r0, #29
 8000822:	4311      	orrs	r1, r2
 8000824:	000c      	movs	r4, r1
 8000826:	469a      	mov	sl, r3
 8000828:	0031      	movs	r1, r6
 800082a:	0f62      	lsrs	r2, r4, #29
 800082c:	00c9      	lsls	r1, r1, #3
 800082e:	00e5      	lsls	r5, r4, #3
 8000830:	4311      	orrs	r1, r2
 8000832:	4c3d      	ldr	r4, [pc, #244]	; (8000928 <__aeabi_dadd+0x650>)
 8000834:	e579      	b.n	800032a <__aeabi_dadd+0x52>
 8000836:	0006      	movs	r6, r0
 8000838:	4316      	orrs	r6, r2
 800083a:	d100      	bne.n	800083e <__aeabi_dadd+0x566>
 800083c:	e575      	b.n	800032a <__aeabi_dadd+0x52>
 800083e:	1aae      	subs	r6, r5, r2
 8000840:	46b0      	mov	r8, r6
 8000842:	4545      	cmp	r5, r8
 8000844:	41bf      	sbcs	r7, r7
 8000846:	1a0e      	subs	r6, r1, r0
 8000848:	427f      	negs	r7, r7
 800084a:	1bf6      	subs	r6, r6, r7
 800084c:	0237      	lsls	r7, r6, #8
 800084e:	d400      	bmi.n	8000852 <__aeabi_dadd+0x57a>
 8000850:	e5f4      	b.n	800043c <__aeabi_dadd+0x164>
 8000852:	1b55      	subs	r5, r2, r5
 8000854:	42aa      	cmp	r2, r5
 8000856:	41b6      	sbcs	r6, r6
 8000858:	1a41      	subs	r1, r0, r1
 800085a:	4276      	negs	r6, r6
 800085c:	1b89      	subs	r1, r1, r6
 800085e:	469a      	mov	sl, r3
 8000860:	e563      	b.n	800032a <__aeabi_dadd+0x52>
 8000862:	0001      	movs	r1, r0
 8000864:	0015      	movs	r5, r2
 8000866:	4664      	mov	r4, ip
 8000868:	e55f      	b.n	800032a <__aeabi_dadd+0x52>
 800086a:	2200      	movs	r2, #0
 800086c:	2500      	movs	r5, #0
 800086e:	e57b      	b.n	8000368 <__aeabi_dadd+0x90>
 8000870:	2b00      	cmp	r3, #0
 8000872:	d03b      	beq.n	80008ec <__aeabi_dadd+0x614>
 8000874:	0003      	movs	r3, r0
 8000876:	4313      	orrs	r3, r2
 8000878:	d015      	beq.n	80008a6 <__aeabi_dadd+0x5ce>
 800087a:	08ed      	lsrs	r5, r5, #3
 800087c:	074b      	lsls	r3, r1, #29
 800087e:	432b      	orrs	r3, r5
 8000880:	2580      	movs	r5, #128	; 0x80
 8000882:	08c9      	lsrs	r1, r1, #3
 8000884:	032d      	lsls	r5, r5, #12
 8000886:	4229      	tst	r1, r5
 8000888:	d007      	beq.n	800089a <__aeabi_dadd+0x5c2>
 800088a:	08c4      	lsrs	r4, r0, #3
 800088c:	422c      	tst	r4, r5
 800088e:	d104      	bne.n	800089a <__aeabi_dadd+0x5c2>
 8000890:	0741      	lsls	r1, r0, #29
 8000892:	000b      	movs	r3, r1
 8000894:	0021      	movs	r1, r4
 8000896:	08d2      	lsrs	r2, r2, #3
 8000898:	4313      	orrs	r3, r2
 800089a:	00c9      	lsls	r1, r1, #3
 800089c:	0f5a      	lsrs	r2, r3, #29
 800089e:	4311      	orrs	r1, r2
 80008a0:	00dd      	lsls	r5, r3, #3
 80008a2:	4c21      	ldr	r4, [pc, #132]	; (8000928 <__aeabi_dadd+0x650>)
 80008a4:	e541      	b.n	800032a <__aeabi_dadd+0x52>
 80008a6:	4c20      	ldr	r4, [pc, #128]	; (8000928 <__aeabi_dadd+0x650>)
 80008a8:	e53f      	b.n	800032a <__aeabi_dadd+0x52>
 80008aa:	2000      	movs	r0, #0
 80008ac:	e754      	b.n	8000758 <__aeabi_dadd+0x480>
 80008ae:	2600      	movs	r6, #0
 80008b0:	2500      	movs	r5, #0
 80008b2:	e5d1      	b.n	8000458 <__aeabi_dadd+0x180>
 80008b4:	0034      	movs	r4, r6
 80008b6:	000f      	movs	r7, r1
 80008b8:	3c20      	subs	r4, #32
 80008ba:	40e7      	lsrs	r7, r4
 80008bc:	003c      	movs	r4, r7
 80008be:	2e20      	cmp	r6, #32
 80008c0:	d02b      	beq.n	800091a <__aeabi_dadd+0x642>
 80008c2:	2740      	movs	r7, #64	; 0x40
 80008c4:	1bbe      	subs	r6, r7, r6
 80008c6:	40b1      	lsls	r1, r6
 80008c8:	430d      	orrs	r5, r1
 80008ca:	1e69      	subs	r1, r5, #1
 80008cc:	418d      	sbcs	r5, r1
 80008ce:	2100      	movs	r1, #0
 80008d0:	432c      	orrs	r4, r5
 80008d2:	e6bc      	b.n	800064e <__aeabi_dadd+0x376>
 80008d4:	2180      	movs	r1, #128	; 0x80
 80008d6:	2600      	movs	r6, #0
 80008d8:	0309      	lsls	r1, r1, #12
 80008da:	4c13      	ldr	r4, [pc, #76]	; (8000928 <__aeabi_dadd+0x650>)
 80008dc:	2500      	movs	r5, #0
 80008de:	e5bb      	b.n	8000458 <__aeabi_dadd+0x180>
 80008e0:	430d      	orrs	r5, r1
 80008e2:	1e69      	subs	r1, r5, #1
 80008e4:	418d      	sbcs	r5, r1
 80008e6:	2100      	movs	r1, #0
 80008e8:	b2ed      	uxtb	r5, r5
 80008ea:	e769      	b.n	80007c0 <__aeabi_dadd+0x4e8>
 80008ec:	0001      	movs	r1, r0
 80008ee:	0015      	movs	r5, r2
 80008f0:	4c0d      	ldr	r4, [pc, #52]	; (8000928 <__aeabi_dadd+0x650>)
 80008f2:	e51a      	b.n	800032a <__aeabi_dadd+0x52>
 80008f4:	0001      	movs	r1, r0
 80008f6:	0015      	movs	r5, r2
 80008f8:	e517      	b.n	800032a <__aeabi_dadd+0x52>
 80008fa:	001c      	movs	r4, r3
 80008fc:	000f      	movs	r7, r1
 80008fe:	3c20      	subs	r4, #32
 8000900:	40e7      	lsrs	r7, r4
 8000902:	003c      	movs	r4, r7
 8000904:	2b20      	cmp	r3, #32
 8000906:	d00c      	beq.n	8000922 <__aeabi_dadd+0x64a>
 8000908:	2740      	movs	r7, #64	; 0x40
 800090a:	1afb      	subs	r3, r7, r3
 800090c:	4099      	lsls	r1, r3
 800090e:	430d      	orrs	r5, r1
 8000910:	1e69      	subs	r1, r5, #1
 8000912:	418d      	sbcs	r5, r1
 8000914:	2100      	movs	r1, #0
 8000916:	4325      	orrs	r5, r4
 8000918:	e752      	b.n	80007c0 <__aeabi_dadd+0x4e8>
 800091a:	2100      	movs	r1, #0
 800091c:	e7d4      	b.n	80008c8 <__aeabi_dadd+0x5f0>
 800091e:	001d      	movs	r5, r3
 8000920:	e592      	b.n	8000448 <__aeabi_dadd+0x170>
 8000922:	2100      	movs	r1, #0
 8000924:	e7f3      	b.n	800090e <__aeabi_dadd+0x636>
 8000926:	46c0      	nop			; (mov r8, r8)
 8000928:	000007ff 	.word	0x000007ff
 800092c:	ff7fffff 	.word	0xff7fffff

08000930 <__aeabi_ddiv>:
 8000930:	b5f0      	push	{r4, r5, r6, r7, lr}
 8000932:	4656      	mov	r6, sl
 8000934:	464d      	mov	r5, r9
 8000936:	4644      	mov	r4, r8
 8000938:	465f      	mov	r7, fp
 800093a:	b4f0      	push	{r4, r5, r6, r7}
 800093c:	001d      	movs	r5, r3
 800093e:	030e      	lsls	r6, r1, #12
 8000940:	004c      	lsls	r4, r1, #1
 8000942:	0fcb      	lsrs	r3, r1, #31
 8000944:	b087      	sub	sp, #28
 8000946:	0007      	movs	r7, r0
 8000948:	4692      	mov	sl, r2
 800094a:	4681      	mov	r9, r0
 800094c:	0b36      	lsrs	r6, r6, #12
 800094e:	0d64      	lsrs	r4, r4, #21
 8000950:	4698      	mov	r8, r3
 8000952:	d06a      	beq.n	8000a2a <__aeabi_ddiv+0xfa>
 8000954:	4b6d      	ldr	r3, [pc, #436]	; (8000b0c <__aeabi_ddiv+0x1dc>)
 8000956:	429c      	cmp	r4, r3
 8000958:	d035      	beq.n	80009c6 <__aeabi_ddiv+0x96>
 800095a:	2280      	movs	r2, #128	; 0x80
 800095c:	0f43      	lsrs	r3, r0, #29
 800095e:	0412      	lsls	r2, r2, #16
 8000960:	4313      	orrs	r3, r2
 8000962:	00f6      	lsls	r6, r6, #3
 8000964:	431e      	orrs	r6, r3
 8000966:	00c3      	lsls	r3, r0, #3
 8000968:	4699      	mov	r9, r3
 800096a:	4b69      	ldr	r3, [pc, #420]	; (8000b10 <__aeabi_ddiv+0x1e0>)
 800096c:	2700      	movs	r7, #0
 800096e:	469c      	mov	ip, r3
 8000970:	2300      	movs	r3, #0
 8000972:	4464      	add	r4, ip
 8000974:	9302      	str	r3, [sp, #8]
 8000976:	032b      	lsls	r3, r5, #12
 8000978:	0068      	lsls	r0, r5, #1
 800097a:	0b1b      	lsrs	r3, r3, #12
 800097c:	0fed      	lsrs	r5, r5, #31
 800097e:	4651      	mov	r1, sl
 8000980:	469b      	mov	fp, r3
 8000982:	0d40      	lsrs	r0, r0, #21
 8000984:	9500      	str	r5, [sp, #0]
 8000986:	d100      	bne.n	800098a <__aeabi_ddiv+0x5a>
 8000988:	e078      	b.n	8000a7c <__aeabi_ddiv+0x14c>
 800098a:	4b60      	ldr	r3, [pc, #384]	; (8000b0c <__aeabi_ddiv+0x1dc>)
 800098c:	4298      	cmp	r0, r3
 800098e:	d06c      	beq.n	8000a6a <__aeabi_ddiv+0x13a>
 8000990:	465b      	mov	r3, fp
 8000992:	00da      	lsls	r2, r3, #3
 8000994:	0f4b      	lsrs	r3, r1, #29
 8000996:	2180      	movs	r1, #128	; 0x80
 8000998:	0409      	lsls	r1, r1, #16
 800099a:	430b      	orrs	r3, r1
 800099c:	4313      	orrs	r3, r2
 800099e:	469b      	mov	fp, r3
 80009a0:	4653      	mov	r3, sl
 80009a2:	00d9      	lsls	r1, r3, #3
 80009a4:	4b5a      	ldr	r3, [pc, #360]	; (8000b10 <__aeabi_ddiv+0x1e0>)
 80009a6:	469c      	mov	ip, r3
 80009a8:	2300      	movs	r3, #0
 80009aa:	4460      	add	r0, ip
 80009ac:	4642      	mov	r2, r8
 80009ae:	1a20      	subs	r0, r4, r0
 80009b0:	406a      	eors	r2, r5
 80009b2:	4692      	mov	sl, r2
 80009b4:	9001      	str	r0, [sp, #4]
 80009b6:	431f      	orrs	r7, r3
 80009b8:	2f0f      	cmp	r7, #15
 80009ba:	d900      	bls.n	80009be <__aeabi_ddiv+0x8e>
 80009bc:	e0b0      	b.n	8000b20 <__aeabi_ddiv+0x1f0>
 80009be:	4855      	ldr	r0, [pc, #340]	; (8000b14 <__aeabi_ddiv+0x1e4>)
 80009c0:	00bf      	lsls	r7, r7, #2
 80009c2:	59c0      	ldr	r0, [r0, r7]
 80009c4:	4687      	mov	pc, r0
 80009c6:	4337      	orrs	r7, r6
 80009c8:	d000      	beq.n	80009cc <__aeabi_ddiv+0x9c>
 80009ca:	e088      	b.n	8000ade <__aeabi_ddiv+0x1ae>
 80009cc:	2300      	movs	r3, #0
 80009ce:	4699      	mov	r9, r3
 80009d0:	3302      	adds	r3, #2
 80009d2:	2708      	movs	r7, #8
 80009d4:	2600      	movs	r6, #0
 80009d6:	9302      	str	r3, [sp, #8]
 80009d8:	e7cd      	b.n	8000976 <__aeabi_ddiv+0x46>
 80009da:	4643      	mov	r3, r8
 80009dc:	46b3      	mov	fp, r6
 80009de:	4649      	mov	r1, r9
 80009e0:	9300      	str	r3, [sp, #0]
 80009e2:	9b02      	ldr	r3, [sp, #8]
 80009e4:	9a00      	ldr	r2, [sp, #0]
 80009e6:	4692      	mov	sl, r2
 80009e8:	2b02      	cmp	r3, #2
 80009ea:	d000      	beq.n	80009ee <__aeabi_ddiv+0xbe>
 80009ec:	e1bf      	b.n	8000d6e <__aeabi_ddiv+0x43e>
 80009ee:	2100      	movs	r1, #0
 80009f0:	4653      	mov	r3, sl
 80009f2:	2201      	movs	r2, #1
 80009f4:	2600      	movs	r6, #0
 80009f6:	4689      	mov	r9, r1
 80009f8:	401a      	ands	r2, r3
 80009fa:	4b44      	ldr	r3, [pc, #272]	; (8000b0c <__aeabi_ddiv+0x1dc>)
 80009fc:	2100      	movs	r1, #0
 80009fe:	0336      	lsls	r6, r6, #12
 8000a00:	0d0c      	lsrs	r4, r1, #20
 8000a02:	0524      	lsls	r4, r4, #20
 8000a04:	0b36      	lsrs	r6, r6, #12
 8000a06:	4326      	orrs	r6, r4
 8000a08:	4c43      	ldr	r4, [pc, #268]	; (8000b18 <__aeabi_ddiv+0x1e8>)
 8000a0a:	051b      	lsls	r3, r3, #20
 8000a0c:	4026      	ands	r6, r4
 8000a0e:	431e      	orrs	r6, r3
 8000a10:	0076      	lsls	r6, r6, #1
 8000a12:	07d2      	lsls	r2, r2, #31
 8000a14:	0876      	lsrs	r6, r6, #1
 8000a16:	4316      	orrs	r6, r2
 8000a18:	4648      	mov	r0, r9
 8000a1a:	0031      	movs	r1, r6
 8000a1c:	b007      	add	sp, #28
 8000a1e:	bc3c      	pop	{r2, r3, r4, r5}
 8000a20:	4690      	mov	r8, r2
 8000a22:	4699      	mov	r9, r3
 8000a24:	46a2      	mov	sl, r4
 8000a26:	46ab      	mov	fp, r5
 8000a28:	bdf0      	pop	{r4, r5, r6, r7, pc}
 8000a2a:	0033      	movs	r3, r6
 8000a2c:	4303      	orrs	r3, r0
 8000a2e:	d04f      	beq.n	8000ad0 <__aeabi_ddiv+0x1a0>
 8000a30:	2e00      	cmp	r6, #0
 8000a32:	d100      	bne.n	8000a36 <__aeabi_ddiv+0x106>
 8000a34:	e1bc      	b.n	8000db0 <__aeabi_ddiv+0x480>
 8000a36:	0030      	movs	r0, r6
 8000a38:	f001 fa3c 	bl	8001eb4 <__clzsi2>
 8000a3c:	0003      	movs	r3, r0
 8000a3e:	3b0b      	subs	r3, #11
 8000a40:	2b1c      	cmp	r3, #28
 8000a42:	dd00      	ble.n	8000a46 <__aeabi_ddiv+0x116>
 8000a44:	e1ad      	b.n	8000da2 <__aeabi_ddiv+0x472>
 8000a46:	221d      	movs	r2, #29
 8000a48:	0001      	movs	r1, r0
 8000a4a:	1ad3      	subs	r3, r2, r3
 8000a4c:	3908      	subs	r1, #8
 8000a4e:	003a      	movs	r2, r7
 8000a50:	408f      	lsls	r7, r1
 8000a52:	408e      	lsls	r6, r1
 8000a54:	40da      	lsrs	r2, r3
 8000a56:	46b9      	mov	r9, r7
 8000a58:	4316      	orrs	r6, r2
 8000a5a:	4b30      	ldr	r3, [pc, #192]	; (8000b1c <__aeabi_ddiv+0x1ec>)
 8000a5c:	2700      	movs	r7, #0
 8000a5e:	469c      	mov	ip, r3
 8000a60:	2300      	movs	r3, #0
 8000a62:	4460      	add	r0, ip
 8000a64:	4244      	negs	r4, r0
 8000a66:	9302      	str	r3, [sp, #8]
 8000a68:	e785      	b.n	8000976 <__aeabi_ddiv+0x46>
 8000a6a:	4653      	mov	r3, sl
 8000a6c:	465a      	mov	r2, fp
 8000a6e:	4313      	orrs	r3, r2
 8000a70:	d12c      	bne.n	8000acc <__aeabi_ddiv+0x19c>
 8000a72:	2300      	movs	r3, #0
 8000a74:	2100      	movs	r1, #0
 8000a76:	469b      	mov	fp, r3
 8000a78:	3302      	adds	r3, #2
 8000a7a:	e797      	b.n	80009ac <__aeabi_ddiv+0x7c>
 8000a7c:	430b      	orrs	r3, r1
 8000a7e:	d020      	beq.n	8000ac2 <__aeabi_ddiv+0x192>
 8000a80:	465b      	mov	r3, fp
 8000a82:	2b00      	cmp	r3, #0
 8000a84:	d100      	bne.n	8000a88 <__aeabi_ddiv+0x158>
 8000a86:	e19e      	b.n	8000dc6 <__aeabi_ddiv+0x496>
 8000a88:	4658      	mov	r0, fp
 8000a8a:	f001 fa13 	bl	8001eb4 <__clzsi2>
 8000a8e:	0003      	movs	r3, r0
 8000a90:	3b0b      	subs	r3, #11
 8000a92:	2b1c      	cmp	r3, #28
 8000a94:	dd00      	ble.n	8000a98 <__aeabi_ddiv+0x168>
 8000a96:	e18f      	b.n	8000db8 <__aeabi_ddiv+0x488>
 8000a98:	0002      	movs	r2, r0
 8000a9a:	4659      	mov	r1, fp
 8000a9c:	3a08      	subs	r2, #8
 8000a9e:	4091      	lsls	r1, r2
 8000aa0:	468b      	mov	fp, r1
 8000aa2:	211d      	movs	r1, #29
 8000aa4:	1acb      	subs	r3, r1, r3
 8000aa6:	4651      	mov	r1, sl
 8000aa8:	40d9      	lsrs	r1, r3
 8000aaa:	000b      	movs	r3, r1
 8000aac:	4659      	mov	r1, fp
 8000aae:	430b      	orrs	r3, r1
 8000ab0:	4651      	mov	r1, sl
 8000ab2:	469b      	mov	fp, r3
 8000ab4:	4091      	lsls	r1, r2
 8000ab6:	4b19      	ldr	r3, [pc, #100]	; (8000b1c <__aeabi_ddiv+0x1ec>)
 8000ab8:	469c      	mov	ip, r3
 8000aba:	4460      	add	r0, ip
 8000abc:	4240      	negs	r0, r0
 8000abe:	2300      	movs	r3, #0
 8000ac0:	e774      	b.n	80009ac <__aeabi_ddiv+0x7c>
 8000ac2:	2300      	movs	r3, #0
 8000ac4:	2100      	movs	r1, #0
 8000ac6:	469b      	mov	fp, r3
 8000ac8:	3301      	adds	r3, #1
 8000aca:	e76f      	b.n	80009ac <__aeabi_ddiv+0x7c>
 8000acc:	2303      	movs	r3, #3
 8000ace:	e76d      	b.n	80009ac <__aeabi_ddiv+0x7c>
 8000ad0:	2300      	movs	r3, #0
 8000ad2:	4699      	mov	r9, r3
 8000ad4:	3301      	adds	r3, #1
 8000ad6:	2704      	movs	r7, #4
 8000ad8:	2600      	movs	r6, #0
 8000ada:	9302      	str	r3, [sp, #8]
 8000adc:	e74b      	b.n	8000976 <__aeabi_ddiv+0x46>
 8000ade:	2303      	movs	r3, #3
 8000ae0:	270c      	movs	r7, #12
 8000ae2:	9302      	str	r3, [sp, #8]
 8000ae4:	e747      	b.n	8000976 <__aeabi_ddiv+0x46>
 8000ae6:	2201      	movs	r2, #1
 8000ae8:	1ad5      	subs	r5, r2, r3
 8000aea:	2d38      	cmp	r5, #56	; 0x38
 8000aec:	dc00      	bgt.n	8000af0 <__aeabi_ddiv+0x1c0>
 8000aee:	e1b0      	b.n	8000e52 <__aeabi_ddiv+0x522>
 8000af0:	4653      	mov	r3, sl
 8000af2:	401a      	ands	r2, r3
 8000af4:	2100      	movs	r1, #0
 8000af6:	2300      	movs	r3, #0
 8000af8:	2600      	movs	r6, #0
 8000afa:	4689      	mov	r9, r1
 8000afc:	e77e      	b.n	80009fc <__aeabi_ddiv+0xcc>
 8000afe:	2300      	movs	r3, #0
 8000b00:	2680      	movs	r6, #128	; 0x80
 8000b02:	4699      	mov	r9, r3
 8000b04:	2200      	movs	r2, #0
 8000b06:	0336      	lsls	r6, r6, #12
 8000b08:	4b00      	ldr	r3, [pc, #0]	; (8000b0c <__aeabi_ddiv+0x1dc>)
 8000b0a:	e777      	b.n	80009fc <__aeabi_ddiv+0xcc>
 8000b0c:	000007ff 	.word	0x000007ff
 8000b10:	fffffc01 	.word	0xfffffc01
 8000b14:	080074e8 	.word	0x080074e8
 8000b18:	800fffff 	.word	0x800fffff
 8000b1c:	000003f3 	.word	0x000003f3
 8000b20:	455e      	cmp	r6, fp
 8000b22:	d900      	bls.n	8000b26 <__aeabi_ddiv+0x1f6>
 8000b24:	e172      	b.n	8000e0c <__aeabi_ddiv+0x4dc>
 8000b26:	d100      	bne.n	8000b2a <__aeabi_ddiv+0x1fa>
 8000b28:	e16d      	b.n	8000e06 <__aeabi_ddiv+0x4d6>
 8000b2a:	9b01      	ldr	r3, [sp, #4]
 8000b2c:	464d      	mov	r5, r9
 8000b2e:	3b01      	subs	r3, #1
 8000b30:	9301      	str	r3, [sp, #4]
 8000b32:	2300      	movs	r3, #0
 8000b34:	0034      	movs	r4, r6
 8000b36:	9302      	str	r3, [sp, #8]
 8000b38:	465b      	mov	r3, fp
 8000b3a:	021e      	lsls	r6, r3, #8
 8000b3c:	0e0b      	lsrs	r3, r1, #24
 8000b3e:	431e      	orrs	r6, r3
 8000b40:	020b      	lsls	r3, r1, #8
 8000b42:	9303      	str	r3, [sp, #12]
 8000b44:	0c33      	lsrs	r3, r6, #16
 8000b46:	4699      	mov	r9, r3
 8000b48:	0433      	lsls	r3, r6, #16
 8000b4a:	0c1b      	lsrs	r3, r3, #16
 8000b4c:	4649      	mov	r1, r9
 8000b4e:	0020      	movs	r0, r4
 8000b50:	9300      	str	r3, [sp, #0]
 8000b52:	f7ff fad9 	bl	8000108 <__aeabi_uidiv>
 8000b56:	9b00      	ldr	r3, [sp, #0]
 8000b58:	0037      	movs	r7, r6
 8000b5a:	4343      	muls	r3, r0
 8000b5c:	0006      	movs	r6, r0
 8000b5e:	4649      	mov	r1, r9
 8000b60:	0020      	movs	r0, r4
 8000b62:	4698      	mov	r8, r3
 8000b64:	f7ff fb56 	bl	8000214 <__aeabi_uidivmod>
 8000b68:	0c2c      	lsrs	r4, r5, #16
 8000b6a:	0409      	lsls	r1, r1, #16
 8000b6c:	430c      	orrs	r4, r1
 8000b6e:	45a0      	cmp	r8, r4
 8000b70:	d909      	bls.n	8000b86 <__aeabi_ddiv+0x256>
 8000b72:	19e4      	adds	r4, r4, r7
 8000b74:	1e73      	subs	r3, r6, #1
 8000b76:	42a7      	cmp	r7, r4
 8000b78:	d900      	bls.n	8000b7c <__aeabi_ddiv+0x24c>
 8000b7a:	e15c      	b.n	8000e36 <__aeabi_ddiv+0x506>
 8000b7c:	45a0      	cmp	r8, r4
 8000b7e:	d800      	bhi.n	8000b82 <__aeabi_ddiv+0x252>
 8000b80:	e159      	b.n	8000e36 <__aeabi_ddiv+0x506>
 8000b82:	3e02      	subs	r6, #2
 8000b84:	19e4      	adds	r4, r4, r7
 8000b86:	4643      	mov	r3, r8
 8000b88:	1ae4      	subs	r4, r4, r3
 8000b8a:	4649      	mov	r1, r9
 8000b8c:	0020      	movs	r0, r4
 8000b8e:	f7ff fabb 	bl	8000108 <__aeabi_uidiv>
 8000b92:	0003      	movs	r3, r0
 8000b94:	9a00      	ldr	r2, [sp, #0]
 8000b96:	4680      	mov	r8, r0
 8000b98:	4353      	muls	r3, r2
 8000b9a:	4649      	mov	r1, r9
 8000b9c:	0020      	movs	r0, r4
 8000b9e:	469b      	mov	fp, r3
 8000ba0:	f7ff fb38 	bl	8000214 <__aeabi_uidivmod>
 8000ba4:	042a      	lsls	r2, r5, #16
 8000ba6:	0409      	lsls	r1, r1, #16
 8000ba8:	0c12      	lsrs	r2, r2, #16
 8000baa:	430a      	orrs	r2, r1
 8000bac:	4593      	cmp	fp, r2
 8000bae:	d90d      	bls.n	8000bcc <__aeabi_ddiv+0x29c>
 8000bb0:	4643      	mov	r3, r8
 8000bb2:	19d2      	adds	r2, r2, r7
 8000bb4:	3b01      	subs	r3, #1
 8000bb6:	4297      	cmp	r7, r2
 8000bb8:	d900      	bls.n	8000bbc <__aeabi_ddiv+0x28c>
 8000bba:	e13a      	b.n	8000e32 <__aeabi_ddiv+0x502>
 8000bbc:	4593      	cmp	fp, r2
 8000bbe:	d800      	bhi.n	8000bc2 <__aeabi_ddiv+0x292>
 8000bc0:	e137      	b.n	8000e32 <__aeabi_ddiv+0x502>
 8000bc2:	2302      	movs	r3, #2
 8000bc4:	425b      	negs	r3, r3
 8000bc6:	469c      	mov	ip, r3
 8000bc8:	19d2      	adds	r2, r2, r7
 8000bca:	44e0      	add	r8, ip
 8000bcc:	465b      	mov	r3, fp
 8000bce:	1ad2      	subs	r2, r2, r3
 8000bd0:	4643      	mov	r3, r8
 8000bd2:	0436      	lsls	r6, r6, #16
 8000bd4:	4333      	orrs	r3, r6
 8000bd6:	469b      	mov	fp, r3
 8000bd8:	9903      	ldr	r1, [sp, #12]
 8000bda:	0c18      	lsrs	r0, r3, #16
 8000bdc:	0c0b      	lsrs	r3, r1, #16
 8000bde:	001d      	movs	r5, r3
 8000be0:	9305      	str	r3, [sp, #20]
 8000be2:	0409      	lsls	r1, r1, #16
 8000be4:	465b      	mov	r3, fp
 8000be6:	0c09      	lsrs	r1, r1, #16
 8000be8:	000c      	movs	r4, r1
 8000bea:	041b      	lsls	r3, r3, #16
 8000bec:	0c1b      	lsrs	r3, r3, #16
 8000bee:	4344      	muls	r4, r0
 8000bf0:	9104      	str	r1, [sp, #16]
 8000bf2:	4359      	muls	r1, r3
 8000bf4:	436b      	muls	r3, r5
 8000bf6:	4368      	muls	r0, r5
 8000bf8:	191b      	adds	r3, r3, r4
 8000bfa:	0c0d      	lsrs	r5, r1, #16
 8000bfc:	18eb      	adds	r3, r5, r3
 8000bfe:	429c      	cmp	r4, r3
 8000c00:	d903      	bls.n	8000c0a <__aeabi_ddiv+0x2da>
 8000c02:	2480      	movs	r4, #128	; 0x80
 8000c04:	0264      	lsls	r4, r4, #9
 8000c06:	46a4      	mov	ip, r4
 8000c08:	4460      	add	r0, ip
 8000c0a:	0c1c      	lsrs	r4, r3, #16
 8000c0c:	0409      	lsls	r1, r1, #16
 8000c0e:	041b      	lsls	r3, r3, #16
 8000c10:	0c09      	lsrs	r1, r1, #16
 8000c12:	1820      	adds	r0, r4, r0
 8000c14:	185d      	adds	r5, r3, r1
 8000c16:	4282      	cmp	r2, r0
 8000c18:	d200      	bcs.n	8000c1c <__aeabi_ddiv+0x2ec>
 8000c1a:	e0de      	b.n	8000dda <__aeabi_ddiv+0x4aa>
 8000c1c:	d100      	bne.n	8000c20 <__aeabi_ddiv+0x2f0>
 8000c1e:	e0d7      	b.n	8000dd0 <__aeabi_ddiv+0x4a0>
 8000c20:	1a16      	subs	r6, r2, r0
 8000c22:	9b02      	ldr	r3, [sp, #8]
 8000c24:	469c      	mov	ip, r3
 8000c26:	1b5d      	subs	r5, r3, r5
 8000c28:	45ac      	cmp	ip, r5
 8000c2a:	419b      	sbcs	r3, r3
 8000c2c:	425b      	negs	r3, r3
 8000c2e:	1af6      	subs	r6, r6, r3
 8000c30:	42b7      	cmp	r7, r6
 8000c32:	d100      	bne.n	8000c36 <__aeabi_ddiv+0x306>
 8000c34:	e106      	b.n	8000e44 <__aeabi_ddiv+0x514>
 8000c36:	4649      	mov	r1, r9
 8000c38:	0030      	movs	r0, r6
 8000c3a:	f7ff fa65 	bl	8000108 <__aeabi_uidiv>
 8000c3e:	9b00      	ldr	r3, [sp, #0]
 8000c40:	0004      	movs	r4, r0
 8000c42:	4343      	muls	r3, r0
 8000c44:	4649      	mov	r1, r9
 8000c46:	0030      	movs	r0, r6
 8000c48:	4698      	mov	r8, r3
 8000c4a:	f7ff fae3 	bl	8000214 <__aeabi_uidivmod>
 8000c4e:	0c2e      	lsrs	r6, r5, #16
 8000c50:	0409      	lsls	r1, r1, #16
 8000c52:	430e      	orrs	r6, r1
 8000c54:	45b0      	cmp	r8, r6
 8000c56:	d909      	bls.n	8000c6c <__aeabi_ddiv+0x33c>
 8000c58:	19f6      	adds	r6, r6, r7
 8000c5a:	1e63      	subs	r3, r4, #1
 8000c5c:	42b7      	cmp	r7, r6
 8000c5e:	d900      	bls.n	8000c62 <__aeabi_ddiv+0x332>
 8000c60:	e0f3      	b.n	8000e4a <__aeabi_ddiv+0x51a>
 8000c62:	45b0      	cmp	r8, r6
 8000c64:	d800      	bhi.n	8000c68 <__aeabi_ddiv+0x338>
 8000c66:	e0f0      	b.n	8000e4a <__aeabi_ddiv+0x51a>
 8000c68:	3c02      	subs	r4, #2
 8000c6a:	19f6      	adds	r6, r6, r7
 8000c6c:	4643      	mov	r3, r8
 8000c6e:	1af3      	subs	r3, r6, r3
 8000c70:	4649      	mov	r1, r9
 8000c72:	0018      	movs	r0, r3
 8000c74:	9302      	str	r3, [sp, #8]
 8000c76:	f7ff fa47 	bl	8000108 <__aeabi_uidiv>
 8000c7a:	9b00      	ldr	r3, [sp, #0]
 8000c7c:	0006      	movs	r6, r0
 8000c7e:	4343      	muls	r3, r0
 8000c80:	4649      	mov	r1, r9
 8000c82:	9802      	ldr	r0, [sp, #8]
 8000c84:	4698      	mov	r8, r3
 8000c86:	f7ff fac5 	bl	8000214 <__aeabi_uidivmod>
 8000c8a:	042d      	lsls	r5, r5, #16
 8000c8c:	0409      	lsls	r1, r1, #16
 8000c8e:	0c2d      	lsrs	r5, r5, #16
 8000c90:	430d      	orrs	r5, r1
 8000c92:	45a8      	cmp	r8, r5
 8000c94:	d909      	bls.n	8000caa <__aeabi_ddiv+0x37a>
 8000c96:	19ed      	adds	r5, r5, r7
 8000c98:	1e73      	subs	r3, r6, #1
 8000c9a:	42af      	cmp	r7, r5
 8000c9c:	d900      	bls.n	8000ca0 <__aeabi_ddiv+0x370>
 8000c9e:	e0d6      	b.n	8000e4e <__aeabi_ddiv+0x51e>
 8000ca0:	45a8      	cmp	r8, r5
 8000ca2:	d800      	bhi.n	8000ca6 <__aeabi_ddiv+0x376>
 8000ca4:	e0d3      	b.n	8000e4e <__aeabi_ddiv+0x51e>
 8000ca6:	3e02      	subs	r6, #2
 8000ca8:	19ed      	adds	r5, r5, r7
 8000caa:	0424      	lsls	r4, r4, #16
 8000cac:	0021      	movs	r1, r4
 8000cae:	4643      	mov	r3, r8
 8000cb0:	4331      	orrs	r1, r6
 8000cb2:	9e04      	ldr	r6, [sp, #16]
 8000cb4:	9a05      	ldr	r2, [sp, #20]
 8000cb6:	0030      	movs	r0, r6
 8000cb8:	1aed      	subs	r5, r5, r3
 8000cba:	040b      	lsls	r3, r1, #16
 8000cbc:	0c0c      	lsrs	r4, r1, #16
 8000cbe:	0c1b      	lsrs	r3, r3, #16
 8000cc0:	4358      	muls	r0, r3
 8000cc2:	4366      	muls	r6, r4
 8000cc4:	4353      	muls	r3, r2
 8000cc6:	4354      	muls	r4, r2
 8000cc8:	199a      	adds	r2, r3, r6
 8000cca:	0c03      	lsrs	r3, r0, #16
 8000ccc:	189b      	adds	r3, r3, r2
 8000cce:	429e      	cmp	r6, r3
 8000cd0:	d903      	bls.n	8000cda <__aeabi_ddiv+0x3aa>
 8000cd2:	2280      	movs	r2, #128	; 0x80
 8000cd4:	0252      	lsls	r2, r2, #9
 8000cd6:	4694      	mov	ip, r2
 8000cd8:	4464      	add	r4, ip
 8000cda:	0c1a      	lsrs	r2, r3, #16
 8000cdc:	0400      	lsls	r0, r0, #16
 8000cde:	041b      	lsls	r3, r3, #16
 8000ce0:	0c00      	lsrs	r0, r0, #16
 8000ce2:	1914      	adds	r4, r2, r4
 8000ce4:	181b      	adds	r3, r3, r0
 8000ce6:	42a5      	cmp	r5, r4
 8000ce8:	d350      	bcc.n	8000d8c <__aeabi_ddiv+0x45c>
 8000cea:	d04d      	beq.n	8000d88 <__aeabi_ddiv+0x458>
 8000cec:	2301      	movs	r3, #1
 8000cee:	4319      	orrs	r1, r3
 8000cf0:	4a96      	ldr	r2, [pc, #600]	; (8000f4c <__aeabi_ddiv+0x61c>)
 8000cf2:	9b01      	ldr	r3, [sp, #4]
 8000cf4:	4694      	mov	ip, r2
 8000cf6:	4463      	add	r3, ip
 8000cf8:	2b00      	cmp	r3, #0
 8000cfa:	dc00      	bgt.n	8000cfe <__aeabi_ddiv+0x3ce>
 8000cfc:	e6f3      	b.n	8000ae6 <__aeabi_ddiv+0x1b6>
 8000cfe:	074a      	lsls	r2, r1, #29
 8000d00:	d009      	beq.n	8000d16 <__aeabi_ddiv+0x3e6>
 8000d02:	220f      	movs	r2, #15
 8000d04:	400a      	ands	r2, r1
 8000d06:	2a04      	cmp	r2, #4
 8000d08:	d005      	beq.n	8000d16 <__aeabi_ddiv+0x3e6>
 8000d0a:	1d0a      	adds	r2, r1, #4
 8000d0c:	428a      	cmp	r2, r1
 8000d0e:	4189      	sbcs	r1, r1
 8000d10:	4249      	negs	r1, r1
 8000d12:	448b      	add	fp, r1
 8000d14:	0011      	movs	r1, r2
 8000d16:	465a      	mov	r2, fp
 8000d18:	01d2      	lsls	r2, r2, #7
 8000d1a:	d508      	bpl.n	8000d2e <__aeabi_ddiv+0x3fe>
 8000d1c:	465a      	mov	r2, fp
 8000d1e:	4b8c      	ldr	r3, [pc, #560]	; (8000f50 <__aeabi_ddiv+0x620>)
 8000d20:	401a      	ands	r2, r3
 8000d22:	4693      	mov	fp, r2
 8000d24:	2280      	movs	r2, #128	; 0x80
 8000d26:	00d2      	lsls	r2, r2, #3
 8000d28:	4694      	mov	ip, r2
 8000d2a:	9b01      	ldr	r3, [sp, #4]
 8000d2c:	4463      	add	r3, ip
 8000d2e:	4a89      	ldr	r2, [pc, #548]	; (8000f54 <__aeabi_ddiv+0x624>)
 8000d30:	4293      	cmp	r3, r2
 8000d32:	dd00      	ble.n	8000d36 <__aeabi_ddiv+0x406>
 8000d34:	e65b      	b.n	80009ee <__aeabi_ddiv+0xbe>
 8000d36:	465a      	mov	r2, fp
 8000d38:	08c9      	lsrs	r1, r1, #3
 8000d3a:	0750      	lsls	r0, r2, #29
 8000d3c:	4308      	orrs	r0, r1
 8000d3e:	0256      	lsls	r6, r2, #9
 8000d40:	4651      	mov	r1, sl
 8000d42:	2201      	movs	r2, #1
 8000d44:	055b      	lsls	r3, r3, #21
 8000d46:	4681      	mov	r9, r0
 8000d48:	0b36      	lsrs	r6, r6, #12
 8000d4a:	0d5b      	lsrs	r3, r3, #21
 8000d4c:	400a      	ands	r2, r1
 8000d4e:	e655      	b.n	80009fc <__aeabi_ddiv+0xcc>
 8000d50:	2380      	movs	r3, #128	; 0x80
 8000d52:	031b      	lsls	r3, r3, #12
 8000d54:	421e      	tst	r6, r3
 8000d56:	d011      	beq.n	8000d7c <__aeabi_ddiv+0x44c>
 8000d58:	465a      	mov	r2, fp
 8000d5a:	421a      	tst	r2, r3
 8000d5c:	d10e      	bne.n	8000d7c <__aeabi_ddiv+0x44c>
 8000d5e:	465e      	mov	r6, fp
 8000d60:	431e      	orrs	r6, r3
 8000d62:	0336      	lsls	r6, r6, #12
 8000d64:	0b36      	lsrs	r6, r6, #12
 8000d66:	002a      	movs	r2, r5
 8000d68:	4689      	mov	r9, r1
 8000d6a:	4b7b      	ldr	r3, [pc, #492]	; (8000f58 <__aeabi_ddiv+0x628>)
 8000d6c:	e646      	b.n	80009fc <__aeabi_ddiv+0xcc>
 8000d6e:	2b03      	cmp	r3, #3
 8000d70:	d100      	bne.n	8000d74 <__aeabi_ddiv+0x444>
 8000d72:	e0e1      	b.n	8000f38 <__aeabi_ddiv+0x608>
 8000d74:	2b01      	cmp	r3, #1
 8000d76:	d1bb      	bne.n	8000cf0 <__aeabi_ddiv+0x3c0>
 8000d78:	401a      	ands	r2, r3
 8000d7a:	e6bb      	b.n	8000af4 <__aeabi_ddiv+0x1c4>
 8000d7c:	431e      	orrs	r6, r3
 8000d7e:	0336      	lsls	r6, r6, #12
 8000d80:	0b36      	lsrs	r6, r6, #12
 8000d82:	4642      	mov	r2, r8
 8000d84:	4b74      	ldr	r3, [pc, #464]	; (8000f58 <__aeabi_ddiv+0x628>)
 8000d86:	e639      	b.n	80009fc <__aeabi_ddiv+0xcc>
 8000d88:	2b00      	cmp	r3, #0
 8000d8a:	d0b1      	beq.n	8000cf0 <__aeabi_ddiv+0x3c0>
 8000d8c:	197d      	adds	r5, r7, r5
 8000d8e:	1e4a      	subs	r2, r1, #1
 8000d90:	42af      	cmp	r7, r5
 8000d92:	d952      	bls.n	8000e3a <__aeabi_ddiv+0x50a>
 8000d94:	0011      	movs	r1, r2
 8000d96:	42a5      	cmp	r5, r4
 8000d98:	d1a8      	bne.n	8000cec <__aeabi_ddiv+0x3bc>
 8000d9a:	9a03      	ldr	r2, [sp, #12]
 8000d9c:	429a      	cmp	r2, r3
 8000d9e:	d1a5      	bne.n	8000cec <__aeabi_ddiv+0x3bc>
 8000da0:	e7a6      	b.n	8000cf0 <__aeabi_ddiv+0x3c0>
 8000da2:	0003      	movs	r3, r0
 8000da4:	003e      	movs	r6, r7
 8000da6:	3b28      	subs	r3, #40	; 0x28
 8000da8:	409e      	lsls	r6, r3
 8000daa:	2300      	movs	r3, #0
 8000dac:	4699      	mov	r9, r3
 8000dae:	e654      	b.n	8000a5a <__aeabi_ddiv+0x12a>
 8000db0:	f001 f880 	bl	8001eb4 <__clzsi2>
 8000db4:	3020      	adds	r0, #32
 8000db6:	e641      	b.n	8000a3c <__aeabi_ddiv+0x10c>
 8000db8:	0003      	movs	r3, r0
 8000dba:	4652      	mov	r2, sl
 8000dbc:	3b28      	subs	r3, #40	; 0x28
 8000dbe:	409a      	lsls	r2, r3
 8000dc0:	2100      	movs	r1, #0
 8000dc2:	4693      	mov	fp, r2
 8000dc4:	e677      	b.n	8000ab6 <__aeabi_ddiv+0x186>
 8000dc6:	4650      	mov	r0, sl
 8000dc8:	f001 f874 	bl	8001eb4 <__clzsi2>
 8000dcc:	3020      	adds	r0, #32
 8000dce:	e65e      	b.n	8000a8e <__aeabi_ddiv+0x15e>
 8000dd0:	9b02      	ldr	r3, [sp, #8]
 8000dd2:	2600      	movs	r6, #0
 8000dd4:	42ab      	cmp	r3, r5
 8000dd6:	d300      	bcc.n	8000dda <__aeabi_ddiv+0x4aa>
 8000dd8:	e723      	b.n	8000c22 <__aeabi_ddiv+0x2f2>
 8000dda:	9e03      	ldr	r6, [sp, #12]
 8000ddc:	9902      	ldr	r1, [sp, #8]
 8000dde:	46b4      	mov	ip, r6
 8000de0:	4461      	add	r1, ip
 8000de2:	4688      	mov	r8, r1
 8000de4:	45b0      	cmp	r8, r6
 8000de6:	41b6      	sbcs	r6, r6
 8000de8:	465b      	mov	r3, fp
 8000dea:	4276      	negs	r6, r6
 8000dec:	19f6      	adds	r6, r6, r7
 8000dee:	18b2      	adds	r2, r6, r2
 8000df0:	3b01      	subs	r3, #1
 8000df2:	9102      	str	r1, [sp, #8]
 8000df4:	4297      	cmp	r7, r2
 8000df6:	d213      	bcs.n	8000e20 <__aeabi_ddiv+0x4f0>
 8000df8:	4290      	cmp	r0, r2
 8000dfa:	d84f      	bhi.n	8000e9c <__aeabi_ddiv+0x56c>
 8000dfc:	d100      	bne.n	8000e00 <__aeabi_ddiv+0x4d0>
 8000dfe:	e08e      	b.n	8000f1e <__aeabi_ddiv+0x5ee>
 8000e00:	1a16      	subs	r6, r2, r0
 8000e02:	469b      	mov	fp, r3
 8000e04:	e70d      	b.n	8000c22 <__aeabi_ddiv+0x2f2>
 8000e06:	4589      	cmp	r9, r1
 8000e08:	d200      	bcs.n	8000e0c <__aeabi_ddiv+0x4dc>
 8000e0a:	e68e      	b.n	8000b2a <__aeabi_ddiv+0x1fa>
 8000e0c:	0874      	lsrs	r4, r6, #1
 8000e0e:	464b      	mov	r3, r9
 8000e10:	07f6      	lsls	r6, r6, #31
 8000e12:	0035      	movs	r5, r6
 8000e14:	085b      	lsrs	r3, r3, #1
 8000e16:	431d      	orrs	r5, r3
 8000e18:	464b      	mov	r3, r9
 8000e1a:	07db      	lsls	r3, r3, #31
 8000e1c:	9302      	str	r3, [sp, #8]
 8000e1e:	e68b      	b.n	8000b38 <__aeabi_ddiv+0x208>
 8000e20:	4297      	cmp	r7, r2
 8000e22:	d1ed      	bne.n	8000e00 <__aeabi_ddiv+0x4d0>
 8000e24:	9903      	ldr	r1, [sp, #12]
 8000e26:	9c02      	ldr	r4, [sp, #8]
 8000e28:	42a1      	cmp	r1, r4
 8000e2a:	d9e5      	bls.n	8000df8 <__aeabi_ddiv+0x4c8>
 8000e2c:	1a3e      	subs	r6, r7, r0
 8000e2e:	469b      	mov	fp, r3
 8000e30:	e6f7      	b.n	8000c22 <__aeabi_ddiv+0x2f2>
 8000e32:	4698      	mov	r8, r3
 8000e34:	e6ca      	b.n	8000bcc <__aeabi_ddiv+0x29c>
 8000e36:	001e      	movs	r6, r3
 8000e38:	e6a5      	b.n	8000b86 <__aeabi_ddiv+0x256>
 8000e3a:	42ac      	cmp	r4, r5
 8000e3c:	d83e      	bhi.n	8000ebc <__aeabi_ddiv+0x58c>
 8000e3e:	d074      	beq.n	8000f2a <__aeabi_ddiv+0x5fa>
 8000e40:	0011      	movs	r1, r2
 8000e42:	e753      	b.n	8000cec <__aeabi_ddiv+0x3bc>
 8000e44:	2101      	movs	r1, #1
 8000e46:	4249      	negs	r1, r1
 8000e48:	e752      	b.n	8000cf0 <__aeabi_ddiv+0x3c0>
 8000e4a:	001c      	movs	r4, r3
 8000e4c:	e70e      	b.n	8000c6c <__aeabi_ddiv+0x33c>
 8000e4e:	001e      	movs	r6, r3
 8000e50:	e72b      	b.n	8000caa <__aeabi_ddiv+0x37a>
 8000e52:	2d1f      	cmp	r5, #31
 8000e54:	dc3c      	bgt.n	8000ed0 <__aeabi_ddiv+0x5a0>
 8000e56:	2320      	movs	r3, #32
 8000e58:	000a      	movs	r2, r1
 8000e5a:	4658      	mov	r0, fp
 8000e5c:	1b5b      	subs	r3, r3, r5
 8000e5e:	4098      	lsls	r0, r3
 8000e60:	40ea      	lsrs	r2, r5
 8000e62:	4099      	lsls	r1, r3
 8000e64:	4302      	orrs	r2, r0
 8000e66:	1e48      	subs	r0, r1, #1
 8000e68:	4181      	sbcs	r1, r0
 8000e6a:	465e      	mov	r6, fp
 8000e6c:	4311      	orrs	r1, r2
 8000e6e:	40ee      	lsrs	r6, r5
 8000e70:	074b      	lsls	r3, r1, #29
 8000e72:	d009      	beq.n	8000e88 <__aeabi_ddiv+0x558>
 8000e74:	230f      	movs	r3, #15
 8000e76:	400b      	ands	r3, r1
 8000e78:	2b04      	cmp	r3, #4
 8000e7a:	d005      	beq.n	8000e88 <__aeabi_ddiv+0x558>
 8000e7c:	000b      	movs	r3, r1
 8000e7e:	1d19      	adds	r1, r3, #4
 8000e80:	4299      	cmp	r1, r3
 8000e82:	419b      	sbcs	r3, r3
 8000e84:	425b      	negs	r3, r3
 8000e86:	18f6      	adds	r6, r6, r3
 8000e88:	0233      	lsls	r3, r6, #8
 8000e8a:	d53c      	bpl.n	8000f06 <__aeabi_ddiv+0x5d6>
 8000e8c:	4653      	mov	r3, sl
 8000e8e:	2201      	movs	r2, #1
 8000e90:	2100      	movs	r1, #0
 8000e92:	401a      	ands	r2, r3
 8000e94:	2600      	movs	r6, #0
 8000e96:	2301      	movs	r3, #1
 8000e98:	4689      	mov	r9, r1
 8000e9a:	e5af      	b.n	80009fc <__aeabi_ddiv+0xcc>
 8000e9c:	2302      	movs	r3, #2
 8000e9e:	425b      	negs	r3, r3
 8000ea0:	469c      	mov	ip, r3
 8000ea2:	9c03      	ldr	r4, [sp, #12]
 8000ea4:	44e3      	add	fp, ip
 8000ea6:	46a4      	mov	ip, r4
 8000ea8:	9b02      	ldr	r3, [sp, #8]
 8000eaa:	4463      	add	r3, ip
 8000eac:	4698      	mov	r8, r3
 8000eae:	45a0      	cmp	r8, r4
 8000eb0:	41b6      	sbcs	r6, r6
 8000eb2:	4276      	negs	r6, r6
 8000eb4:	19f6      	adds	r6, r6, r7
 8000eb6:	9302      	str	r3, [sp, #8]
 8000eb8:	18b2      	adds	r2, r6, r2
 8000eba:	e6b1      	b.n	8000c20 <__aeabi_ddiv+0x2f0>
 8000ebc:	9803      	ldr	r0, [sp, #12]
 8000ebe:	1e8a      	subs	r2, r1, #2
 8000ec0:	0041      	lsls	r1, r0, #1
 8000ec2:	4281      	cmp	r1, r0
 8000ec4:	41b6      	sbcs	r6, r6
 8000ec6:	4276      	negs	r6, r6
 8000ec8:	19f6      	adds	r6, r6, r7
 8000eca:	19ad      	adds	r5, r5, r6
 8000ecc:	9103      	str	r1, [sp, #12]
 8000ece:	e761      	b.n	8000d94 <__aeabi_ddiv+0x464>
 8000ed0:	221f      	movs	r2, #31
 8000ed2:	4252      	negs	r2, r2
 8000ed4:	1ad3      	subs	r3, r2, r3
 8000ed6:	465a      	mov	r2, fp
 8000ed8:	40da      	lsrs	r2, r3
 8000eda:	0013      	movs	r3, r2
 8000edc:	2d20      	cmp	r5, #32
 8000ede:	d029      	beq.n	8000f34 <__aeabi_ddiv+0x604>
 8000ee0:	2240      	movs	r2, #64	; 0x40
 8000ee2:	4658      	mov	r0, fp
 8000ee4:	1b55      	subs	r5, r2, r5
 8000ee6:	40a8      	lsls	r0, r5
 8000ee8:	4301      	orrs	r1, r0
 8000eea:	1e48      	subs	r0, r1, #1
 8000eec:	4181      	sbcs	r1, r0
 8000eee:	2007      	movs	r0, #7
 8000ef0:	430b      	orrs	r3, r1
 8000ef2:	4018      	ands	r0, r3
 8000ef4:	2600      	movs	r6, #0
 8000ef6:	2800      	cmp	r0, #0
 8000ef8:	d009      	beq.n	8000f0e <__aeabi_ddiv+0x5de>
 8000efa:	220f      	movs	r2, #15
 8000efc:	2600      	movs	r6, #0
 8000efe:	401a      	ands	r2, r3
 8000f00:	0019      	movs	r1, r3
 8000f02:	2a04      	cmp	r2, #4
 8000f04:	d1bb      	bne.n	8000e7e <__aeabi_ddiv+0x54e>
 8000f06:	000b      	movs	r3, r1
 8000f08:	0770      	lsls	r0, r6, #29
 8000f0a:	0276      	lsls	r6, r6, #9
 8000f0c:	0b36      	lsrs	r6, r6, #12
 8000f0e:	08db      	lsrs	r3, r3, #3
 8000f10:	4303      	orrs	r3, r0
 8000f12:	4699      	mov	r9, r3
 8000f14:	2201      	movs	r2, #1
 8000f16:	4653      	mov	r3, sl
 8000f18:	401a      	ands	r2, r3
 8000f1a:	2300      	movs	r3, #0
 8000f1c:	e56e      	b.n	80009fc <__aeabi_ddiv+0xcc>
 8000f1e:	9902      	ldr	r1, [sp, #8]
 8000f20:	428d      	cmp	r5, r1
 8000f22:	d8bb      	bhi.n	8000e9c <__aeabi_ddiv+0x56c>
 8000f24:	469b      	mov	fp, r3
 8000f26:	2600      	movs	r6, #0
 8000f28:	e67b      	b.n	8000c22 <__aeabi_ddiv+0x2f2>
 8000f2a:	9803      	ldr	r0, [sp, #12]
 8000f2c:	4298      	cmp	r0, r3
 8000f2e:	d3c5      	bcc.n	8000ebc <__aeabi_ddiv+0x58c>
 8000f30:	0011      	movs	r1, r2
 8000f32:	e732      	b.n	8000d9a <__aeabi_ddiv+0x46a>
 8000f34:	2000      	movs	r0, #0
 8000f36:	e7d7      	b.n	8000ee8 <__aeabi_ddiv+0x5b8>
 8000f38:	2680      	movs	r6, #128	; 0x80
 8000f3a:	465b      	mov	r3, fp
 8000f3c:	0336      	lsls	r6, r6, #12
 8000f3e:	431e      	orrs	r6, r3
 8000f40:	0336      	lsls	r6, r6, #12
 8000f42:	0b36      	lsrs	r6, r6, #12
 8000f44:	9a00      	ldr	r2, [sp, #0]
 8000f46:	4689      	mov	r9, r1
 8000f48:	4b03      	ldr	r3, [pc, #12]	; (8000f58 <__aeabi_ddiv+0x628>)
 8000f4a:	e557      	b.n	80009fc <__aeabi_ddiv+0xcc>
 8000f4c:	000003ff 	.word	0x000003ff
 8000f50:	feffffff 	.word	0xfeffffff
 8000f54:	000007fe 	.word	0x000007fe
 8000f58:	000007ff 	.word	0x000007ff

08000f5c <__eqdf2>:
 8000f5c:	b5f0      	push	{r4, r5, r6, r7, lr}
 8000f5e:	465f      	mov	r7, fp
 8000f60:	4656      	mov	r6, sl
 8000f62:	464d      	mov	r5, r9
 8000f64:	4644      	mov	r4, r8
 8000f66:	b4f0      	push	{r4, r5, r6, r7}
 8000f68:	031f      	lsls	r7, r3, #12
 8000f6a:	005c      	lsls	r4, r3, #1
 8000f6c:	0fdb      	lsrs	r3, r3, #31
 8000f6e:	469a      	mov	sl, r3
 8000f70:	4b19      	ldr	r3, [pc, #100]	; (8000fd8 <__eqdf2+0x7c>)
 8000f72:	030e      	lsls	r6, r1, #12
 8000f74:	004d      	lsls	r5, r1, #1
 8000f76:	0fc9      	lsrs	r1, r1, #31
 8000f78:	4680      	mov	r8, r0
 8000f7a:	0b36      	lsrs	r6, r6, #12
 8000f7c:	0d6d      	lsrs	r5, r5, #21
 8000f7e:	468b      	mov	fp, r1
 8000f80:	4691      	mov	r9, r2
 8000f82:	0b3f      	lsrs	r7, r7, #12
 8000f84:	0d64      	lsrs	r4, r4, #21
 8000f86:	429d      	cmp	r5, r3
 8000f88:	d019      	beq.n	8000fbe <__eqdf2+0x62>
 8000f8a:	4b13      	ldr	r3, [pc, #76]	; (8000fd8 <__eqdf2+0x7c>)
 8000f8c:	429c      	cmp	r4, r3
 8000f8e:	d01b      	beq.n	8000fc8 <__eqdf2+0x6c>
 8000f90:	2301      	movs	r3, #1
 8000f92:	42a5      	cmp	r5, r4
 8000f94:	d006      	beq.n	8000fa4 <__eqdf2+0x48>
 8000f96:	0018      	movs	r0, r3
 8000f98:	bc3c      	pop	{r2, r3, r4, r5}
 8000f9a:	4690      	mov	r8, r2
 8000f9c:	4699      	mov	r9, r3
 8000f9e:	46a2      	mov	sl, r4
 8000fa0:	46ab      	mov	fp, r5
 8000fa2:	bdf0      	pop	{r4, r5, r6, r7, pc}
 8000fa4:	42be      	cmp	r6, r7
 8000fa6:	d1f6      	bne.n	8000f96 <__eqdf2+0x3a>
 8000fa8:	45c8      	cmp	r8, r9
 8000faa:	d1f4      	bne.n	8000f96 <__eqdf2+0x3a>
 8000fac:	45d3      	cmp	fp, sl
 8000fae:	d010      	beq.n	8000fd2 <__eqdf2+0x76>
 8000fb0:	2d00      	cmp	r5, #0
 8000fb2:	d1f0      	bne.n	8000f96 <__eqdf2+0x3a>
 8000fb4:	4330      	orrs	r0, r6
 8000fb6:	0003      	movs	r3, r0
 8000fb8:	1e5a      	subs	r2, r3, #1
 8000fba:	4193      	sbcs	r3, r2
 8000fbc:	e7eb      	b.n	8000f96 <__eqdf2+0x3a>
 8000fbe:	0031      	movs	r1, r6
 8000fc0:	2301      	movs	r3, #1
 8000fc2:	4301      	orrs	r1, r0
 8000fc4:	d1e7      	bne.n	8000f96 <__eqdf2+0x3a>
 8000fc6:	e7e0      	b.n	8000f8a <__eqdf2+0x2e>
 8000fc8:	433a      	orrs	r2, r7
 8000fca:	2301      	movs	r3, #1
 8000fcc:	2a00      	cmp	r2, #0
 8000fce:	d1e2      	bne.n	8000f96 <__eqdf2+0x3a>
 8000fd0:	e7de      	b.n	8000f90 <__eqdf2+0x34>
 8000fd2:	2300      	movs	r3, #0
 8000fd4:	e7df      	b.n	8000f96 <__eqdf2+0x3a>
 8000fd6:	46c0      	nop			; (mov r8, r8)
 8000fd8:	000007ff 	.word	0x000007ff

08000fdc <__gedf2>:
 8000fdc:	b5f0      	push	{r4, r5, r6, r7, lr}
 8000fde:	465f      	mov	r7, fp
 8000fe0:	4644      	mov	r4, r8
 8000fe2:	4656      	mov	r6, sl
 8000fe4:	464d      	mov	r5, r9
 8000fe6:	b4f0      	push	{r4, r5, r6, r7}
 8000fe8:	031f      	lsls	r7, r3, #12
 8000fea:	0b3c      	lsrs	r4, r7, #12
 8000fec:	4f2c      	ldr	r7, [pc, #176]	; (80010a0 <__gedf2+0xc4>)
 8000fee:	030e      	lsls	r6, r1, #12
 8000ff0:	004d      	lsls	r5, r1, #1
 8000ff2:	46a3      	mov	fp, r4
 8000ff4:	005c      	lsls	r4, r3, #1
 8000ff6:	4684      	mov	ip, r0
 8000ff8:	0b36      	lsrs	r6, r6, #12
 8000ffa:	0d6d      	lsrs	r5, r5, #21
 8000ffc:	0fc9      	lsrs	r1, r1, #31
 8000ffe:	4690      	mov	r8, r2
 8001000:	0d64      	lsrs	r4, r4, #21
 8001002:	0fdb      	lsrs	r3, r3, #31
 8001004:	42bd      	cmp	r5, r7
 8001006:	d02b      	beq.n	8001060 <__gedf2+0x84>
 8001008:	4f25      	ldr	r7, [pc, #148]	; (80010a0 <__gedf2+0xc4>)
 800100a:	42bc      	cmp	r4, r7
 800100c:	d02e      	beq.n	800106c <__gedf2+0x90>
 800100e:	2d00      	cmp	r5, #0
 8001010:	d10e      	bne.n	8001030 <__gedf2+0x54>
 8001012:	4330      	orrs	r0, r6
 8001014:	0007      	movs	r7, r0
 8001016:	4681      	mov	r9, r0
 8001018:	4278      	negs	r0, r7
 800101a:	4178      	adcs	r0, r7
 800101c:	2c00      	cmp	r4, #0
 800101e:	d117      	bne.n	8001050 <__gedf2+0x74>
 8001020:	465f      	mov	r7, fp
 8001022:	433a      	orrs	r2, r7
 8001024:	d114      	bne.n	8001050 <__gedf2+0x74>
 8001026:	464b      	mov	r3, r9
 8001028:	2000      	movs	r0, #0
 800102a:	2b00      	cmp	r3, #0
 800102c:	d00a      	beq.n	8001044 <__gedf2+0x68>
 800102e:	e006      	b.n	800103e <__gedf2+0x62>
 8001030:	2c00      	cmp	r4, #0
 8001032:	d102      	bne.n	800103a <__gedf2+0x5e>
 8001034:	4658      	mov	r0, fp
 8001036:	4302      	orrs	r2, r0
 8001038:	d001      	beq.n	800103e <__gedf2+0x62>
 800103a:	4299      	cmp	r1, r3
 800103c:	d01a      	beq.n	8001074 <__gedf2+0x98>
 800103e:	2301      	movs	r3, #1
 8001040:	4248      	negs	r0, r1
 8001042:	4318      	orrs	r0, r3
 8001044:	bc3c      	pop	{r2, r3, r4, r5}
 8001046:	4690      	mov	r8, r2
 8001048:	4699      	mov	r9, r3
 800104a:	46a2      	mov	sl, r4
 800104c:	46ab      	mov	fp, r5
 800104e:	bdf0      	pop	{r4, r5, r6, r7, pc}
 8001050:	2800      	cmp	r0, #0
 8001052:	d0f2      	beq.n	800103a <__gedf2+0x5e>
 8001054:	4258      	negs	r0, r3
 8001056:	4158      	adcs	r0, r3
 8001058:	2201      	movs	r2, #1
 800105a:	4240      	negs	r0, r0
 800105c:	4310      	orrs	r0, r2
 800105e:	e7f1      	b.n	8001044 <__gedf2+0x68>
 8001060:	0037      	movs	r7, r6
 8001062:	4307      	orrs	r7, r0
 8001064:	d0d0      	beq.n	8001008 <__gedf2+0x2c>
 8001066:	2002      	movs	r0, #2
 8001068:	4240      	negs	r0, r0
 800106a:	e7eb      	b.n	8001044 <__gedf2+0x68>
 800106c:	465f      	mov	r7, fp
 800106e:	4317      	orrs	r7, r2
 8001070:	d0cd      	beq.n	800100e <__gedf2+0x32>
 8001072:	e7f8      	b.n	8001066 <__gedf2+0x8a>
 8001074:	42a5      	cmp	r5, r4
 8001076:	dce2      	bgt.n	800103e <__gedf2+0x62>
 8001078:	db05      	blt.n	8001086 <__gedf2+0xaa>
 800107a:	455e      	cmp	r6, fp
 800107c:	d8df      	bhi.n	800103e <__gedf2+0x62>
 800107e:	d008      	beq.n	8001092 <__gedf2+0xb6>
 8001080:	2000      	movs	r0, #0
 8001082:	455e      	cmp	r6, fp
 8001084:	d2de      	bcs.n	8001044 <__gedf2+0x68>
 8001086:	4248      	negs	r0, r1
 8001088:	4148      	adcs	r0, r1
 800108a:	2301      	movs	r3, #1
 800108c:	4240      	negs	r0, r0
 800108e:	4318      	orrs	r0, r3
 8001090:	e7d8      	b.n	8001044 <__gedf2+0x68>
 8001092:	45c4      	cmp	ip, r8
 8001094:	d8d3      	bhi.n	800103e <__gedf2+0x62>
 8001096:	2000      	movs	r0, #0
 8001098:	45c4      	cmp	ip, r8
 800109a:	d3f4      	bcc.n	8001086 <__gedf2+0xaa>
 800109c:	e7d2      	b.n	8001044 <__gedf2+0x68>
 800109e:	46c0      	nop			; (mov r8, r8)
 80010a0:	000007ff 	.word	0x000007ff

080010a4 <__ledf2>:
 80010a4:	b5f0      	push	{r4, r5, r6, r7, lr}
 80010a6:	465f      	mov	r7, fp
 80010a8:	464d      	mov	r5, r9
 80010aa:	4644      	mov	r4, r8
 80010ac:	4656      	mov	r6, sl
 80010ae:	b4f0      	push	{r4, r5, r6, r7}
 80010b0:	031c      	lsls	r4, r3, #12
 80010b2:	0b24      	lsrs	r4, r4, #12
 80010b4:	46a4      	mov	ip, r4
 80010b6:	4c2f      	ldr	r4, [pc, #188]	; (8001174 <__ledf2+0xd0>)
 80010b8:	030f      	lsls	r7, r1, #12
 80010ba:	004d      	lsls	r5, r1, #1
 80010bc:	005e      	lsls	r6, r3, #1
 80010be:	0fc9      	lsrs	r1, r1, #31
 80010c0:	4680      	mov	r8, r0
 80010c2:	0b3f      	lsrs	r7, r7, #12
 80010c4:	0d6d      	lsrs	r5, r5, #21
 80010c6:	468b      	mov	fp, r1
 80010c8:	4691      	mov	r9, r2
 80010ca:	0d76      	lsrs	r6, r6, #21
 80010cc:	0fdb      	lsrs	r3, r3, #31
 80010ce:	42a5      	cmp	r5, r4
 80010d0:	d020      	beq.n	8001114 <__ledf2+0x70>
 80010d2:	4c28      	ldr	r4, [pc, #160]	; (8001174 <__ledf2+0xd0>)
 80010d4:	42a6      	cmp	r6, r4
 80010d6:	d022      	beq.n	800111e <__ledf2+0x7a>
 80010d8:	2d00      	cmp	r5, #0
 80010da:	d112      	bne.n	8001102 <__ledf2+0x5e>
 80010dc:	4338      	orrs	r0, r7
 80010de:	4244      	negs	r4, r0
 80010e0:	4144      	adcs	r4, r0
 80010e2:	2e00      	cmp	r6, #0
 80010e4:	d020      	beq.n	8001128 <__ledf2+0x84>
 80010e6:	2c00      	cmp	r4, #0
 80010e8:	d00d      	beq.n	8001106 <__ledf2+0x62>
 80010ea:	425c      	negs	r4, r3
 80010ec:	4163      	adcs	r3, r4
 80010ee:	2401      	movs	r4, #1
 80010f0:	425b      	negs	r3, r3
 80010f2:	431c      	orrs	r4, r3
 80010f4:	0020      	movs	r0, r4
 80010f6:	bc3c      	pop	{r2, r3, r4, r5}
 80010f8:	4690      	mov	r8, r2
 80010fa:	4699      	mov	r9, r3
 80010fc:	46a2      	mov	sl, r4
 80010fe:	46ab      	mov	fp, r5
 8001100:	bdf0      	pop	{r4, r5, r6, r7, pc}
 8001102:	2e00      	cmp	r6, #0
 8001104:	d017      	beq.n	8001136 <__ledf2+0x92>
 8001106:	455b      	cmp	r3, fp
 8001108:	d019      	beq.n	800113e <__ledf2+0x9a>
 800110a:	465b      	mov	r3, fp
 800110c:	425c      	negs	r4, r3
 800110e:	2301      	movs	r3, #1
 8001110:	431c      	orrs	r4, r3
 8001112:	e7ef      	b.n	80010f4 <__ledf2+0x50>
 8001114:	0039      	movs	r1, r7
 8001116:	2402      	movs	r4, #2
 8001118:	4301      	orrs	r1, r0
 800111a:	d1eb      	bne.n	80010f4 <__ledf2+0x50>
 800111c:	e7d9      	b.n	80010d2 <__ledf2+0x2e>
 800111e:	4661      	mov	r1, ip
 8001120:	2402      	movs	r4, #2
 8001122:	4311      	orrs	r1, r2
 8001124:	d1e6      	bne.n	80010f4 <__ledf2+0x50>
 8001126:	e7d7      	b.n	80010d8 <__ledf2+0x34>
 8001128:	4661      	mov	r1, ip
 800112a:	430a      	orrs	r2, r1
 800112c:	d1db      	bne.n	80010e6 <__ledf2+0x42>
 800112e:	2400      	movs	r4, #0
 8001130:	2800      	cmp	r0, #0
 8001132:	d0df      	beq.n	80010f4 <__ledf2+0x50>
 8001134:	e7e9      	b.n	800110a <__ledf2+0x66>
 8001136:	4661      	mov	r1, ip
 8001138:	430a      	orrs	r2, r1
 800113a:	d1e4      	bne.n	8001106 <__ledf2+0x62>
 800113c:	e7e5      	b.n	800110a <__ledf2+0x66>
 800113e:	42b5      	cmp	r5, r6
 8001140:	dd03      	ble.n	800114a <__ledf2+0xa6>
 8001142:	2201      	movs	r2, #1
 8001144:	425c      	negs	r4, r3
 8001146:	4314      	orrs	r4, r2
 8001148:	e7d4      	b.n	80010f4 <__ledf2+0x50>
 800114a:	42b5      	cmp	r5, r6
 800114c:	dbcd      	blt.n	80010ea <__ledf2+0x46>
 800114e:	4567      	cmp	r7, ip
 8001150:	d8db      	bhi.n	800110a <__ledf2+0x66>
 8001152:	d009      	beq.n	8001168 <__ledf2+0xc4>
 8001154:	2400      	movs	r4, #0
 8001156:	4567      	cmp	r7, ip
 8001158:	d2cc      	bcs.n	80010f4 <__ledf2+0x50>
 800115a:	4659      	mov	r1, fp
 800115c:	424c      	negs	r4, r1
 800115e:	4161      	adcs	r1, r4
 8001160:	2401      	movs	r4, #1
 8001162:	4249      	negs	r1, r1
 8001164:	430c      	orrs	r4, r1
 8001166:	e7c5      	b.n	80010f4 <__ledf2+0x50>
 8001168:	45c8      	cmp	r8, r9
 800116a:	d8ce      	bhi.n	800110a <__ledf2+0x66>
 800116c:	2400      	movs	r4, #0
 800116e:	45c8      	cmp	r8, r9
 8001170:	d3f3      	bcc.n	800115a <__ledf2+0xb6>
 8001172:	e7bf      	b.n	80010f4 <__ledf2+0x50>
 8001174:	000007ff 	.word	0x000007ff

08001178 <__aeabi_dmul>:
 8001178:	b5f0      	push	{r4, r5, r6, r7, lr}
 800117a:	465f      	mov	r7, fp
 800117c:	4656      	mov	r6, sl
 800117e:	464d      	mov	r5, r9
 8001180:	4644      	mov	r4, r8
 8001182:	b4f0      	push	{r4, r5, r6, r7}
 8001184:	030d      	lsls	r5, r1, #12
 8001186:	4699      	mov	r9, r3
 8001188:	004e      	lsls	r6, r1, #1
 800118a:	0b2b      	lsrs	r3, r5, #12
 800118c:	b087      	sub	sp, #28
 800118e:	0007      	movs	r7, r0
 8001190:	4692      	mov	sl, r2
 8001192:	4680      	mov	r8, r0
 8001194:	469b      	mov	fp, r3
 8001196:	0d76      	lsrs	r6, r6, #21
 8001198:	0fcc      	lsrs	r4, r1, #31
 800119a:	2e00      	cmp	r6, #0
 800119c:	d069      	beq.n	8001272 <__aeabi_dmul+0xfa>
 800119e:	4b6d      	ldr	r3, [pc, #436]	; (8001354 <__aeabi_dmul+0x1dc>)
 80011a0:	429e      	cmp	r6, r3
 80011a2:	d035      	beq.n	8001210 <__aeabi_dmul+0x98>
 80011a4:	465b      	mov	r3, fp
 80011a6:	2280      	movs	r2, #128	; 0x80
 80011a8:	00dd      	lsls	r5, r3, #3
 80011aa:	0412      	lsls	r2, r2, #16
 80011ac:	0f43      	lsrs	r3, r0, #29
 80011ae:	4313      	orrs	r3, r2
 80011b0:	432b      	orrs	r3, r5
 80011b2:	469b      	mov	fp, r3
 80011b4:	00c3      	lsls	r3, r0, #3
 80011b6:	4698      	mov	r8, r3
 80011b8:	4b67      	ldr	r3, [pc, #412]	; (8001358 <__aeabi_dmul+0x1e0>)
 80011ba:	2700      	movs	r7, #0
 80011bc:	469c      	mov	ip, r3
 80011be:	2300      	movs	r3, #0
 80011c0:	4466      	add	r6, ip
 80011c2:	9301      	str	r3, [sp, #4]
 80011c4:	464a      	mov	r2, r9
 80011c6:	0315      	lsls	r5, r2, #12
 80011c8:	0050      	lsls	r0, r2, #1
 80011ca:	0fd2      	lsrs	r2, r2, #31
 80011cc:	4653      	mov	r3, sl
 80011ce:	0b2d      	lsrs	r5, r5, #12
 80011d0:	0d40      	lsrs	r0, r0, #21
 80011d2:	4691      	mov	r9, r2
 80011d4:	d100      	bne.n	80011d8 <__aeabi_dmul+0x60>
 80011d6:	e076      	b.n	80012c6 <__aeabi_dmul+0x14e>
 80011d8:	4a5e      	ldr	r2, [pc, #376]	; (8001354 <__aeabi_dmul+0x1dc>)
 80011da:	4290      	cmp	r0, r2
 80011dc:	d06c      	beq.n	80012b8 <__aeabi_dmul+0x140>
 80011de:	2280      	movs	r2, #128	; 0x80
 80011e0:	0f5b      	lsrs	r3, r3, #29
 80011e2:	0412      	lsls	r2, r2, #16
 80011e4:	4313      	orrs	r3, r2
 80011e6:	4a5c      	ldr	r2, [pc, #368]	; (8001358 <__aeabi_dmul+0x1e0>)
 80011e8:	00ed      	lsls	r5, r5, #3
 80011ea:	4694      	mov	ip, r2
 80011ec:	431d      	orrs	r5, r3
 80011ee:	4653      	mov	r3, sl
 80011f0:	2200      	movs	r2, #0
 80011f2:	00db      	lsls	r3, r3, #3
 80011f4:	4460      	add	r0, ip
 80011f6:	4649      	mov	r1, r9
 80011f8:	1836      	adds	r6, r6, r0
 80011fa:	1c70      	adds	r0, r6, #1
 80011fc:	4061      	eors	r1, r4
 80011fe:	9002      	str	r0, [sp, #8]
 8001200:	4317      	orrs	r7, r2
 8001202:	2f0f      	cmp	r7, #15
 8001204:	d900      	bls.n	8001208 <__aeabi_dmul+0x90>
 8001206:	e0af      	b.n	8001368 <__aeabi_dmul+0x1f0>
 8001208:	4854      	ldr	r0, [pc, #336]	; (800135c <__aeabi_dmul+0x1e4>)
 800120a:	00bf      	lsls	r7, r7, #2
 800120c:	59c7      	ldr	r7, [r0, r7]
 800120e:	46bf      	mov	pc, r7
 8001210:	465b      	mov	r3, fp
 8001212:	431f      	orrs	r7, r3
 8001214:	d000      	beq.n	8001218 <__aeabi_dmul+0xa0>
 8001216:	e088      	b.n	800132a <__aeabi_dmul+0x1b2>
 8001218:	2300      	movs	r3, #0
 800121a:	469b      	mov	fp, r3
 800121c:	4698      	mov	r8, r3
 800121e:	3302      	adds	r3, #2
 8001220:	2708      	movs	r7, #8
 8001222:	9301      	str	r3, [sp, #4]
 8001224:	e7ce      	b.n	80011c4 <__aeabi_dmul+0x4c>
 8001226:	4649      	mov	r1, r9
 8001228:	2a02      	cmp	r2, #2
 800122a:	d06a      	beq.n	8001302 <__aeabi_dmul+0x18a>
 800122c:	2a03      	cmp	r2, #3
 800122e:	d100      	bne.n	8001232 <__aeabi_dmul+0xba>
 8001230:	e209      	b.n	8001646 <__aeabi_dmul+0x4ce>
 8001232:	2a01      	cmp	r2, #1
 8001234:	d000      	beq.n	8001238 <__aeabi_dmul+0xc0>
 8001236:	e1bb      	b.n	80015b0 <__aeabi_dmul+0x438>
 8001238:	4011      	ands	r1, r2
 800123a:	2200      	movs	r2, #0
 800123c:	2300      	movs	r3, #0
 800123e:	2500      	movs	r5, #0
 8001240:	4690      	mov	r8, r2
 8001242:	b2cc      	uxtb	r4, r1
 8001244:	2100      	movs	r1, #0
 8001246:	032d      	lsls	r5, r5, #12
 8001248:	0d0a      	lsrs	r2, r1, #20
 800124a:	0512      	lsls	r2, r2, #20
 800124c:	0b2d      	lsrs	r5, r5, #12
 800124e:	4315      	orrs	r5, r2
 8001250:	4a43      	ldr	r2, [pc, #268]	; (8001360 <__aeabi_dmul+0x1e8>)
 8001252:	051b      	lsls	r3, r3, #20
 8001254:	4015      	ands	r5, r2
 8001256:	431d      	orrs	r5, r3
 8001258:	006d      	lsls	r5, r5, #1
 800125a:	07e4      	lsls	r4, r4, #31
 800125c:	086d      	lsrs	r5, r5, #1
 800125e:	4325      	orrs	r5, r4
 8001260:	4640      	mov	r0, r8
 8001262:	0029      	movs	r1, r5
 8001264:	b007      	add	sp, #28
 8001266:	bc3c      	pop	{r2, r3, r4, r5}
 8001268:	4690      	mov	r8, r2
 800126a:	4699      	mov	r9, r3
 800126c:	46a2      	mov	sl, r4
 800126e:	46ab      	mov	fp, r5
 8001270:	bdf0      	pop	{r4, r5, r6, r7, pc}
 8001272:	4303      	orrs	r3, r0
 8001274:	d052      	beq.n	800131c <__aeabi_dmul+0x1a4>
 8001276:	465b      	mov	r3, fp
 8001278:	2b00      	cmp	r3, #0
 800127a:	d100      	bne.n	800127e <__aeabi_dmul+0x106>
 800127c:	e18a      	b.n	8001594 <__aeabi_dmul+0x41c>
 800127e:	4658      	mov	r0, fp
 8001280:	f000 fe18 	bl	8001eb4 <__clzsi2>
 8001284:	0003      	movs	r3, r0
 8001286:	3b0b      	subs	r3, #11
 8001288:	2b1c      	cmp	r3, #28
 800128a:	dd00      	ble.n	800128e <__aeabi_dmul+0x116>
 800128c:	e17b      	b.n	8001586 <__aeabi_dmul+0x40e>
 800128e:	221d      	movs	r2, #29
 8001290:	1ad3      	subs	r3, r2, r3
 8001292:	003a      	movs	r2, r7
 8001294:	0001      	movs	r1, r0
 8001296:	465d      	mov	r5, fp
 8001298:	40da      	lsrs	r2, r3
 800129a:	3908      	subs	r1, #8
 800129c:	408d      	lsls	r5, r1
 800129e:	0013      	movs	r3, r2
 80012a0:	408f      	lsls	r7, r1
 80012a2:	432b      	orrs	r3, r5
 80012a4:	469b      	mov	fp, r3
 80012a6:	46b8      	mov	r8, r7
 80012a8:	4b2e      	ldr	r3, [pc, #184]	; (8001364 <__aeabi_dmul+0x1ec>)
 80012aa:	2700      	movs	r7, #0
 80012ac:	469c      	mov	ip, r3
 80012ae:	2300      	movs	r3, #0
 80012b0:	4460      	add	r0, ip
 80012b2:	4246      	negs	r6, r0
 80012b4:	9301      	str	r3, [sp, #4]
 80012b6:	e785      	b.n	80011c4 <__aeabi_dmul+0x4c>
 80012b8:	4652      	mov	r2, sl
 80012ba:	432a      	orrs	r2, r5
 80012bc:	d12c      	bne.n	8001318 <__aeabi_dmul+0x1a0>
 80012be:	2500      	movs	r5, #0
 80012c0:	2300      	movs	r3, #0
 80012c2:	2202      	movs	r2, #2
 80012c4:	e797      	b.n	80011f6 <__aeabi_dmul+0x7e>
 80012c6:	4652      	mov	r2, sl
 80012c8:	432a      	orrs	r2, r5
 80012ca:	d021      	beq.n	8001310 <__aeabi_dmul+0x198>
 80012cc:	2d00      	cmp	r5, #0
 80012ce:	d100      	bne.n	80012d2 <__aeabi_dmul+0x15a>
 80012d0:	e154      	b.n	800157c <__aeabi_dmul+0x404>
 80012d2:	0028      	movs	r0, r5
 80012d4:	f000 fdee 	bl	8001eb4 <__clzsi2>
 80012d8:	0003      	movs	r3, r0
 80012da:	3b0b      	subs	r3, #11
 80012dc:	2b1c      	cmp	r3, #28
 80012de:	dd00      	ble.n	80012e2 <__aeabi_dmul+0x16a>
 80012e0:	e146      	b.n	8001570 <__aeabi_dmul+0x3f8>
 80012e2:	211d      	movs	r1, #29
 80012e4:	1acb      	subs	r3, r1, r3
 80012e6:	4651      	mov	r1, sl
 80012e8:	0002      	movs	r2, r0
 80012ea:	40d9      	lsrs	r1, r3
 80012ec:	4653      	mov	r3, sl
 80012ee:	3a08      	subs	r2, #8
 80012f0:	4095      	lsls	r5, r2
 80012f2:	4093      	lsls	r3, r2
 80012f4:	430d      	orrs	r5, r1
 80012f6:	4a1b      	ldr	r2, [pc, #108]	; (8001364 <__aeabi_dmul+0x1ec>)
 80012f8:	4694      	mov	ip, r2
 80012fa:	4460      	add	r0, ip
 80012fc:	4240      	negs	r0, r0
 80012fe:	2200      	movs	r2, #0
 8001300:	e779      	b.n	80011f6 <__aeabi_dmul+0x7e>
 8001302:	2401      	movs	r4, #1
 8001304:	2200      	movs	r2, #0
 8001306:	400c      	ands	r4, r1
 8001308:	4b12      	ldr	r3, [pc, #72]	; (8001354 <__aeabi_dmul+0x1dc>)
 800130a:	2500      	movs	r5, #0
 800130c:	4690      	mov	r8, r2
 800130e:	e799      	b.n	8001244 <__aeabi_dmul+0xcc>
 8001310:	2500      	movs	r5, #0
 8001312:	2300      	movs	r3, #0
 8001314:	2201      	movs	r2, #1
 8001316:	e76e      	b.n	80011f6 <__aeabi_dmul+0x7e>
 8001318:	2203      	movs	r2, #3
 800131a:	e76c      	b.n	80011f6 <__aeabi_dmul+0x7e>
 800131c:	2300      	movs	r3, #0
 800131e:	469b      	mov	fp, r3
 8001320:	4698      	mov	r8, r3
 8001322:	3301      	adds	r3, #1
 8001324:	2704      	movs	r7, #4
 8001326:	9301      	str	r3, [sp, #4]
 8001328:	e74c      	b.n	80011c4 <__aeabi_dmul+0x4c>
 800132a:	2303      	movs	r3, #3
 800132c:	270c      	movs	r7, #12
 800132e:	9301      	str	r3, [sp, #4]
 8001330:	e748      	b.n	80011c4 <__aeabi_dmul+0x4c>
 8001332:	2300      	movs	r3, #0
 8001334:	2580      	movs	r5, #128	; 0x80
 8001336:	4698      	mov	r8, r3
 8001338:	2400      	movs	r4, #0
 800133a:	032d      	lsls	r5, r5, #12
 800133c:	4b05      	ldr	r3, [pc, #20]	; (8001354 <__aeabi_dmul+0x1dc>)
 800133e:	e781      	b.n	8001244 <__aeabi_dmul+0xcc>
 8001340:	465d      	mov	r5, fp
 8001342:	4643      	mov	r3, r8
 8001344:	9a01      	ldr	r2, [sp, #4]
 8001346:	e76f      	b.n	8001228 <__aeabi_dmul+0xb0>
 8001348:	465d      	mov	r5, fp
 800134a:	4643      	mov	r3, r8
 800134c:	0021      	movs	r1, r4
 800134e:	9a01      	ldr	r2, [sp, #4]
 8001350:	e76a      	b.n	8001228 <__aeabi_dmul+0xb0>
 8001352:	46c0      	nop			; (mov r8, r8)
 8001354:	000007ff 	.word	0x000007ff
 8001358:	fffffc01 	.word	0xfffffc01
 800135c:	08007528 	.word	0x08007528
 8001360:	800fffff 	.word	0x800fffff
 8001364:	000003f3 	.word	0x000003f3
 8001368:	4642      	mov	r2, r8
 800136a:	0c12      	lsrs	r2, r2, #16
 800136c:	4691      	mov	r9, r2
 800136e:	0c1a      	lsrs	r2, r3, #16
 8001370:	4694      	mov	ip, r2
 8001372:	4642      	mov	r2, r8
 8001374:	0417      	lsls	r7, r2, #16
 8001376:	464a      	mov	r2, r9
 8001378:	041b      	lsls	r3, r3, #16
 800137a:	0c1b      	lsrs	r3, r3, #16
 800137c:	435a      	muls	r2, r3
 800137e:	4660      	mov	r0, ip
 8001380:	4690      	mov	r8, r2
 8001382:	464a      	mov	r2, r9
 8001384:	4342      	muls	r2, r0
 8001386:	0010      	movs	r0, r2
 8001388:	9203      	str	r2, [sp, #12]
 800138a:	4662      	mov	r2, ip
 800138c:	001c      	movs	r4, r3
 800138e:	0c3f      	lsrs	r7, r7, #16
 8001390:	437a      	muls	r2, r7
 8001392:	437c      	muls	r4, r7
 8001394:	4442      	add	r2, r8
 8001396:	9201      	str	r2, [sp, #4]
 8001398:	0c22      	lsrs	r2, r4, #16
 800139a:	4692      	mov	sl, r2
 800139c:	9a01      	ldr	r2, [sp, #4]
 800139e:	4452      	add	r2, sl
 80013a0:	4590      	cmp	r8, r2
 80013a2:	d906      	bls.n	80013b2 <__aeabi_dmul+0x23a>
 80013a4:	4682      	mov	sl, r0
 80013a6:	2080      	movs	r0, #128	; 0x80
 80013a8:	0240      	lsls	r0, r0, #9
 80013aa:	4680      	mov	r8, r0
 80013ac:	44c2      	add	sl, r8
 80013ae:	4650      	mov	r0, sl
 80013b0:	9003      	str	r0, [sp, #12]
 80013b2:	0c10      	lsrs	r0, r2, #16
 80013b4:	9004      	str	r0, [sp, #16]
 80013b6:	4648      	mov	r0, r9
 80013b8:	0424      	lsls	r4, r4, #16
 80013ba:	0c24      	lsrs	r4, r4, #16
 80013bc:	0412      	lsls	r2, r2, #16
 80013be:	1912      	adds	r2, r2, r4
 80013c0:	9205      	str	r2, [sp, #20]
 80013c2:	0c2a      	lsrs	r2, r5, #16
 80013c4:	042d      	lsls	r5, r5, #16
 80013c6:	0c2d      	lsrs	r5, r5, #16
 80013c8:	4368      	muls	r0, r5
 80013ca:	002c      	movs	r4, r5
 80013cc:	4682      	mov	sl, r0
 80013ce:	4648      	mov	r0, r9
 80013d0:	437c      	muls	r4, r7
 80013d2:	4350      	muls	r0, r2
 80013d4:	4681      	mov	r9, r0
 80013d6:	0c20      	lsrs	r0, r4, #16
 80013d8:	4680      	mov	r8, r0
 80013da:	4357      	muls	r7, r2
 80013dc:	4457      	add	r7, sl
 80013de:	4447      	add	r7, r8
 80013e0:	45ba      	cmp	sl, r7
 80013e2:	d903      	bls.n	80013ec <__aeabi_dmul+0x274>
 80013e4:	2080      	movs	r0, #128	; 0x80
 80013e6:	0240      	lsls	r0, r0, #9
 80013e8:	4680      	mov	r8, r0
 80013ea:	44c1      	add	r9, r8
 80013ec:	0c38      	lsrs	r0, r7, #16
 80013ee:	043f      	lsls	r7, r7, #16
 80013f0:	46b8      	mov	r8, r7
 80013f2:	4448      	add	r0, r9
 80013f4:	0424      	lsls	r4, r4, #16
 80013f6:	0c24      	lsrs	r4, r4, #16
 80013f8:	9001      	str	r0, [sp, #4]
 80013fa:	9804      	ldr	r0, [sp, #16]
 80013fc:	44a0      	add	r8, r4
 80013fe:	4440      	add	r0, r8
 8001400:	9004      	str	r0, [sp, #16]
 8001402:	4658      	mov	r0, fp
 8001404:	0c00      	lsrs	r0, r0, #16
 8001406:	4681      	mov	r9, r0
 8001408:	4658      	mov	r0, fp
 800140a:	0404      	lsls	r4, r0, #16
 800140c:	0c20      	lsrs	r0, r4, #16
 800140e:	4682      	mov	sl, r0
 8001410:	0007      	movs	r7, r0
 8001412:	4648      	mov	r0, r9
 8001414:	435f      	muls	r7, r3
 8001416:	464c      	mov	r4, r9
 8001418:	4343      	muls	r3, r0
 800141a:	4660      	mov	r0, ip
 800141c:	4360      	muls	r0, r4
 800141e:	4664      	mov	r4, ip
 8001420:	4683      	mov	fp, r0
 8001422:	4650      	mov	r0, sl
 8001424:	4344      	muls	r4, r0
 8001426:	0c38      	lsrs	r0, r7, #16
 8001428:	4684      	mov	ip, r0
 800142a:	18e4      	adds	r4, r4, r3
 800142c:	4464      	add	r4, ip
 800142e:	42a3      	cmp	r3, r4
 8001430:	d903      	bls.n	800143a <__aeabi_dmul+0x2c2>
 8001432:	2380      	movs	r3, #128	; 0x80
 8001434:	025b      	lsls	r3, r3, #9
 8001436:	469c      	mov	ip, r3
 8001438:	44e3      	add	fp, ip
 800143a:	4648      	mov	r0, r9
 800143c:	043f      	lsls	r7, r7, #16
 800143e:	0c23      	lsrs	r3, r4, #16
 8001440:	0c3f      	lsrs	r7, r7, #16
 8001442:	0424      	lsls	r4, r4, #16
 8001444:	19e4      	adds	r4, r4, r7
 8001446:	4657      	mov	r7, sl
 8001448:	4368      	muls	r0, r5
 800144a:	436f      	muls	r7, r5
 800144c:	4684      	mov	ip, r0
 800144e:	464d      	mov	r5, r9
 8001450:	4650      	mov	r0, sl
 8001452:	4355      	muls	r5, r2
 8001454:	4342      	muls	r2, r0
 8001456:	0c38      	lsrs	r0, r7, #16
 8001458:	4681      	mov	r9, r0
 800145a:	4462      	add	r2, ip
 800145c:	444a      	add	r2, r9
 800145e:	445b      	add	r3, fp
 8001460:	4594      	cmp	ip, r2
 8001462:	d903      	bls.n	800146c <__aeabi_dmul+0x2f4>
 8001464:	2080      	movs	r0, #128	; 0x80
 8001466:	0240      	lsls	r0, r0, #9
 8001468:	4684      	mov	ip, r0
 800146a:	4465      	add	r5, ip
 800146c:	9803      	ldr	r0, [sp, #12]
 800146e:	043f      	lsls	r7, r7, #16
 8001470:	4683      	mov	fp, r0
 8001472:	9804      	ldr	r0, [sp, #16]
 8001474:	0c3f      	lsrs	r7, r7, #16
 8001476:	4684      	mov	ip, r0
 8001478:	44e3      	add	fp, ip
 800147a:	45c3      	cmp	fp, r8
 800147c:	4180      	sbcs	r0, r0
 800147e:	4240      	negs	r0, r0
 8001480:	4682      	mov	sl, r0
 8001482:	0410      	lsls	r0, r2, #16
 8001484:	4684      	mov	ip, r0
 8001486:	9801      	ldr	r0, [sp, #4]
 8001488:	4467      	add	r7, ip
 800148a:	4684      	mov	ip, r0
 800148c:	4467      	add	r7, ip
 800148e:	44a3      	add	fp, r4
 8001490:	46bc      	mov	ip, r7
 8001492:	45a3      	cmp	fp, r4
 8001494:	41a4      	sbcs	r4, r4
 8001496:	4699      	mov	r9, r3
 8001498:	44d4      	add	ip, sl
 800149a:	4264      	negs	r4, r4
 800149c:	4287      	cmp	r7, r0
 800149e:	41bf      	sbcs	r7, r7
 80014a0:	45d4      	cmp	ip, sl
 80014a2:	4180      	sbcs	r0, r0
 80014a4:	44e1      	add	r9, ip
 80014a6:	46a0      	mov	r8, r4
 80014a8:	4599      	cmp	r9, r3
 80014aa:	419b      	sbcs	r3, r3
 80014ac:	427f      	negs	r7, r7
 80014ae:	4240      	negs	r0, r0
 80014b0:	44c8      	add	r8, r9
 80014b2:	4307      	orrs	r7, r0
 80014b4:	0c12      	lsrs	r2, r2, #16
 80014b6:	18ba      	adds	r2, r7, r2
 80014b8:	45a0      	cmp	r8, r4
 80014ba:	41a4      	sbcs	r4, r4
 80014bc:	425f      	negs	r7, r3
 80014be:	003b      	movs	r3, r7
 80014c0:	4264      	negs	r4, r4
 80014c2:	4323      	orrs	r3, r4
 80014c4:	18d7      	adds	r7, r2, r3
 80014c6:	4643      	mov	r3, r8
 80014c8:	197d      	adds	r5, r7, r5
 80014ca:	0ddb      	lsrs	r3, r3, #23
 80014cc:	026d      	lsls	r5, r5, #9
 80014ce:	431d      	orrs	r5, r3
 80014d0:	465b      	mov	r3, fp
 80014d2:	025a      	lsls	r2, r3, #9
 80014d4:	9b05      	ldr	r3, [sp, #20]
 80014d6:	431a      	orrs	r2, r3
 80014d8:	1e53      	subs	r3, r2, #1
 80014da:	419a      	sbcs	r2, r3
 80014dc:	465b      	mov	r3, fp
 80014de:	0ddb      	lsrs	r3, r3, #23
 80014e0:	431a      	orrs	r2, r3
 80014e2:	4643      	mov	r3, r8
 80014e4:	025b      	lsls	r3, r3, #9
 80014e6:	4313      	orrs	r3, r2
 80014e8:	01ea      	lsls	r2, r5, #7
 80014ea:	d507      	bpl.n	80014fc <__aeabi_dmul+0x384>
 80014ec:	2201      	movs	r2, #1
 80014ee:	085c      	lsrs	r4, r3, #1
 80014f0:	4013      	ands	r3, r2
 80014f2:	4323      	orrs	r3, r4
 80014f4:	07ea      	lsls	r2, r5, #31
 80014f6:	9e02      	ldr	r6, [sp, #8]
 80014f8:	4313      	orrs	r3, r2
 80014fa:	086d      	lsrs	r5, r5, #1
 80014fc:	4a57      	ldr	r2, [pc, #348]	; (800165c <__aeabi_dmul+0x4e4>)
 80014fe:	18b2      	adds	r2, r6, r2
 8001500:	2a00      	cmp	r2, #0
 8001502:	dd4b      	ble.n	800159c <__aeabi_dmul+0x424>
 8001504:	0758      	lsls	r0, r3, #29
 8001506:	d009      	beq.n	800151c <__aeabi_dmul+0x3a4>
 8001508:	200f      	movs	r0, #15
 800150a:	4018      	ands	r0, r3
 800150c:	2804      	cmp	r0, #4
 800150e:	d005      	beq.n	800151c <__aeabi_dmul+0x3a4>
 8001510:	1d18      	adds	r0, r3, #4
 8001512:	4298      	cmp	r0, r3
 8001514:	419b      	sbcs	r3, r3
 8001516:	425b      	negs	r3, r3
 8001518:	18ed      	adds	r5, r5, r3
 800151a:	0003      	movs	r3, r0
 800151c:	01e8      	lsls	r0, r5, #7
 800151e:	d504      	bpl.n	800152a <__aeabi_dmul+0x3b2>
 8001520:	4a4f      	ldr	r2, [pc, #316]	; (8001660 <__aeabi_dmul+0x4e8>)
 8001522:	4015      	ands	r5, r2
 8001524:	2280      	movs	r2, #128	; 0x80
 8001526:	00d2      	lsls	r2, r2, #3
 8001528:	18b2      	adds	r2, r6, r2
 800152a:	484e      	ldr	r0, [pc, #312]	; (8001664 <__aeabi_dmul+0x4ec>)
 800152c:	4282      	cmp	r2, r0
 800152e:	dd00      	ble.n	8001532 <__aeabi_dmul+0x3ba>
 8001530:	e6e7      	b.n	8001302 <__aeabi_dmul+0x18a>
 8001532:	2401      	movs	r4, #1
 8001534:	08db      	lsrs	r3, r3, #3
 8001536:	0768      	lsls	r0, r5, #29
 8001538:	4318      	orrs	r0, r3
 800153a:	026d      	lsls	r5, r5, #9
 800153c:	0553      	lsls	r3, r2, #21
 800153e:	4680      	mov	r8, r0
 8001540:	0b2d      	lsrs	r5, r5, #12
 8001542:	0d5b      	lsrs	r3, r3, #21
 8001544:	400c      	ands	r4, r1
 8001546:	e67d      	b.n	8001244 <__aeabi_dmul+0xcc>
 8001548:	2280      	movs	r2, #128	; 0x80
 800154a:	4659      	mov	r1, fp
 800154c:	0312      	lsls	r2, r2, #12
 800154e:	4211      	tst	r1, r2
 8001550:	d008      	beq.n	8001564 <__aeabi_dmul+0x3ec>
 8001552:	4215      	tst	r5, r2
 8001554:	d106      	bne.n	8001564 <__aeabi_dmul+0x3ec>
 8001556:	4315      	orrs	r5, r2
 8001558:	032d      	lsls	r5, r5, #12
 800155a:	4698      	mov	r8, r3
 800155c:	0b2d      	lsrs	r5, r5, #12
 800155e:	464c      	mov	r4, r9
 8001560:	4b41      	ldr	r3, [pc, #260]	; (8001668 <__aeabi_dmul+0x4f0>)
 8001562:	e66f      	b.n	8001244 <__aeabi_dmul+0xcc>
 8001564:	465d      	mov	r5, fp
 8001566:	4315      	orrs	r5, r2
 8001568:	032d      	lsls	r5, r5, #12
 800156a:	0b2d      	lsrs	r5, r5, #12
 800156c:	4b3e      	ldr	r3, [pc, #248]	; (8001668 <__aeabi_dmul+0x4f0>)
 800156e:	e669      	b.n	8001244 <__aeabi_dmul+0xcc>
 8001570:	0003      	movs	r3, r0
 8001572:	4655      	mov	r5, sl
 8001574:	3b28      	subs	r3, #40	; 0x28
 8001576:	409d      	lsls	r5, r3
 8001578:	2300      	movs	r3, #0
 800157a:	e6bc      	b.n	80012f6 <__aeabi_dmul+0x17e>
 800157c:	4650      	mov	r0, sl
 800157e:	f000 fc99 	bl	8001eb4 <__clzsi2>
 8001582:	3020      	adds	r0, #32
 8001584:	e6a8      	b.n	80012d8 <__aeabi_dmul+0x160>
 8001586:	0003      	movs	r3, r0
 8001588:	3b28      	subs	r3, #40	; 0x28
 800158a:	409f      	lsls	r7, r3
 800158c:	2300      	movs	r3, #0
 800158e:	46bb      	mov	fp, r7
 8001590:	4698      	mov	r8, r3
 8001592:	e689      	b.n	80012a8 <__aeabi_dmul+0x130>
 8001594:	f000 fc8e 	bl	8001eb4 <__clzsi2>
 8001598:	3020      	adds	r0, #32
 800159a:	e673      	b.n	8001284 <__aeabi_dmul+0x10c>
 800159c:	2401      	movs	r4, #1
 800159e:	1aa6      	subs	r6, r4, r2
 80015a0:	2e38      	cmp	r6, #56	; 0x38
 80015a2:	dd07      	ble.n	80015b4 <__aeabi_dmul+0x43c>
 80015a4:	2200      	movs	r2, #0
 80015a6:	400c      	ands	r4, r1
 80015a8:	2300      	movs	r3, #0
 80015aa:	2500      	movs	r5, #0
 80015ac:	4690      	mov	r8, r2
 80015ae:	e649      	b.n	8001244 <__aeabi_dmul+0xcc>
 80015b0:	9e02      	ldr	r6, [sp, #8]
 80015b2:	e7a3      	b.n	80014fc <__aeabi_dmul+0x384>
 80015b4:	2e1f      	cmp	r6, #31
 80015b6:	dc20      	bgt.n	80015fa <__aeabi_dmul+0x482>
 80015b8:	2220      	movs	r2, #32
 80015ba:	002c      	movs	r4, r5
 80015bc:	0018      	movs	r0, r3
 80015be:	1b92      	subs	r2, r2, r6
 80015c0:	40f0      	lsrs	r0, r6
 80015c2:	4094      	lsls	r4, r2
 80015c4:	4093      	lsls	r3, r2
 80015c6:	4304      	orrs	r4, r0
 80015c8:	1e58      	subs	r0, r3, #1
 80015ca:	4183      	sbcs	r3, r0
 80015cc:	431c      	orrs	r4, r3
 80015ce:	40f5      	lsrs	r5, r6
 80015d0:	0763      	lsls	r3, r4, #29
 80015d2:	d009      	beq.n	80015e8 <__aeabi_dmul+0x470>
 80015d4:	230f      	movs	r3, #15
 80015d6:	4023      	ands	r3, r4
 80015d8:	2b04      	cmp	r3, #4
 80015da:	d005      	beq.n	80015e8 <__aeabi_dmul+0x470>
 80015dc:	0023      	movs	r3, r4
 80015de:	1d1c      	adds	r4, r3, #4
 80015e0:	429c      	cmp	r4, r3
 80015e2:	4192      	sbcs	r2, r2
 80015e4:	4252      	negs	r2, r2
 80015e6:	18ad      	adds	r5, r5, r2
 80015e8:	022b      	lsls	r3, r5, #8
 80015ea:	d51f      	bpl.n	800162c <__aeabi_dmul+0x4b4>
 80015ec:	2401      	movs	r4, #1
 80015ee:	2200      	movs	r2, #0
 80015f0:	400c      	ands	r4, r1
 80015f2:	2301      	movs	r3, #1
 80015f4:	2500      	movs	r5, #0
 80015f6:	4690      	mov	r8, r2
 80015f8:	e624      	b.n	8001244 <__aeabi_dmul+0xcc>
 80015fa:	201f      	movs	r0, #31
 80015fc:	002c      	movs	r4, r5
 80015fe:	4240      	negs	r0, r0
 8001600:	1a82      	subs	r2, r0, r2
 8001602:	40d4      	lsrs	r4, r2
 8001604:	2e20      	cmp	r6, #32
 8001606:	d01c      	beq.n	8001642 <__aeabi_dmul+0x4ca>
 8001608:	2240      	movs	r2, #64	; 0x40
 800160a:	1b96      	subs	r6, r2, r6
 800160c:	40b5      	lsls	r5, r6
 800160e:	432b      	orrs	r3, r5
 8001610:	1e58      	subs	r0, r3, #1
 8001612:	4183      	sbcs	r3, r0
 8001614:	2007      	movs	r0, #7
 8001616:	4323      	orrs	r3, r4
 8001618:	4018      	ands	r0, r3
 800161a:	2500      	movs	r5, #0
 800161c:	2800      	cmp	r0, #0
 800161e:	d009      	beq.n	8001634 <__aeabi_dmul+0x4bc>
 8001620:	220f      	movs	r2, #15
 8001622:	2500      	movs	r5, #0
 8001624:	401a      	ands	r2, r3
 8001626:	001c      	movs	r4, r3
 8001628:	2a04      	cmp	r2, #4
 800162a:	d1d8      	bne.n	80015de <__aeabi_dmul+0x466>
 800162c:	0023      	movs	r3, r4
 800162e:	0768      	lsls	r0, r5, #29
 8001630:	026d      	lsls	r5, r5, #9
 8001632:	0b2d      	lsrs	r5, r5, #12
 8001634:	2401      	movs	r4, #1
 8001636:	08db      	lsrs	r3, r3, #3
 8001638:	4303      	orrs	r3, r0
 800163a:	4698      	mov	r8, r3
 800163c:	400c      	ands	r4, r1
 800163e:	2300      	movs	r3, #0
 8001640:	e600      	b.n	8001244 <__aeabi_dmul+0xcc>
 8001642:	2500      	movs	r5, #0
 8001644:	e7e3      	b.n	800160e <__aeabi_dmul+0x496>
 8001646:	2280      	movs	r2, #128	; 0x80
 8001648:	2401      	movs	r4, #1
 800164a:	0312      	lsls	r2, r2, #12
 800164c:	4315      	orrs	r5, r2
 800164e:	032d      	lsls	r5, r5, #12
 8001650:	4698      	mov	r8, r3
 8001652:	0b2d      	lsrs	r5, r5, #12
 8001654:	400c      	ands	r4, r1
 8001656:	4b04      	ldr	r3, [pc, #16]	; (8001668 <__aeabi_dmul+0x4f0>)
 8001658:	e5f4      	b.n	8001244 <__aeabi_dmul+0xcc>
 800165a:	46c0      	nop			; (mov r8, r8)
 800165c:	000003ff 	.word	0x000003ff
 8001660:	feffffff 	.word	0xfeffffff
 8001664:	000007fe 	.word	0x000007fe
 8001668:	000007ff 	.word	0x000007ff

0800166c <__aeabi_dsub>:
 800166c:	b5f0      	push	{r4, r5, r6, r7, lr}
 800166e:	4657      	mov	r7, sl
 8001670:	464e      	mov	r6, r9
 8001672:	4645      	mov	r5, r8
 8001674:	b4e0      	push	{r5, r6, r7}
 8001676:	000e      	movs	r6, r1
 8001678:	0011      	movs	r1, r2
 800167a:	0ff2      	lsrs	r2, r6, #31
 800167c:	4692      	mov	sl, r2
 800167e:	00c5      	lsls	r5, r0, #3
 8001680:	0f42      	lsrs	r2, r0, #29
 8001682:	0318      	lsls	r0, r3, #12
 8001684:	0337      	lsls	r7, r6, #12
 8001686:	0074      	lsls	r4, r6, #1
 8001688:	0a40      	lsrs	r0, r0, #9
 800168a:	0f4e      	lsrs	r6, r1, #29
 800168c:	0a7f      	lsrs	r7, r7, #9
 800168e:	4330      	orrs	r0, r6
 8001690:	4ecf      	ldr	r6, [pc, #828]	; (80019d0 <__aeabi_dsub+0x364>)
 8001692:	4317      	orrs	r7, r2
 8001694:	005a      	lsls	r2, r3, #1
 8001696:	0d64      	lsrs	r4, r4, #21
 8001698:	0d52      	lsrs	r2, r2, #21
 800169a:	0fdb      	lsrs	r3, r3, #31
 800169c:	00c9      	lsls	r1, r1, #3
 800169e:	42b2      	cmp	r2, r6
 80016a0:	d100      	bne.n	80016a4 <__aeabi_dsub+0x38>
 80016a2:	e0e5      	b.n	8001870 <__aeabi_dsub+0x204>
 80016a4:	2601      	movs	r6, #1
 80016a6:	4073      	eors	r3, r6
 80016a8:	1aa6      	subs	r6, r4, r2
 80016aa:	46b4      	mov	ip, r6
 80016ac:	4553      	cmp	r3, sl
 80016ae:	d100      	bne.n	80016b2 <__aeabi_dsub+0x46>
 80016b0:	e0af      	b.n	8001812 <__aeabi_dsub+0x1a6>
 80016b2:	2e00      	cmp	r6, #0
 80016b4:	dc00      	bgt.n	80016b8 <__aeabi_dsub+0x4c>
 80016b6:	e10d      	b.n	80018d4 <__aeabi_dsub+0x268>
 80016b8:	2a00      	cmp	r2, #0
 80016ba:	d13a      	bne.n	8001732 <__aeabi_dsub+0xc6>
 80016bc:	0003      	movs	r3, r0
 80016be:	430b      	orrs	r3, r1
 80016c0:	d000      	beq.n	80016c4 <__aeabi_dsub+0x58>
 80016c2:	e0e4      	b.n	800188e <__aeabi_dsub+0x222>
 80016c4:	076b      	lsls	r3, r5, #29
 80016c6:	d009      	beq.n	80016dc <__aeabi_dsub+0x70>
 80016c8:	230f      	movs	r3, #15
 80016ca:	402b      	ands	r3, r5
 80016cc:	2b04      	cmp	r3, #4
 80016ce:	d005      	beq.n	80016dc <__aeabi_dsub+0x70>
 80016d0:	1d2b      	adds	r3, r5, #4
 80016d2:	42ab      	cmp	r3, r5
 80016d4:	41ad      	sbcs	r5, r5
 80016d6:	426d      	negs	r5, r5
 80016d8:	197f      	adds	r7, r7, r5
 80016da:	001d      	movs	r5, r3
 80016dc:	023b      	lsls	r3, r7, #8
 80016de:	d400      	bmi.n	80016e2 <__aeabi_dsub+0x76>
 80016e0:	e088      	b.n	80017f4 <__aeabi_dsub+0x188>
 80016e2:	4bbb      	ldr	r3, [pc, #748]	; (80019d0 <__aeabi_dsub+0x364>)
 80016e4:	3401      	adds	r4, #1
 80016e6:	429c      	cmp	r4, r3
 80016e8:	d100      	bne.n	80016ec <__aeabi_dsub+0x80>
 80016ea:	e110      	b.n	800190e <__aeabi_dsub+0x2a2>
 80016ec:	003a      	movs	r2, r7
 80016ee:	4bb9      	ldr	r3, [pc, #740]	; (80019d4 <__aeabi_dsub+0x368>)
 80016f0:	4651      	mov	r1, sl
 80016f2:	401a      	ands	r2, r3
 80016f4:	2301      	movs	r3, #1
 80016f6:	0750      	lsls	r0, r2, #29
 80016f8:	08ed      	lsrs	r5, r5, #3
 80016fa:	0252      	lsls	r2, r2, #9
 80016fc:	0564      	lsls	r4, r4, #21
 80016fe:	4305      	orrs	r5, r0
 8001700:	0b12      	lsrs	r2, r2, #12
 8001702:	0d64      	lsrs	r4, r4, #21
 8001704:	400b      	ands	r3, r1
 8001706:	2100      	movs	r1, #0
 8001708:	0028      	movs	r0, r5
 800170a:	0312      	lsls	r2, r2, #12
 800170c:	0d0d      	lsrs	r5, r1, #20
 800170e:	0b12      	lsrs	r2, r2, #12
 8001710:	0564      	lsls	r4, r4, #21
 8001712:	052d      	lsls	r5, r5, #20
 8001714:	4315      	orrs	r5, r2
 8001716:	0862      	lsrs	r2, r4, #1
 8001718:	4caf      	ldr	r4, [pc, #700]	; (80019d8 <__aeabi_dsub+0x36c>)
 800171a:	07db      	lsls	r3, r3, #31
 800171c:	402c      	ands	r4, r5
 800171e:	4314      	orrs	r4, r2
 8001720:	0064      	lsls	r4, r4, #1
 8001722:	0864      	lsrs	r4, r4, #1
 8001724:	431c      	orrs	r4, r3
 8001726:	0021      	movs	r1, r4
 8001728:	bc1c      	pop	{r2, r3, r4}
 800172a:	4690      	mov	r8, r2
 800172c:	4699      	mov	r9, r3
 800172e:	46a2      	mov	sl, r4
 8001730:	bdf0      	pop	{r4, r5, r6, r7, pc}
 8001732:	4ba7      	ldr	r3, [pc, #668]	; (80019d0 <__aeabi_dsub+0x364>)
 8001734:	429c      	cmp	r4, r3
 8001736:	d0c5      	beq.n	80016c4 <__aeabi_dsub+0x58>
 8001738:	2380      	movs	r3, #128	; 0x80
 800173a:	041b      	lsls	r3, r3, #16
 800173c:	4318      	orrs	r0, r3
 800173e:	4663      	mov	r3, ip
 8001740:	2b38      	cmp	r3, #56	; 0x38
 8001742:	dd00      	ble.n	8001746 <__aeabi_dsub+0xda>
 8001744:	e0fd      	b.n	8001942 <__aeabi_dsub+0x2d6>
 8001746:	2b1f      	cmp	r3, #31
 8001748:	dd00      	ble.n	800174c <__aeabi_dsub+0xe0>
 800174a:	e130      	b.n	80019ae <__aeabi_dsub+0x342>
 800174c:	4662      	mov	r2, ip
 800174e:	2320      	movs	r3, #32
 8001750:	1a9b      	subs	r3, r3, r2
 8001752:	0002      	movs	r2, r0
 8001754:	409a      	lsls	r2, r3
 8001756:	4666      	mov	r6, ip
 8001758:	4690      	mov	r8, r2
 800175a:	000a      	movs	r2, r1
 800175c:	4099      	lsls	r1, r3
 800175e:	40f2      	lsrs	r2, r6
 8001760:	4646      	mov	r6, r8
 8001762:	1e4b      	subs	r3, r1, #1
 8001764:	4199      	sbcs	r1, r3
 8001766:	4332      	orrs	r2, r6
 8001768:	4311      	orrs	r1, r2
 800176a:	4663      	mov	r3, ip
 800176c:	0002      	movs	r2, r0
 800176e:	40da      	lsrs	r2, r3
 8001770:	1a69      	subs	r1, r5, r1
 8001772:	428d      	cmp	r5, r1
 8001774:	419b      	sbcs	r3, r3
 8001776:	000d      	movs	r5, r1
 8001778:	1aba      	subs	r2, r7, r2
 800177a:	425b      	negs	r3, r3
 800177c:	1ad7      	subs	r7, r2, r3
 800177e:	023b      	lsls	r3, r7, #8
 8001780:	d535      	bpl.n	80017ee <__aeabi_dsub+0x182>
 8001782:	027a      	lsls	r2, r7, #9
 8001784:	0a53      	lsrs	r3, r2, #9
 8001786:	4698      	mov	r8, r3
 8001788:	4643      	mov	r3, r8
 800178a:	2b00      	cmp	r3, #0
 800178c:	d100      	bne.n	8001790 <__aeabi_dsub+0x124>
 800178e:	e0c4      	b.n	800191a <__aeabi_dsub+0x2ae>
 8001790:	4640      	mov	r0, r8
 8001792:	f000 fb8f 	bl	8001eb4 <__clzsi2>
 8001796:	0003      	movs	r3, r0
 8001798:	3b08      	subs	r3, #8
 800179a:	2b1f      	cmp	r3, #31
 800179c:	dd00      	ble.n	80017a0 <__aeabi_dsub+0x134>
 800179e:	e0c5      	b.n	800192c <__aeabi_dsub+0x2c0>
 80017a0:	2220      	movs	r2, #32
 80017a2:	0029      	movs	r1, r5
 80017a4:	1ad2      	subs	r2, r2, r3
 80017a6:	4647      	mov	r7, r8
 80017a8:	40d1      	lsrs	r1, r2
 80017aa:	409f      	lsls	r7, r3
 80017ac:	000a      	movs	r2, r1
 80017ae:	409d      	lsls	r5, r3
 80017b0:	433a      	orrs	r2, r7
 80017b2:	429c      	cmp	r4, r3
 80017b4:	dd00      	ble.n	80017b8 <__aeabi_dsub+0x14c>
 80017b6:	e0c0      	b.n	800193a <__aeabi_dsub+0x2ce>
 80017b8:	1b1c      	subs	r4, r3, r4
 80017ba:	1c63      	adds	r3, r4, #1
 80017bc:	2b1f      	cmp	r3, #31
 80017be:	dd00      	ble.n	80017c2 <__aeabi_dsub+0x156>
 80017c0:	e0e4      	b.n	800198c <__aeabi_dsub+0x320>
 80017c2:	2120      	movs	r1, #32
 80017c4:	0014      	movs	r4, r2
 80017c6:	0028      	movs	r0, r5
 80017c8:	1ac9      	subs	r1, r1, r3
 80017ca:	40d8      	lsrs	r0, r3
 80017cc:	408c      	lsls	r4, r1
 80017ce:	408d      	lsls	r5, r1
 80017d0:	4304      	orrs	r4, r0
 80017d2:	40da      	lsrs	r2, r3
 80017d4:	1e68      	subs	r0, r5, #1
 80017d6:	4185      	sbcs	r5, r0
 80017d8:	0017      	movs	r7, r2
 80017da:	4325      	orrs	r5, r4
 80017dc:	2400      	movs	r4, #0
 80017de:	e771      	b.n	80016c4 <__aeabi_dsub+0x58>
 80017e0:	4642      	mov	r2, r8
 80017e2:	4663      	mov	r3, ip
 80017e4:	431a      	orrs	r2, r3
 80017e6:	d100      	bne.n	80017ea <__aeabi_dsub+0x17e>
 80017e8:	e24c      	b.n	8001c84 <__aeabi_dsub+0x618>
 80017ea:	4667      	mov	r7, ip
 80017ec:	4645      	mov	r5, r8
 80017ee:	076b      	lsls	r3, r5, #29
 80017f0:	d000      	beq.n	80017f4 <__aeabi_dsub+0x188>
 80017f2:	e769      	b.n	80016c8 <__aeabi_dsub+0x5c>
 80017f4:	2301      	movs	r3, #1
 80017f6:	4651      	mov	r1, sl
 80017f8:	0778      	lsls	r0, r7, #29
 80017fa:	08ed      	lsrs	r5, r5, #3
 80017fc:	08fa      	lsrs	r2, r7, #3
 80017fe:	400b      	ands	r3, r1
 8001800:	4305      	orrs	r5, r0
 8001802:	4973      	ldr	r1, [pc, #460]	; (80019d0 <__aeabi_dsub+0x364>)
 8001804:	428c      	cmp	r4, r1
 8001806:	d038      	beq.n	800187a <__aeabi_dsub+0x20e>
 8001808:	0312      	lsls	r2, r2, #12
 800180a:	0564      	lsls	r4, r4, #21
 800180c:	0b12      	lsrs	r2, r2, #12
 800180e:	0d64      	lsrs	r4, r4, #21
 8001810:	e779      	b.n	8001706 <__aeabi_dsub+0x9a>
 8001812:	2e00      	cmp	r6, #0
 8001814:	dc00      	bgt.n	8001818 <__aeabi_dsub+0x1ac>
 8001816:	e09a      	b.n	800194e <__aeabi_dsub+0x2e2>
 8001818:	2a00      	cmp	r2, #0
 800181a:	d047      	beq.n	80018ac <__aeabi_dsub+0x240>
 800181c:	4a6c      	ldr	r2, [pc, #432]	; (80019d0 <__aeabi_dsub+0x364>)
 800181e:	4294      	cmp	r4, r2
 8001820:	d100      	bne.n	8001824 <__aeabi_dsub+0x1b8>
 8001822:	e74f      	b.n	80016c4 <__aeabi_dsub+0x58>
 8001824:	2280      	movs	r2, #128	; 0x80
 8001826:	0412      	lsls	r2, r2, #16
 8001828:	4310      	orrs	r0, r2
 800182a:	4662      	mov	r2, ip
 800182c:	2a38      	cmp	r2, #56	; 0x38
 800182e:	dc00      	bgt.n	8001832 <__aeabi_dsub+0x1c6>
 8001830:	e108      	b.n	8001a44 <__aeabi_dsub+0x3d8>
 8001832:	4301      	orrs	r1, r0
 8001834:	1e48      	subs	r0, r1, #1
 8001836:	4181      	sbcs	r1, r0
 8001838:	2200      	movs	r2, #0
 800183a:	b2c9      	uxtb	r1, r1
 800183c:	1949      	adds	r1, r1, r5
 800183e:	19d2      	adds	r2, r2, r7
 8001840:	42a9      	cmp	r1, r5
 8001842:	41bf      	sbcs	r7, r7
 8001844:	000d      	movs	r5, r1
 8001846:	427f      	negs	r7, r7
 8001848:	18bf      	adds	r7, r7, r2
 800184a:	023a      	lsls	r2, r7, #8
 800184c:	d400      	bmi.n	8001850 <__aeabi_dsub+0x1e4>
 800184e:	e142      	b.n	8001ad6 <__aeabi_dsub+0x46a>
 8001850:	4a5f      	ldr	r2, [pc, #380]	; (80019d0 <__aeabi_dsub+0x364>)
 8001852:	3401      	adds	r4, #1
 8001854:	4294      	cmp	r4, r2
 8001856:	d100      	bne.n	800185a <__aeabi_dsub+0x1ee>
 8001858:	e14e      	b.n	8001af8 <__aeabi_dsub+0x48c>
 800185a:	2001      	movs	r0, #1
 800185c:	4a5d      	ldr	r2, [pc, #372]	; (80019d4 <__aeabi_dsub+0x368>)
 800185e:	0869      	lsrs	r1, r5, #1
 8001860:	403a      	ands	r2, r7
 8001862:	4028      	ands	r0, r5
 8001864:	4308      	orrs	r0, r1
 8001866:	07d5      	lsls	r5, r2, #31
 8001868:	4305      	orrs	r5, r0
 800186a:	0857      	lsrs	r7, r2, #1
 800186c:	469a      	mov	sl, r3
 800186e:	e729      	b.n	80016c4 <__aeabi_dsub+0x58>
 8001870:	0006      	movs	r6, r0
 8001872:	430e      	orrs	r6, r1
 8001874:	d000      	beq.n	8001878 <__aeabi_dsub+0x20c>
 8001876:	e717      	b.n	80016a8 <__aeabi_dsub+0x3c>
 8001878:	e714      	b.n	80016a4 <__aeabi_dsub+0x38>
 800187a:	0029      	movs	r1, r5
 800187c:	4311      	orrs	r1, r2
 800187e:	d100      	bne.n	8001882 <__aeabi_dsub+0x216>
 8001880:	e1f9      	b.n	8001c76 <__aeabi_dsub+0x60a>
 8001882:	2180      	movs	r1, #128	; 0x80
 8001884:	0309      	lsls	r1, r1, #12
 8001886:	430a      	orrs	r2, r1
 8001888:	0312      	lsls	r2, r2, #12
 800188a:	0b12      	lsrs	r2, r2, #12
 800188c:	e73b      	b.n	8001706 <__aeabi_dsub+0x9a>
 800188e:	2301      	movs	r3, #1
 8001890:	425b      	negs	r3, r3
 8001892:	4698      	mov	r8, r3
 8001894:	44c4      	add	ip, r8
 8001896:	4663      	mov	r3, ip
 8001898:	2b00      	cmp	r3, #0
 800189a:	d172      	bne.n	8001982 <__aeabi_dsub+0x316>
 800189c:	1a69      	subs	r1, r5, r1
 800189e:	428d      	cmp	r5, r1
 80018a0:	419b      	sbcs	r3, r3
 80018a2:	1a3f      	subs	r7, r7, r0
 80018a4:	425b      	negs	r3, r3
 80018a6:	1aff      	subs	r7, r7, r3
 80018a8:	000d      	movs	r5, r1
 80018aa:	e768      	b.n	800177e <__aeabi_dsub+0x112>
 80018ac:	0002      	movs	r2, r0
 80018ae:	430a      	orrs	r2, r1
 80018b0:	d100      	bne.n	80018b4 <__aeabi_dsub+0x248>
 80018b2:	e707      	b.n	80016c4 <__aeabi_dsub+0x58>
 80018b4:	2201      	movs	r2, #1
 80018b6:	4252      	negs	r2, r2
 80018b8:	4690      	mov	r8, r2
 80018ba:	44c4      	add	ip, r8
 80018bc:	4662      	mov	r2, ip
 80018be:	2a00      	cmp	r2, #0
 80018c0:	d000      	beq.n	80018c4 <__aeabi_dsub+0x258>
 80018c2:	e0e6      	b.n	8001a92 <__aeabi_dsub+0x426>
 80018c4:	1869      	adds	r1, r5, r1
 80018c6:	42a9      	cmp	r1, r5
 80018c8:	41b6      	sbcs	r6, r6
 80018ca:	183f      	adds	r7, r7, r0
 80018cc:	4276      	negs	r6, r6
 80018ce:	19f7      	adds	r7, r6, r7
 80018d0:	000d      	movs	r5, r1
 80018d2:	e7ba      	b.n	800184a <__aeabi_dsub+0x1de>
 80018d4:	2e00      	cmp	r6, #0
 80018d6:	d000      	beq.n	80018da <__aeabi_dsub+0x26e>
 80018d8:	e080      	b.n	80019dc <__aeabi_dsub+0x370>
 80018da:	1c62      	adds	r2, r4, #1
 80018dc:	0552      	lsls	r2, r2, #21
 80018de:	0d52      	lsrs	r2, r2, #21
 80018e0:	2a01      	cmp	r2, #1
 80018e2:	dc00      	bgt.n	80018e6 <__aeabi_dsub+0x27a>
 80018e4:	e0f9      	b.n	8001ada <__aeabi_dsub+0x46e>
 80018e6:	1a6a      	subs	r2, r5, r1
 80018e8:	4691      	mov	r9, r2
 80018ea:	454d      	cmp	r5, r9
 80018ec:	41b6      	sbcs	r6, r6
 80018ee:	1a3a      	subs	r2, r7, r0
 80018f0:	4276      	negs	r6, r6
 80018f2:	1b92      	subs	r2, r2, r6
 80018f4:	4690      	mov	r8, r2
 80018f6:	0212      	lsls	r2, r2, #8
 80018f8:	d400      	bmi.n	80018fc <__aeabi_dsub+0x290>
 80018fa:	e099      	b.n	8001a30 <__aeabi_dsub+0x3c4>
 80018fc:	1b4d      	subs	r5, r1, r5
 80018fe:	42a9      	cmp	r1, r5
 8001900:	4189      	sbcs	r1, r1
 8001902:	1bc7      	subs	r7, r0, r7
 8001904:	4249      	negs	r1, r1
 8001906:	1a7a      	subs	r2, r7, r1
 8001908:	4690      	mov	r8, r2
 800190a:	469a      	mov	sl, r3
 800190c:	e73c      	b.n	8001788 <__aeabi_dsub+0x11c>
 800190e:	4652      	mov	r2, sl
 8001910:	2301      	movs	r3, #1
 8001912:	2500      	movs	r5, #0
 8001914:	4013      	ands	r3, r2
 8001916:	2200      	movs	r2, #0
 8001918:	e6f5      	b.n	8001706 <__aeabi_dsub+0x9a>
 800191a:	0028      	movs	r0, r5
 800191c:	f000 faca 	bl	8001eb4 <__clzsi2>
 8001920:	3020      	adds	r0, #32
 8001922:	0003      	movs	r3, r0
 8001924:	3b08      	subs	r3, #8
 8001926:	2b1f      	cmp	r3, #31
 8001928:	dc00      	bgt.n	800192c <__aeabi_dsub+0x2c0>
 800192a:	e739      	b.n	80017a0 <__aeabi_dsub+0x134>
 800192c:	002a      	movs	r2, r5
 800192e:	3828      	subs	r0, #40	; 0x28
 8001930:	4082      	lsls	r2, r0
 8001932:	2500      	movs	r5, #0
 8001934:	429c      	cmp	r4, r3
 8001936:	dc00      	bgt.n	800193a <__aeabi_dsub+0x2ce>
 8001938:	e73e      	b.n	80017b8 <__aeabi_dsub+0x14c>
 800193a:	4f26      	ldr	r7, [pc, #152]	; (80019d4 <__aeabi_dsub+0x368>)
 800193c:	1ae4      	subs	r4, r4, r3
 800193e:	4017      	ands	r7, r2
 8001940:	e6c0      	b.n	80016c4 <__aeabi_dsub+0x58>
 8001942:	4301      	orrs	r1, r0
 8001944:	1e48      	subs	r0, r1, #1
 8001946:	4181      	sbcs	r1, r0
 8001948:	2200      	movs	r2, #0
 800194a:	b2c9      	uxtb	r1, r1
 800194c:	e710      	b.n	8001770 <__aeabi_dsub+0x104>
 800194e:	2e00      	cmp	r6, #0
 8001950:	d000      	beq.n	8001954 <__aeabi_dsub+0x2e8>
 8001952:	e0f1      	b.n	8001b38 <__aeabi_dsub+0x4cc>
 8001954:	1c62      	adds	r2, r4, #1
 8001956:	4694      	mov	ip, r2
 8001958:	0552      	lsls	r2, r2, #21
 800195a:	0d52      	lsrs	r2, r2, #21
 800195c:	2a01      	cmp	r2, #1
 800195e:	dc00      	bgt.n	8001962 <__aeabi_dsub+0x2f6>
 8001960:	e0a0      	b.n	8001aa4 <__aeabi_dsub+0x438>
 8001962:	4a1b      	ldr	r2, [pc, #108]	; (80019d0 <__aeabi_dsub+0x364>)
 8001964:	4594      	cmp	ip, r2
 8001966:	d100      	bne.n	800196a <__aeabi_dsub+0x2fe>
 8001968:	e0c5      	b.n	8001af6 <__aeabi_dsub+0x48a>
 800196a:	1869      	adds	r1, r5, r1
 800196c:	42a9      	cmp	r1, r5
 800196e:	4192      	sbcs	r2, r2
 8001970:	183f      	adds	r7, r7, r0
 8001972:	4252      	negs	r2, r2
 8001974:	19d2      	adds	r2, r2, r7
 8001976:	0849      	lsrs	r1, r1, #1
 8001978:	07d5      	lsls	r5, r2, #31
 800197a:	430d      	orrs	r5, r1
 800197c:	0857      	lsrs	r7, r2, #1
 800197e:	4664      	mov	r4, ip
 8001980:	e6a0      	b.n	80016c4 <__aeabi_dsub+0x58>
 8001982:	4b13      	ldr	r3, [pc, #76]	; (80019d0 <__aeabi_dsub+0x364>)
 8001984:	429c      	cmp	r4, r3
 8001986:	d000      	beq.n	800198a <__aeabi_dsub+0x31e>
 8001988:	e6d9      	b.n	800173e <__aeabi_dsub+0xd2>
 800198a:	e69b      	b.n	80016c4 <__aeabi_dsub+0x58>
 800198c:	0011      	movs	r1, r2
 800198e:	3c1f      	subs	r4, #31
 8001990:	40e1      	lsrs	r1, r4
 8001992:	000c      	movs	r4, r1
 8001994:	2b20      	cmp	r3, #32
 8001996:	d100      	bne.n	800199a <__aeabi_dsub+0x32e>
 8001998:	e080      	b.n	8001a9c <__aeabi_dsub+0x430>
 800199a:	2140      	movs	r1, #64	; 0x40
 800199c:	1acb      	subs	r3, r1, r3
 800199e:	409a      	lsls	r2, r3
 80019a0:	4315      	orrs	r5, r2
 80019a2:	1e6a      	subs	r2, r5, #1
 80019a4:	4195      	sbcs	r5, r2
 80019a6:	2700      	movs	r7, #0
 80019a8:	4325      	orrs	r5, r4
 80019aa:	2400      	movs	r4, #0
 80019ac:	e71f      	b.n	80017ee <__aeabi_dsub+0x182>
 80019ae:	4663      	mov	r3, ip
 80019b0:	0002      	movs	r2, r0
 80019b2:	3b20      	subs	r3, #32
 80019b4:	40da      	lsrs	r2, r3
 80019b6:	4663      	mov	r3, ip
 80019b8:	2b20      	cmp	r3, #32
 80019ba:	d071      	beq.n	8001aa0 <__aeabi_dsub+0x434>
 80019bc:	2340      	movs	r3, #64	; 0x40
 80019be:	4666      	mov	r6, ip
 80019c0:	1b9b      	subs	r3, r3, r6
 80019c2:	4098      	lsls	r0, r3
 80019c4:	4301      	orrs	r1, r0
 80019c6:	1e48      	subs	r0, r1, #1
 80019c8:	4181      	sbcs	r1, r0
 80019ca:	4311      	orrs	r1, r2
 80019cc:	2200      	movs	r2, #0
 80019ce:	e6cf      	b.n	8001770 <__aeabi_dsub+0x104>
 80019d0:	000007ff 	.word	0x000007ff
 80019d4:	ff7fffff 	.word	0xff7fffff
 80019d8:	800fffff 	.word	0x800fffff
 80019dc:	2c00      	cmp	r4, #0
 80019de:	d048      	beq.n	8001a72 <__aeabi_dsub+0x406>
 80019e0:	4cca      	ldr	r4, [pc, #808]	; (8001d0c <__aeabi_dsub+0x6a0>)
 80019e2:	42a2      	cmp	r2, r4
 80019e4:	d100      	bne.n	80019e8 <__aeabi_dsub+0x37c>
 80019e6:	e0a2      	b.n	8001b2e <__aeabi_dsub+0x4c2>
 80019e8:	4274      	negs	r4, r6
 80019ea:	46a1      	mov	r9, r4
 80019ec:	2480      	movs	r4, #128	; 0x80
 80019ee:	0424      	lsls	r4, r4, #16
 80019f0:	4327      	orrs	r7, r4
 80019f2:	464c      	mov	r4, r9
 80019f4:	2c38      	cmp	r4, #56	; 0x38
 80019f6:	dd00      	ble.n	80019fa <__aeabi_dsub+0x38e>
 80019f8:	e0db      	b.n	8001bb2 <__aeabi_dsub+0x546>
 80019fa:	2c1f      	cmp	r4, #31
 80019fc:	dd00      	ble.n	8001a00 <__aeabi_dsub+0x394>
 80019fe:	e144      	b.n	8001c8a <__aeabi_dsub+0x61e>
 8001a00:	464e      	mov	r6, r9
 8001a02:	2420      	movs	r4, #32
 8001a04:	1ba4      	subs	r4, r4, r6
 8001a06:	003e      	movs	r6, r7
 8001a08:	40a6      	lsls	r6, r4
 8001a0a:	46a2      	mov	sl, r4
 8001a0c:	46b0      	mov	r8, r6
 8001a0e:	464c      	mov	r4, r9
 8001a10:	002e      	movs	r6, r5
 8001a12:	40e6      	lsrs	r6, r4
 8001a14:	46b4      	mov	ip, r6
 8001a16:	4646      	mov	r6, r8
 8001a18:	4664      	mov	r4, ip
 8001a1a:	4326      	orrs	r6, r4
 8001a1c:	4654      	mov	r4, sl
 8001a1e:	40a5      	lsls	r5, r4
 8001a20:	1e6c      	subs	r4, r5, #1
 8001a22:	41a5      	sbcs	r5, r4
 8001a24:	0034      	movs	r4, r6
 8001a26:	432c      	orrs	r4, r5
 8001a28:	464d      	mov	r5, r9
 8001a2a:	40ef      	lsrs	r7, r5
 8001a2c:	1b0d      	subs	r5, r1, r4
 8001a2e:	e028      	b.n	8001a82 <__aeabi_dsub+0x416>
 8001a30:	464a      	mov	r2, r9
 8001a32:	4643      	mov	r3, r8
 8001a34:	464d      	mov	r5, r9
 8001a36:	431a      	orrs	r2, r3
 8001a38:	d000      	beq.n	8001a3c <__aeabi_dsub+0x3d0>
 8001a3a:	e6a5      	b.n	8001788 <__aeabi_dsub+0x11c>
 8001a3c:	2300      	movs	r3, #0
 8001a3e:	2400      	movs	r4, #0
 8001a40:	2500      	movs	r5, #0
 8001a42:	e6de      	b.n	8001802 <__aeabi_dsub+0x196>
 8001a44:	2a1f      	cmp	r2, #31
 8001a46:	dc5a      	bgt.n	8001afe <__aeabi_dsub+0x492>
 8001a48:	4666      	mov	r6, ip
 8001a4a:	2220      	movs	r2, #32
 8001a4c:	1b92      	subs	r2, r2, r6
 8001a4e:	0006      	movs	r6, r0
 8001a50:	4096      	lsls	r6, r2
 8001a52:	4691      	mov	r9, r2
 8001a54:	46b0      	mov	r8, r6
 8001a56:	4662      	mov	r2, ip
 8001a58:	000e      	movs	r6, r1
 8001a5a:	40d6      	lsrs	r6, r2
 8001a5c:	4642      	mov	r2, r8
 8001a5e:	4316      	orrs	r6, r2
 8001a60:	464a      	mov	r2, r9
 8001a62:	4091      	lsls	r1, r2
 8001a64:	1e4a      	subs	r2, r1, #1
 8001a66:	4191      	sbcs	r1, r2
 8001a68:	0002      	movs	r2, r0
 8001a6a:	4660      	mov	r0, ip
 8001a6c:	4331      	orrs	r1, r6
 8001a6e:	40c2      	lsrs	r2, r0
 8001a70:	e6e4      	b.n	800183c <__aeabi_dsub+0x1d0>
 8001a72:	003c      	movs	r4, r7
 8001a74:	432c      	orrs	r4, r5
 8001a76:	d05a      	beq.n	8001b2e <__aeabi_dsub+0x4c2>
 8001a78:	43f4      	mvns	r4, r6
 8001a7a:	46a1      	mov	r9, r4
 8001a7c:	2c00      	cmp	r4, #0
 8001a7e:	d152      	bne.n	8001b26 <__aeabi_dsub+0x4ba>
 8001a80:	1b4d      	subs	r5, r1, r5
 8001a82:	42a9      	cmp	r1, r5
 8001a84:	4189      	sbcs	r1, r1
 8001a86:	1bc7      	subs	r7, r0, r7
 8001a88:	4249      	negs	r1, r1
 8001a8a:	1a7f      	subs	r7, r7, r1
 8001a8c:	0014      	movs	r4, r2
 8001a8e:	469a      	mov	sl, r3
 8001a90:	e675      	b.n	800177e <__aeabi_dsub+0x112>
 8001a92:	4a9e      	ldr	r2, [pc, #632]	; (8001d0c <__aeabi_dsub+0x6a0>)
 8001a94:	4294      	cmp	r4, r2
 8001a96:	d000      	beq.n	8001a9a <__aeabi_dsub+0x42e>
 8001a98:	e6c7      	b.n	800182a <__aeabi_dsub+0x1be>
 8001a9a:	e613      	b.n	80016c4 <__aeabi_dsub+0x58>
 8001a9c:	2200      	movs	r2, #0
 8001a9e:	e77f      	b.n	80019a0 <__aeabi_dsub+0x334>
 8001aa0:	2000      	movs	r0, #0
 8001aa2:	e78f      	b.n	80019c4 <__aeabi_dsub+0x358>
 8001aa4:	2c00      	cmp	r4, #0
 8001aa6:	d000      	beq.n	8001aaa <__aeabi_dsub+0x43e>
 8001aa8:	e0c8      	b.n	8001c3c <__aeabi_dsub+0x5d0>
 8001aaa:	003b      	movs	r3, r7
 8001aac:	432b      	orrs	r3, r5
 8001aae:	d100      	bne.n	8001ab2 <__aeabi_dsub+0x446>
 8001ab0:	e10f      	b.n	8001cd2 <__aeabi_dsub+0x666>
 8001ab2:	0003      	movs	r3, r0
 8001ab4:	430b      	orrs	r3, r1
 8001ab6:	d100      	bne.n	8001aba <__aeabi_dsub+0x44e>
 8001ab8:	e604      	b.n	80016c4 <__aeabi_dsub+0x58>
 8001aba:	1869      	adds	r1, r5, r1
 8001abc:	42a9      	cmp	r1, r5
 8001abe:	419b      	sbcs	r3, r3
 8001ac0:	183f      	adds	r7, r7, r0
 8001ac2:	425b      	negs	r3, r3
 8001ac4:	19df      	adds	r7, r3, r7
 8001ac6:	023b      	lsls	r3, r7, #8
 8001ac8:	d400      	bmi.n	8001acc <__aeabi_dsub+0x460>
 8001aca:	e11a      	b.n	8001d02 <__aeabi_dsub+0x696>
 8001acc:	4b90      	ldr	r3, [pc, #576]	; (8001d10 <__aeabi_dsub+0x6a4>)
 8001ace:	000d      	movs	r5, r1
 8001ad0:	401f      	ands	r7, r3
 8001ad2:	4664      	mov	r4, ip
 8001ad4:	e5f6      	b.n	80016c4 <__aeabi_dsub+0x58>
 8001ad6:	469a      	mov	sl, r3
 8001ad8:	e689      	b.n	80017ee <__aeabi_dsub+0x182>
 8001ada:	003a      	movs	r2, r7
 8001adc:	432a      	orrs	r2, r5
 8001ade:	2c00      	cmp	r4, #0
 8001ae0:	d15c      	bne.n	8001b9c <__aeabi_dsub+0x530>
 8001ae2:	2a00      	cmp	r2, #0
 8001ae4:	d175      	bne.n	8001bd2 <__aeabi_dsub+0x566>
 8001ae6:	0002      	movs	r2, r0
 8001ae8:	430a      	orrs	r2, r1
 8001aea:	d100      	bne.n	8001aee <__aeabi_dsub+0x482>
 8001aec:	e0ca      	b.n	8001c84 <__aeabi_dsub+0x618>
 8001aee:	0007      	movs	r7, r0
 8001af0:	000d      	movs	r5, r1
 8001af2:	469a      	mov	sl, r3
 8001af4:	e5e6      	b.n	80016c4 <__aeabi_dsub+0x58>
 8001af6:	4664      	mov	r4, ip
 8001af8:	2200      	movs	r2, #0
 8001afa:	2500      	movs	r5, #0
 8001afc:	e681      	b.n	8001802 <__aeabi_dsub+0x196>
 8001afe:	4662      	mov	r2, ip
 8001b00:	0006      	movs	r6, r0
 8001b02:	3a20      	subs	r2, #32
 8001b04:	40d6      	lsrs	r6, r2
 8001b06:	4662      	mov	r2, ip
 8001b08:	46b0      	mov	r8, r6
 8001b0a:	2a20      	cmp	r2, #32
 8001b0c:	d100      	bne.n	8001b10 <__aeabi_dsub+0x4a4>
 8001b0e:	e0b7      	b.n	8001c80 <__aeabi_dsub+0x614>
 8001b10:	2240      	movs	r2, #64	; 0x40
 8001b12:	4666      	mov	r6, ip
 8001b14:	1b92      	subs	r2, r2, r6
 8001b16:	4090      	lsls	r0, r2
 8001b18:	4301      	orrs	r1, r0
 8001b1a:	4642      	mov	r2, r8
 8001b1c:	1e48      	subs	r0, r1, #1
 8001b1e:	4181      	sbcs	r1, r0
 8001b20:	4311      	orrs	r1, r2
 8001b22:	2200      	movs	r2, #0
 8001b24:	e68a      	b.n	800183c <__aeabi_dsub+0x1d0>
 8001b26:	4c79      	ldr	r4, [pc, #484]	; (8001d0c <__aeabi_dsub+0x6a0>)
 8001b28:	42a2      	cmp	r2, r4
 8001b2a:	d000      	beq.n	8001b2e <__aeabi_dsub+0x4c2>
 8001b2c:	e761      	b.n	80019f2 <__aeabi_dsub+0x386>
 8001b2e:	0007      	movs	r7, r0
 8001b30:	000d      	movs	r5, r1
 8001b32:	0014      	movs	r4, r2
 8001b34:	469a      	mov	sl, r3
 8001b36:	e5c5      	b.n	80016c4 <__aeabi_dsub+0x58>
 8001b38:	2c00      	cmp	r4, #0
 8001b3a:	d141      	bne.n	8001bc0 <__aeabi_dsub+0x554>
 8001b3c:	003c      	movs	r4, r7
 8001b3e:	432c      	orrs	r4, r5
 8001b40:	d078      	beq.n	8001c34 <__aeabi_dsub+0x5c8>
 8001b42:	43f4      	mvns	r4, r6
 8001b44:	46a1      	mov	r9, r4
 8001b46:	2c00      	cmp	r4, #0
 8001b48:	d020      	beq.n	8001b8c <__aeabi_dsub+0x520>
 8001b4a:	4c70      	ldr	r4, [pc, #448]	; (8001d0c <__aeabi_dsub+0x6a0>)
 8001b4c:	42a2      	cmp	r2, r4
 8001b4e:	d071      	beq.n	8001c34 <__aeabi_dsub+0x5c8>
 8001b50:	464c      	mov	r4, r9
 8001b52:	2c38      	cmp	r4, #56	; 0x38
 8001b54:	dd00      	ble.n	8001b58 <__aeabi_dsub+0x4ec>
 8001b56:	e0b2      	b.n	8001cbe <__aeabi_dsub+0x652>
 8001b58:	2c1f      	cmp	r4, #31
 8001b5a:	dd00      	ble.n	8001b5e <__aeabi_dsub+0x4f2>
 8001b5c:	e0bc      	b.n	8001cd8 <__aeabi_dsub+0x66c>
 8001b5e:	2620      	movs	r6, #32
 8001b60:	1b34      	subs	r4, r6, r4
 8001b62:	46a2      	mov	sl, r4
 8001b64:	003c      	movs	r4, r7
 8001b66:	4656      	mov	r6, sl
 8001b68:	40b4      	lsls	r4, r6
 8001b6a:	464e      	mov	r6, r9
 8001b6c:	46a0      	mov	r8, r4
 8001b6e:	002c      	movs	r4, r5
 8001b70:	40f4      	lsrs	r4, r6
 8001b72:	46a4      	mov	ip, r4
 8001b74:	4644      	mov	r4, r8
 8001b76:	4666      	mov	r6, ip
 8001b78:	4334      	orrs	r4, r6
 8001b7a:	46a4      	mov	ip, r4
 8001b7c:	4654      	mov	r4, sl
 8001b7e:	40a5      	lsls	r5, r4
 8001b80:	4664      	mov	r4, ip
 8001b82:	1e6e      	subs	r6, r5, #1
 8001b84:	41b5      	sbcs	r5, r6
 8001b86:	4325      	orrs	r5, r4
 8001b88:	464c      	mov	r4, r9
 8001b8a:	40e7      	lsrs	r7, r4
 8001b8c:	186d      	adds	r5, r5, r1
 8001b8e:	428d      	cmp	r5, r1
 8001b90:	4189      	sbcs	r1, r1
 8001b92:	183f      	adds	r7, r7, r0
 8001b94:	4249      	negs	r1, r1
 8001b96:	19cf      	adds	r7, r1, r7
 8001b98:	0014      	movs	r4, r2
 8001b9a:	e656      	b.n	800184a <__aeabi_dsub+0x1de>
 8001b9c:	2a00      	cmp	r2, #0
 8001b9e:	d12f      	bne.n	8001c00 <__aeabi_dsub+0x594>
 8001ba0:	0002      	movs	r2, r0
 8001ba2:	430a      	orrs	r2, r1
 8001ba4:	d100      	bne.n	8001ba8 <__aeabi_dsub+0x53c>
 8001ba6:	e084      	b.n	8001cb2 <__aeabi_dsub+0x646>
 8001ba8:	0007      	movs	r7, r0
 8001baa:	000d      	movs	r5, r1
 8001bac:	469a      	mov	sl, r3
 8001bae:	4c57      	ldr	r4, [pc, #348]	; (8001d0c <__aeabi_dsub+0x6a0>)
 8001bb0:	e588      	b.n	80016c4 <__aeabi_dsub+0x58>
 8001bb2:	433d      	orrs	r5, r7
 8001bb4:	1e6f      	subs	r7, r5, #1
 8001bb6:	41bd      	sbcs	r5, r7
 8001bb8:	b2ec      	uxtb	r4, r5
 8001bba:	2700      	movs	r7, #0
 8001bbc:	1b0d      	subs	r5, r1, r4
 8001bbe:	e760      	b.n	8001a82 <__aeabi_dsub+0x416>
 8001bc0:	4c52      	ldr	r4, [pc, #328]	; (8001d0c <__aeabi_dsub+0x6a0>)
 8001bc2:	42a2      	cmp	r2, r4
 8001bc4:	d036      	beq.n	8001c34 <__aeabi_dsub+0x5c8>
 8001bc6:	4274      	negs	r4, r6
 8001bc8:	2680      	movs	r6, #128	; 0x80
 8001bca:	0436      	lsls	r6, r6, #16
 8001bcc:	46a1      	mov	r9, r4
 8001bce:	4337      	orrs	r7, r6
 8001bd0:	e7be      	b.n	8001b50 <__aeabi_dsub+0x4e4>
 8001bd2:	0002      	movs	r2, r0
 8001bd4:	430a      	orrs	r2, r1
 8001bd6:	d100      	bne.n	8001bda <__aeabi_dsub+0x56e>
 8001bd8:	e574      	b.n	80016c4 <__aeabi_dsub+0x58>
 8001bda:	1a6a      	subs	r2, r5, r1
 8001bdc:	4690      	mov	r8, r2
 8001bde:	4545      	cmp	r5, r8
 8001be0:	41b6      	sbcs	r6, r6
 8001be2:	1a3a      	subs	r2, r7, r0
 8001be4:	4276      	negs	r6, r6
 8001be6:	1b92      	subs	r2, r2, r6
 8001be8:	4694      	mov	ip, r2
 8001bea:	0212      	lsls	r2, r2, #8
 8001bec:	d400      	bmi.n	8001bf0 <__aeabi_dsub+0x584>
 8001bee:	e5f7      	b.n	80017e0 <__aeabi_dsub+0x174>
 8001bf0:	1b4d      	subs	r5, r1, r5
 8001bf2:	42a9      	cmp	r1, r5
 8001bf4:	4189      	sbcs	r1, r1
 8001bf6:	1bc7      	subs	r7, r0, r7
 8001bf8:	4249      	negs	r1, r1
 8001bfa:	1a7f      	subs	r7, r7, r1
 8001bfc:	469a      	mov	sl, r3
 8001bfe:	e561      	b.n	80016c4 <__aeabi_dsub+0x58>
 8001c00:	0002      	movs	r2, r0
 8001c02:	430a      	orrs	r2, r1
 8001c04:	d03a      	beq.n	8001c7c <__aeabi_dsub+0x610>
 8001c06:	08ed      	lsrs	r5, r5, #3
 8001c08:	077c      	lsls	r4, r7, #29
 8001c0a:	432c      	orrs	r4, r5
 8001c0c:	2580      	movs	r5, #128	; 0x80
 8001c0e:	08fa      	lsrs	r2, r7, #3
 8001c10:	032d      	lsls	r5, r5, #12
 8001c12:	422a      	tst	r2, r5
 8001c14:	d008      	beq.n	8001c28 <__aeabi_dsub+0x5bc>
 8001c16:	08c7      	lsrs	r7, r0, #3
 8001c18:	422f      	tst	r7, r5
 8001c1a:	d105      	bne.n	8001c28 <__aeabi_dsub+0x5bc>
 8001c1c:	0745      	lsls	r5, r0, #29
 8001c1e:	002c      	movs	r4, r5
 8001c20:	003a      	movs	r2, r7
 8001c22:	469a      	mov	sl, r3
 8001c24:	08c9      	lsrs	r1, r1, #3
 8001c26:	430c      	orrs	r4, r1
 8001c28:	0f67      	lsrs	r7, r4, #29
 8001c2a:	00d2      	lsls	r2, r2, #3
 8001c2c:	00e5      	lsls	r5, r4, #3
 8001c2e:	4317      	orrs	r7, r2
 8001c30:	4c36      	ldr	r4, [pc, #216]	; (8001d0c <__aeabi_dsub+0x6a0>)
 8001c32:	e547      	b.n	80016c4 <__aeabi_dsub+0x58>
 8001c34:	0007      	movs	r7, r0
 8001c36:	000d      	movs	r5, r1
 8001c38:	0014      	movs	r4, r2
 8001c3a:	e543      	b.n	80016c4 <__aeabi_dsub+0x58>
 8001c3c:	003a      	movs	r2, r7
 8001c3e:	432a      	orrs	r2, r5
 8001c40:	d043      	beq.n	8001cca <__aeabi_dsub+0x65e>
 8001c42:	0002      	movs	r2, r0
 8001c44:	430a      	orrs	r2, r1
 8001c46:	d019      	beq.n	8001c7c <__aeabi_dsub+0x610>
 8001c48:	08ed      	lsrs	r5, r5, #3
 8001c4a:	077c      	lsls	r4, r7, #29
 8001c4c:	432c      	orrs	r4, r5
 8001c4e:	2580      	movs	r5, #128	; 0x80
 8001c50:	08fa      	lsrs	r2, r7, #3
 8001c52:	032d      	lsls	r5, r5, #12
 8001c54:	422a      	tst	r2, r5
 8001c56:	d007      	beq.n	8001c68 <__aeabi_dsub+0x5fc>
 8001c58:	08c6      	lsrs	r6, r0, #3
 8001c5a:	422e      	tst	r6, r5
 8001c5c:	d104      	bne.n	8001c68 <__aeabi_dsub+0x5fc>
 8001c5e:	0747      	lsls	r7, r0, #29
 8001c60:	003c      	movs	r4, r7
 8001c62:	0032      	movs	r2, r6
 8001c64:	08c9      	lsrs	r1, r1, #3
 8001c66:	430c      	orrs	r4, r1
 8001c68:	00d7      	lsls	r7, r2, #3
 8001c6a:	0f62      	lsrs	r2, r4, #29
 8001c6c:	00e5      	lsls	r5, r4, #3
 8001c6e:	4317      	orrs	r7, r2
 8001c70:	469a      	mov	sl, r3
 8001c72:	4c26      	ldr	r4, [pc, #152]	; (8001d0c <__aeabi_dsub+0x6a0>)
 8001c74:	e526      	b.n	80016c4 <__aeabi_dsub+0x58>
 8001c76:	2200      	movs	r2, #0
 8001c78:	2500      	movs	r5, #0
 8001c7a:	e544      	b.n	8001706 <__aeabi_dsub+0x9a>
 8001c7c:	4c23      	ldr	r4, [pc, #140]	; (8001d0c <__aeabi_dsub+0x6a0>)
 8001c7e:	e521      	b.n	80016c4 <__aeabi_dsub+0x58>
 8001c80:	2000      	movs	r0, #0
 8001c82:	e749      	b.n	8001b18 <__aeabi_dsub+0x4ac>
 8001c84:	2300      	movs	r3, #0
 8001c86:	2500      	movs	r5, #0
 8001c88:	e5bb      	b.n	8001802 <__aeabi_dsub+0x196>
 8001c8a:	464c      	mov	r4, r9
 8001c8c:	003e      	movs	r6, r7
 8001c8e:	3c20      	subs	r4, #32
 8001c90:	40e6      	lsrs	r6, r4
 8001c92:	464c      	mov	r4, r9
 8001c94:	46b4      	mov	ip, r6
 8001c96:	2c20      	cmp	r4, #32
 8001c98:	d031      	beq.n	8001cfe <__aeabi_dsub+0x692>
 8001c9a:	2440      	movs	r4, #64	; 0x40
 8001c9c:	464e      	mov	r6, r9
 8001c9e:	1ba6      	subs	r6, r4, r6
 8001ca0:	40b7      	lsls	r7, r6
 8001ca2:	433d      	orrs	r5, r7
 8001ca4:	1e6c      	subs	r4, r5, #1
 8001ca6:	41a5      	sbcs	r5, r4
 8001ca8:	4664      	mov	r4, ip
 8001caa:	432c      	orrs	r4, r5
 8001cac:	2700      	movs	r7, #0
 8001cae:	1b0d      	subs	r5, r1, r4
 8001cb0:	e6e7      	b.n	8001a82 <__aeabi_dsub+0x416>
 8001cb2:	2280      	movs	r2, #128	; 0x80
 8001cb4:	2300      	movs	r3, #0
 8001cb6:	0312      	lsls	r2, r2, #12
 8001cb8:	4c14      	ldr	r4, [pc, #80]	; (8001d0c <__aeabi_dsub+0x6a0>)
 8001cba:	2500      	movs	r5, #0
 8001cbc:	e5a1      	b.n	8001802 <__aeabi_dsub+0x196>
 8001cbe:	433d      	orrs	r5, r7
 8001cc0:	1e6f      	subs	r7, r5, #1
 8001cc2:	41bd      	sbcs	r5, r7
 8001cc4:	2700      	movs	r7, #0
 8001cc6:	b2ed      	uxtb	r5, r5
 8001cc8:	e760      	b.n	8001b8c <__aeabi_dsub+0x520>
 8001cca:	0007      	movs	r7, r0
 8001ccc:	000d      	movs	r5, r1
 8001cce:	4c0f      	ldr	r4, [pc, #60]	; (8001d0c <__aeabi_dsub+0x6a0>)
 8001cd0:	e4f8      	b.n	80016c4 <__aeabi_dsub+0x58>
 8001cd2:	0007      	movs	r7, r0
 8001cd4:	000d      	movs	r5, r1
 8001cd6:	e4f5      	b.n	80016c4 <__aeabi_dsub+0x58>
 8001cd8:	464e      	mov	r6, r9
 8001cda:	003c      	movs	r4, r7
 8001cdc:	3e20      	subs	r6, #32
 8001cde:	40f4      	lsrs	r4, r6
 8001ce0:	46a0      	mov	r8, r4
 8001ce2:	464c      	mov	r4, r9
 8001ce4:	2c20      	cmp	r4, #32
 8001ce6:	d00e      	beq.n	8001d06 <__aeabi_dsub+0x69a>
 8001ce8:	2440      	movs	r4, #64	; 0x40
 8001cea:	464e      	mov	r6, r9
 8001cec:	1ba4      	subs	r4, r4, r6
 8001cee:	40a7      	lsls	r7, r4
 8001cf0:	433d      	orrs	r5, r7
 8001cf2:	1e6f      	subs	r7, r5, #1
 8001cf4:	41bd      	sbcs	r5, r7
 8001cf6:	4644      	mov	r4, r8
 8001cf8:	2700      	movs	r7, #0
 8001cfa:	4325      	orrs	r5, r4
 8001cfc:	e746      	b.n	8001b8c <__aeabi_dsub+0x520>
 8001cfe:	2700      	movs	r7, #0
 8001d00:	e7cf      	b.n	8001ca2 <__aeabi_dsub+0x636>
 8001d02:	000d      	movs	r5, r1
 8001d04:	e573      	b.n	80017ee <__aeabi_dsub+0x182>
 8001d06:	2700      	movs	r7, #0
 8001d08:	e7f2      	b.n	8001cf0 <__aeabi_dsub+0x684>
 8001d0a:	46c0      	nop			; (mov r8, r8)
 8001d0c:	000007ff 	.word	0x000007ff
 8001d10:	ff7fffff 	.word	0xff7fffff

08001d14 <__aeabi_dcmpun>:
 8001d14:	b570      	push	{r4, r5, r6, lr}
 8001d16:	4e0e      	ldr	r6, [pc, #56]	; (8001d50 <__aeabi_dcmpun+0x3c>)
 8001d18:	030c      	lsls	r4, r1, #12
 8001d1a:	031d      	lsls	r5, r3, #12
 8001d1c:	0049      	lsls	r1, r1, #1
 8001d1e:	005b      	lsls	r3, r3, #1
 8001d20:	0b24      	lsrs	r4, r4, #12
 8001d22:	0d49      	lsrs	r1, r1, #21
 8001d24:	0b2d      	lsrs	r5, r5, #12
 8001d26:	0d5b      	lsrs	r3, r3, #21
 8001d28:	42b1      	cmp	r1, r6
 8001d2a:	d004      	beq.n	8001d36 <__aeabi_dcmpun+0x22>
 8001d2c:	4908      	ldr	r1, [pc, #32]	; (8001d50 <__aeabi_dcmpun+0x3c>)
 8001d2e:	2000      	movs	r0, #0
 8001d30:	428b      	cmp	r3, r1
 8001d32:	d008      	beq.n	8001d46 <__aeabi_dcmpun+0x32>
 8001d34:	bd70      	pop	{r4, r5, r6, pc}
 8001d36:	4304      	orrs	r4, r0
 8001d38:	2001      	movs	r0, #1
 8001d3a:	2c00      	cmp	r4, #0
 8001d3c:	d1fa      	bne.n	8001d34 <__aeabi_dcmpun+0x20>
 8001d3e:	4904      	ldr	r1, [pc, #16]	; (8001d50 <__aeabi_dcmpun+0x3c>)
 8001d40:	2000      	movs	r0, #0
 8001d42:	428b      	cmp	r3, r1
 8001d44:	d1f6      	bne.n	8001d34 <__aeabi_dcmpun+0x20>
 8001d46:	4315      	orrs	r5, r2
 8001d48:	0028      	movs	r0, r5
 8001d4a:	1e45      	subs	r5, r0, #1
 8001d4c:	41a8      	sbcs	r0, r5
 8001d4e:	e7f1      	b.n	8001d34 <__aeabi_dcmpun+0x20>
 8001d50:	000007ff 	.word	0x000007ff

08001d54 <__aeabi_d2iz>:
 8001d54:	030b      	lsls	r3, r1, #12
 8001d56:	b530      	push	{r4, r5, lr}
 8001d58:	4d13      	ldr	r5, [pc, #76]	; (8001da8 <__aeabi_d2iz+0x54>)
 8001d5a:	0b1a      	lsrs	r2, r3, #12
 8001d5c:	004b      	lsls	r3, r1, #1
 8001d5e:	0d5b      	lsrs	r3, r3, #21
 8001d60:	0fc9      	lsrs	r1, r1, #31
 8001d62:	2400      	movs	r4, #0
 8001d64:	42ab      	cmp	r3, r5
 8001d66:	dd11      	ble.n	8001d8c <__aeabi_d2iz+0x38>
 8001d68:	4c10      	ldr	r4, [pc, #64]	; (8001dac <__aeabi_d2iz+0x58>)
 8001d6a:	42a3      	cmp	r3, r4
 8001d6c:	dc10      	bgt.n	8001d90 <__aeabi_d2iz+0x3c>
 8001d6e:	2480      	movs	r4, #128	; 0x80
 8001d70:	0364      	lsls	r4, r4, #13
 8001d72:	4322      	orrs	r2, r4
 8001d74:	4c0e      	ldr	r4, [pc, #56]	; (8001db0 <__aeabi_d2iz+0x5c>)
 8001d76:	1ae4      	subs	r4, r4, r3
 8001d78:	2c1f      	cmp	r4, #31
 8001d7a:	dd0c      	ble.n	8001d96 <__aeabi_d2iz+0x42>
 8001d7c:	480d      	ldr	r0, [pc, #52]	; (8001db4 <__aeabi_d2iz+0x60>)
 8001d7e:	1ac3      	subs	r3, r0, r3
 8001d80:	40da      	lsrs	r2, r3
 8001d82:	0013      	movs	r3, r2
 8001d84:	425c      	negs	r4, r3
 8001d86:	2900      	cmp	r1, #0
 8001d88:	d100      	bne.n	8001d8c <__aeabi_d2iz+0x38>
 8001d8a:	001c      	movs	r4, r3
 8001d8c:	0020      	movs	r0, r4
 8001d8e:	bd30      	pop	{r4, r5, pc}
 8001d90:	4b09      	ldr	r3, [pc, #36]	; (8001db8 <__aeabi_d2iz+0x64>)
 8001d92:	18cc      	adds	r4, r1, r3
 8001d94:	e7fa      	b.n	8001d8c <__aeabi_d2iz+0x38>
 8001d96:	40e0      	lsrs	r0, r4
 8001d98:	4c08      	ldr	r4, [pc, #32]	; (8001dbc <__aeabi_d2iz+0x68>)
 8001d9a:	46a4      	mov	ip, r4
 8001d9c:	4463      	add	r3, ip
 8001d9e:	409a      	lsls	r2, r3
 8001da0:	0013      	movs	r3, r2
 8001da2:	4303      	orrs	r3, r0
 8001da4:	e7ee      	b.n	8001d84 <__aeabi_d2iz+0x30>
 8001da6:	46c0      	nop			; (mov r8, r8)
 8001da8:	000003fe 	.word	0x000003fe
 8001dac:	0000041d 	.word	0x0000041d
 8001db0:	00000433 	.word	0x00000433
 8001db4:	00000413 	.word	0x00000413
 8001db8:	7fffffff 	.word	0x7fffffff
 8001dbc:	fffffbed 	.word	0xfffffbed

08001dc0 <__aeabi_i2d>:
 8001dc0:	b570      	push	{r4, r5, r6, lr}
 8001dc2:	2800      	cmp	r0, #0
 8001dc4:	d030      	beq.n	8001e28 <__aeabi_i2d+0x68>
 8001dc6:	17c3      	asrs	r3, r0, #31
 8001dc8:	18c4      	adds	r4, r0, r3
 8001dca:	405c      	eors	r4, r3
 8001dcc:	0fc5      	lsrs	r5, r0, #31
 8001dce:	0020      	movs	r0, r4
 8001dd0:	f000 f870 	bl	8001eb4 <__clzsi2>
 8001dd4:	4b17      	ldr	r3, [pc, #92]	; (8001e34 <__aeabi_i2d+0x74>)
 8001dd6:	4a18      	ldr	r2, [pc, #96]	; (8001e38 <__aeabi_i2d+0x78>)
 8001dd8:	1a1b      	subs	r3, r3, r0
 8001dda:	1ad2      	subs	r2, r2, r3
 8001ddc:	2a1f      	cmp	r2, #31
 8001dde:	dd18      	ble.n	8001e12 <__aeabi_i2d+0x52>
 8001de0:	4a16      	ldr	r2, [pc, #88]	; (8001e3c <__aeabi_i2d+0x7c>)
 8001de2:	1ad2      	subs	r2, r2, r3
 8001de4:	4094      	lsls	r4, r2
 8001de6:	2200      	movs	r2, #0
 8001de8:	0324      	lsls	r4, r4, #12
 8001dea:	055b      	lsls	r3, r3, #21
 8001dec:	0b24      	lsrs	r4, r4, #12
 8001dee:	0d5b      	lsrs	r3, r3, #21
 8001df0:	2100      	movs	r1, #0
 8001df2:	0010      	movs	r0, r2
 8001df4:	0324      	lsls	r4, r4, #12
 8001df6:	0d0a      	lsrs	r2, r1, #20
 8001df8:	0512      	lsls	r2, r2, #20
 8001dfa:	0b24      	lsrs	r4, r4, #12
 8001dfc:	4314      	orrs	r4, r2
 8001dfe:	4a10      	ldr	r2, [pc, #64]	; (8001e40 <__aeabi_i2d+0x80>)
 8001e00:	051b      	lsls	r3, r3, #20
 8001e02:	4014      	ands	r4, r2
 8001e04:	431c      	orrs	r4, r3
 8001e06:	0064      	lsls	r4, r4, #1
 8001e08:	07ed      	lsls	r5, r5, #31
 8001e0a:	0864      	lsrs	r4, r4, #1
 8001e0c:	432c      	orrs	r4, r5
 8001e0e:	0021      	movs	r1, r4
 8001e10:	bd70      	pop	{r4, r5, r6, pc}
 8001e12:	0021      	movs	r1, r4
 8001e14:	4091      	lsls	r1, r2
 8001e16:	000a      	movs	r2, r1
 8001e18:	210b      	movs	r1, #11
 8001e1a:	1a08      	subs	r0, r1, r0
 8001e1c:	40c4      	lsrs	r4, r0
 8001e1e:	055b      	lsls	r3, r3, #21
 8001e20:	0324      	lsls	r4, r4, #12
 8001e22:	0b24      	lsrs	r4, r4, #12
 8001e24:	0d5b      	lsrs	r3, r3, #21
 8001e26:	e7e3      	b.n	8001df0 <__aeabi_i2d+0x30>
 8001e28:	2500      	movs	r5, #0
 8001e2a:	2300      	movs	r3, #0
 8001e2c:	2400      	movs	r4, #0
 8001e2e:	2200      	movs	r2, #0
 8001e30:	e7de      	b.n	8001df0 <__aeabi_i2d+0x30>
 8001e32:	46c0      	nop			; (mov r8, r8)
 8001e34:	0000041e 	.word	0x0000041e
 8001e38:	00000433 	.word	0x00000433
 8001e3c:	00000413 	.word	0x00000413
 8001e40:	800fffff 	.word	0x800fffff

08001e44 <__aeabi_ui2d>:
 8001e44:	b570      	push	{r4, r5, r6, lr}
 8001e46:	1e05      	subs	r5, r0, #0
 8001e48:	d028      	beq.n	8001e9c <__aeabi_ui2d+0x58>
 8001e4a:	f000 f833 	bl	8001eb4 <__clzsi2>
 8001e4e:	4b15      	ldr	r3, [pc, #84]	; (8001ea4 <__aeabi_ui2d+0x60>)
 8001e50:	4a15      	ldr	r2, [pc, #84]	; (8001ea8 <__aeabi_ui2d+0x64>)
 8001e52:	1a1b      	subs	r3, r3, r0
 8001e54:	1ad2      	subs	r2, r2, r3
 8001e56:	2a1f      	cmp	r2, #31
 8001e58:	dd16      	ble.n	8001e88 <__aeabi_ui2d+0x44>
 8001e5a:	002c      	movs	r4, r5
 8001e5c:	4a13      	ldr	r2, [pc, #76]	; (8001eac <__aeabi_ui2d+0x68>)
 8001e5e:	2500      	movs	r5, #0
 8001e60:	1ad2      	subs	r2, r2, r3
 8001e62:	4094      	lsls	r4, r2
 8001e64:	055a      	lsls	r2, r3, #21
 8001e66:	0324      	lsls	r4, r4, #12
 8001e68:	0b24      	lsrs	r4, r4, #12
 8001e6a:	0d52      	lsrs	r2, r2, #21
 8001e6c:	2100      	movs	r1, #0
 8001e6e:	0324      	lsls	r4, r4, #12
 8001e70:	0d0b      	lsrs	r3, r1, #20
 8001e72:	0b24      	lsrs	r4, r4, #12
 8001e74:	051b      	lsls	r3, r3, #20
 8001e76:	4323      	orrs	r3, r4
 8001e78:	4c0d      	ldr	r4, [pc, #52]	; (8001eb0 <__aeabi_ui2d+0x6c>)
 8001e7a:	0512      	lsls	r2, r2, #20
 8001e7c:	4023      	ands	r3, r4
 8001e7e:	4313      	orrs	r3, r2
 8001e80:	005b      	lsls	r3, r3, #1
 8001e82:	0028      	movs	r0, r5
 8001e84:	0859      	lsrs	r1, r3, #1
 8001e86:	bd70      	pop	{r4, r5, r6, pc}
 8001e88:	210b      	movs	r1, #11
 8001e8a:	002c      	movs	r4, r5
 8001e8c:	1a08      	subs	r0, r1, r0
 8001e8e:	40c4      	lsrs	r4, r0
 8001e90:	4095      	lsls	r5, r2
 8001e92:	0324      	lsls	r4, r4, #12
 8001e94:	055a      	lsls	r2, r3, #21
 8001e96:	0b24      	lsrs	r4, r4, #12
 8001e98:	0d52      	lsrs	r2, r2, #21
 8001e9a:	e7e7      	b.n	8001e6c <__aeabi_ui2d+0x28>
 8001e9c:	2200      	movs	r2, #0
 8001e9e:	2400      	movs	r4, #0
 8001ea0:	e7e4      	b.n	8001e6c <__aeabi_ui2d+0x28>
 8001ea2:	46c0      	nop			; (mov r8, r8)
 8001ea4:	0000041e 	.word	0x0000041e
 8001ea8:	00000433 	.word	0x00000433
 8001eac:	00000413 	.word	0x00000413
 8001eb0:	800fffff 	.word	0x800fffff

08001eb4 <__clzsi2>:
 8001eb4:	211c      	movs	r1, #28
 8001eb6:	2301      	movs	r3, #1
 8001eb8:	041b      	lsls	r3, r3, #16
 8001eba:	4298      	cmp	r0, r3
 8001ebc:	d301      	bcc.n	8001ec2 <__clzsi2+0xe>
 8001ebe:	0c00      	lsrs	r0, r0, #16
 8001ec0:	3910      	subs	r1, #16
 8001ec2:	0a1b      	lsrs	r3, r3, #8
 8001ec4:	4298      	cmp	r0, r3
 8001ec6:	d301      	bcc.n	8001ecc <__clzsi2+0x18>
 8001ec8:	0a00      	lsrs	r0, r0, #8
 8001eca:	3908      	subs	r1, #8
 8001ecc:	091b      	lsrs	r3, r3, #4
 8001ece:	4298      	cmp	r0, r3
 8001ed0:	d301      	bcc.n	8001ed6 <__clzsi2+0x22>
 8001ed2:	0900      	lsrs	r0, r0, #4
 8001ed4:	3904      	subs	r1, #4
 8001ed6:	a202      	add	r2, pc, #8	; (adr r2, 8001ee0 <__clzsi2+0x2c>)
 8001ed8:	5c10      	ldrb	r0, [r2, r0]
 8001eda:	1840      	adds	r0, r0, r1
 8001edc:	4770      	bx	lr
 8001ede:	46c0      	nop			; (mov r8, r8)
 8001ee0:	02020304 	.word	0x02020304
 8001ee4:	01010101 	.word	0x01010101
	...

08001ef0 <FifoIn>:
// Returns:
//     FIFO_FAIL       der Ringbuffer ist voll. Es kann kein weiteres Byte gespeichert werden
//     FIFO_SUCCESS    das Byte wurde gespeichert
//
uint8_t FifoIn(FifoBuffer *buf, uint8_t byte)
{
 8001ef0:	b580      	push	{r7, lr}
 8001ef2:	b084      	sub	sp, #16
 8001ef4:	af00      	add	r7, sp, #0
 8001ef6:	6078      	str	r0, [r7, #4]
 8001ef8:	000a      	movs	r2, r1
 8001efa:	1cfb      	adds	r3, r7, #3
 8001efc:	701a      	strb	r2, [r3, #0]
  uint32_t next = ((buf->write + 1) & FIFO_MASK);
 8001efe:	687b      	ldr	r3, [r7, #4]
 8001f00:	2284      	movs	r2, #132	; 0x84
 8001f02:	589b      	ldr	r3, [r3, r2]
 8001f04:	3301      	adds	r3, #1
 8001f06:	227f      	movs	r2, #127	; 0x7f
 8001f08:	4013      	ands	r3, r2
 8001f0a:	60fb      	str	r3, [r7, #12]

  if (buf->read == next)
 8001f0c:	687b      	ldr	r3, [r7, #4]
 8001f0e:	2280      	movs	r2, #128	; 0x80
 8001f10:	589a      	ldr	r2, [r3, r2]
 8001f12:	68fb      	ldr	r3, [r7, #12]
 8001f14:	429a      	cmp	r2, r3
 8001f16:	d101      	bne.n	8001f1c <FifoIn+0x2c>
    return FIFO_FAIL; // voll
 8001f18:	2301      	movs	r3, #1
 8001f1a:	e00b      	b.n	8001f34 <FifoIn+0x44>

  buf->data[buf->write] = byte;
 8001f1c:	687b      	ldr	r3, [r7, #4]
 8001f1e:	2284      	movs	r2, #132	; 0x84
 8001f20:	589b      	ldr	r3, [r3, r2]
 8001f22:	687a      	ldr	r2, [r7, #4]
 8001f24:	1cf9      	adds	r1, r7, #3
 8001f26:	7809      	ldrb	r1, [r1, #0]
 8001f28:	54d1      	strb	r1, [r2, r3]
  // buffer.data[buffer.write & BUFFER_MASK] = byte; // absolut Sicher
  buf->write = next;
 8001f2a:	687b      	ldr	r3, [r7, #4]
 8001f2c:	2184      	movs	r1, #132	; 0x84
 8001f2e:	68fa      	ldr	r2, [r7, #12]
 8001f30:	505a      	str	r2, [r3, r1]

  return FIFO_SUCCESS;
 8001f32:	2300      	movs	r3, #0
}
 8001f34:	0018      	movs	r0, r3
 8001f36:	46bd      	mov	sp, r7
 8001f38:	b004      	add	sp, #16
 8001f3a:	bd80      	pop	{r7, pc}

08001f3c <USBD_USR_Init>:
  * @brief  Device lib initialization
  * @param  None
  * @retval None
  */
void USBD_USR_Init(void)
{   
 8001f3c:	b580      	push	{r7, lr}
 8001f3e:	af00      	add	r7, sp, #0
}
 8001f40:	46c0      	nop			; (mov r8, r8)
 8001f42:	46bd      	mov	sp, r7
 8001f44:	bd80      	pop	{r7, pc}
 8001f46:	46c0      	nop			; (mov r8, r8)

08001f48 <USBD_USR_DeviceReset>:
  * @brief  Reset Event
  * @param  speed : device speed
  * @retval None
  */
void USBD_USR_DeviceReset(uint8_t speed )
{
 8001f48:	b580      	push	{r7, lr}
 8001f4a:	b082      	sub	sp, #8
 8001f4c:	af00      	add	r7, sp, #0
 8001f4e:	0002      	movs	r2, r0
 8001f50:	1dfb      	adds	r3, r7, #7
 8001f52:	701a      	strb	r2, [r3, #0]

}
 8001f54:	46c0      	nop			; (mov r8, r8)
 8001f56:	46bd      	mov	sp, r7
 8001f58:	b002      	add	sp, #8
 8001f5a:	bd80      	pop	{r7, pc}

08001f5c <USBD_USR_DeviceConfigured>:
  * @brief  Configuration Event
  * @param  None
  * @retval Status
*/
void USBD_USR_DeviceConfigured (void)
{
 8001f5c:	b580      	push	{r7, lr}
 8001f5e:	af00      	add	r7, sp, #0

}
 8001f60:	46c0      	nop			; (mov r8, r8)
 8001f62:	46bd      	mov	sp, r7
 8001f64:	bd80      	pop	{r7, pc}
 8001f66:	46c0      	nop			; (mov r8, r8)

08001f68 <USBD_USR_DeviceSuspended>:
  * @brief  Device suspend Event
  * @param  None
  * @retval None
  */
void USBD_USR_DeviceSuspended(void)
{
 8001f68:	b580      	push	{r7, lr}
 8001f6a:	af00      	add	r7, sp, #0
}
 8001f6c:	46c0      	nop			; (mov r8, r8)
 8001f6e:	46bd      	mov	sp, r7
 8001f70:	bd80      	pop	{r7, pc}
 8001f72:	46c0      	nop			; (mov r8, r8)

08001f74 <USBD_USR_DeviceResumed>:
  * @brief  Device resume Event
  * @param  None
  * @retval None
  */
void USBD_USR_DeviceResumed(void)
{
 8001f74:	b580      	push	{r7, lr}
 8001f76:	af00      	add	r7, sp, #0
}
 8001f78:	46c0      	nop			; (mov r8, r8)
 8001f7a:	46bd      	mov	sp, r7
 8001f7c:	bd80      	pop	{r7, pc}
 8001f7e:	46c0      	nop			; (mov r8, r8)

08001f80 <Suspend>:
  * @brief  Sets suspend mode operating conditions
  * @param  None
  * @retval USB_SUCCESS
  */
void Suspend(void)
{
 8001f80:	b580      	push	{r7, lr}
 8001f82:	b082      	sub	sp, #8
 8001f84:	af00      	add	r7, sp, #0
  uint16_t wCNTR;

  /*Store CNTR value */
  wCNTR = _GetCNTR();   
 8001f86:	4b10      	ldr	r3, [pc, #64]	; (8001fc8 <Suspend+0x48>)
 8001f88:	681a      	ldr	r2, [r3, #0]
 8001f8a:	1dbb      	adds	r3, r7, #6
 8001f8c:	801a      	strh	r2, [r3, #0]
  /* Set FSUSP bit in USB_CNTR register*/
  wCNTR |= CNTR_FSUSP;
 8001f8e:	1dbb      	adds	r3, r7, #6
 8001f90:	1dba      	adds	r2, r7, #6
 8001f92:	8812      	ldrh	r2, [r2, #0]
 8001f94:	2108      	movs	r1, #8
 8001f96:	430a      	orrs	r2, r1
 8001f98:	801a      	strh	r2, [r3, #0]
  _SetCNTR(wCNTR);
 8001f9a:	4b0b      	ldr	r3, [pc, #44]	; (8001fc8 <Suspend+0x48>)
 8001f9c:	1dba      	adds	r2, r7, #6
 8001f9e:	8812      	ldrh	r2, [r2, #0]
 8001fa0:	601a      	str	r2, [r3, #0]
  
  /* force low-power mode in the macrocell */
  wCNTR = _GetCNTR();
 8001fa2:	4b09      	ldr	r3, [pc, #36]	; (8001fc8 <Suspend+0x48>)
 8001fa4:	681a      	ldr	r2, [r3, #0]
 8001fa6:	1dbb      	adds	r3, r7, #6
 8001fa8:	801a      	strh	r2, [r3, #0]
  wCNTR |= CNTR_LPMODE;
 8001faa:	1dbb      	adds	r3, r7, #6
 8001fac:	1dba      	adds	r2, r7, #6
 8001fae:	8812      	ldrh	r2, [r2, #0]
 8001fb0:	2104      	movs	r1, #4
 8001fb2:	430a      	orrs	r2, r1
 8001fb4:	801a      	strh	r2, [r3, #0]
  _SetCNTR(wCNTR);
 8001fb6:	4b04      	ldr	r3, [pc, #16]	; (8001fc8 <Suspend+0x48>)
 8001fb8:	1dba      	adds	r2, r7, #6
 8001fba:	8812      	ldrh	r2, [r2, #0]
 8001fbc:	601a      	str	r2, [r3, #0]
    wCNTR = _GetCNTR();
    wCNTR&=~CNTR_FSUSP;
    _SetCNTR(wCNTR);
  }
#endif
}
 8001fbe:	46c0      	nop			; (mov r8, r8)
 8001fc0:	46bd      	mov	sp, r7
 8001fc2:	b002      	add	sp, #8
 8001fc4:	bd80      	pop	{r7, pc}
 8001fc6:	46c0      	nop			; (mov r8, r8)
 8001fc8:	40005c40 	.word	0x40005c40

08001fcc <Resume_Init>:
  * @brief  Handles wake-up restoring normal operations
  * @param  None
  * @retval USB_SUCCESS
  */
void Resume_Init(void)
{
 8001fcc:	b580      	push	{r7, lr}
 8001fce:	b082      	sub	sp, #8
 8001fd0:	af00      	add	r7, sp, #0
  /* ------------------ ONLY WITH BUS-POWERED DEVICES ---------------------- */
  /* restart the clocks */
  /* ...  */

  /* CNTR_LPMODE = 0 */
  wCNTR = _GetCNTR();
 8001fd2:	4b0b      	ldr	r3, [pc, #44]	; (8002000 <Resume_Init+0x34>)
 8001fd4:	681a      	ldr	r2, [r3, #0]
 8001fd6:	1dbb      	adds	r3, r7, #6
 8001fd8:	801a      	strh	r2, [r3, #0]
  wCNTR &= (~CNTR_LPMODE);
 8001fda:	1dbb      	adds	r3, r7, #6
 8001fdc:	1dba      	adds	r2, r7, #6
 8001fde:	8812      	ldrh	r2, [r2, #0]
 8001fe0:	2104      	movs	r1, #4
 8001fe2:	438a      	bics	r2, r1
 8001fe4:	801a      	strh	r2, [r3, #0]
  _SetCNTR(wCNTR);    
 8001fe6:	4b06      	ldr	r3, [pc, #24]	; (8002000 <Resume_Init+0x34>)
 8001fe8:	1dba      	adds	r2, r7, #6
 8001fea:	8812      	ldrh	r2, [r2, #0]
 8001fec:	601a      	str	r2, [r3, #0]
  /* restore full power */
  /* ... on connected devices */
  Leave_LowPowerMode();
#endif
  /* reset FSUSP bit */
  _SetCNTR(IMR_MSK);
 8001fee:	4b04      	ldr	r3, [pc, #16]	; (8002000 <Resume_Init+0x34>)
 8001ff0:	22bf      	movs	r2, #191	; 0xbf
 8001ff2:	0212      	lsls	r2, r2, #8
 8001ff4:	601a      	str	r2, [r3, #0]

}
 8001ff6:	46c0      	nop			; (mov r8, r8)
 8001ff8:	46bd      	mov	sp, r7
 8001ffa:	b002      	add	sp, #8
 8001ffc:	bd80      	pop	{r7, pc}
 8001ffe:	46c0      	nop			; (mov r8, r8)
 8002000:	40005c40 	.word	0x40005c40

08002004 <Resume>:
  *         RESUME_ESOF doesn't change ResumeS.eState allowing
  *         decrementing of the ESOF counter in different states.
  * @retval Status
  */
void Resume(RESUME_STATE eResumeSetVal)
{
 8002004:	b580      	push	{r7, lr}
 8002006:	b084      	sub	sp, #16
 8002008:	af00      	add	r7, sp, #0
 800200a:	0002      	movs	r2, r0
 800200c:	1dfb      	adds	r3, r7, #7
 800200e:	701a      	strb	r2, [r3, #0]
 uint16_t wCNTR;

  if (eResumeSetVal != RESUME_ESOF)
 8002010:	1dfb      	adds	r3, r7, #7
 8002012:	781b      	ldrb	r3, [r3, #0]
 8002014:	2b07      	cmp	r3, #7
 8002016:	d003      	beq.n	8002020 <Resume+0x1c>
    ResumeS.eState = eResumeSetVal;
 8002018:	4b42      	ldr	r3, [pc, #264]	; (8002124 <Resume+0x120>)
 800201a:	1dfa      	adds	r2, r7, #7
 800201c:	7812      	ldrb	r2, [r2, #0]
 800201e:	701a      	strb	r2, [r3, #0]
  switch (ResumeS.eState)
 8002020:	4b40      	ldr	r3, [pc, #256]	; (8002124 <Resume+0x120>)
 8002022:	781b      	ldrb	r3, [r3, #0]
 8002024:	b2db      	uxtb	r3, r3
 8002026:	2b05      	cmp	r3, #5
 8002028:	d900      	bls.n	800202c <Resume+0x28>
 800202a:	e070      	b.n	800210e <Resume+0x10a>
 800202c:	009a      	lsls	r2, r3, #2
 800202e:	4b3e      	ldr	r3, [pc, #248]	; (8002128 <Resume+0x124>)
 8002030:	18d3      	adds	r3, r2, r3
 8002032:	681b      	ldr	r3, [r3, #0]
 8002034:	469f      	mov	pc, r3
  {
    case RESUME_EXTERNAL:
      
if (remotewakeupon ==0)
 8002036:	4b3d      	ldr	r3, [pc, #244]	; (800212c <Resume+0x128>)
 8002038:	681b      	ldr	r3, [r3, #0]
 800203a:	2b00      	cmp	r3, #0
 800203c:	d105      	bne.n	800204a <Resume+0x46>
      {
        Resume_Init();
 800203e:	f7ff ffc5 	bl	8001fcc <Resume_Init>
        ResumeS.eState = RESUME_OFF;
 8002042:	4b38      	ldr	r3, [pc, #224]	; (8002124 <Resume+0x120>)
 8002044:	2206      	movs	r2, #6
 8002046:	701a      	strb	r2, [r3, #0]
      }
      else /* RESUME detected during the RemoteWAkeup signalling => keep RemoteWakeup handling*/
      {
        ResumeS.eState = RESUME_ON;
      }
      break;
 8002048:	e068      	b.n	800211c <Resume+0x118>
        Resume_Init();
        ResumeS.eState = RESUME_OFF;
      }
      else /* RESUME detected during the RemoteWAkeup signalling => keep RemoteWakeup handling*/
      {
        ResumeS.eState = RESUME_ON;
 800204a:	4b36      	ldr	r3, [pc, #216]	; (8002124 <Resume+0x120>)
 800204c:	2205      	movs	r2, #5
 800204e:	701a      	strb	r2, [r3, #0]
      }
      break;
 8002050:	e064      	b.n	800211c <Resume+0x118>
    case RESUME_INTERNAL:
      Resume_Init();
 8002052:	f7ff ffbb 	bl	8001fcc <Resume_Init>
      ResumeS.eState = RESUME_START;
 8002056:	4b33      	ldr	r3, [pc, #204]	; (8002124 <Resume+0x120>)
 8002058:	2204      	movs	r2, #4
 800205a:	701a      	strb	r2, [r3, #0]
      remotewakeupon = 1;
 800205c:	4b33      	ldr	r3, [pc, #204]	; (800212c <Resume+0x128>)
 800205e:	2201      	movs	r2, #1
 8002060:	601a      	str	r2, [r3, #0]
      break;
 8002062:	e05b      	b.n	800211c <Resume+0x118>
    case RESUME_LATER:
      ResumeS.bESOFcnt = 2;
 8002064:	4b2f      	ldr	r3, [pc, #188]	; (8002124 <Resume+0x120>)
 8002066:	2202      	movs	r2, #2
 8002068:	705a      	strb	r2, [r3, #1]
      ResumeS.eState = RESUME_WAIT;
 800206a:	4b2e      	ldr	r3, [pc, #184]	; (8002124 <Resume+0x120>)
 800206c:	2203      	movs	r2, #3
 800206e:	701a      	strb	r2, [r3, #0]
      break;
 8002070:	e054      	b.n	800211c <Resume+0x118>
    case RESUME_WAIT:
      ResumeS.bESOFcnt--;
 8002072:	4b2c      	ldr	r3, [pc, #176]	; (8002124 <Resume+0x120>)
 8002074:	785b      	ldrb	r3, [r3, #1]
 8002076:	b2db      	uxtb	r3, r3
 8002078:	3b01      	subs	r3, #1
 800207a:	b2da      	uxtb	r2, r3
 800207c:	4b29      	ldr	r3, [pc, #164]	; (8002124 <Resume+0x120>)
 800207e:	705a      	strb	r2, [r3, #1]
      if (ResumeS.bESOFcnt == 0)
 8002080:	4b28      	ldr	r3, [pc, #160]	; (8002124 <Resume+0x120>)
 8002082:	785b      	ldrb	r3, [r3, #1]
 8002084:	b2db      	uxtb	r3, r3
 8002086:	2b00      	cmp	r3, #0
 8002088:	d145      	bne.n	8002116 <Resume+0x112>
        ResumeS.eState = RESUME_START;
 800208a:	4b26      	ldr	r3, [pc, #152]	; (8002124 <Resume+0x120>)
 800208c:	2204      	movs	r2, #4
 800208e:	701a      	strb	r2, [r3, #0]
      break;
 8002090:	e041      	b.n	8002116 <Resume+0x112>
    case RESUME_START:
      wCNTR = _GetCNTR();
 8002092:	4b27      	ldr	r3, [pc, #156]	; (8002130 <Resume+0x12c>)
 8002094:	681a      	ldr	r2, [r3, #0]
 8002096:	230e      	movs	r3, #14
 8002098:	18fb      	adds	r3, r7, r3
 800209a:	801a      	strh	r2, [r3, #0]
      wCNTR |= CNTR_RESUME;
 800209c:	230e      	movs	r3, #14
 800209e:	18fb      	adds	r3, r7, r3
 80020a0:	220e      	movs	r2, #14
 80020a2:	18ba      	adds	r2, r7, r2
 80020a4:	8812      	ldrh	r2, [r2, #0]
 80020a6:	2110      	movs	r1, #16
 80020a8:	430a      	orrs	r2, r1
 80020aa:	801a      	strh	r2, [r3, #0]
      _SetCNTR(wCNTR);
 80020ac:	4b20      	ldr	r3, [pc, #128]	; (8002130 <Resume+0x12c>)
 80020ae:	220e      	movs	r2, #14
 80020b0:	18ba      	adds	r2, r7, r2
 80020b2:	8812      	ldrh	r2, [r2, #0]
 80020b4:	601a      	str	r2, [r3, #0]
      ResumeS.eState = RESUME_ON;
 80020b6:	4b1b      	ldr	r3, [pc, #108]	; (8002124 <Resume+0x120>)
 80020b8:	2205      	movs	r2, #5
 80020ba:	701a      	strb	r2, [r3, #0]
      ResumeS.bESOFcnt = 10;
 80020bc:	4b19      	ldr	r3, [pc, #100]	; (8002124 <Resume+0x120>)
 80020be:	220a      	movs	r2, #10
 80020c0:	705a      	strb	r2, [r3, #1]
      break;
 80020c2:	e02b      	b.n	800211c <Resume+0x118>
    case RESUME_ON:    
      ResumeS.bESOFcnt--;
 80020c4:	4b17      	ldr	r3, [pc, #92]	; (8002124 <Resume+0x120>)
 80020c6:	785b      	ldrb	r3, [r3, #1]
 80020c8:	b2db      	uxtb	r3, r3
 80020ca:	3b01      	subs	r3, #1
 80020cc:	b2da      	uxtb	r2, r3
 80020ce:	4b15      	ldr	r3, [pc, #84]	; (8002124 <Resume+0x120>)
 80020d0:	705a      	strb	r2, [r3, #1]
      if (ResumeS.bESOFcnt == 0)
 80020d2:	4b14      	ldr	r3, [pc, #80]	; (8002124 <Resume+0x120>)
 80020d4:	785b      	ldrb	r3, [r3, #1]
 80020d6:	b2db      	uxtb	r3, r3
 80020d8:	2b00      	cmp	r3, #0
 80020da:	d11e      	bne.n	800211a <Resume+0x116>
      {
        wCNTR = _GetCNTR();
 80020dc:	4b14      	ldr	r3, [pc, #80]	; (8002130 <Resume+0x12c>)
 80020de:	681a      	ldr	r2, [r3, #0]
 80020e0:	230e      	movs	r3, #14
 80020e2:	18fb      	adds	r3, r7, r3
 80020e4:	801a      	strh	r2, [r3, #0]
        wCNTR &= (~CNTR_RESUME);
 80020e6:	230e      	movs	r3, #14
 80020e8:	18fb      	adds	r3, r7, r3
 80020ea:	220e      	movs	r2, #14
 80020ec:	18ba      	adds	r2, r7, r2
 80020ee:	8812      	ldrh	r2, [r2, #0]
 80020f0:	2110      	movs	r1, #16
 80020f2:	438a      	bics	r2, r1
 80020f4:	801a      	strh	r2, [r3, #0]
        _SetCNTR(wCNTR);
 80020f6:	4b0e      	ldr	r3, [pc, #56]	; (8002130 <Resume+0x12c>)
 80020f8:	220e      	movs	r2, #14
 80020fa:	18ba      	adds	r2, r7, r2
 80020fc:	8812      	ldrh	r2, [r2, #0]
 80020fe:	601a      	str	r2, [r3, #0]
        ResumeS.eState = RESUME_OFF;
 8002100:	4b08      	ldr	r3, [pc, #32]	; (8002124 <Resume+0x120>)
 8002102:	2206      	movs	r2, #6
 8002104:	701a      	strb	r2, [r3, #0]
        remotewakeupon = 0;
 8002106:	4b09      	ldr	r3, [pc, #36]	; (800212c <Resume+0x128>)
 8002108:	2200      	movs	r2, #0
 800210a:	601a      	str	r2, [r3, #0]
      }
      break;
 800210c:	e005      	b.n	800211a <Resume+0x116>
    case RESUME_OFF:
    case RESUME_ESOF:
    default:
      ResumeS.eState = RESUME_OFF;
 800210e:	4b05      	ldr	r3, [pc, #20]	; (8002124 <Resume+0x120>)
 8002110:	2206      	movs	r2, #6
 8002112:	701a      	strb	r2, [r3, #0]
      break;
 8002114:	e002      	b.n	800211c <Resume+0x118>
      break;
    case RESUME_WAIT:
      ResumeS.bESOFcnt--;
      if (ResumeS.bESOFcnt == 0)
        ResumeS.eState = RESUME_START;
      break;
 8002116:	46c0      	nop			; (mov r8, r8)
 8002118:	e000      	b.n	800211c <Resume+0x118>
        wCNTR &= (~CNTR_RESUME);
        _SetCNTR(wCNTR);
        ResumeS.eState = RESUME_OFF;
        remotewakeupon = 0;
      }
      break;
 800211a:	46c0      	nop			; (mov r8, r8)
    case RESUME_ESOF:
    default:
      ResumeS.eState = RESUME_OFF;
      break;
  }
}
 800211c:	46c0      	nop			; (mov r8, r8)
 800211e:	46bd      	mov	sp, r7
 8002120:	b004      	add	sp, #16
 8002122:	bd80      	pop	{r7, pc}
 8002124:	20000184 	.word	0x20000184
 8002128:	08007568 	.word	0x08007568
 800212c:	20000140 	.word	0x20000140
 8002130:	40005c40 	.word	0x40005c40

08002134 <USBD_USR_DeviceDescriptor>:
  * @param  speed : current device speed
  * @param  length : pointer to data length variable
  * @retval pointer to descriptor buffer
  */
uint8_t *  USBD_USR_DeviceDescriptor( uint8_t speed , uint16_t *length)
{
 8002134:	b580      	push	{r7, lr}
 8002136:	b082      	sub	sp, #8
 8002138:	af00      	add	r7, sp, #0
 800213a:	0002      	movs	r2, r0
 800213c:	6039      	str	r1, [r7, #0]
 800213e:	1dfb      	adds	r3, r7, #7
 8002140:	701a      	strb	r2, [r3, #0]
  *length = sizeof(USBD_DeviceDesc);
 8002142:	683b      	ldr	r3, [r7, #0]
 8002144:	2212      	movs	r2, #18
 8002146:	801a      	strh	r2, [r3, #0]
  return (uint8_t*)USBD_DeviceDesc;
 8002148:	4b02      	ldr	r3, [pc, #8]	; (8002154 <USBD_USR_DeviceDescriptor+0x20>)
}
 800214a:	0018      	movs	r0, r3
 800214c:	46bd      	mov	sp, r7
 800214e:	b002      	add	sp, #8
 8002150:	bd80      	pop	{r7, pc}
 8002152:	46c0      	nop			; (mov r8, r8)
 8002154:	08007580 	.word	0x08007580

08002158 <USBD_USR_LangIDStrDescriptor>:
  * @param  speed : current device speed
  * @param  length : pointer to data length variable
  * @retval pointer to descriptor buffer
  */
uint8_t *  USBD_USR_LangIDStrDescriptor( uint8_t speed , uint16_t *length)
{
 8002158:	b580      	push	{r7, lr}
 800215a:	b082      	sub	sp, #8
 800215c:	af00      	add	r7, sp, #0
 800215e:	0002      	movs	r2, r0
 8002160:	6039      	str	r1, [r7, #0]
 8002162:	1dfb      	adds	r3, r7, #7
 8002164:	701a      	strb	r2, [r3, #0]
  *length =  sizeof(USBD_LangIDDesc);  
 8002166:	683b      	ldr	r3, [r7, #0]
 8002168:	2204      	movs	r2, #4
 800216a:	801a      	strh	r2, [r3, #0]
  return (uint8_t*)USBD_LangIDDesc;
 800216c:	4b02      	ldr	r3, [pc, #8]	; (8002178 <USBD_USR_LangIDStrDescriptor+0x20>)
}
 800216e:	0018      	movs	r0, r3
 8002170:	46bd      	mov	sp, r7
 8002172:	b002      	add	sp, #8
 8002174:	bd80      	pop	{r7, pc}
 8002176:	46c0      	nop			; (mov r8, r8)
 8002178:	08007594 	.word	0x08007594

0800217c <USBD_USR_ProductStrDescriptor>:
  * @param  speed : current device speed
  * @param  length : pointer to data length variable
  * @retval pointer to descriptor buffer
  */
uint8_t *  USBD_USR_ProductStrDescriptor( uint8_t speed , uint16_t *length)
{
 800217c:	b580      	push	{r7, lr}
 800217e:	b082      	sub	sp, #8
 8002180:	af00      	add	r7, sp, #0
 8002182:	0002      	movs	r2, r0
 8002184:	6039      	str	r1, [r7, #0]
 8002186:	1dfb      	adds	r3, r7, #7
 8002188:	701a      	strb	r2, [r3, #0]
  USBD_GetString ( (uint8_t*)USBD_PRODUCT_FS_STRING, USBD_StrDesc, length);    
 800218a:	683a      	ldr	r2, [r7, #0]
 800218c:	4904      	ldr	r1, [pc, #16]	; (80021a0 <USBD_USR_ProductStrDescriptor+0x24>)
 800218e:	4b05      	ldr	r3, [pc, #20]	; (80021a4 <USBD_USR_ProductStrDescriptor+0x28>)
 8002190:	0018      	movs	r0, r3
 8002192:	f001 fd8b 	bl	8003cac <USBD_GetString>
  return USBD_StrDesc;
 8002196:	4b02      	ldr	r3, [pc, #8]	; (80021a0 <USBD_USR_ProductStrDescriptor+0x24>)
}
 8002198:	0018      	movs	r0, r3
 800219a:	46bd      	mov	sp, r7
 800219c:	b002      	add	sp, #8
 800219e:	bd80      	pop	{r7, pc}
 80021a0:	20000428 	.word	0x20000428
 80021a4:	08007458 	.word	0x08007458

080021a8 <USBD_USR_ManufacturerStrDescriptor>:
  * @param  speed : current device speed
  * @param  length : pointer to data length variable
  * @retval pointer to descriptor buffer
  */
uint8_t *  USBD_USR_ManufacturerStrDescriptor( uint8_t speed , uint16_t *length)
{
 80021a8:	b580      	push	{r7, lr}
 80021aa:	b082      	sub	sp, #8
 80021ac:	af00      	add	r7, sp, #0
 80021ae:	0002      	movs	r2, r0
 80021b0:	6039      	str	r1, [r7, #0]
 80021b2:	1dfb      	adds	r3, r7, #7
 80021b4:	701a      	strb	r2, [r3, #0]
  USBD_GetString ( (uint8_t*)USBD_MANUFACTURER_STRING, USBD_StrDesc, length);
 80021b6:	683a      	ldr	r2, [r7, #0]
 80021b8:	4904      	ldr	r1, [pc, #16]	; (80021cc <USBD_USR_ManufacturerStrDescriptor+0x24>)
 80021ba:	4b05      	ldr	r3, [pc, #20]	; (80021d0 <USBD_USR_ManufacturerStrDescriptor+0x28>)
 80021bc:	0018      	movs	r0, r3
 80021be:	f001 fd75 	bl	8003cac <USBD_GetString>
  return USBD_StrDesc;
 80021c2:	4b02      	ldr	r3, [pc, #8]	; (80021cc <USBD_USR_ManufacturerStrDescriptor+0x24>)
}
 80021c4:	0018      	movs	r0, r3
 80021c6:	46bd      	mov	sp, r7
 80021c8:	b002      	add	sp, #8
 80021ca:	bd80      	pop	{r7, pc}
 80021cc:	20000428 	.word	0x20000428
 80021d0:	0800747c 	.word	0x0800747c

080021d4 <USBD_USR_SerialStrDescriptor>:
  * @param  speed : current device speed
  * @param  length : pointer to data length variable
  * @retval pointer to descriptor buffer
  */
uint8_t *  USBD_USR_SerialStrDescriptor( uint8_t speed , uint16_t *length)
{
 80021d4:	b580      	push	{r7, lr}
 80021d6:	b082      	sub	sp, #8
 80021d8:	af00      	add	r7, sp, #0
 80021da:	0002      	movs	r2, r0
 80021dc:	6039      	str	r1, [r7, #0]
 80021de:	1dfb      	adds	r3, r7, #7
 80021e0:	701a      	strb	r2, [r3, #0]
  *length = USB_SIZ_STRING_SERIAL; 
 80021e2:	683b      	ldr	r3, [r7, #0]
 80021e4:	221a      	movs	r2, #26
 80021e6:	801a      	strh	r2, [r3, #0]
  return USBD_StringSerial;
 80021e8:	4b02      	ldr	r3, [pc, #8]	; (80021f4 <USBD_USR_SerialStrDescriptor+0x20>)
}
 80021ea:	0018      	movs	r0, r3
 80021ec:	46bd      	mov	sp, r7
 80021ee:	b002      	add	sp, #8
 80021f0:	bd80      	pop	{r7, pc}
 80021f2:	46c0      	nop			; (mov r8, r8)
 80021f4:	20000030 	.word	0x20000030

080021f8 <USBD_USR_ConfigStrDescriptor>:
  * @param  speed : current device speed
  * @param  length : pointer to data length variable
  * @retval pointer to descriptor buffer
  */
uint8_t *  USBD_USR_ConfigStrDescriptor( uint8_t speed , uint16_t *length)
{
 80021f8:	b580      	push	{r7, lr}
 80021fa:	b082      	sub	sp, #8
 80021fc:	af00      	add	r7, sp, #0
 80021fe:	0002      	movs	r2, r0
 8002200:	6039      	str	r1, [r7, #0]
 8002202:	1dfb      	adds	r3, r7, #7
 8002204:	701a      	strb	r2, [r3, #0]
  USBD_GetString ( (uint8_t*)USBD_CONFIGURATION_FS_STRING, USBD_StrDesc, length); 
 8002206:	683a      	ldr	r2, [r7, #0]
 8002208:	4904      	ldr	r1, [pc, #16]	; (800221c <USBD_USR_ConfigStrDescriptor+0x24>)
 800220a:	4b05      	ldr	r3, [pc, #20]	; (8002220 <USBD_USR_ConfigStrDescriptor+0x28>)
 800220c:	0018      	movs	r0, r3
 800220e:	f001 fd4d 	bl	8003cac <USBD_GetString>
  return USBD_StrDesc;  
 8002212:	4b02      	ldr	r3, [pc, #8]	; (800221c <USBD_USR_ConfigStrDescriptor+0x24>)
}
 8002214:	0018      	movs	r0, r3
 8002216:	46bd      	mov	sp, r7
 8002218:	b002      	add	sp, #8
 800221a:	bd80      	pop	{r7, pc}
 800221c:	20000428 	.word	0x20000428
 8002220:	08007490 	.word	0x08007490

08002224 <USBD_USR_InterfaceStrDescriptor>:
  * @param  speed : current device speed
  * @param  length : pointer to data length variable
  * @retval pointer to descriptor buffer
  */
uint8_t *  USBD_USR_InterfaceStrDescriptor( uint8_t speed , uint16_t *length)
{
 8002224:	b580      	push	{r7, lr}
 8002226:	b082      	sub	sp, #8
 8002228:	af00      	add	r7, sp, #0
 800222a:	0002      	movs	r2, r0
 800222c:	6039      	str	r1, [r7, #0]
 800222e:	1dfb      	adds	r3, r7, #7
 8002230:	701a      	strb	r2, [r3, #0]
  USBD_GetString ( (uint8_t*)USBD_INTERFACE_FS_STRING, USBD_StrDesc, length);
 8002232:	683a      	ldr	r2, [r7, #0]
 8002234:	4904      	ldr	r1, [pc, #16]	; (8002248 <USBD_USR_InterfaceStrDescriptor+0x24>)
 8002236:	4b05      	ldr	r3, [pc, #20]	; (800224c <USBD_USR_InterfaceStrDescriptor+0x28>)
 8002238:	0018      	movs	r0, r3
 800223a:	f001 fd37 	bl	8003cac <USBD_GetString>
  return USBD_StrDesc;  
 800223e:	4b02      	ldr	r3, [pc, #8]	; (8002248 <USBD_USR_InterfaceStrDescriptor+0x24>)
}
 8002240:	0018      	movs	r0, r3
 8002242:	46bd      	mov	sp, r7
 8002244:	b002      	add	sp, #8
 8002246:	bd80      	pop	{r7, pc}
 8002248:	20000428 	.word	0x20000428
 800224c:	0800749c 	.word	0x0800749c

08002250 <Get_SerialNum>:
  * @brief  Create the serial number string descriptor 
  * @param  None 
  * @retval None
  */
void Get_SerialNum(void)
{
 8002250:	b580      	push	{r7, lr}
 8002252:	b084      	sub	sp, #16
 8002254:	af00      	add	r7, sp, #0
  uint32_t Device_Serial0, Device_Serial1, Device_Serial2;
  
  Device_Serial0 = *(uint32_t*)Device1_Identifier;
 8002256:	4b10      	ldr	r3, [pc, #64]	; (8002298 <Get_SerialNum+0x48>)
 8002258:	681b      	ldr	r3, [r3, #0]
 800225a:	60fb      	str	r3, [r7, #12]
  Device_Serial1 = *(uint32_t*)Device2_Identifier;
 800225c:	4b0f      	ldr	r3, [pc, #60]	; (800229c <Get_SerialNum+0x4c>)
 800225e:	681b      	ldr	r3, [r3, #0]
 8002260:	60bb      	str	r3, [r7, #8]
  Device_Serial2 = *(uint32_t*)Device3_Identifier;
 8002262:	4b0f      	ldr	r3, [pc, #60]	; (80022a0 <Get_SerialNum+0x50>)
 8002264:	681b      	ldr	r3, [r3, #0]
 8002266:	607b      	str	r3, [r7, #4]
  
  Device_Serial0 += Device_Serial2;
 8002268:	68fa      	ldr	r2, [r7, #12]
 800226a:	687b      	ldr	r3, [r7, #4]
 800226c:	18d3      	adds	r3, r2, r3
 800226e:	60fb      	str	r3, [r7, #12]
  
  if (Device_Serial0 != 0)
 8002270:	68fb      	ldr	r3, [r7, #12]
 8002272:	2b00      	cmp	r3, #0
 8002274:	d00b      	beq.n	800228e <Get_SerialNum+0x3e>
  {
    IntToUnicode (Device_Serial0, &USBD_StringSerial[2] ,8);
 8002276:	490b      	ldr	r1, [pc, #44]	; (80022a4 <Get_SerialNum+0x54>)
 8002278:	68fb      	ldr	r3, [r7, #12]
 800227a:	2208      	movs	r2, #8
 800227c:	0018      	movs	r0, r3
 800227e:	f000 f815 	bl	80022ac <IntToUnicode>
    IntToUnicode (Device_Serial1, &USBD_StringSerial[18] ,4);
 8002282:	4909      	ldr	r1, [pc, #36]	; (80022a8 <Get_SerialNum+0x58>)
 8002284:	68bb      	ldr	r3, [r7, #8]
 8002286:	2204      	movs	r2, #4
 8002288:	0018      	movs	r0, r3
 800228a:	f000 f80f 	bl	80022ac <IntToUnicode>
  }
}
 800228e:	46c0      	nop			; (mov r8, r8)
 8002290:	46bd      	mov	sp, r7
 8002292:	b004      	add	sp, #16
 8002294:	bd80      	pop	{r7, pc}
 8002296:	46c0      	nop			; (mov r8, r8)
 8002298:	1ffff7ac 	.word	0x1ffff7ac
 800229c:	1ffff7b0 	.word	0x1ffff7b0
 80022a0:	1ffff7b4 	.word	0x1ffff7b4
 80022a4:	20000032 	.word	0x20000032
 80022a8:	20000042 	.word	0x20000042

080022ac <IntToUnicode>:
  * @param  pbuf: pointer to the buffer 
  * @param  len: buffer length
  * @retval None
  */
static void IntToUnicode (uint32_t value , uint8_t *pbuf , uint8_t len)
{
 80022ac:	b580      	push	{r7, lr}
 80022ae:	b086      	sub	sp, #24
 80022b0:	af00      	add	r7, sp, #0
 80022b2:	60f8      	str	r0, [r7, #12]
 80022b4:	60b9      	str	r1, [r7, #8]
 80022b6:	1dfb      	adds	r3, r7, #7
 80022b8:	701a      	strb	r2, [r3, #0]
  uint8_t idx = 0;
 80022ba:	2317      	movs	r3, #23
 80022bc:	18fb      	adds	r3, r7, r3
 80022be:	2200      	movs	r2, #0
 80022c0:	701a      	strb	r2, [r3, #0]
  
  for( idx = 0 ; idx < len ; idx ++)
 80022c2:	2317      	movs	r3, #23
 80022c4:	18fb      	adds	r3, r7, r3
 80022c6:	2200      	movs	r2, #0
 80022c8:	701a      	strb	r2, [r3, #0]
 80022ca:	e031      	b.n	8002330 <IntToUnicode+0x84>
  {
    if( ((value >> 28)) < 0xA )
 80022cc:	68fb      	ldr	r3, [r7, #12]
 80022ce:	0f1b      	lsrs	r3, r3, #28
 80022d0:	2b09      	cmp	r3, #9
 80022d2:	d80d      	bhi.n	80022f0 <IntToUnicode+0x44>
    {
      pbuf[ 2* idx] = (value >> 28) + '0';
 80022d4:	2317      	movs	r3, #23
 80022d6:	18fb      	adds	r3, r7, r3
 80022d8:	781b      	ldrb	r3, [r3, #0]
 80022da:	005b      	lsls	r3, r3, #1
 80022dc:	001a      	movs	r2, r3
 80022de:	68bb      	ldr	r3, [r7, #8]
 80022e0:	189b      	adds	r3, r3, r2
 80022e2:	68fa      	ldr	r2, [r7, #12]
 80022e4:	0f12      	lsrs	r2, r2, #28
 80022e6:	b2d2      	uxtb	r2, r2
 80022e8:	3230      	adds	r2, #48	; 0x30
 80022ea:	b2d2      	uxtb	r2, r2
 80022ec:	701a      	strb	r2, [r3, #0]
 80022ee:	e00c      	b.n	800230a <IntToUnicode+0x5e>
    }
    else
    {
      pbuf[2* idx] = (value >> 28) + 'A' - 10; 
 80022f0:	2317      	movs	r3, #23
 80022f2:	18fb      	adds	r3, r7, r3
 80022f4:	781b      	ldrb	r3, [r3, #0]
 80022f6:	005b      	lsls	r3, r3, #1
 80022f8:	001a      	movs	r2, r3
 80022fa:	68bb      	ldr	r3, [r7, #8]
 80022fc:	189b      	adds	r3, r3, r2
 80022fe:	68fa      	ldr	r2, [r7, #12]
 8002300:	0f12      	lsrs	r2, r2, #28
 8002302:	b2d2      	uxtb	r2, r2
 8002304:	3237      	adds	r2, #55	; 0x37
 8002306:	b2d2      	uxtb	r2, r2
 8002308:	701a      	strb	r2, [r3, #0]
    }
    
    value = value << 4;
 800230a:	68fb      	ldr	r3, [r7, #12]
 800230c:	011b      	lsls	r3, r3, #4
 800230e:	60fb      	str	r3, [r7, #12]
    
    pbuf[ 2* idx + 1] = 0;
 8002310:	2317      	movs	r3, #23
 8002312:	18fb      	adds	r3, r7, r3
 8002314:	781b      	ldrb	r3, [r3, #0]
 8002316:	005b      	lsls	r3, r3, #1
 8002318:	3301      	adds	r3, #1
 800231a:	68ba      	ldr	r2, [r7, #8]
 800231c:	18d3      	adds	r3, r2, r3
 800231e:	2200      	movs	r2, #0
 8002320:	701a      	strb	r2, [r3, #0]
  */
static void IntToUnicode (uint32_t value , uint8_t *pbuf , uint8_t len)
{
  uint8_t idx = 0;
  
  for( idx = 0 ; idx < len ; idx ++)
 8002322:	2317      	movs	r3, #23
 8002324:	18fb      	adds	r3, r7, r3
 8002326:	781a      	ldrb	r2, [r3, #0]
 8002328:	2317      	movs	r3, #23
 800232a:	18fb      	adds	r3, r7, r3
 800232c:	3201      	adds	r2, #1
 800232e:	701a      	strb	r2, [r3, #0]
 8002330:	2317      	movs	r3, #23
 8002332:	18fa      	adds	r2, r7, r3
 8002334:	1dfb      	adds	r3, r7, #7
 8002336:	7812      	ldrb	r2, [r2, #0]
 8002338:	781b      	ldrb	r3, [r3, #0]
 800233a:	429a      	cmp	r2, r3
 800233c:	d3c6      	bcc.n	80022cc <IntToUnicode+0x20>
    
    value = value << 4;
    
    pbuf[ 2* idx + 1] = 0;
  }
}
 800233e:	46c0      	nop			; (mov r8, r8)
 8002340:	46bd      	mov	sp, r7
 8002342:	b006      	add	sp, #24
 8002344:	bd80      	pop	{r7, pc}
 8002346:	46c0      	nop			; (mov r8, r8)

08002348 <USB_BSP_Init>:
  * @param  None
  * @retval None
  */

void USB_BSP_Init(USB_CORE_HANDLE *pdev)
{
 8002348:	b580      	push	{r7, lr}
 800234a:	b082      	sub	sp, #8
 800234c:	af00      	add	r7, sp, #0
 800234e:	6078      	str	r0, [r7, #4]
#ifdef USB_DEVICE_LOW_PWR_MGMT_SUPPORT 
  EXTI_InitTypeDef EXTI_InitStructure;
#endif /*USB_DEVICE_LOW_PWR_MGMT_SUPPORT */  

  /* Enable USB clock */
  RCC_APB1PeriphClockCmd(RCC_APB1Periph_USB, ENABLE);
 8002350:	2380      	movs	r3, #128	; 0x80
 8002352:	041b      	lsls	r3, r3, #16
 8002354:	2101      	movs	r1, #1
 8002356:	0018      	movs	r0, r3
 8002358:	f003 ffa4 	bl	80062a4 <RCC_APB1PeriphClockCmd>
  - Set AUTOTRIMEN
  - Set CEN
  */
  
  /* Select HSI48 as USB clock */
  RCC_USBCLKConfig(RCC_USBCLK_HSI48);
 800235c:	2000      	movs	r0, #0
 800235e:	f003 ff4b 	bl	80061f8 <RCC_USBCLKConfig>
  
  /* Configure the Clock Recovery System */
  CRS_Config();  
 8002362:	f000 f81f 	bl	80023a4 <CRS_Config>
  EXTI_InitStructure.EXTI_Mode = EXTI_Mode_Interrupt;
  EXTI_InitStructure.EXTI_LineCmd = ENABLE;
  EXTI_Init(&EXTI_InitStructure);
#endif /*USB_DEVICE_LOW_PWR_MGMT_SUPPORT */
  
}
 8002366:	46c0      	nop			; (mov r8, r8)
 8002368:	46bd      	mov	sp, r7
 800236a:	b002      	add	sp, #8
 800236c:	bd80      	pop	{r7, pc}
 800236e:	46c0      	nop			; (mov r8, r8)

08002370 <USB_BSP_EnableInterrupt>:
  * @brief  Enable USB Global interrupt
  * @param  None
  * @retval None
  */
void USB_BSP_EnableInterrupt(USB_CORE_HANDLE *pdev)
{
 8002370:	b580      	push	{r7, lr}
 8002372:	b084      	sub	sp, #16
 8002374:	af00      	add	r7, sp, #0
 8002376:	6078      	str	r0, [r7, #4]
  NVIC_InitTypeDef NVIC_InitStructure;
  
  /* Enable the USB interrupt */
  NVIC_InitStructure.NVIC_IRQChannel = USB_IRQn;
 8002378:	230c      	movs	r3, #12
 800237a:	18fb      	adds	r3, r7, r3
 800237c:	221f      	movs	r2, #31
 800237e:	701a      	strb	r2, [r3, #0]
  NVIC_InitStructure.NVIC_IRQChannelPriority = USB_IT_PRIO;
 8002380:	230c      	movs	r3, #12
 8002382:	18fb      	adds	r3, r7, r3
 8002384:	2201      	movs	r2, #1
 8002386:	705a      	strb	r2, [r3, #1]
  NVIC_InitStructure.NVIC_IRQChannelCmd = ENABLE;
 8002388:	230c      	movs	r3, #12
 800238a:	18fb      	adds	r3, r7, r3
 800238c:	2201      	movs	r2, #1
 800238e:	709a      	strb	r2, [r3, #2]
  NVIC_Init(&NVIC_InitStructure);
 8002390:	230c      	movs	r3, #12
 8002392:	18fb      	adds	r3, r7, r3
 8002394:	0018      	movs	r0, r3
 8002396:	f003 ffa5 	bl	80062e4 <NVIC_Init>
}
 800239a:	46c0      	nop			; (mov r8, r8)
 800239c:	46bd      	mov	sp, r7
 800239e:	b004      	add	sp, #16
 80023a0:	bd80      	pop	{r7, pc}
 80023a2:	46c0      	nop			; (mov r8, r8)

080023a4 <CRS_Config>:
  *         oscillator according to USB SOF
  * @param  None
  * @retval None
  */
static void CRS_Config(void)
{
 80023a4:	b580      	push	{r7, lr}
 80023a6:	af00      	add	r7, sp, #0
  /*Enable CRS Clock*/
  RCC_APB1PeriphClockCmd(RCC_APB1Periph_CRS, ENABLE);
 80023a8:	2380      	movs	r3, #128	; 0x80
 80023aa:	051b      	lsls	r3, r3, #20
 80023ac:	2101      	movs	r1, #1
 80023ae:	0018      	movs	r0, r3
 80023b0:	f003 ff78 	bl	80062a4 <RCC_APB1PeriphClockCmd>
  
  /* Select USB SOF as synchronization source */
  CRS_SynchronizationSourceConfig(CRS_SYNCSource_USB);
 80023b4:	2380      	movs	r3, #128	; 0x80
 80023b6:	059b      	lsls	r3, r3, #22
 80023b8:	0018      	movs	r0, r3
 80023ba:	f004 fa9f 	bl	80068fc <CRS_SynchronizationSourceConfig>
  
  /*Enables the automatic hardware adjustment of TRIM bits: AUTOTRIMEN:*/
  CRS_AutomaticCalibrationCmd(ENABLE);
 80023be:	2001      	movs	r0, #1
 80023c0:	f004 fa7e 	bl	80068c0 <CRS_AutomaticCalibrationCmd>
  
  /*Enables the oscillator clock for frequency error counter CEN*/
  CRS_FrequencyErrorCounterCmd(ENABLE);
 80023c4:	2001      	movs	r0, #1
 80023c6:	f004 fa5d 	bl	8006884 <CRS_FrequencyErrorCounterCmd>
}
 80023ca:	46c0      	nop			; (mov r8, r8)
 80023cc:	46bd      	mov	sp, r7
 80023ce:	bd80      	pop	{r7, pc}

080023d0 <SystemInit>:
  *         SystemCoreClock variable.
  * @param  None
  * @retval None
  */
void SystemInit (void)
{    
 80023d0:	b580      	push	{r7, lr}
 80023d2:	af00      	add	r7, sp, #0
  /* Set HSION bit */
  RCC->CR |= (uint32_t)0x00000001;
 80023d4:	4b1b      	ldr	r3, [pc, #108]	; (8002444 <SystemInit+0x74>)
 80023d6:	4a1b      	ldr	r2, [pc, #108]	; (8002444 <SystemInit+0x74>)
 80023d8:	6812      	ldr	r2, [r2, #0]
 80023da:	2101      	movs	r1, #1
 80023dc:	430a      	orrs	r2, r1
 80023de:	601a      	str	r2, [r3, #0]

  /* Reset SW[1:0], HPRE[3:0], PPRE[2:0], ADCPRE and MCOSEL[3:0] bits MCOPRE[2:0] */
  RCC->CFGR &= (uint32_t)0x80FFB80C;
 80023e0:	4b18      	ldr	r3, [pc, #96]	; (8002444 <SystemInit+0x74>)
 80023e2:	4a18      	ldr	r2, [pc, #96]	; (8002444 <SystemInit+0x74>)
 80023e4:	6852      	ldr	r2, [r2, #4]
 80023e6:	4918      	ldr	r1, [pc, #96]	; (8002448 <SystemInit+0x78>)
 80023e8:	400a      	ands	r2, r1
 80023ea:	605a      	str	r2, [r3, #4]
  
  /* Reset HSEON, CSSON and PLLON bits */
  RCC->CR &= (uint32_t)0xFEF6FFFF;
 80023ec:	4b15      	ldr	r3, [pc, #84]	; (8002444 <SystemInit+0x74>)
 80023ee:	4a15      	ldr	r2, [pc, #84]	; (8002444 <SystemInit+0x74>)
 80023f0:	6812      	ldr	r2, [r2, #0]
 80023f2:	4916      	ldr	r1, [pc, #88]	; (800244c <SystemInit+0x7c>)
 80023f4:	400a      	ands	r2, r1
 80023f6:	601a      	str	r2, [r3, #0]

  /* Reset HSEBYP bit */
  RCC->CR &= (uint32_t)0xFFFBFFFF;
 80023f8:	4b12      	ldr	r3, [pc, #72]	; (8002444 <SystemInit+0x74>)
 80023fa:	4a12      	ldr	r2, [pc, #72]	; (8002444 <SystemInit+0x74>)
 80023fc:	6812      	ldr	r2, [r2, #0]
 80023fe:	4914      	ldr	r1, [pc, #80]	; (8002450 <SystemInit+0x80>)
 8002400:	400a      	ands	r2, r1
 8002402:	601a      	str	r2, [r3, #0]

  /* Reset PLLSRC, PLLXTPRE and PLLMUL[3:0] bits */
  RCC->CFGR &= (uint32_t)0xFFC07FFF;
 8002404:	4b0f      	ldr	r3, [pc, #60]	; (8002444 <SystemInit+0x74>)
 8002406:	4a0f      	ldr	r2, [pc, #60]	; (8002444 <SystemInit+0x74>)
 8002408:	6852      	ldr	r2, [r2, #4]
 800240a:	4912      	ldr	r1, [pc, #72]	; (8002454 <SystemInit+0x84>)
 800240c:	400a      	ands	r2, r1
 800240e:	605a      	str	r2, [r3, #4]

  /* Reset PREDIV1[3:0] bits */
  RCC->CFGR2 &= (uint32_t)0xFFFFFFF0;
 8002410:	4b0c      	ldr	r3, [pc, #48]	; (8002444 <SystemInit+0x74>)
 8002412:	4a0c      	ldr	r2, [pc, #48]	; (8002444 <SystemInit+0x74>)
 8002414:	6ad2      	ldr	r2, [r2, #44]	; 0x2c
 8002416:	210f      	movs	r1, #15
 8002418:	438a      	bics	r2, r1
 800241a:	62da      	str	r2, [r3, #44]	; 0x2c

  /* Reset USARTSW[1:0], I2CSW, CECSW and ADCSW bits */
  RCC->CFGR3 &= (uint32_t)0xFFFFFEAC;
 800241c:	4b09      	ldr	r3, [pc, #36]	; (8002444 <SystemInit+0x74>)
 800241e:	4a09      	ldr	r2, [pc, #36]	; (8002444 <SystemInit+0x74>)
 8002420:	6b12      	ldr	r2, [r2, #48]	; 0x30
 8002422:	490d      	ldr	r1, [pc, #52]	; (8002458 <SystemInit+0x88>)
 8002424:	400a      	ands	r2, r1
 8002426:	631a      	str	r2, [r3, #48]	; 0x30

  /* Reset HSI14 & HSI48 bit */
  RCC->CR2 &= (uint32_t)0xFFFEFFFE;
 8002428:	4b06      	ldr	r3, [pc, #24]	; (8002444 <SystemInit+0x74>)
 800242a:	4a06      	ldr	r2, [pc, #24]	; (8002444 <SystemInit+0x74>)
 800242c:	6b52      	ldr	r2, [r2, #52]	; 0x34
 800242e:	490b      	ldr	r1, [pc, #44]	; (800245c <SystemInit+0x8c>)
 8002430:	400a      	ands	r2, r1
 8002432:	635a      	str	r2, [r3, #52]	; 0x34

  /* Disable all interrupts */
  RCC->CIR = 0x00000000;
 8002434:	4b03      	ldr	r3, [pc, #12]	; (8002444 <SystemInit+0x74>)
 8002436:	2200      	movs	r2, #0
 8002438:	609a      	str	r2, [r3, #8]

  /* Configure the System clock frequency, AHB/APBx prescalers and Flash settings */
  SetSysClock();
 800243a:	f000 f887 	bl	800254c <SetSysClock>
}
 800243e:	46c0      	nop			; (mov r8, r8)
 8002440:	46bd      	mov	sp, r7
 8002442:	bd80      	pop	{r7, pc}
 8002444:	40021000 	.word	0x40021000
 8002448:	80ffb80c 	.word	0x80ffb80c
 800244c:	fef6ffff 	.word	0xfef6ffff
 8002450:	fffbffff 	.word	0xfffbffff
 8002454:	ffc07fff 	.word	0xffc07fff
 8002458:	fffffeac 	.word	0xfffffeac
 800245c:	fffefffe 	.word	0xfffefffe

08002460 <SystemCoreClockUpdate>:
  *           value for HSE crystal.
  * @param  None
  * @retval None
  */
void SystemCoreClockUpdate (void)
{
 8002460:	b580      	push	{r7, lr}
 8002462:	b084      	sub	sp, #16
 8002464:	af00      	add	r7, sp, #0
  uint32_t tmp = 0, pllmull = 0, pllsource = 0, prediv1factor = 0;
 8002466:	2300      	movs	r3, #0
 8002468:	60fb      	str	r3, [r7, #12]
 800246a:	2300      	movs	r3, #0
 800246c:	60bb      	str	r3, [r7, #8]
 800246e:	2300      	movs	r3, #0
 8002470:	607b      	str	r3, [r7, #4]
 8002472:	2300      	movs	r3, #0
 8002474:	603b      	str	r3, [r7, #0]

  /* Get SYSCLK source -------------------------------------------------------*/
  tmp = RCC->CFGR & RCC_CFGR_SWS;
 8002476:	4b2f      	ldr	r3, [pc, #188]	; (8002534 <SystemCoreClockUpdate+0xd4>)
 8002478:	685b      	ldr	r3, [r3, #4]
 800247a:	220c      	movs	r2, #12
 800247c:	4013      	ands	r3, r2
 800247e:	60fb      	str	r3, [r7, #12]
  
  switch (tmp)
 8002480:	68fb      	ldr	r3, [r7, #12]
 8002482:	2b04      	cmp	r3, #4
 8002484:	d00c      	beq.n	80024a0 <SystemCoreClockUpdate+0x40>
 8002486:	d802      	bhi.n	800248e <SystemCoreClockUpdate+0x2e>
 8002488:	2b00      	cmp	r3, #0
 800248a:	d005      	beq.n	8002498 <SystemCoreClockUpdate+0x38>
 800248c:	e03a      	b.n	8002504 <SystemCoreClockUpdate+0xa4>
 800248e:	2b08      	cmp	r3, #8
 8002490:	d00a      	beq.n	80024a8 <SystemCoreClockUpdate+0x48>
 8002492:	2b0c      	cmp	r3, #12
 8002494:	d032      	beq.n	80024fc <SystemCoreClockUpdate+0x9c>
 8002496:	e035      	b.n	8002504 <SystemCoreClockUpdate+0xa4>
  {
  case 0x00:  /* HSI used as system clock */
    SystemCoreClock = HSI_VALUE;
 8002498:	4b27      	ldr	r3, [pc, #156]	; (8002538 <SystemCoreClockUpdate+0xd8>)
 800249a:	4a28      	ldr	r2, [pc, #160]	; (800253c <SystemCoreClockUpdate+0xdc>)
 800249c:	601a      	str	r2, [r3, #0]
    break;
 800249e:	e035      	b.n	800250c <SystemCoreClockUpdate+0xac>
  case 0x04:  /* HSE used as system clock */
    SystemCoreClock = HSE_VALUE;
 80024a0:	4b25      	ldr	r3, [pc, #148]	; (8002538 <SystemCoreClockUpdate+0xd8>)
 80024a2:	4a26      	ldr	r2, [pc, #152]	; (800253c <SystemCoreClockUpdate+0xdc>)
 80024a4:	601a      	str	r2, [r3, #0]
    break;
 80024a6:	e031      	b.n	800250c <SystemCoreClockUpdate+0xac>
  case 0x08:  /* PLL used as system clock */
    /* Get PLL clock source and multiplication factor ----------------------*/
    pllmull = RCC->CFGR & RCC_CFGR_PLLMULL;
 80024a8:	4b22      	ldr	r3, [pc, #136]	; (8002534 <SystemCoreClockUpdate+0xd4>)
 80024aa:	685a      	ldr	r2, [r3, #4]
 80024ac:	23f0      	movs	r3, #240	; 0xf0
 80024ae:	039b      	lsls	r3, r3, #14
 80024b0:	4013      	ands	r3, r2
 80024b2:	60bb      	str	r3, [r7, #8]
    pllsource = RCC->CFGR & RCC_CFGR_PLLSRC;
 80024b4:	4b1f      	ldr	r3, [pc, #124]	; (8002534 <SystemCoreClockUpdate+0xd4>)
 80024b6:	685a      	ldr	r2, [r3, #4]
 80024b8:	23c0      	movs	r3, #192	; 0xc0
 80024ba:	025b      	lsls	r3, r3, #9
 80024bc:	4013      	ands	r3, r2
 80024be:	607b      	str	r3, [r7, #4]
    pllmull = ( pllmull >> 18) + 2;
 80024c0:	68bb      	ldr	r3, [r7, #8]
 80024c2:	0c9b      	lsrs	r3, r3, #18
 80024c4:	3302      	adds	r3, #2
 80024c6:	60bb      	str	r3, [r7, #8]

    if (pllsource == 0x00)
 80024c8:	687b      	ldr	r3, [r7, #4]
 80024ca:	2b00      	cmp	r3, #0
 80024cc:	d105      	bne.n	80024da <SystemCoreClockUpdate+0x7a>
    {
      /* HSI oscillator clock divided by 2 selected as PLL clock entry */
      SystemCoreClock = (HSI_VALUE >> 1) * pllmull;
 80024ce:	68bb      	ldr	r3, [r7, #8]
 80024d0:	4a1b      	ldr	r2, [pc, #108]	; (8002540 <SystemCoreClockUpdate+0xe0>)
 80024d2:	435a      	muls	r2, r3
 80024d4:	4b18      	ldr	r3, [pc, #96]	; (8002538 <SystemCoreClockUpdate+0xd8>)
 80024d6:	601a      	str	r2, [r3, #0]
    {
      prediv1factor = (RCC->CFGR2 & RCC_CFGR2_PREDIV1) + 1;
      /* HSE oscillator clock selected as PREDIV1 clock entry */
      SystemCoreClock = (HSE_VALUE / prediv1factor) * pllmull;
    }
    break;
 80024d8:	e018      	b.n	800250c <SystemCoreClockUpdate+0xac>
      /* HSI oscillator clock divided by 2 selected as PLL clock entry */
      SystemCoreClock = (HSI_VALUE >> 1) * pllmull;
    }
    else
    {
      prediv1factor = (RCC->CFGR2 & RCC_CFGR2_PREDIV1) + 1;
 80024da:	4b16      	ldr	r3, [pc, #88]	; (8002534 <SystemCoreClockUpdate+0xd4>)
 80024dc:	6adb      	ldr	r3, [r3, #44]	; 0x2c
 80024de:	220f      	movs	r2, #15
 80024e0:	4013      	ands	r3, r2
 80024e2:	3301      	adds	r3, #1
 80024e4:	603b      	str	r3, [r7, #0]
      /* HSE oscillator clock selected as PREDIV1 clock entry */
      SystemCoreClock = (HSE_VALUE / prediv1factor) * pllmull;
 80024e6:	6839      	ldr	r1, [r7, #0]
 80024e8:	4814      	ldr	r0, [pc, #80]	; (800253c <SystemCoreClockUpdate+0xdc>)
 80024ea:	f7fd fe0d 	bl	8000108 <__aeabi_uidiv>
 80024ee:	0003      	movs	r3, r0
 80024f0:	001a      	movs	r2, r3
 80024f2:	68bb      	ldr	r3, [r7, #8]
 80024f4:	435a      	muls	r2, r3
 80024f6:	4b10      	ldr	r3, [pc, #64]	; (8002538 <SystemCoreClockUpdate+0xd8>)
 80024f8:	601a      	str	r2, [r3, #0]
    }
    break;
 80024fa:	e007      	b.n	800250c <SystemCoreClockUpdate+0xac>
  case 0x0C:  /* HSI48 used as system clock */
    SystemCoreClock = HSI48_VALUE;
 80024fc:	4b0e      	ldr	r3, [pc, #56]	; (8002538 <SystemCoreClockUpdate+0xd8>)
 80024fe:	4a11      	ldr	r2, [pc, #68]	; (8002544 <SystemCoreClockUpdate+0xe4>)
 8002500:	601a      	str	r2, [r3, #0]
    break;
 8002502:	e003      	b.n	800250c <SystemCoreClockUpdate+0xac>
  default: /* HSI used as system clock */
    SystemCoreClock = HSI_VALUE;
 8002504:	4b0c      	ldr	r3, [pc, #48]	; (8002538 <SystemCoreClockUpdate+0xd8>)
 8002506:	4a0d      	ldr	r2, [pc, #52]	; (800253c <SystemCoreClockUpdate+0xdc>)
 8002508:	601a      	str	r2, [r3, #0]
    break;
 800250a:	46c0      	nop			; (mov r8, r8)

  }
  /* Compute HCLK clock frequency ----------------*/
  /* Get HCLK prescaler */
  tmp = AHBPrescTable[((RCC->CFGR & RCC_CFGR_HPRE) >> 4)];
 800250c:	4b09      	ldr	r3, [pc, #36]	; (8002534 <SystemCoreClockUpdate+0xd4>)
 800250e:	685b      	ldr	r3, [r3, #4]
 8002510:	22f0      	movs	r2, #240	; 0xf0
 8002512:	4013      	ands	r3, r2
 8002514:	091b      	lsrs	r3, r3, #4
 8002516:	4a0c      	ldr	r2, [pc, #48]	; (8002548 <SystemCoreClockUpdate+0xe8>)
 8002518:	5cd3      	ldrb	r3, [r2, r3]
 800251a:	b2db      	uxtb	r3, r3
 800251c:	60fb      	str	r3, [r7, #12]
  /* HCLK clock frequency */
  SystemCoreClock >>= tmp;  
 800251e:	4b06      	ldr	r3, [pc, #24]	; (8002538 <SystemCoreClockUpdate+0xd8>)
 8002520:	681a      	ldr	r2, [r3, #0]
 8002522:	68fb      	ldr	r3, [r7, #12]
 8002524:	40da      	lsrs	r2, r3
 8002526:	4b04      	ldr	r3, [pc, #16]	; (8002538 <SystemCoreClockUpdate+0xd8>)
 8002528:	601a      	str	r2, [r3, #0]
}
 800252a:	46c0      	nop			; (mov r8, r8)
 800252c:	46bd      	mov	sp, r7
 800252e:	b004      	add	sp, #16
 8002530:	bd80      	pop	{r7, pc}
 8002532:	46c0      	nop			; (mov r8, r8)
 8002534:	40021000 	.word	0x40021000
 8002538:	2000004c 	.word	0x2000004c
 800253c:	007a1200 	.word	0x007a1200
 8002540:	003d0900 	.word	0x003d0900
 8002544:	02dc6c00 	.word	0x02dc6c00
 8002548:	20000050 	.word	0x20000050

0800254c <SetSysClock>:
  *         is reset to the default reset state (done in SystemInit() function).
  * @param  None
  * @retval None
  */
static void SetSysClock(void)
{
 800254c:	b580      	push	{r7, lr}
 800254e:	af00      	add	r7, sp, #0
   /* SYSCLK, HCLK, PCLK configuration ----------------------------------------*/
    /* At this stage the HSI is already enabled */
 
    /* Enable Prefetch Buffer and set Flash Latency */
    FLASH->ACR = FLASH_ACR_PRFTBE | FLASH_ACR_LATENCY;
 8002550:	4b13      	ldr	r3, [pc, #76]	; (80025a0 <SetSysClock+0x54>)
 8002552:	2211      	movs	r2, #17
 8002554:	601a      	str	r2, [r3, #0]
 
    /* HCLK = SYSCLK */
    RCC->CFGR |= (uint32_t)RCC_CFGR_HPRE_DIV1;
 8002556:	4b13      	ldr	r3, [pc, #76]	; (80025a4 <SetSysClock+0x58>)
 8002558:	4a12      	ldr	r2, [pc, #72]	; (80025a4 <SetSysClock+0x58>)
 800255a:	6852      	ldr	r2, [r2, #4]
 800255c:	605a      	str	r2, [r3, #4]

    /* PCLK = HCLK */
    RCC->CFGR |= (uint32_t)RCC_CFGR_PPRE_DIV1;
 800255e:	4b11      	ldr	r3, [pc, #68]	; (80025a4 <SetSysClock+0x58>)
 8002560:	4a10      	ldr	r2, [pc, #64]	; (80025a4 <SetSysClock+0x58>)
 8002562:	6852      	ldr	r2, [r2, #4]
 8002564:	605a      	str	r2, [r3, #4]

   /* Enable HSI48 */
    RCC->CR2 |= RCC_CR2_HSI48ON;
 8002566:	4b0f      	ldr	r3, [pc, #60]	; (80025a4 <SetSysClock+0x58>)
 8002568:	4a0e      	ldr	r2, [pc, #56]	; (80025a4 <SetSysClock+0x58>)
 800256a:	6b52      	ldr	r2, [r2, #52]	; 0x34
 800256c:	2180      	movs	r1, #128	; 0x80
 800256e:	0249      	lsls	r1, r1, #9
 8002570:	430a      	orrs	r2, r1
 8002572:	635a      	str	r2, [r3, #52]	; 0x34
  /* Wait till HSI48RDY is set */
    while((RCC->CR2 & RCC_CR2_HSI48RDY) == 0)
 8002574:	46c0      	nop			; (mov r8, r8)
 8002576:	4b0b      	ldr	r3, [pc, #44]	; (80025a4 <SetSysClock+0x58>)
 8002578:	6b5a      	ldr	r2, [r3, #52]	; 0x34
 800257a:	2380      	movs	r3, #128	; 0x80
 800257c:	029b      	lsls	r3, r3, #10
 800257e:	4013      	ands	r3, r2
 8002580:	d0f9      	beq.n	8002576 <SetSysClock+0x2a>
    { }
  /* Select HSI48 as system clock source */
    RCC->CFGR &= (uint32_t)((uint32_t)~(RCC_CFGR_SW));
 8002582:	4b08      	ldr	r3, [pc, #32]	; (80025a4 <SetSysClock+0x58>)
 8002584:	4a07      	ldr	r2, [pc, #28]	; (80025a4 <SetSysClock+0x58>)
 8002586:	6852      	ldr	r2, [r2, #4]
 8002588:	2103      	movs	r1, #3
 800258a:	438a      	bics	r2, r1
 800258c:	605a      	str	r2, [r3, #4]
    RCC->CFGR |= (uint32_t)RCC_CFGR_SW_HSI48;
 800258e:	4b05      	ldr	r3, [pc, #20]	; (80025a4 <SetSysClock+0x58>)
 8002590:	4a04      	ldr	r2, [pc, #16]	; (80025a4 <SetSysClock+0x58>)
 8002592:	6852      	ldr	r2, [r2, #4]
 8002594:	2103      	movs	r1, #3
 8002596:	430a      	orrs	r2, r1
 8002598:	605a      	str	r2, [r3, #4]

}
 800259a:	46c0      	nop			; (mov r8, r8)
 800259c:	46bd      	mov	sp, r7
 800259e:	bd80      	pop	{r7, pc}
 80025a0:	40022000 	.word	0x40022000
 80025a4:	40021000 	.word	0x40021000

080025a8 <NMI_Handler>:
  * @brief  This function handles NMI exception.
  * @param  None
  * @retval None
  */
void NMI_Handler(void)
{
 80025a8:	b580      	push	{r7, lr}
 80025aa:	af00      	add	r7, sp, #0
}
 80025ac:	46c0      	nop			; (mov r8, r8)
 80025ae:	46bd      	mov	sp, r7
 80025b0:	bd80      	pop	{r7, pc}
 80025b2:	46c0      	nop			; (mov r8, r8)

080025b4 <HardFault_Handler>:
  * @param  None
  * @retval None
  */

void HardFault_Handler(void)
{
 80025b4:	b580      	push	{r7, lr}
 80025b6:	af00      	add	r7, sp, #0
  /* Go to infinite loop when Hard Fault exception occurs */
  while (1)
  {
  }
 80025b8:	e7fe      	b.n	80025b8 <HardFault_Handler+0x4>
 80025ba:	46c0      	nop			; (mov r8, r8)

080025bc <SVC_Handler>:
  * @brief  This function handles SVCall exception.
  * @param  None
  * @retval None
  */
void SVC_Handler(void)
{
 80025bc:	b580      	push	{r7, lr}
 80025be:	af00      	add	r7, sp, #0
}
 80025c0:	46c0      	nop			; (mov r8, r8)
 80025c2:	46bd      	mov	sp, r7
 80025c4:	bd80      	pop	{r7, pc}
 80025c6:	46c0      	nop			; (mov r8, r8)

080025c8 <PendSV_Handler>:
  * @brief  This function handles PendSVC exception.
  * @param  None
  * @retval None
  */
void PendSV_Handler(void)
{
 80025c8:	b580      	push	{r7, lr}
 80025ca:	af00      	add	r7, sp, #0
}
 80025cc:	46c0      	nop			; (mov r8, r8)
 80025ce:	46bd      	mov	sp, r7
 80025d0:	bd80      	pop	{r7, pc}
 80025d2:	46c0      	nop			; (mov r8, r8)

080025d4 <USB_IRQHandler>:
  * @brief  This function handles USB FS Handler.
  * @param  None
  * @retval None
  */
void USB_IRQHandler(void)
{
 80025d4:	b580      	push	{r7, lr}
 80025d6:	af00      	add	r7, sp, #0
	USB_Istr();
 80025d8:	f002 fba6 	bl	8004d28 <USB_Istr>
}
 80025dc:	46c0      	nop			; (mov r8, r8)
 80025de:	46bd      	mov	sp, r7
 80025e0:	bd80      	pop	{r7, pc}
 80025e2:	46c0      	nop			; (mov r8, r8)

080025e4 <Reset_Handler>:

  .section .text.Reset_Handler
  .weak Reset_Handler
  .type Reset_Handler, %function
Reset_Handler:
  ldr   r0, =_estack
 80025e4:	480d      	ldr	r0, [pc, #52]	; (800261c <LoopForever+0x2>)
  mov   sp, r0          /* set stack pointer */
 80025e6:	4685      	mov	sp, r0

/* Copy the data segment initializers from flash to SRAM */
  movs r1, #0
 80025e8:	2100      	movs	r1, #0
  b LoopCopyDataInit
 80025ea:	e003      	b.n	80025f4 <LoopCopyDataInit>

080025ec <CopyDataInit>:

CopyDataInit:
  ldr r3, =_sidata
 80025ec:	4b0c      	ldr	r3, [pc, #48]	; (8002620 <LoopForever+0x6>)
  ldr r3, [r3, r1]
 80025ee:	585b      	ldr	r3, [r3, r1]
  str r3, [r0, r1]
 80025f0:	5043      	str	r3, [r0, r1]
  adds r1, r1, #4
 80025f2:	3104      	adds	r1, #4

080025f4 <LoopCopyDataInit>:

LoopCopyDataInit:
  ldr r0, =_sdata
 80025f4:	480b      	ldr	r0, [pc, #44]	; (8002624 <LoopForever+0xa>)
  ldr r3, =_edata
 80025f6:	4b0c      	ldr	r3, [pc, #48]	; (8002628 <LoopForever+0xe>)
  adds r2, r0, r1
 80025f8:	1842      	adds	r2, r0, r1
  cmp r2, r3
 80025fa:	429a      	cmp	r2, r3
  bcc CopyDataInit
 80025fc:	d3f6      	bcc.n	80025ec <CopyDataInit>
  ldr r2, =_sbss
 80025fe:	4a0b      	ldr	r2, [pc, #44]	; (800262c <LoopForever+0x12>)
  b LoopFillZerobss
 8002600:	e002      	b.n	8002608 <LoopFillZerobss>

08002602 <FillZerobss>:
/* Zero fill the bss segment. */
FillZerobss:
  movs r3, #0
 8002602:	2300      	movs	r3, #0
  str  r3, [r2]
 8002604:	6013      	str	r3, [r2, #0]
  adds r2, r2, #4
 8002606:	3204      	adds	r2, #4

08002608 <LoopFillZerobss>:


LoopFillZerobss:
  ldr r3, = _ebss
 8002608:	4b09      	ldr	r3, [pc, #36]	; (8002630 <LoopForever+0x16>)
  cmp r2, r3
 800260a:	429a      	cmp	r2, r3
  bcc FillZerobss
 800260c:	d3f9      	bcc.n	8002602 <FillZerobss>

/* Call the clock system intitialization function.*/
    bl  SystemInit
 800260e:	f7ff fedf 	bl	80023d0 <SystemInit>
/* Call static constructors */
    bl __libc_init_array
 8002612:	f004 f98b 	bl	800692c <__libc_init_array>
/* Call the application's entry point.*/
  bl main
 8002616:	f000 f8d7 	bl	80027c8 <main>

0800261a <LoopForever>:
  
LoopForever:
    b LoopForever
 800261a:	e7fe      	b.n	800261a <LoopForever>

  .section .text.Reset_Handler
  .weak Reset_Handler
  .type Reset_Handler, %function
Reset_Handler:
  ldr   r0, =_estack
 800261c:	20001800 	.word	0x20001800
/* Copy the data segment initializers from flash to SRAM */
  movs r1, #0
  b LoopCopyDataInit

CopyDataInit:
  ldr r3, =_sidata
 8002620:	08007680 	.word	0x08007680
  ldr r3, [r3, r1]
  str r3, [r0, r1]
  adds r1, r1, #4

LoopCopyDataInit:
  ldr r0, =_sdata
 8002624:	20000000 	.word	0x20000000
  ldr r3, =_edata
 8002628:	20000124 	.word	0x20000124
  adds r2, r0, r1
  cmp r2, r3
  bcc CopyDataInit
  ldr r2, =_sbss
 800262c:	20000124 	.word	0x20000124
  str  r3, [r2]
  adds r2, r2, #4


LoopFillZerobss:
  ldr r3, = _ebss
 8002630:	20000db8 	.word	0x20000db8

08002634 <ADC1_COMP_IRQHandler>:
 * @retval : None
*/
    .section .text.Default_Handler,"ax",%progbits
Default_Handler:
Infinite_Loop:
  b Infinite_Loop
 8002634:	e7fe      	b.n	8002634 <ADC1_COMP_IRQHandler>
	...

08002638 <NVIC_SetPriority>:

    \param [in]      IRQn  Interrupt number.
    \param [in]  priority  Priority to set.
 */
__STATIC_INLINE void NVIC_SetPriority(IRQn_Type IRQn, uint32_t priority)
{
 8002638:	b5b0      	push	{r4, r5, r7, lr}
 800263a:	b082      	sub	sp, #8
 800263c:	af00      	add	r7, sp, #0
 800263e:	0002      	movs	r2, r0
 8002640:	6039      	str	r1, [r7, #0]
 8002642:	1dfb      	adds	r3, r7, #7
 8002644:	701a      	strb	r2, [r3, #0]
  if(IRQn < 0) {
 8002646:	1dfb      	adds	r3, r7, #7
 8002648:	781b      	ldrb	r3, [r3, #0]
 800264a:	2b7f      	cmp	r3, #127	; 0x7f
 800264c:	d932      	bls.n	80026b4 <NVIC_SetPriority+0x7c>
    SCB->SHP[_SHP_IDX(IRQn)] = (SCB->SHP[_SHP_IDX(IRQn)] & ~(0xFF << _BIT_SHIFT(IRQn))) |
 800264e:	4c2f      	ldr	r4, [pc, #188]	; (800270c <NVIC_SetPriority+0xd4>)
 8002650:	1dfb      	adds	r3, r7, #7
 8002652:	781b      	ldrb	r3, [r3, #0]
 8002654:	001a      	movs	r2, r3
 8002656:	230f      	movs	r3, #15
 8002658:	4013      	ands	r3, r2
 800265a:	3b08      	subs	r3, #8
 800265c:	0899      	lsrs	r1, r3, #2
 800265e:	4a2b      	ldr	r2, [pc, #172]	; (800270c <NVIC_SetPriority+0xd4>)
 8002660:	1dfb      	adds	r3, r7, #7
 8002662:	781b      	ldrb	r3, [r3, #0]
 8002664:	0018      	movs	r0, r3
 8002666:	230f      	movs	r3, #15
 8002668:	4003      	ands	r3, r0
 800266a:	3b08      	subs	r3, #8
 800266c:	089b      	lsrs	r3, r3, #2
 800266e:	3306      	adds	r3, #6
 8002670:	009b      	lsls	r3, r3, #2
 8002672:	18d3      	adds	r3, r2, r3
 8002674:	3304      	adds	r3, #4
 8002676:	681b      	ldr	r3, [r3, #0]
 8002678:	1dfa      	adds	r2, r7, #7
 800267a:	7812      	ldrb	r2, [r2, #0]
 800267c:	0010      	movs	r0, r2
 800267e:	2203      	movs	r2, #3
 8002680:	4002      	ands	r2, r0
 8002682:	00d2      	lsls	r2, r2, #3
 8002684:	20ff      	movs	r0, #255	; 0xff
 8002686:	4090      	lsls	r0, r2
 8002688:	0002      	movs	r2, r0
 800268a:	43d2      	mvns	r2, r2
 800268c:	401a      	ands	r2, r3
        (((priority << (8 - __NVIC_PRIO_BITS)) & 0xFF) << _BIT_SHIFT(IRQn)); }
 800268e:	683b      	ldr	r3, [r7, #0]
 8002690:	019b      	lsls	r3, r3, #6
 8002692:	20ff      	movs	r0, #255	; 0xff
 8002694:	4018      	ands	r0, r3
 8002696:	1dfb      	adds	r3, r7, #7
 8002698:	781b      	ldrb	r3, [r3, #0]
 800269a:	001d      	movs	r5, r3
 800269c:	2303      	movs	r3, #3
 800269e:	402b      	ands	r3, r5
 80026a0:	00db      	lsls	r3, r3, #3
 80026a2:	4098      	lsls	r0, r3
 80026a4:	0003      	movs	r3, r0
    \param [in]  priority  Priority to set.
 */
__STATIC_INLINE void NVIC_SetPriority(IRQn_Type IRQn, uint32_t priority)
{
  if(IRQn < 0) {
    SCB->SHP[_SHP_IDX(IRQn)] = (SCB->SHP[_SHP_IDX(IRQn)] & ~(0xFF << _BIT_SHIFT(IRQn))) |
 80026a6:	431a      	orrs	r2, r3
 80026a8:	1d8b      	adds	r3, r1, #6
 80026aa:	009b      	lsls	r3, r3, #2
 80026ac:	18e3      	adds	r3, r4, r3
 80026ae:	3304      	adds	r3, #4
 80026b0:	601a      	str	r2, [r3, #0]
        (((priority << (8 - __NVIC_PRIO_BITS)) & 0xFF) << _BIT_SHIFT(IRQn)); }
  else {
    NVIC->IP[_IP_IDX(IRQn)] = (NVIC->IP[_IP_IDX(IRQn)] & ~(0xFF << _BIT_SHIFT(IRQn))) |
        (((priority << (8 - __NVIC_PRIO_BITS)) & 0xFF) << _BIT_SHIFT(IRQn)); }
}
 80026b2:	e027      	b.n	8002704 <NVIC_SetPriority+0xcc>
{
  if(IRQn < 0) {
    SCB->SHP[_SHP_IDX(IRQn)] = (SCB->SHP[_SHP_IDX(IRQn)] & ~(0xFF << _BIT_SHIFT(IRQn))) |
        (((priority << (8 - __NVIC_PRIO_BITS)) & 0xFF) << _BIT_SHIFT(IRQn)); }
  else {
    NVIC->IP[_IP_IDX(IRQn)] = (NVIC->IP[_IP_IDX(IRQn)] & ~(0xFF << _BIT_SHIFT(IRQn))) |
 80026b4:	4c16      	ldr	r4, [pc, #88]	; (8002710 <NVIC_SetPriority+0xd8>)
 80026b6:	1dfb      	adds	r3, r7, #7
 80026b8:	781b      	ldrb	r3, [r3, #0]
 80026ba:	b25b      	sxtb	r3, r3
 80026bc:	089b      	lsrs	r3, r3, #2
 80026be:	4914      	ldr	r1, [pc, #80]	; (8002710 <NVIC_SetPriority+0xd8>)
 80026c0:	1dfa      	adds	r2, r7, #7
 80026c2:	7812      	ldrb	r2, [r2, #0]
 80026c4:	b252      	sxtb	r2, r2
 80026c6:	0892      	lsrs	r2, r2, #2
 80026c8:	32c0      	adds	r2, #192	; 0xc0
 80026ca:	0092      	lsls	r2, r2, #2
 80026cc:	5852      	ldr	r2, [r2, r1]
 80026ce:	1df9      	adds	r1, r7, #7
 80026d0:	7809      	ldrb	r1, [r1, #0]
 80026d2:	0008      	movs	r0, r1
 80026d4:	2103      	movs	r1, #3
 80026d6:	4001      	ands	r1, r0
 80026d8:	00c9      	lsls	r1, r1, #3
 80026da:	20ff      	movs	r0, #255	; 0xff
 80026dc:	4088      	lsls	r0, r1
 80026de:	0001      	movs	r1, r0
 80026e0:	43c9      	mvns	r1, r1
 80026e2:	4011      	ands	r1, r2
        (((priority << (8 - __NVIC_PRIO_BITS)) & 0xFF) << _BIT_SHIFT(IRQn)); }
 80026e4:	683a      	ldr	r2, [r7, #0]
 80026e6:	0192      	lsls	r2, r2, #6
 80026e8:	20ff      	movs	r0, #255	; 0xff
 80026ea:	4010      	ands	r0, r2
 80026ec:	1dfa      	adds	r2, r7, #7
 80026ee:	7812      	ldrb	r2, [r2, #0]
 80026f0:	0015      	movs	r5, r2
 80026f2:	2203      	movs	r2, #3
 80026f4:	402a      	ands	r2, r5
 80026f6:	00d2      	lsls	r2, r2, #3
 80026f8:	4090      	lsls	r0, r2
 80026fa:	0002      	movs	r2, r0
{
  if(IRQn < 0) {
    SCB->SHP[_SHP_IDX(IRQn)] = (SCB->SHP[_SHP_IDX(IRQn)] & ~(0xFF << _BIT_SHIFT(IRQn))) |
        (((priority << (8 - __NVIC_PRIO_BITS)) & 0xFF) << _BIT_SHIFT(IRQn)); }
  else {
    NVIC->IP[_IP_IDX(IRQn)] = (NVIC->IP[_IP_IDX(IRQn)] & ~(0xFF << _BIT_SHIFT(IRQn))) |
 80026fc:	430a      	orrs	r2, r1
 80026fe:	33c0      	adds	r3, #192	; 0xc0
 8002700:	009b      	lsls	r3, r3, #2
 8002702:	511a      	str	r2, [r3, r4]
        (((priority << (8 - __NVIC_PRIO_BITS)) & 0xFF) << _BIT_SHIFT(IRQn)); }
}
 8002704:	46c0      	nop			; (mov r8, r8)
 8002706:	46bd      	mov	sp, r7
 8002708:	b002      	add	sp, #8
 800270a:	bdb0      	pop	{r4, r5, r7, pc}
 800270c:	e000ed00 	.word	0xe000ed00
 8002710:	e000e100 	.word	0xe000e100

08002714 <SysTick_Config>:
    function <b>SysTick_Config</b> is not included. In this case, the file <b><i>device</i>.h</b>
    must contain a vendor-specific implementation of this function.

 */
__STATIC_INLINE uint32_t SysTick_Config(uint32_t ticks)
{
 8002714:	b580      	push	{r7, lr}
 8002716:	b082      	sub	sp, #8
 8002718:	af00      	add	r7, sp, #0
 800271a:	6078      	str	r0, [r7, #4]
  if ((ticks - 1) > SysTick_LOAD_RELOAD_Msk)  return (1);      /* Reload value impossible */
 800271c:	687b      	ldr	r3, [r7, #4]
 800271e:	3b01      	subs	r3, #1
 8002720:	4a0c      	ldr	r2, [pc, #48]	; (8002754 <SysTick_Config+0x40>)
 8002722:	4293      	cmp	r3, r2
 8002724:	d901      	bls.n	800272a <SysTick_Config+0x16>
 8002726:	2301      	movs	r3, #1
 8002728:	e010      	b.n	800274c <SysTick_Config+0x38>

  SysTick->LOAD  = ticks - 1;                                  /* set reload register */
 800272a:	4b0b      	ldr	r3, [pc, #44]	; (8002758 <SysTick_Config+0x44>)
 800272c:	687a      	ldr	r2, [r7, #4]
 800272e:	3a01      	subs	r2, #1
 8002730:	605a      	str	r2, [r3, #4]
  NVIC_SetPriority (SysTick_IRQn, (1<<__NVIC_PRIO_BITS) - 1);  /* set Priority for Systick Interrupt */
 8002732:	2301      	movs	r3, #1
 8002734:	425b      	negs	r3, r3
 8002736:	2103      	movs	r1, #3
 8002738:	0018      	movs	r0, r3
 800273a:	f7ff ff7d 	bl	8002638 <NVIC_SetPriority>
  SysTick->VAL   = 0;                                          /* Load the SysTick Counter Value */
 800273e:	4b06      	ldr	r3, [pc, #24]	; (8002758 <SysTick_Config+0x44>)
 8002740:	2200      	movs	r2, #0
 8002742:	609a      	str	r2, [r3, #8]
  SysTick->CTRL  = SysTick_CTRL_CLKSOURCE_Msk |
 8002744:	4b04      	ldr	r3, [pc, #16]	; (8002758 <SysTick_Config+0x44>)
 8002746:	2207      	movs	r2, #7
 8002748:	601a      	str	r2, [r3, #0]
                   SysTick_CTRL_TICKINT_Msk   |
                   SysTick_CTRL_ENABLE_Msk;                    /* Enable SysTick IRQ and SysTick Timer */
  return (0);                                                  /* Function successful */
 800274a:	2300      	movs	r3, #0
}
 800274c:	0018      	movs	r0, r3
 800274e:	46bd      	mov	sp, r7
 8002750:	b002      	add	sp, #8
 8002752:	bd80      	pop	{r7, pc}
 8002754:	00ffffff 	.word	0x00ffffff
 8002758:	e000e010 	.word	0xe000e010

0800275c <SysTick_Handler>:
**  Abstract: SysTick interrupt handler
**
**===========================================================================
*/
void SysTick_Handler(void)
{
 800275c:	b580      	push	{r7, lr}
 800275e:	af00      	add	r7, sp, #0
	if(delayTimer)
 8002760:	4b0d      	ldr	r3, [pc, #52]	; (8002798 <SysTick_Handler+0x3c>)
 8002762:	681b      	ldr	r3, [r3, #0]
 8002764:	2b00      	cmp	r3, #0
 8002766:	d004      	beq.n	8002772 <SysTick_Handler+0x16>
	{
		delayTimer--;
 8002768:	4b0b      	ldr	r3, [pc, #44]	; (8002798 <SysTick_Handler+0x3c>)
 800276a:	681b      	ldr	r3, [r3, #0]
 800276c:	1e5a      	subs	r2, r3, #1
 800276e:	4b0a      	ldr	r3, [pc, #40]	; (8002798 <SysTick_Handler+0x3c>)
 8002770:	601a      	str	r2, [r3, #0]
	}
	timer++;
 8002772:	4b0a      	ldr	r3, [pc, #40]	; (800279c <SysTick_Handler+0x40>)
 8002774:	681b      	ldr	r3, [r3, #0]
 8002776:	1c5a      	adds	r2, r3, #1
 8002778:	4b08      	ldr	r3, [pc, #32]	; (800279c <SysTick_Handler+0x40>)
 800277a:	601a      	str	r2, [r3, #0]

	if  (timer>5)
 800277c:	4b07      	ldr	r3, [pc, #28]	; (800279c <SysTick_Handler+0x40>)
 800277e:	681b      	ldr	r3, [r3, #0]
 8002780:	2b05      	cmp	r3, #5
 8002782:	d905      	bls.n	8002790 <SysTick_Handler+0x34>
	{
		timerFlag = 1;
 8002784:	4b06      	ldr	r3, [pc, #24]	; (80027a0 <SysTick_Handler+0x44>)
 8002786:	2201      	movs	r2, #1
 8002788:	701a      	strb	r2, [r3, #0]
		timer = 0;
 800278a:	4b04      	ldr	r3, [pc, #16]	; (800279c <SysTick_Handler+0x40>)
 800278c:	2200      	movs	r2, #0
 800278e:	601a      	str	r2, [r3, #0]
	}
}
 8002790:	46c0      	nop			; (mov r8, r8)
 8002792:	46bd      	mov	sp, r7
 8002794:	bd80      	pop	{r7, pc}
 8002796:	46c0      	nop			; (mov r8, r8)
 8002798:	20000188 	.word	0x20000188
 800279c:	20000144 	.word	0x20000144
 80027a0:	20000148 	.word	0x20000148

080027a4 <delay>:


void delay(uint32_t ticks)
{
 80027a4:	b580      	push	{r7, lr}
 80027a6:	b082      	sub	sp, #8
 80027a8:	af00      	add	r7, sp, #0
 80027aa:	6078      	str	r0, [r7, #4]
	delayTimer = ticks;
 80027ac:	4b05      	ldr	r3, [pc, #20]	; (80027c4 <delay+0x20>)
 80027ae:	687a      	ldr	r2, [r7, #4]
 80027b0:	601a      	str	r2, [r3, #0]
	while(delayTimer > 0);
 80027b2:	46c0      	nop			; (mov r8, r8)
 80027b4:	4b03      	ldr	r3, [pc, #12]	; (80027c4 <delay+0x20>)
 80027b6:	681b      	ldr	r3, [r3, #0]
 80027b8:	2b00      	cmp	r3, #0
 80027ba:	d1fb      	bne.n	80027b4 <delay+0x10>
}
 80027bc:	46c0      	nop			; (mov r8, r8)
 80027be:	46bd      	mov	sp, r7
 80027c0:	b002      	add	sp, #8
 80027c2:	bd80      	pop	{r7, pc}
 80027c4:	20000188 	.word	0x20000188

080027c8 <main>:
**  Abstract: main program
**
**===========================================================================
*/
int main(void)
{
 80027c8:	b590      	push	{r4, r7, lr}
 80027ca:	b085      	sub	sp, #20
 80027cc:	af00      	add	r7, sp, #0
	SystemInit();
 80027ce:	f7ff fdff 	bl	80023d0 <SystemInit>
	SystemCoreClockUpdate();
 80027d2:	f7ff fe45 	bl	8002460 <SystemCoreClockUpdate>
	//the systick timer runs with 6MHz
	//config the timer for 1ms interval
	SysTick_Config(SystemCoreClock / 8 / 1000);
 80027d6:	4b7b      	ldr	r3, [pc, #492]	; (80029c4 <main+0x1fc>)
 80027d8:	681a      	ldr	r2, [r3, #0]
 80027da:	23fa      	movs	r3, #250	; 0xfa
 80027dc:	0159      	lsls	r1, r3, #5
 80027de:	0010      	movs	r0, r2
 80027e0:	f7fd fc92 	bl	8000108 <__aeabi_uidiv>
 80027e4:	0003      	movs	r3, r0
 80027e6:	0018      	movs	r0, r3
 80027e8:	f7ff ff94 	bl	8002714 <SysTick_Config>
	SysTick_CLKSourceConfig(SysTick_CLKSource_HCLK_Div8);
 80027ec:	2305      	movs	r3, #5
 80027ee:	425b      	negs	r3, r3
 80027f0:	0018      	movs	r0, r3
 80027f2:	f003 fdcd 	bl	8006390 <SysTick_CLKSourceConfig>

	//init the drivers
	//TODO: the dbgLed kills the USB!!
	dbgLED_init();
 80027f6:	f000 fdff 	bl	80033f8 <dbgLED_init>
	dbgLED_on();
 80027fa:	f000 fe03 	bl	8003404 <dbgLED_on>
	delay(500);
 80027fe:	23fa      	movs	r3, #250	; 0xfa
 8002800:	005b      	lsls	r3, r3, #1
 8002802:	0018      	movs	r0, r3
 8002804:	f7ff ffce 	bl	80027a4 <delay>
	dbgLED_off();
 8002808:	f000 fe02 	bl	8003410 <dbgLED_off>
	delay(500);
 800280c:	23fa      	movs	r3, #250	; 0xfa
 800280e:	005b      	lsls	r3, r3, #1
 8002810:	0018      	movs	r0, r3
 8002812:	f7ff ffc7 	bl	80027a4 <delay>
	USB_Init();
 8002816:	f000 f8e9 	bl	80029ec <USB_Init>
	mma8653_init();
 800281a:	f000 fb4b 	bl	8002eb4 <mma8653_init>
	apa102_init();
 800281e:	f000 fc6b 	bl	80030f8 <apa102_init>

	errorcode = mma8653_setDataWidth(MMA8653_DATAWIDTH_8);
 8002822:	2000      	movs	r0, #0
 8002824:	f000 fbee 	bl	8003004 <mma8653_setDataWidth>
 8002828:	0003      	movs	r3, r0
 800282a:	001a      	movs	r2, r3
 800282c:	4b66      	ldr	r3, [pc, #408]	; (80029c8 <main+0x200>)
 800282e:	701a      	strb	r2, [r3, #0]


	while(1)
	{
		if(timerFlag)
 8002830:	4b66      	ldr	r3, [pc, #408]	; (80029cc <main+0x204>)
 8002832:	781b      	ldrb	r3, [r3, #0]
 8002834:	2b00      	cmp	r3, #0
 8002836:	d0fb      	beq.n	8002830 <main+0x68>
		{
			timerFlag = 0;
 8002838:	4b64      	ldr	r3, [pc, #400]	; (80029cc <main+0x204>)
 800283a:	2200      	movs	r2, #0
 800283c:	701a      	strb	r2, [r3, #0]


			acc8_t accData = mma8653_read8();
 800283e:	f000 fc13 	bl	8003068 <mma8653_read8>
 8002842:	0003      	movs	r3, r0
 8002844:	001a      	movs	r2, r3
 8002846:	1d3b      	adds	r3, r7, #4
 8002848:	1c11      	adds	r1, r2, #0
 800284a:	7019      	strb	r1, [r3, #0]
 800284c:	0411      	lsls	r1, r2, #16
 800284e:	0e09      	lsrs	r1, r1, #24
 8002850:	7059      	strb	r1, [r3, #1]
 8002852:	0212      	lsls	r2, r2, #8
 8002854:	0e12      	lsrs	r2, r2, #24
 8002856:	709a      	strb	r2, [r3, #2]
			//calculate the (vectorial) sum of all 3 axes
			uint32_t sum = sqrt((int32_t)(accData.x*accData.x)+(int32_t)(accData.y*accData.y)+(int32_t)(accData.z*accData.z));
 8002858:	1d3b      	adds	r3, r7, #4
 800285a:	781b      	ldrb	r3, [r3, #0]
 800285c:	b25b      	sxtb	r3, r3
 800285e:	001a      	movs	r2, r3
 8002860:	1d3b      	adds	r3, r7, #4
 8002862:	781b      	ldrb	r3, [r3, #0]
 8002864:	b25b      	sxtb	r3, r3
 8002866:	435a      	muls	r2, r3
 8002868:	1d3b      	adds	r3, r7, #4
 800286a:	785b      	ldrb	r3, [r3, #1]
 800286c:	b25b      	sxtb	r3, r3
 800286e:	0019      	movs	r1, r3
 8002870:	1d3b      	adds	r3, r7, #4
 8002872:	785b      	ldrb	r3, [r3, #1]
 8002874:	b25b      	sxtb	r3, r3
 8002876:	434b      	muls	r3, r1
 8002878:	18d2      	adds	r2, r2, r3
 800287a:	1d3b      	adds	r3, r7, #4
 800287c:	789b      	ldrb	r3, [r3, #2]
 800287e:	b25b      	sxtb	r3, r3
 8002880:	0019      	movs	r1, r3
 8002882:	1d3b      	adds	r3, r7, #4
 8002884:	789b      	ldrb	r3, [r3, #2]
 8002886:	b25b      	sxtb	r3, r3
 8002888:	434b      	muls	r3, r1
 800288a:	18d3      	adds	r3, r2, r3
 800288c:	0018      	movs	r0, r3
 800288e:	f7ff fa97 	bl	8001dc0 <__aeabi_i2d>
 8002892:	0003      	movs	r3, r0
 8002894:	000c      	movs	r4, r1
 8002896:	0018      	movs	r0, r3
 8002898:	0021      	movs	r1, r4
 800289a:	f004 fc9b 	bl	80071d4 <sqrt>
 800289e:	0003      	movs	r3, r0
 80028a0:	000c      	movs	r4, r1
 80028a2:	0018      	movs	r0, r3
 80028a4:	0021      	movs	r1, r4
 80028a6:	f7fd fcf9 	bl	800029c <__aeabi_d2uiz>
 80028aa:	0003      	movs	r3, r0
 80028ac:	60bb      	str	r3, [r7, #8]
			//convert to mg
			//1LSB = 15.6mg
			sum = sum*(double)15.6;
 80028ae:	68b8      	ldr	r0, [r7, #8]
 80028b0:	f7ff fac8 	bl	8001e44 <__aeabi_ui2d>
 80028b4:	4a46      	ldr	r2, [pc, #280]	; (80029d0 <main+0x208>)
 80028b6:	4b47      	ldr	r3, [pc, #284]	; (80029d4 <main+0x20c>)
 80028b8:	f7fe fc5e 	bl	8001178 <__aeabi_dmul>
 80028bc:	0003      	movs	r3, r0
 80028be:	000c      	movs	r4, r1
 80028c0:	0018      	movs	r0, r3
 80028c2:	0021      	movs	r1, r4
 80028c4:	f7fd fcea 	bl	800029c <__aeabi_d2uiz>
 80028c8:	0003      	movs	r3, r0
 80028ca:	60bb      	str	r3, [r7, #8]
			//display on led-stripe
			uint16_t pattern = 0;
 80028cc:	230e      	movs	r3, #14
 80028ce:	18fb      	adds	r3, r7, r3
 80028d0:	2200      	movs	r2, #0
 80028d2:	801a      	strh	r2, [r3, #0]
			for(uint8_t i = 0; i < 16; i++)
 80028d4:	230d      	movs	r3, #13
 80028d6:	18fb      	adds	r3, r7, r3
 80028d8:	2200      	movs	r2, #0
 80028da:	701a      	strb	r2, [r3, #0]
 80028dc:	e030      	b.n	8002940 <main+0x178>
			{
				if(i<=sum/256)
 80028de:	230d      	movs	r3, #13
 80028e0:	18fb      	adds	r3, r7, r3
 80028e2:	781a      	ldrb	r2, [r3, #0]
 80028e4:	68bb      	ldr	r3, [r7, #8]
 80028e6:	0a1b      	lsrs	r3, r3, #8
 80028e8:	429a      	cmp	r2, r3
 80028ea:	d810      	bhi.n	800290e <main+0x146>
				{
					pattern |= (1<<i);
 80028ec:	230d      	movs	r3, #13
 80028ee:	18fb      	adds	r3, r7, r3
 80028f0:	781b      	ldrb	r3, [r3, #0]
 80028f2:	2201      	movs	r2, #1
 80028f4:	409a      	lsls	r2, r3
 80028f6:	0013      	movs	r3, r2
 80028f8:	b21a      	sxth	r2, r3
 80028fa:	230e      	movs	r3, #14
 80028fc:	18fb      	adds	r3, r7, r3
 80028fe:	2100      	movs	r1, #0
 8002900:	5e5b      	ldrsh	r3, [r3, r1]
 8002902:	4313      	orrs	r3, r2
 8002904:	b21a      	sxth	r2, r3
 8002906:	230e      	movs	r3, #14
 8002908:	18fb      	adds	r3, r7, r3
 800290a:	801a      	strh	r2, [r3, #0]
 800290c:	e011      	b.n	8002932 <main+0x16a>
				}
				else
				{
					pattern &= ~(1<<i);
 800290e:	230d      	movs	r3, #13
 8002910:	18fb      	adds	r3, r7, r3
 8002912:	781b      	ldrb	r3, [r3, #0]
 8002914:	2201      	movs	r2, #1
 8002916:	409a      	lsls	r2, r3
 8002918:	0013      	movs	r3, r2
 800291a:	b21b      	sxth	r3, r3
 800291c:	43db      	mvns	r3, r3
 800291e:	b21b      	sxth	r3, r3
 8002920:	220e      	movs	r2, #14
 8002922:	18ba      	adds	r2, r7, r2
 8002924:	2100      	movs	r1, #0
 8002926:	5e52      	ldrsh	r2, [r2, r1]
 8002928:	4013      	ands	r3, r2
 800292a:	b21a      	sxth	r2, r3
 800292c:	230e      	movs	r3, #14
 800292e:	18fb      	adds	r3, r7, r3
 8002930:	801a      	strh	r2, [r3, #0]
			//convert to mg
			//1LSB = 15.6mg
			sum = sum*(double)15.6;
			//display on led-stripe
			uint16_t pattern = 0;
			for(uint8_t i = 0; i < 16; i++)
 8002932:	230d      	movs	r3, #13
 8002934:	18fb      	adds	r3, r7, r3
 8002936:	781a      	ldrb	r2, [r3, #0]
 8002938:	230d      	movs	r3, #13
 800293a:	18fb      	adds	r3, r7, r3
 800293c:	3201      	adds	r2, #1
 800293e:	701a      	strb	r2, [r3, #0]
 8002940:	230d      	movs	r3, #13
 8002942:	18fb      	adds	r3, r7, r3
 8002944:	781b      	ldrb	r3, [r3, #0]
 8002946:	2b0f      	cmp	r3, #15
 8002948:	d9c9      	bls.n	80028de <main+0x116>
				else
				{
					pattern &= ~(1<<i);
				}
			}
			apa102_setPattern(pattern, 2);
 800294a:	230e      	movs	r3, #14
 800294c:	18fb      	adds	r3, r7, r3
 800294e:	881b      	ldrh	r3, [r3, #0]
 8002950:	2102      	movs	r1, #2
 8002952:	0018      	movs	r0, r3
 8002954:	f000 fcd4 	bl	8003300 <apa102_setPattern>

			if(USB_Flags & USB_FLAG_FIRST_CONTACT)
 8002958:	4b1f      	ldr	r3, [pc, #124]	; (80029d8 <main+0x210>)
 800295a:	781b      	ldrb	r3, [r3, #0]
 800295c:	001a      	movs	r2, r3
 800295e:	2304      	movs	r3, #4
 8002960:	4013      	ands	r3, r2
 8002962:	d00b      	beq.n	800297c <main+0x1b4>
			{
				USB_Flags &= ~USB_FLAG_FIRST_CONTACT;
 8002964:	4b1c      	ldr	r3, [pc, #112]	; (80029d8 <main+0x210>)
 8002966:	781b      	ldrb	r3, [r3, #0]
 8002968:	2204      	movs	r2, #4
 800296a:	4393      	bics	r3, r2
 800296c:	b2da      	uxtb	r2, r3
 800296e:	4b1a      	ldr	r3, [pc, #104]	; (80029d8 <main+0x210>)
 8002970:	701a      	strb	r2, [r3, #0]
				USB_VCP_DataTx((uint8_t*)"----POV_Seismograph----\n",20);
 8002972:	4b1a      	ldr	r3, [pc, #104]	; (80029dc <main+0x214>)
 8002974:	2114      	movs	r1, #20
 8002976:	0018      	movs	r0, r3
 8002978:	f000 f89c 	bl	8002ab4 <USB_VCP_DataTx>
			}
			if(USB_Flags & USB_FLAG_CDC_OPEN)
 800297c:	4b16      	ldr	r3, [pc, #88]	; (80029d8 <main+0x210>)
 800297e:	781b      	ldrb	r3, [r3, #0]
 8002980:	001a      	movs	r2, r3
 8002982:	2302      	movs	r3, #2
 8002984:	4013      	ands	r3, r2
 8002986:	d100      	bne.n	800298a <main+0x1c2>
 8002988:	e752      	b.n	8002830 <main+0x68>
			{
				if(errorcode != 0)
 800298a:	4b0f      	ldr	r3, [pc, #60]	; (80029c8 <main+0x200>)
 800298c:	781b      	ldrb	r3, [r3, #0]
 800298e:	2b00      	cmp	r3, #0
 8002990:	d00c      	beq.n	80029ac <main+0x1e4>
				{
					sprintf((char*)tempstring,"Error %i occured!\n",errorcode);
 8002992:	4b0d      	ldr	r3, [pc, #52]	; (80029c8 <main+0x200>)
 8002994:	781b      	ldrb	r3, [r3, #0]
 8002996:	001a      	movs	r2, r3
 8002998:	4911      	ldr	r1, [pc, #68]	; (80029e0 <main+0x218>)
 800299a:	4b12      	ldr	r3, [pc, #72]	; (80029e4 <main+0x21c>)
 800299c:	0018      	movs	r0, r3
 800299e:	f003 fff5 	bl	800698c <siprintf>
					USB_VCP_DataTx((uint8_t*)tempstring,19);
 80029a2:	4b10      	ldr	r3, [pc, #64]	; (80029e4 <main+0x21c>)
 80029a4:	2113      	movs	r1, #19
 80029a6:	0018      	movs	r0, r3
 80029a8:	f000 f884 	bl	8002ab4 <USB_VCP_DataTx>
				}

				sprintf((char*)tempstring,"sum:#1M%i<\n",sum);
 80029ac:	68ba      	ldr	r2, [r7, #8]
 80029ae:	490e      	ldr	r1, [pc, #56]	; (80029e8 <main+0x220>)
 80029b0:	4b0c      	ldr	r3, [pc, #48]	; (80029e4 <main+0x21c>)
 80029b2:	0018      	movs	r0, r3
 80029b4:	f003 ffea 	bl	800698c <siprintf>
				USB_VCP_DataTx((uint8_t*)tempstring,0);
 80029b8:	4b0a      	ldr	r3, [pc, #40]	; (80029e4 <main+0x21c>)
 80029ba:	2100      	movs	r1, #0
 80029bc:	0018      	movs	r0, r3
 80029be:	f000 f879 	bl	8002ab4 <USB_VCP_DataTx>
//				sprintf((char*)tempstring,"z:#3M%i<\t",accData.z);
//				USB_VCP_DataTx((uint8_t*)tempstring,5);
//				USB_VCP_DataTx((uint8_t*)"<\n",2);
			}
		}
	}
 80029c2:	e735      	b.n	8002830 <main+0x68>
 80029c4:	2000004c 	.word	0x2000004c
 80029c8:	20000149 	.word	0x20000149
 80029cc:	20000148 	.word	0x20000148
 80029d0:	33333333 	.word	0x33333333
 80029d4:	402f3333 	.word	0x402f3333
 80029d8:	20000186 	.word	0x20000186
 80029dc:	080074ac 	.word	0x080074ac
 80029e0:	080074c8 	.word	0x080074c8
 80029e4:	2000018c 	.word	0x2000018c
 80029e8:	080074dc 	.word	0x080074dc

080029ec <USB_Init>:
};

/* Private functions ---------------------------------------------------------*/

void USB_Init()
{
 80029ec:	b580      	push	{r7, lr}
 80029ee:	af00      	add	r7, sp, #0


	//remap Pins PA11/12
	RCC_APB2PeriphClockCmd(RCC_APB2Periph_SYSCFG, ENABLE);
 80029f0:	2101      	movs	r1, #1
 80029f2:	2001      	movs	r0, #1
 80029f4:	f003 fc36 	bl	8006264 <RCC_APB2PeriphClockCmd>
	SYSCFG->CFGR1 |= SYSCFG_CFGR1_PA11_PA12_RMP;
 80029f8:	4b0e      	ldr	r3, [pc, #56]	; (8002a34 <USB_Init+0x48>)
 80029fa:	4a0e      	ldr	r2, [pc, #56]	; (8002a34 <USB_Init+0x48>)
 80029fc:	6812      	ldr	r2, [r2, #0]
 80029fe:	2110      	movs	r1, #16
 8002a00:	430a      	orrs	r2, r1
 8002a02:	601a      	str	r2, [r3, #0]

	USBD_Init(&USB_Device_dev,
 8002a04:	4b0c      	ldr	r3, [pc, #48]	; (8002a38 <USB_Init+0x4c>)
 8002a06:	4a0d      	ldr	r2, [pc, #52]	; (8002a3c <USB_Init+0x50>)
 8002a08:	490d      	ldr	r1, [pc, #52]	; (8002a40 <USB_Init+0x54>)
 8002a0a:	480e      	ldr	r0, [pc, #56]	; (8002a44 <USB_Init+0x58>)
 8002a0c:	f001 fa70 	bl	8003ef0 <USBD_Init>
				&USR_desc,
				&USBD_CDC_cb,
				&USR_cb);
	USB_Flags &= ~USB_FLAG_NEW_DATA;
 8002a10:	4b0d      	ldr	r3, [pc, #52]	; (8002a48 <USB_Init+0x5c>)
 8002a12:	781b      	ldrb	r3, [r3, #0]
 8002a14:	2201      	movs	r2, #1
 8002a16:	4393      	bics	r3, r2
 8002a18:	b2da      	uxtb	r2, r3
 8002a1a:	4b0b      	ldr	r3, [pc, #44]	; (8002a48 <USB_Init+0x5c>)
 8002a1c:	701a      	strb	r2, [r3, #0]
	UsbPcSendBuf.read = 0;
 8002a1e:	4b0b      	ldr	r3, [pc, #44]	; (8002a4c <USB_Init+0x60>)
 8002a20:	2280      	movs	r2, #128	; 0x80
 8002a22:	2100      	movs	r1, #0
 8002a24:	5099      	str	r1, [r3, r2]
	UsbPcSendBuf.write = 0;
 8002a26:	4b09      	ldr	r3, [pc, #36]	; (8002a4c <USB_Init+0x60>)
 8002a28:	2284      	movs	r2, #132	; 0x84
 8002a2a:	2100      	movs	r1, #0
 8002a2c:	5099      	str	r1, [r3, r2]
}
 8002a2e:	46c0      	nop			; (mov r8, r8)
 8002a30:	46bd      	mov	sp, r7
 8002a32:	bd80      	pop	{r7, pc}
 8002a34:	40010000 	.word	0x40010000
 8002a38:	20000000 	.word	0x20000000
 8002a3c:	20000098 	.word	0x20000098
 8002a40:	20000014 	.word	0x20000014
 8002a44:	20000234 	.word	0x20000234
 8002a48:	20000186 	.word	0x20000186
 8002a4c:	200001ac 	.word	0x200001ac

08002a50 <USB_VCP_Init>:
  *         Initializes the Media on the STM32
  * @param  None
  * @retval Result of the operation (USBD_OK in all cases)
  */
uint16_t USB_VCP_Init(void)
{
 8002a50:	b580      	push	{r7, lr}
 8002a52:	af00      	add	r7, sp, #0

  return USBD_OK;
 8002a54:	2300      	movs	r3, #0
}
 8002a56:	0018      	movs	r0, r3
 8002a58:	46bd      	mov	sp, r7
 8002a5a:	bd80      	pop	{r7, pc}

08002a5c <USB_VCP_DeInit>:
  *         DeInitializes the Media on the STM32
  * @param  None
  * @retval Result of the opeartion (USBD_OK in all cases)
  */
uint16_t USB_VCP_DeInit(void)
{
 8002a5c:	b580      	push	{r7, lr}
 8002a5e:	af00      	add	r7, sp, #0

  return USBD_OK;
 8002a60:	2300      	movs	r3, #0
}
 8002a62:	0018      	movs	r0, r3
 8002a64:	46bd      	mov	sp, r7
 8002a66:	bd80      	pop	{r7, pc}

08002a68 <USB_VCP_Ctrl>:
  * @param  Buf: Buffer containing command data (request parameters)
  * @param  Len: Number of data to be sent (in bytes)
  * @retval Result of the operation (USBD_OK in all cases)
  */
uint16_t USB_VCP_Ctrl (uint32_t Cmd, uint8_t* Buf, uint32_t Len)
{ 
 8002a68:	b580      	push	{r7, lr}
 8002a6a:	b084      	sub	sp, #16
 8002a6c:	af00      	add	r7, sp, #0
 8002a6e:	60f8      	str	r0, [r7, #12]
 8002a70:	60b9      	str	r1, [r7, #8]
 8002a72:	607a      	str	r2, [r7, #4]

	switch(Cmd)
 8002a74:	68fb      	ldr	r3, [r7, #12]
 8002a76:	2b20      	cmp	r3, #32
 8002a78:	d114      	bne.n	8002aa4 <USB_VCP_Ctrl+0x3c>
	{
	//if we receive this command, we know that a terminal connection is being opened!
	case SET_LINE_CODING:
		if(!(USB_Flags & USB_FLAG_CDC_OPEN))
 8002a7a:	4b0d      	ldr	r3, [pc, #52]	; (8002ab0 <USB_VCP_Ctrl+0x48>)
 8002a7c:	781b      	ldrb	r3, [r3, #0]
 8002a7e:	001a      	movs	r2, r3
 8002a80:	2302      	movs	r3, #2
 8002a82:	4013      	ands	r3, r2
 8002a84:	d10d      	bne.n	8002aa2 <USB_VCP_Ctrl+0x3a>
		{
			USB_Flags |= USB_FLAG_CDC_OPEN;
 8002a86:	4b0a      	ldr	r3, [pc, #40]	; (8002ab0 <USB_VCP_Ctrl+0x48>)
 8002a88:	781b      	ldrb	r3, [r3, #0]
 8002a8a:	2202      	movs	r2, #2
 8002a8c:	4313      	orrs	r3, r2
 8002a8e:	b2da      	uxtb	r2, r3
 8002a90:	4b07      	ldr	r3, [pc, #28]	; (8002ab0 <USB_VCP_Ctrl+0x48>)
 8002a92:	701a      	strb	r2, [r3, #0]
			USB_Flags |= USB_FLAG_FIRST_CONTACT;
 8002a94:	4b06      	ldr	r3, [pc, #24]	; (8002ab0 <USB_VCP_Ctrl+0x48>)
 8002a96:	781b      	ldrb	r3, [r3, #0]
 8002a98:	2204      	movs	r2, #4
 8002a9a:	4313      	orrs	r3, r2
 8002a9c:	b2da      	uxtb	r2, r3
 8002a9e:	4b04      	ldr	r3, [pc, #16]	; (8002ab0 <USB_VCP_Ctrl+0x48>)
 8002aa0:	701a      	strb	r2, [r3, #0]
		}
		break;
 8002aa2:	46c0      	nop			; (mov r8, r8)
	}
	return USBD_OK;
 8002aa4:	2300      	movs	r3, #0
}
 8002aa6:	0018      	movs	r0, r3
 8002aa8:	46bd      	mov	sp, r7
 8002aaa:	b004      	add	sp, #16
 8002aac:	bd80      	pop	{r7, pc}
 8002aae:	46c0      	nop			; (mov r8, r8)
 8002ab0:	20000186 	.word	0x20000186

08002ab4 <USB_VCP_DataTx>:
  * @param  Buf: Buffer of data to be sent
  * @param  Len: Number of data to be sent (in bytes)
  * @retval Result of the operation: USBD_OK if all operations are OK else VCP_FAIL
  */
uint16_t USB_VCP_DataTx (uint8_t* Buf, uint32_t Len)
{
 8002ab4:	b580      	push	{r7, lr}
 8002ab6:	b084      	sub	sp, #16
 8002ab8:	af00      	add	r7, sp, #0
 8002aba:	6078      	str	r0, [r7, #4]
 8002abc:	6039      	str	r1, [r7, #0]
	if(Len)
 8002abe:	683b      	ldr	r3, [r7, #0]
 8002ac0:	2b00      	cmp	r3, #0
 8002ac2:	d020      	beq.n	8002b06 <USB_VCP_DataTx+0x52>
	{
		for(uint32_t i = 0; i < Len; i++)
 8002ac4:	2300      	movs	r3, #0
 8002ac6:	60fb      	str	r3, [r7, #12]
 8002ac8:	e018      	b.n	8002afc <USB_VCP_DataTx+0x48>
		{
			APP_Rx_Buffer[APP_Rx_ptr_in] = Buf[i];
 8002aca:	4b22      	ldr	r3, [pc, #136]	; (8002b54 <USB_VCP_DataTx+0xa0>)
 8002acc:	681b      	ldr	r3, [r3, #0]
 8002ace:	6879      	ldr	r1, [r7, #4]
 8002ad0:	68fa      	ldr	r2, [r7, #12]
 8002ad2:	188a      	adds	r2, r1, r2
 8002ad4:	7811      	ldrb	r1, [r2, #0]
 8002ad6:	4a20      	ldr	r2, [pc, #128]	; (8002b58 <USB_VCP_DataTx+0xa4>)
 8002ad8:	54d1      	strb	r1, [r2, r3]
			APP_Rx_ptr_in++;
 8002ada:	4b1e      	ldr	r3, [pc, #120]	; (8002b54 <USB_VCP_DataTx+0xa0>)
 8002adc:	681b      	ldr	r3, [r3, #0]
 8002ade:	1c5a      	adds	r2, r3, #1
 8002ae0:	4b1c      	ldr	r3, [pc, #112]	; (8002b54 <USB_VCP_DataTx+0xa0>)
 8002ae2:	601a      	str	r2, [r3, #0]

			/* To avoid buffer overflow */
			if(APP_Rx_ptr_in == APP_RX_DATA_SIZE)
 8002ae4:	4b1b      	ldr	r3, [pc, #108]	; (8002b54 <USB_VCP_DataTx+0xa0>)
 8002ae6:	681a      	ldr	r2, [r3, #0]
 8002ae8:	2380      	movs	r3, #128	; 0x80
 8002aea:	011b      	lsls	r3, r3, #4
 8002aec:	429a      	cmp	r2, r3
 8002aee:	d102      	bne.n	8002af6 <USB_VCP_DataTx+0x42>
			{
				APP_Rx_ptr_in = 0;
 8002af0:	4b18      	ldr	r3, [pc, #96]	; (8002b54 <USB_VCP_DataTx+0xa0>)
 8002af2:	2200      	movs	r2, #0
 8002af4:	601a      	str	r2, [r3, #0]
  */
uint16_t USB_VCP_DataTx (uint8_t* Buf, uint32_t Len)
{
	if(Len)
	{
		for(uint32_t i = 0; i < Len; i++)
 8002af6:	68fb      	ldr	r3, [r7, #12]
 8002af8:	3301      	adds	r3, #1
 8002afa:	60fb      	str	r3, [r7, #12]
 8002afc:	68fa      	ldr	r2, [r7, #12]
 8002afe:	683b      	ldr	r3, [r7, #0]
 8002b00:	429a      	cmp	r2, r3
 8002b02:	d3e2      	bcc.n	8002aca <USB_VCP_DataTx+0x16>
 8002b04:	e021      	b.n	8002b4a <USB_VCP_DataTx+0x96>
		}
	}
	else
	//stop @ null character (Len = 0)
	{
		uint32_t i = 0;
 8002b06:	2300      	movs	r3, #0
 8002b08:	60bb      	str	r3, [r7, #8]
		while(Buf[i] != 0x00)
 8002b0a:	e018      	b.n	8002b3e <USB_VCP_DataTx+0x8a>
		{
			APP_Rx_Buffer[APP_Rx_ptr_in] = Buf[i];
 8002b0c:	4b11      	ldr	r3, [pc, #68]	; (8002b54 <USB_VCP_DataTx+0xa0>)
 8002b0e:	681b      	ldr	r3, [r3, #0]
 8002b10:	6879      	ldr	r1, [r7, #4]
 8002b12:	68ba      	ldr	r2, [r7, #8]
 8002b14:	188a      	adds	r2, r1, r2
 8002b16:	7811      	ldrb	r1, [r2, #0]
 8002b18:	4a0f      	ldr	r2, [pc, #60]	; (8002b58 <USB_VCP_DataTx+0xa4>)
 8002b1a:	54d1      	strb	r1, [r2, r3]
			APP_Rx_ptr_in++;
 8002b1c:	4b0d      	ldr	r3, [pc, #52]	; (8002b54 <USB_VCP_DataTx+0xa0>)
 8002b1e:	681b      	ldr	r3, [r3, #0]
 8002b20:	1c5a      	adds	r2, r3, #1
 8002b22:	4b0c      	ldr	r3, [pc, #48]	; (8002b54 <USB_VCP_DataTx+0xa0>)
 8002b24:	601a      	str	r2, [r3, #0]

			/* To avoid buffer overflow */
			if(APP_Rx_ptr_in == APP_RX_DATA_SIZE)
 8002b26:	4b0b      	ldr	r3, [pc, #44]	; (8002b54 <USB_VCP_DataTx+0xa0>)
 8002b28:	681a      	ldr	r2, [r3, #0]
 8002b2a:	2380      	movs	r3, #128	; 0x80
 8002b2c:	011b      	lsls	r3, r3, #4
 8002b2e:	429a      	cmp	r2, r3
 8002b30:	d102      	bne.n	8002b38 <USB_VCP_DataTx+0x84>
			{
				APP_Rx_ptr_in = 0;
 8002b32:	4b08      	ldr	r3, [pc, #32]	; (8002b54 <USB_VCP_DataTx+0xa0>)
 8002b34:	2200      	movs	r2, #0
 8002b36:	601a      	str	r2, [r3, #0]
			}
			i++;
 8002b38:	68bb      	ldr	r3, [r7, #8]
 8002b3a:	3301      	adds	r3, #1
 8002b3c:	60bb      	str	r3, [r7, #8]
	}
	else
	//stop @ null character (Len = 0)
	{
		uint32_t i = 0;
		while(Buf[i] != 0x00)
 8002b3e:	687a      	ldr	r2, [r7, #4]
 8002b40:	68bb      	ldr	r3, [r7, #8]
 8002b42:	18d3      	adds	r3, r2, r3
 8002b44:	781b      	ldrb	r3, [r3, #0]
 8002b46:	2b00      	cmp	r3, #0
 8002b48:	d1e0      	bne.n	8002b0c <USB_VCP_DataTx+0x58>
				APP_Rx_ptr_in = 0;
			}
			i++;
		}
	}
	return USBD_OK;
 8002b4a:	2300      	movs	r3, #0
}
 8002b4c:	0018      	movs	r0, r3
 8002b4e:	46bd      	mov	sp, r7
 8002b50:	b004      	add	sp, #16
 8002b52:	bd80      	pop	{r7, pc}
 8002b54:	2000015c 	.word	0x2000015c
 8002b58:	200005b4 	.word	0x200005b4

08002b5c <USB_VCP_DataRx>:
  * @param  Buf: Buffer of data to be received
  * @param  Len: Number of data received (in bytes)
  * @retval Result of the operation: USBD_OK if all operations are OK else VCP_FAIL
  */
uint16_t USB_VCP_DataRx (uint8_t* Buf, uint32_t Len)
{
 8002b5c:	b580      	push	{r7, lr}
 8002b5e:	b084      	sub	sp, #16
 8002b60:	af00      	add	r7, sp, #0
 8002b62:	6078      	str	r0, [r7, #4]
 8002b64:	6039      	str	r1, [r7, #0]
	USB_Flags |= USB_FLAG_NEW_DATA;
 8002b66:	4b0f      	ldr	r3, [pc, #60]	; (8002ba4 <USB_VCP_DataRx+0x48>)
 8002b68:	781b      	ldrb	r3, [r3, #0]
 8002b6a:	2201      	movs	r2, #1
 8002b6c:	4313      	orrs	r3, r2
 8002b6e:	b2da      	uxtb	r2, r3
 8002b70:	4b0c      	ldr	r3, [pc, #48]	; (8002ba4 <USB_VCP_DataRx+0x48>)
 8002b72:	701a      	strb	r2, [r3, #0]
	for(uint32_t i = 0; i < Len; i++)
 8002b74:	2300      	movs	r3, #0
 8002b76:	60fb      	str	r3, [r7, #12]
 8002b78:	e00b      	b.n	8002b92 <USB_VCP_DataRx+0x36>
	{
		FifoIn(&UsbPcSendBuf, Buf[i]);
 8002b7a:	687a      	ldr	r2, [r7, #4]
 8002b7c:	68fb      	ldr	r3, [r7, #12]
 8002b7e:	18d3      	adds	r3, r2, r3
 8002b80:	781a      	ldrb	r2, [r3, #0]
 8002b82:	4b09      	ldr	r3, [pc, #36]	; (8002ba8 <USB_VCP_DataRx+0x4c>)
 8002b84:	0011      	movs	r1, r2
 8002b86:	0018      	movs	r0, r3
 8002b88:	f7ff f9b2 	bl	8001ef0 <FifoIn>
  * @retval Result of the operation: USBD_OK if all operations are OK else VCP_FAIL
  */
uint16_t USB_VCP_DataRx (uint8_t* Buf, uint32_t Len)
{
	USB_Flags |= USB_FLAG_NEW_DATA;
	for(uint32_t i = 0; i < Len; i++)
 8002b8c:	68fb      	ldr	r3, [r7, #12]
 8002b8e:	3301      	adds	r3, #1
 8002b90:	60fb      	str	r3, [r7, #12]
 8002b92:	68fa      	ldr	r2, [r7, #12]
 8002b94:	683b      	ldr	r3, [r7, #0]
 8002b96:	429a      	cmp	r2, r3
 8002b98:	d3ef      	bcc.n	8002b7a <USB_VCP_DataRx+0x1e>
	{
		FifoIn(&UsbPcSendBuf, Buf[i]);
	}
	return USBD_OK;
 8002b9a:	2300      	movs	r3, #0
}
 8002b9c:	0018      	movs	r0, r3
 8002b9e:	46bd      	mov	sp, r7
 8002ba0:	b004      	add	sp, #16
 8002ba2:	bd80      	pop	{r7, pc}
 8002ba4:	20000186 	.word	0x20000186
 8002ba8:	200001ac 	.word	0x200001ac

08002bac <I2C_RdReg>:
uint8_t isActive = 0;

uint8_t rxBuf[4];

uint8_t I2C_RdReg(uint8_t Reg, uint8_t *Data, uint8_t DCnt)
{
 8002bac:	b590      	push	{r4, r7, lr}
 8002bae:	b087      	sub	sp, #28
 8002bb0:	af02      	add	r7, sp, #8
 8002bb2:	6039      	str	r1, [r7, #0]
 8002bb4:	0011      	movs	r1, r2
 8002bb6:	1dfb      	adds	r3, r7, #7
 8002bb8:	1c02      	adds	r2, r0, #0
 8002bba:	701a      	strb	r2, [r3, #0]
 8002bbc:	1dbb      	adds	r3, r7, #6
 8002bbe:	1c0a      	adds	r2, r1, #0
 8002bc0:	701a      	strb	r2, [r3, #0]
	uint8_t Cnt, SingleData = 0;
 8002bc2:	230e      	movs	r3, #14
 8002bc4:	18fb      	adds	r3, r7, r3
 8002bc6:	2200      	movs	r2, #0
 8002bc8:	701a      	strb	r2, [r3, #0]

	//Wait until I2C isn't busy
	while(I2C_GetFlagStatus(I2C_MMA8653, I2C_FLAG_BUSY) == SET);
 8002bca:	46c0      	nop			; (mov r8, r8)
 8002bcc:	2380      	movs	r3, #128	; 0x80
 8002bce:	021b      	lsls	r3, r3, #8
 8002bd0:	4a3d      	ldr	r2, [pc, #244]	; (8002cc8 <I2C_RdReg+0x11c>)
 8002bd2:	0019      	movs	r1, r3
 8002bd4:	0010      	movs	r0, r2
 8002bd6:	f003 fccd 	bl	8006574 <I2C_GetFlagStatus>
 8002bda:	1e03      	subs	r3, r0, #0
 8002bdc:	2b01      	cmp	r3, #1
 8002bde:	d0f5      	beq.n	8002bcc <I2C_RdReg+0x20>

	//first communication (try reading the status register)
	/* Configure slave address, nbytes, reload, end mode and start or stop generation */
	I2C_TransferHandling(I2C_MMA8653,ADDR_MMA8653,1,I2C_SoftEnd_Mode,I2C_Generate_Start_Write);
 8002be0:	4839      	ldr	r0, [pc, #228]	; (8002cc8 <I2C_RdReg+0x11c>)
 8002be2:	2380      	movs	r3, #128	; 0x80
 8002be4:	019b      	lsls	r3, r3, #6
 8002be6:	9300      	str	r3, [sp, #0]
 8002be8:	2300      	movs	r3, #0
 8002bea:	2201      	movs	r2, #1
 8002bec:	213a      	movs	r1, #58	; 0x3a
 8002bee:	f003 fc6f 	bl	80064d0 <I2C_TransferHandling>
	//Ensure the transmit interrupted flag is set
	while(I2C_GetFlagStatus(I2C_MMA8653, I2C_FLAG_TXIS) == RESET);
 8002bf2:	46c0      	nop			; (mov r8, r8)
 8002bf4:	4b34      	ldr	r3, [pc, #208]	; (8002cc8 <I2C_RdReg+0x11c>)
 8002bf6:	2102      	movs	r1, #2
 8002bf8:	0018      	movs	r0, r3
 8002bfa:	f003 fcbb 	bl	8006574 <I2C_GetFlagStatus>
 8002bfe:	1e03      	subs	r3, r0, #0
 8002c00:	d0f8      	beq.n	8002bf4 <I2C_RdReg+0x48>
	//send reg address
	I2C_SendData(I2C_MMA8653, (uint8_t)Reg);
 8002c02:	1dfb      	adds	r3, r7, #7
 8002c04:	781b      	ldrb	r3, [r3, #0]
 8002c06:	4a30      	ldr	r2, [pc, #192]	; (8002cc8 <I2C_RdReg+0x11c>)
 8002c08:	0019      	movs	r1, r3
 8002c0a:	0010      	movs	r0, r2
 8002c0c:	f003 fc96 	bl	800653c <I2C_SendData>
	//Wait until transfer is complete!
	while(I2C_GetFlagStatus(I2C_MMA8653, I2C_FLAG_TC) == RESET);
 8002c10:	46c0      	nop			; (mov r8, r8)
 8002c12:	4b2d      	ldr	r3, [pc, #180]	; (8002cc8 <I2C_RdReg+0x11c>)
 8002c14:	2140      	movs	r1, #64	; 0x40
 8002c16:	0018      	movs	r0, r3
 8002c18:	f003 fcac 	bl	8006574 <I2C_GetFlagStatus>
 8002c1c:	1e03      	subs	r3, r0, #0
 8002c1e:	d0f8      	beq.n	8002c12 <I2C_RdReg+0x66>
	//initiate read
	I2C_TransferHandling(I2C_MMA8653, ADDR_MMA8653, DCnt, I2C_AutoEnd_Mode, I2C_Generate_Start_Read);
 8002c20:	2380      	movs	r3, #128	; 0x80
 8002c22:	0499      	lsls	r1, r3, #18
 8002c24:	1dbb      	adds	r3, r7, #6
 8002c26:	781a      	ldrb	r2, [r3, #0]
 8002c28:	4827      	ldr	r0, [pc, #156]	; (8002cc8 <I2C_RdReg+0x11c>)
 8002c2a:	2390      	movs	r3, #144	; 0x90
 8002c2c:	019b      	lsls	r3, r3, #6
 8002c2e:	9300      	str	r3, [sp, #0]
 8002c30:	000b      	movs	r3, r1
 8002c32:	213a      	movs	r1, #58	; 0x3a
 8002c34:	f003 fc4c 	bl	80064d0 <I2C_TransferHandling>


	//Read in DCnt pieces of data
	for(Cnt = 0; Cnt<DCnt; Cnt++)
 8002c38:	230f      	movs	r3, #15
 8002c3a:	18fb      	adds	r3, r7, r3
 8002c3c:	2200      	movs	r2, #0
 8002c3e:	701a      	strb	r2, [r3, #0]
 8002c40:	e026      	b.n	8002c90 <I2C_RdReg+0xe4>
	{
        //Wait until the RX register is full of luscious data!
        while(I2C_GetFlagStatus(I2C_MMA8653, I2C_FLAG_RXNE) == RESET);
 8002c42:	46c0      	nop			; (mov r8, r8)
 8002c44:	4b20      	ldr	r3, [pc, #128]	; (8002cc8 <I2C_RdReg+0x11c>)
 8002c46:	2104      	movs	r1, #4
 8002c48:	0018      	movs	r0, r3
 8002c4a:	f003 fc93 	bl	8006574 <I2C_GetFlagStatus>
 8002c4e:	1e03      	subs	r3, r0, #0
 8002c50:	d0f8      	beq.n	8002c44 <I2C_RdReg+0x98>
        //If we're only reading one byte, place that data direct into the
        //SingleData variable. If we're reading more than 1 piece of data
        //store in the array "Data" (a pointer from main)
        if(DCnt > 1)
 8002c52:	1dbb      	adds	r3, r7, #6
 8002c54:	781b      	ldrb	r3, [r3, #0]
 8002c56:	2b01      	cmp	r3, #1
 8002c58:	d90b      	bls.n	8002c72 <I2C_RdReg+0xc6>
        {
        	Data[Cnt] = I2C_ReceiveData(I2C_MMA8653);
 8002c5a:	230f      	movs	r3, #15
 8002c5c:	18fb      	adds	r3, r7, r3
 8002c5e:	781b      	ldrb	r3, [r3, #0]
 8002c60:	683a      	ldr	r2, [r7, #0]
 8002c62:	18d4      	adds	r4, r2, r3
 8002c64:	4b18      	ldr	r3, [pc, #96]	; (8002cc8 <I2C_RdReg+0x11c>)
 8002c66:	0018      	movs	r0, r3
 8002c68:	f003 fc78 	bl	800655c <I2C_ReceiveData>
 8002c6c:	0003      	movs	r3, r0
 8002c6e:	7023      	strb	r3, [r4, #0]
 8002c70:	e007      	b.n	8002c82 <I2C_RdReg+0xd6>
        }
        else SingleData = I2C_ReceiveData(I2C_MMA8653);
 8002c72:	230e      	movs	r3, #14
 8002c74:	18fc      	adds	r4, r7, r3
 8002c76:	4b14      	ldr	r3, [pc, #80]	; (8002cc8 <I2C_RdReg+0x11c>)
 8002c78:	0018      	movs	r0, r3
 8002c7a:	f003 fc6f 	bl	800655c <I2C_ReceiveData>
 8002c7e:	0003      	movs	r3, r0
 8002c80:	7023      	strb	r3, [r4, #0]
	//initiate read
	I2C_TransferHandling(I2C_MMA8653, ADDR_MMA8653, DCnt, I2C_AutoEnd_Mode, I2C_Generate_Start_Read);


	//Read in DCnt pieces of data
	for(Cnt = 0; Cnt<DCnt; Cnt++)
 8002c82:	230f      	movs	r3, #15
 8002c84:	18fb      	adds	r3, r7, r3
 8002c86:	781a      	ldrb	r2, [r3, #0]
 8002c88:	230f      	movs	r3, #15
 8002c8a:	18fb      	adds	r3, r7, r3
 8002c8c:	3201      	adds	r2, #1
 8002c8e:	701a      	strb	r2, [r3, #0]
 8002c90:	230f      	movs	r3, #15
 8002c92:	18fa      	adds	r2, r7, r3
 8002c94:	1dbb      	adds	r3, r7, #6
 8002c96:	7812      	ldrb	r2, [r2, #0]
 8002c98:	781b      	ldrb	r3, [r3, #0]
 8002c9a:	429a      	cmp	r2, r3
 8002c9c:	d3d1      	bcc.n	8002c42 <I2C_RdReg+0x96>
        }
        else SingleData = I2C_ReceiveData(I2C_MMA8653);
     }

    //Wait for the stop condition to be sent
    while(I2C_GetFlagStatus(I2C_MMA8653, I2C_FLAG_STOPF) == RESET);
 8002c9e:	46c0      	nop			; (mov r8, r8)
 8002ca0:	4b09      	ldr	r3, [pc, #36]	; (8002cc8 <I2C_RdReg+0x11c>)
 8002ca2:	2120      	movs	r1, #32
 8002ca4:	0018      	movs	r0, r3
 8002ca6:	f003 fc65 	bl	8006574 <I2C_GetFlagStatus>
 8002caa:	1e03      	subs	r3, r0, #0
 8002cac:	d0f8      	beq.n	8002ca0 <I2C_RdReg+0xf4>

    //Clear the stop flag for next transfers
    I2C_ClearFlag(I2C_MMA8653, I2C_FLAG_STOPF);
 8002cae:	4b06      	ldr	r3, [pc, #24]	; (8002cc8 <I2C_RdReg+0x11c>)
 8002cb0:	2120      	movs	r1, #32
 8002cb2:	0018      	movs	r0, r3
 8002cb4:	f003 fc84 	bl	80065c0 <I2C_ClearFlag>

    //Return a single piece of data if DCnt was
    //less than 1, otherwise 0 will be returned.
	return SingleData;
 8002cb8:	230e      	movs	r3, #14
 8002cba:	18fb      	adds	r3, r7, r3
 8002cbc:	781b      	ldrb	r3, [r3, #0]
}
 8002cbe:	0018      	movs	r0, r3
 8002cc0:	46bd      	mov	sp, r7
 8002cc2:	b005      	add	sp, #20
 8002cc4:	bd90      	pop	{r4, r7, pc}
 8002cc6:	46c0      	nop			; (mov r8, r8)
 8002cc8:	40005400 	.word	0x40005400

08002ccc <I2C_WrReg>:

void I2C_WrReg(uint8_t Reg, uint8_t Val){
 8002ccc:	b580      	push	{r7, lr}
 8002cce:	b084      	sub	sp, #16
 8002cd0:	af02      	add	r7, sp, #8
 8002cd2:	0002      	movs	r2, r0
 8002cd4:	1dfb      	adds	r3, r7, #7
 8002cd6:	701a      	strb	r2, [r3, #0]
 8002cd8:	1dbb      	adds	r3, r7, #6
 8002cda:	1c0a      	adds	r2, r1, #0
 8002cdc:	701a      	strb	r2, [r3, #0]

	//Wait until I2C isn't busy
	while(I2C_GetFlagStatus(I2C_MMA8653, I2C_FLAG_BUSY) == SET);
 8002cde:	46c0      	nop			; (mov r8, r8)
 8002ce0:	2380      	movs	r3, #128	; 0x80
 8002ce2:	021b      	lsls	r3, r3, #8
 8002ce4:	4a29      	ldr	r2, [pc, #164]	; (8002d8c <I2C_WrReg+0xc0>)
 8002ce6:	0019      	movs	r1, r3
 8002ce8:	0010      	movs	r0, r2
 8002cea:	f003 fc43 	bl	8006574 <I2C_GetFlagStatus>
 8002cee:	1e03      	subs	r3, r0, #0
 8002cf0:	2b01      	cmp	r3, #1
 8002cf2:	d0f5      	beq.n	8002ce0 <I2C_WrReg+0x14>
	//I2C interface... Regardless! Send the address of the HMC
	//sensor down the I2C Bus and generate a start saying we're
	//going to write one byte. I'll be completely honest,
	//the I2C peripheral doesn't make too much sense to me
	//and a lot of the code is from the Std peripheral library
	I2C_TransferHandling(I2C_MMA8653, ADDR_MMA8653, 1, I2C_Reload_Mode, I2C_Generate_Start_Write);
 8002cf4:	2380      	movs	r3, #128	; 0x80
 8002cf6:	045a      	lsls	r2, r3, #17
 8002cf8:	4824      	ldr	r0, [pc, #144]	; (8002d8c <I2C_WrReg+0xc0>)
 8002cfa:	2380      	movs	r3, #128	; 0x80
 8002cfc:	019b      	lsls	r3, r3, #6
 8002cfe:	9300      	str	r3, [sp, #0]
 8002d00:	0013      	movs	r3, r2
 8002d02:	2201      	movs	r2, #1
 8002d04:	213a      	movs	r1, #58	; 0x3a
 8002d06:	f003 fbe3 	bl	80064d0 <I2C_TransferHandling>

	//Ensure the transmit interrupted flag is set
	while(I2C_GetFlagStatus(I2C_MMA8653, I2C_FLAG_TXIS) == RESET);
 8002d0a:	46c0      	nop			; (mov r8, r8)
 8002d0c:	4b1f      	ldr	r3, [pc, #124]	; (8002d8c <I2C_WrReg+0xc0>)
 8002d0e:	2102      	movs	r1, #2
 8002d10:	0018      	movs	r0, r3
 8002d12:	f003 fc2f 	bl	8006574 <I2C_GetFlagStatus>
 8002d16:	1e03      	subs	r3, r0, #0
 8002d18:	d0f8      	beq.n	8002d0c <I2C_WrReg+0x40>

	//Send the address of the register we wish to write to
	I2C_SendData(I2C_MMA8653, Reg);
 8002d1a:	1dfb      	adds	r3, r7, #7
 8002d1c:	781b      	ldrb	r3, [r3, #0]
 8002d1e:	4a1b      	ldr	r2, [pc, #108]	; (8002d8c <I2C_WrReg+0xc0>)
 8002d20:	0019      	movs	r1, r3
 8002d22:	0010      	movs	r0, r2
 8002d24:	f003 fc0a 	bl	800653c <I2C_SendData>

	//Ensure that the transfer complete reload flag is
	//set, essentially a standard TC flag
	while(I2C_GetFlagStatus(I2C_MMA8653, I2C_FLAG_TCR) == RESET);
 8002d28:	46c0      	nop			; (mov r8, r8)
 8002d2a:	4b18      	ldr	r3, [pc, #96]	; (8002d8c <I2C_WrReg+0xc0>)
 8002d2c:	2180      	movs	r1, #128	; 0x80
 8002d2e:	0018      	movs	r0, r3
 8002d30:	f003 fc20 	bl	8006574 <I2C_GetFlagStatus>
 8002d34:	1e03      	subs	r3, r0, #0
 8002d36:	d0f8      	beq.n	8002d2a <I2C_WrReg+0x5e>

	//Now that the HMC5883L knows which register
	//we want to write to, send the address again
	//and ensure the I2C peripheral doesn't add
	//any start or stop conditions
	I2C_TransferHandling(I2C_MMA8653, ADDR_MMA8653, 1, I2C_AutoEnd_Mode, I2C_No_StartStop);
 8002d38:	2380      	movs	r3, #128	; 0x80
 8002d3a:	049a      	lsls	r2, r3, #18
 8002d3c:	4813      	ldr	r0, [pc, #76]	; (8002d8c <I2C_WrReg+0xc0>)
 8002d3e:	2300      	movs	r3, #0
 8002d40:	9300      	str	r3, [sp, #0]
 8002d42:	0013      	movs	r3, r2
 8002d44:	2201      	movs	r2, #1
 8002d46:	213a      	movs	r1, #58	; 0x3a
 8002d48:	f003 fbc2 	bl	80064d0 <I2C_TransferHandling>

	//Again, wait until the transmit interrupted flag is set
	while(I2C_GetFlagStatus(I2C_MMA8653, I2C_FLAG_TXIS) == RESET);
 8002d4c:	46c0      	nop			; (mov r8, r8)
 8002d4e:	4b0f      	ldr	r3, [pc, #60]	; (8002d8c <I2C_WrReg+0xc0>)
 8002d50:	2102      	movs	r1, #2
 8002d52:	0018      	movs	r0, r3
 8002d54:	f003 fc0e 	bl	8006574 <I2C_GetFlagStatus>
 8002d58:	1e03      	subs	r3, r0, #0
 8002d5a:	d0f8      	beq.n	8002d4e <I2C_WrReg+0x82>

	//Send the value you wish you write to the register
	I2C_SendData(I2C_MMA8653, Val);
 8002d5c:	1dbb      	adds	r3, r7, #6
 8002d5e:	781b      	ldrb	r3, [r3, #0]
 8002d60:	4a0a      	ldr	r2, [pc, #40]	; (8002d8c <I2C_WrReg+0xc0>)
 8002d62:	0019      	movs	r1, r3
 8002d64:	0010      	movs	r0, r2
 8002d66:	f003 fbe9 	bl	800653c <I2C_SendData>

	//Wait for the stop flag to be set indicating
	//a stop condition has been sent
	while(I2C_GetFlagStatus(I2C_MMA8653, I2C_FLAG_STOPF) == RESET);
 8002d6a:	46c0      	nop			; (mov r8, r8)
 8002d6c:	4b07      	ldr	r3, [pc, #28]	; (8002d8c <I2C_WrReg+0xc0>)
 8002d6e:	2120      	movs	r1, #32
 8002d70:	0018      	movs	r0, r3
 8002d72:	f003 fbff 	bl	8006574 <I2C_GetFlagStatus>
 8002d76:	1e03      	subs	r3, r0, #0
 8002d78:	d0f8      	beq.n	8002d6c <I2C_WrReg+0xa0>

	//Clear the stop flag for the next potential transfer
	I2C_ClearFlag(I2C_MMA8653, I2C_FLAG_STOPF);
 8002d7a:	4b04      	ldr	r3, [pc, #16]	; (8002d8c <I2C_WrReg+0xc0>)
 8002d7c:	2120      	movs	r1, #32
 8002d7e:	0018      	movs	r0, r3
 8002d80:	f003 fc1e 	bl	80065c0 <I2C_ClearFlag>
}
 8002d84:	46c0      	nop			; (mov r8, r8)
 8002d86:	46bd      	mov	sp, r7
 8002d88:	b002      	add	sp, #8
 8002d8a:	bd80      	pop	{r7, pc}
 8002d8c:	40005400 	.word	0x40005400

08002d90 <I2C_BitHandling>:

void I2C_BitHandling(uint8_t reg, uint8_t bitmask, uint8_t set)
{
 8002d90:	b590      	push	{r4, r7, lr}
 8002d92:	b085      	sub	sp, #20
 8002d94:	af00      	add	r7, sp, #0
 8002d96:	0004      	movs	r4, r0
 8002d98:	0008      	movs	r0, r1
 8002d9a:	0011      	movs	r1, r2
 8002d9c:	1dfb      	adds	r3, r7, #7
 8002d9e:	1c22      	adds	r2, r4, #0
 8002da0:	701a      	strb	r2, [r3, #0]
 8002da2:	1dbb      	adds	r3, r7, #6
 8002da4:	1c02      	adds	r2, r0, #0
 8002da6:	701a      	strb	r2, [r3, #0]
 8002da8:	1d7b      	adds	r3, r7, #5
 8002daa:	1c0a      	adds	r2, r1, #0
 8002dac:	701a      	strb	r2, [r3, #0]
	uint8_t tempReg = I2C_RdReg(reg,rxBuf,1);
 8002dae:	230f      	movs	r3, #15
 8002db0:	18fc      	adds	r4, r7, r3
 8002db2:	4919      	ldr	r1, [pc, #100]	; (8002e18 <I2C_BitHandling+0x88>)
 8002db4:	1dfb      	adds	r3, r7, #7
 8002db6:	781b      	ldrb	r3, [r3, #0]
 8002db8:	2201      	movs	r2, #1
 8002dba:	0018      	movs	r0, r3
 8002dbc:	f7ff fef6 	bl	8002bac <I2C_RdReg>
 8002dc0:	0003      	movs	r3, r0
 8002dc2:	7023      	strb	r3, [r4, #0]
	if(set)
 8002dc4:	1d7b      	adds	r3, r7, #5
 8002dc6:	781b      	ldrb	r3, [r3, #0]
 8002dc8:	2b00      	cmp	r3, #0
 8002dca:	d009      	beq.n	8002de0 <I2C_BitHandling+0x50>
	{
		//set bits
		tempReg |= bitmask;
 8002dcc:	230f      	movs	r3, #15
 8002dce:	18fb      	adds	r3, r7, r3
 8002dd0:	220f      	movs	r2, #15
 8002dd2:	18b9      	adds	r1, r7, r2
 8002dd4:	1dba      	adds	r2, r7, #6
 8002dd6:	7809      	ldrb	r1, [r1, #0]
 8002dd8:	7812      	ldrb	r2, [r2, #0]
 8002dda:	430a      	orrs	r2, r1
 8002ddc:	701a      	strb	r2, [r3, #0]
 8002dde:	e00d      	b.n	8002dfc <I2C_BitHandling+0x6c>
	}
	else
	{
		//reset bits
		tempReg &= ~bitmask;
 8002de0:	1dbb      	adds	r3, r7, #6
 8002de2:	781b      	ldrb	r3, [r3, #0]
 8002de4:	b25b      	sxtb	r3, r3
 8002de6:	43db      	mvns	r3, r3
 8002de8:	b25b      	sxtb	r3, r3
 8002dea:	220f      	movs	r2, #15
 8002dec:	18ba      	adds	r2, r7, r2
 8002dee:	7812      	ldrb	r2, [r2, #0]
 8002df0:	b252      	sxtb	r2, r2
 8002df2:	4013      	ands	r3, r2
 8002df4:	b25a      	sxtb	r2, r3
 8002df6:	230f      	movs	r3, #15
 8002df8:	18fb      	adds	r3, r7, r3
 8002dfa:	701a      	strb	r2, [r3, #0]
	}
	//write back the register
	I2C_WrReg(reg,tempReg);
 8002dfc:	230f      	movs	r3, #15
 8002dfe:	18fb      	adds	r3, r7, r3
 8002e00:	781a      	ldrb	r2, [r3, #0]
 8002e02:	1dfb      	adds	r3, r7, #7
 8002e04:	781b      	ldrb	r3, [r3, #0]
 8002e06:	0011      	movs	r1, r2
 8002e08:	0018      	movs	r0, r3
 8002e0a:	f7ff ff5f 	bl	8002ccc <I2C_WrReg>
}
 8002e0e:	46c0      	nop			; (mov r8, r8)
 8002e10:	46bd      	mov	sp, r7
 8002e12:	b005      	add	sp, #20
 8002e14:	bd90      	pop	{r4, r7, pc}
 8002e16:	46c0      	nop			; (mov r8, r8)
 8002e18:	2000039c 	.word	0x2000039c

08002e1c <mma8653_goStandby>:

uint8_t mma8653_goStandby()
{
 8002e1c:	b580      	push	{r7, lr}
 8002e1e:	af00      	add	r7, sp, #0
	if(!isActive)
 8002e20:	4b0f      	ldr	r3, [pc, #60]	; (8002e60 <mma8653_goStandby+0x44>)
 8002e22:	781b      	ldrb	r3, [r3, #0]
 8002e24:	2b00      	cmp	r3, #0
 8002e26:	d101      	bne.n	8002e2c <mma8653_goStandby+0x10>
	{
		return 0;
 8002e28:	2300      	movs	r3, #0
 8002e2a:	e015      	b.n	8002e58 <mma8653_goStandby+0x3c>
	}
	//reset the Active-bit
	I2C_BitHandling(REG_CTRL_REG_1, 1<<0, 0);
 8002e2c:	2200      	movs	r2, #0
 8002e2e:	2101      	movs	r1, #1
 8002e30:	202a      	movs	r0, #42	; 0x2a
 8002e32:	f7ff ffad 	bl	8002d90 <I2C_BitHandling>
	delay(100);
 8002e36:	2064      	movs	r0, #100	; 0x64
 8002e38:	f7ff fcb4 	bl	80027a4 <delay>
	//check, if the sensor is inactive
	if(I2C_RdReg(REG_SYSMOD,rxBuf,1) != 0)
 8002e3c:	4b09      	ldr	r3, [pc, #36]	; (8002e64 <mma8653_goStandby+0x48>)
 8002e3e:	2201      	movs	r2, #1
 8002e40:	0019      	movs	r1, r3
 8002e42:	200b      	movs	r0, #11
 8002e44:	f7ff feb2 	bl	8002bac <I2C_RdReg>
 8002e48:	1e03      	subs	r3, r0, #0
 8002e4a:	d001      	beq.n	8002e50 <mma8653_goStandby+0x34>
	{
		return 1;
 8002e4c:	2301      	movs	r3, #1
 8002e4e:	e003      	b.n	8002e58 <mma8653_goStandby+0x3c>
	}
	isActive = 0;
 8002e50:	4b03      	ldr	r3, [pc, #12]	; (8002e60 <mma8653_goStandby+0x44>)
 8002e52:	2200      	movs	r2, #0
 8002e54:	701a      	strb	r2, [r3, #0]
	return 0;
 8002e56:	2300      	movs	r3, #0
}
 8002e58:	0018      	movs	r0, r3
 8002e5a:	46bd      	mov	sp, r7
 8002e5c:	bd80      	pop	{r7, pc}
 8002e5e:	46c0      	nop			; (mov r8, r8)
 8002e60:	2000014a 	.word	0x2000014a
 8002e64:	2000039c 	.word	0x2000039c

08002e68 <mma8653_goActive>:
uint8_t mma8653_goActive()
{
 8002e68:	b580      	push	{r7, lr}
 8002e6a:	af00      	add	r7, sp, #0

	if(isActive)
 8002e6c:	4b0f      	ldr	r3, [pc, #60]	; (8002eac <mma8653_goActive+0x44>)
 8002e6e:	781b      	ldrb	r3, [r3, #0]
 8002e70:	2b00      	cmp	r3, #0
 8002e72:	d001      	beq.n	8002e78 <mma8653_goActive+0x10>
	{
		return 0;
 8002e74:	2300      	movs	r3, #0
 8002e76:	e016      	b.n	8002ea6 <mma8653_goActive+0x3e>
	}
	//set the Active-bit
	I2C_BitHandling(REG_CTRL_REG_1, 1<<0, 1);
 8002e78:	2201      	movs	r2, #1
 8002e7a:	2101      	movs	r1, #1
 8002e7c:	202a      	movs	r0, #42	; 0x2a
 8002e7e:	f7ff ff87 	bl	8002d90 <I2C_BitHandling>
	delay(100);
 8002e82:	2064      	movs	r0, #100	; 0x64
 8002e84:	f7ff fc8e 	bl	80027a4 <delay>
	//check, if the sensor is active
	if(I2C_RdReg(REG_SYSMOD,rxBuf,1) != 1)
 8002e88:	4b09      	ldr	r3, [pc, #36]	; (8002eb0 <mma8653_goActive+0x48>)
 8002e8a:	2201      	movs	r2, #1
 8002e8c:	0019      	movs	r1, r3
 8002e8e:	200b      	movs	r0, #11
 8002e90:	f7ff fe8c 	bl	8002bac <I2C_RdReg>
 8002e94:	1e03      	subs	r3, r0, #0
 8002e96:	2b01      	cmp	r3, #1
 8002e98:	d001      	beq.n	8002e9e <mma8653_goActive+0x36>
	{

		return 1;
 8002e9a:	2301      	movs	r3, #1
 8002e9c:	e003      	b.n	8002ea6 <mma8653_goActive+0x3e>
	}
	isActive = 1;
 8002e9e:	4b03      	ldr	r3, [pc, #12]	; (8002eac <mma8653_goActive+0x44>)
 8002ea0:	2201      	movs	r2, #1
 8002ea2:	701a      	strb	r2, [r3, #0]
	return 0;
 8002ea4:	2300      	movs	r3, #0
}
 8002ea6:	0018      	movs	r0, r3
 8002ea8:	46bd      	mov	sp, r7
 8002eaa:	bd80      	pop	{r7, pc}
 8002eac:	2000014a 	.word	0x2000014a
 8002eb0:	2000039c 	.word	0x2000039c

08002eb4 <mma8653_init>:

uint8_t mma8653_init()
{
 8002eb4:	b580      	push	{r7, lr}
 8002eb6:	b08a      	sub	sp, #40	; 0x28
 8002eb8:	af00      	add	r7, sp, #0

	//enable clock for periphery modules
	RCC_AHBPeriphClockCmd(RCC_AHBPeriph_GPIOA, ENABLE);
 8002eba:	2380      	movs	r3, #128	; 0x80
 8002ebc:	029b      	lsls	r3, r3, #10
 8002ebe:	2101      	movs	r1, #1
 8002ec0:	0018      	movs	r0, r3
 8002ec2:	f003 f9af 	bl	8006224 <RCC_AHBPeriphClockCmd>
	RCC_AHBPeriphClockCmd(RCC_AHBPeriph_GPIOF, ENABLE);
 8002ec6:	2380      	movs	r3, #128	; 0x80
 8002ec8:	03db      	lsls	r3, r3, #15
 8002eca:	2101      	movs	r1, #1
 8002ecc:	0018      	movs	r0, r3
 8002ece:	f003 f9a9 	bl	8006224 <RCC_AHBPeriphClockCmd>
	RCC_APB1PeriphClockCmd(RCC_APB1Periph_I2C1, ENABLE);
 8002ed2:	2380      	movs	r3, #128	; 0x80
 8002ed4:	039b      	lsls	r3, r3, #14
 8002ed6:	2101      	movs	r1, #1
 8002ed8:	0018      	movs	r0, r3
 8002eda:	f003 f9e3 	bl	80062a4 <RCC_APB1PeriphClockCmd>

	//gpio init
	GPIO_InitTypeDef GPIO_InitStruct;
	//configure PINs PF0 and PF1 as AF OD out
	GPIO_InitStruct.GPIO_Pin = GPIO_Pin_0 | GPIO_Pin_1;
 8002ede:	2320      	movs	r3, #32
 8002ee0:	18fb      	adds	r3, r7, r3
 8002ee2:	2203      	movs	r2, #3
 8002ee4:	601a      	str	r2, [r3, #0]
	GPIO_InitStruct.GPIO_Mode = GPIO_Mode_AF;
 8002ee6:	2320      	movs	r3, #32
 8002ee8:	18fb      	adds	r3, r7, r3
 8002eea:	2202      	movs	r2, #2
 8002eec:	711a      	strb	r2, [r3, #4]
	GPIO_InitStruct.GPIO_OType = GPIO_OType_OD;
 8002eee:	2320      	movs	r3, #32
 8002ef0:	18fb      	adds	r3, r7, r3
 8002ef2:	2201      	movs	r2, #1
 8002ef4:	719a      	strb	r2, [r3, #6]
	GPIO_InitStruct.GPIO_Speed = GPIO_Speed_Level_1;
 8002ef6:	2320      	movs	r3, #32
 8002ef8:	18fb      	adds	r3, r7, r3
 8002efa:	2200      	movs	r2, #0
 8002efc:	715a      	strb	r2, [r3, #5]
	GPIO_Init(GPIOF, &GPIO_InitStruct);
 8002efe:	2320      	movs	r3, #32
 8002f00:	18fb      	adds	r3, r7, r3
 8002f02:	4a3b      	ldr	r2, [pc, #236]	; (8002ff0 <mma8653_init+0x13c>)
 8002f04:	0019      	movs	r1, r3
 8002f06:	0010      	movs	r0, r2
 8002f08:	f003 fb66 	bl	80065d8 <GPIO_Init>

	//remap
	GPIO_PinAFConfig(GPIOF,GPIO_PinSource0,GPIO_AF_1);
 8002f0c:	4b38      	ldr	r3, [pc, #224]	; (8002ff0 <mma8653_init+0x13c>)
 8002f0e:	2201      	movs	r2, #1
 8002f10:	2100      	movs	r1, #0
 8002f12:	0018      	movs	r0, r3
 8002f14:	f003 fbf8 	bl	8006708 <GPIO_PinAFConfig>
	GPIO_PinAFConfig(GPIOF,GPIO_PinSource1,GPIO_AF_1);
 8002f18:	4b35      	ldr	r3, [pc, #212]	; (8002ff0 <mma8653_init+0x13c>)
 8002f1a:	2201      	movs	r2, #1
 8002f1c:	2101      	movs	r1, #1
 8002f1e:	0018      	movs	r0, r3
 8002f20:	f003 fbf2 	bl	8006708 <GPIO_PinAFConfig>

	//configure PINs PA2 and PA3 as inputs for the interrupt lines
	GPIO_InitStruct.GPIO_Pin = GPIO_Pin_2 | GPIO_Pin_3;
 8002f24:	2320      	movs	r3, #32
 8002f26:	18fb      	adds	r3, r7, r3
 8002f28:	220c      	movs	r2, #12
 8002f2a:	601a      	str	r2, [r3, #0]
	GPIO_InitStruct.GPIO_Mode = GPIO_Mode_IN;
 8002f2c:	2320      	movs	r3, #32
 8002f2e:	18fb      	adds	r3, r7, r3
 8002f30:	2200      	movs	r2, #0
 8002f32:	711a      	strb	r2, [r3, #4]
	GPIO_InitStruct.GPIO_PuPd = GPIO_PuPd_UP;
 8002f34:	2320      	movs	r3, #32
 8002f36:	18fb      	adds	r3, r7, r3
 8002f38:	2201      	movs	r2, #1
 8002f3a:	71da      	strb	r2, [r3, #7]
	GPIO_InitStruct.GPIO_Speed = GPIO_Speed_50MHz;
 8002f3c:	2320      	movs	r3, #32
 8002f3e:	18fb      	adds	r3, r7, r3
 8002f40:	2203      	movs	r2, #3
 8002f42:	715a      	strb	r2, [r3, #5]
	GPIO_Init(GPIOA, &GPIO_InitStruct);
 8002f44:	2320      	movs	r3, #32
 8002f46:	18fa      	adds	r2, r7, r3
 8002f48:	2390      	movs	r3, #144	; 0x90
 8002f4a:	05db      	lsls	r3, r3, #23
 8002f4c:	0011      	movs	r1, r2
 8002f4e:	0018      	movs	r0, r3
 8002f50:	f003 fb42 	bl	80065d8 <GPIO_Init>


	//i2c init
	//I2C_DeInit(I2C1);
	I2C_InitTypeDef I2C_InitStruct;
	I2C_InitStruct.I2C_Ack = I2C_Ack_Enable;
 8002f54:	1d3b      	adds	r3, r7, #4
 8002f56:	2200      	movs	r2, #0
 8002f58:	615a      	str	r2, [r3, #20]
	I2C_InitStruct.I2C_AnalogFilter = I2C_AnalogFilter_Enable;
 8002f5a:	1d3b      	adds	r3, r7, #4
 8002f5c:	2200      	movs	r2, #0
 8002f5e:	605a      	str	r2, [r3, #4]
	I2C_InitStruct.I2C_OwnAddress1 = 0xAB;
 8002f60:	1d3b      	adds	r3, r7, #4
 8002f62:	22ab      	movs	r2, #171	; 0xab
 8002f64:	611a      	str	r2, [r3, #16]
	I2C_InitStruct.I2C_DigitalFilter = 0;
 8002f66:	1d3b      	adds	r3, r7, #4
 8002f68:	2200      	movs	r2, #0
 8002f6a:	609a      	str	r2, [r3, #8]
	I2C_InitStruct.I2C_AcknowledgedAddress = I2C_AcknowledgedAddress_7bit;
 8002f6c:	1d3b      	adds	r3, r7, #4
 8002f6e:	2200      	movs	r2, #0
 8002f70:	619a      	str	r2, [r3, #24]
	I2C_InitStruct.I2C_Mode = I2C_Mode_I2C;
 8002f72:	1d3b      	adds	r3, r7, #4
 8002f74:	2200      	movs	r2, #0
 8002f76:	60da      	str	r2, [r3, #12]
	I2C_InitStruct.I2C_Timing = 0x0010020A; //should be 400kHz for the 8Mhz HSI
 8002f78:	1d3b      	adds	r3, r7, #4
 8002f7a:	4a1e      	ldr	r2, [pc, #120]	; (8002ff4 <mma8653_init+0x140>)
 8002f7c:	601a      	str	r2, [r3, #0]
	I2C_Init(I2C_MMA8653,&I2C_InitStruct);
 8002f7e:	1d3b      	adds	r3, r7, #4
 8002f80:	4a1d      	ldr	r2, [pc, #116]	; (8002ff8 <mma8653_init+0x144>)
 8002f82:	0019      	movs	r1, r3
 8002f84:	0010      	movs	r0, r2
 8002f86:	f003 fa1d 	bl	80063c4 <I2C_Init>

	I2C_Cmd(I2C_MMA8653, ENABLE);
 8002f8a:	4b1b      	ldr	r3, [pc, #108]	; (8002ff8 <mma8653_init+0x144>)
 8002f8c:	2101      	movs	r1, #1
 8002f8e:	0018      	movs	r0, r3
 8002f90:	f003 fa80 	bl	8006494 <I2C_Cmd>

	delay(50);
 8002f94:	2032      	movs	r0, #50	; 0x32
 8002f96:	f7ff fc05 	bl	80027a4 <delay>

	if(I2C_RdReg(REG_WHO_AM_I,rxBuf, 1) != 0x5A)	//read the device ID to verify communication
 8002f9a:	4b18      	ldr	r3, [pc, #96]	; (8002ffc <mma8653_init+0x148>)
 8002f9c:	2201      	movs	r2, #1
 8002f9e:	0019      	movs	r1, r3
 8002fa0:	200d      	movs	r0, #13
 8002fa2:	f7ff fe03 	bl	8002bac <I2C_RdReg>
 8002fa6:	1e03      	subs	r3, r0, #0
 8002fa8:	2b5a      	cmp	r3, #90	; 0x5a
 8002faa:	d001      	beq.n	8002fb0 <mma8653_init+0xfc>
	{
		return 1;
 8002fac:	2301      	movs	r3, #1
 8002fae:	e01b      	b.n	8002fe8 <mma8653_init+0x134>
	}

	//set to highres mode
	I2C_BitHandling(REG_CTRL_REG_2,1<<1,SET);
 8002fb0:	2201      	movs	r2, #1
 8002fb2:	2102      	movs	r1, #2
 8002fb4:	202b      	movs	r0, #43	; 0x2b
 8002fb6:	f7ff feeb 	bl	8002d90 <I2C_BitHandling>

	//set the sensor as always active (disable auto sleep) <- default
	//set to active and 10 bit mode, DataRate to 12.5Hz
	I2C_BitHandling(REG_CTRL_REG_1,(1<<0 | 1<<3 | 1<<5),SET);
 8002fba:	2201      	movs	r2, #1
 8002fbc:	2129      	movs	r1, #41	; 0x29
 8002fbe:	202a      	movs	r0, #42	; 0x2a
 8002fc0:	f7ff fee6 	bl	8002d90 <I2C_BitHandling>

	//check, if the sensor is active
	if(I2C_RdReg(REG_SYSMOD,rxBuf,1) != 1)
 8002fc4:	4b0d      	ldr	r3, [pc, #52]	; (8002ffc <mma8653_init+0x148>)
 8002fc6:	2201      	movs	r2, #1
 8002fc8:	0019      	movs	r1, r3
 8002fca:	200b      	movs	r0, #11
 8002fcc:	f7ff fdee 	bl	8002bac <I2C_RdReg>
 8002fd0:	1e03      	subs	r3, r0, #0
 8002fd2:	2b01      	cmp	r3, #1
 8002fd4:	d004      	beq.n	8002fe0 <mma8653_init+0x12c>
	{
		isActive = 0;
 8002fd6:	4b0a      	ldr	r3, [pc, #40]	; (8003000 <mma8653_init+0x14c>)
 8002fd8:	2200      	movs	r2, #0
 8002fda:	701a      	strb	r2, [r3, #0]
		return 2;
 8002fdc:	2302      	movs	r3, #2
 8002fde:	e003      	b.n	8002fe8 <mma8653_init+0x134>
	}
	isActive = 1;
 8002fe0:	4b07      	ldr	r3, [pc, #28]	; (8003000 <mma8653_init+0x14c>)
 8002fe2:	2201      	movs	r2, #1
 8002fe4:	701a      	strb	r2, [r3, #0]
	return 0;
 8002fe6:	2300      	movs	r3, #0
}
 8002fe8:	0018      	movs	r0, r3
 8002fea:	46bd      	mov	sp, r7
 8002fec:	b00a      	add	sp, #40	; 0x28
 8002fee:	bd80      	pop	{r7, pc}
 8002ff0:	48001400 	.word	0x48001400
 8002ff4:	0010020a 	.word	0x0010020a
 8002ff8:	40005400 	.word	0x40005400
 8002ffc:	2000039c 	.word	0x2000039c
 8003000:	2000014a 	.word	0x2000014a

08003004 <mma8653_setDataWidth>:

uint8_t mma8653_setDataWidth(uint8_t DataWidth)
{
 8003004:	b580      	push	{r7, lr}
 8003006:	b082      	sub	sp, #8
 8003008:	af00      	add	r7, sp, #0
 800300a:	0002      	movs	r2, r0
 800300c:	1dfb      	adds	r3, r7, #7
 800300e:	701a      	strb	r2, [r3, #0]
	//deactivate the sensor
	if(mma8653_goStandby())
 8003010:	f7ff ff04 	bl	8002e1c <mma8653_goStandby>
 8003014:	1e03      	subs	r3, r0, #0
 8003016:	d001      	beq.n	800301c <mma8653_setDataWidth+0x18>
	{
		return 1;
 8003018:	2301      	movs	r3, #1
 800301a:	e020      	b.n	800305e <mma8653_setDataWidth+0x5a>
	}
	//clear bits in register to change
	I2C_BitHandling(REG_CTRL_REG_1, 0x3E, Bit_RESET);
 800301c:	2200      	movs	r2, #0
 800301e:	213e      	movs	r1, #62	; 0x3e
 8003020:	202a      	movs	r0, #42	; 0x2a
 8003022:	f7ff feb5 	bl	8002d90 <I2C_BitHandling>

	//decide what to do
	switch(DataWidth)
 8003026:	1dfb      	adds	r3, r7, #7
 8003028:	781b      	ldrb	r3, [r3, #0]
 800302a:	2b00      	cmp	r3, #0
 800302c:	d002      	beq.n	8003034 <mma8653_setDataWidth+0x30>
 800302e:	2b01      	cmp	r3, #1
 8003030:	d006      	beq.n	8003040 <mma8653_setDataWidth+0x3c>
 8003032:	e00b      	b.n	800304c <mma8653_setDataWidth+0x48>
	{
	case MMA8653_DATAWIDTH_8:
		//set F_READ and leave highest data rate
		I2C_BitHandling(REG_CTRL_REG_1, 1<<1, Bit_SET);
 8003034:	2201      	movs	r2, #1
 8003036:	2102      	movs	r1, #2
 8003038:	202a      	movs	r0, #42	; 0x2a
 800303a:	f7ff fea9 	bl	8002d90 <I2C_BitHandling>
		break;
 800303e:	e007      	b.n	8003050 <mma8653_setDataWidth+0x4c>
	case MMA8653_DATAWIDTH_10:
		//limit output data rate to 12.5Hz and leave F_READ reset
		I2C_BitHandling(REG_CTRL_REG_1,(1<<3 | 1<<5), Bit_SET);
 8003040:	2201      	movs	r2, #1
 8003042:	2128      	movs	r1, #40	; 0x28
 8003044:	202a      	movs	r0, #42	; 0x2a
 8003046:	f7ff fea3 	bl	8002d90 <I2C_BitHandling>
		break;
 800304a:	e001      	b.n	8003050 <mma8653_setDataWidth+0x4c>
	default:
		return 2;
 800304c:	2302      	movs	r3, #2
 800304e:	e006      	b.n	800305e <mma8653_setDataWidth+0x5a>
		break;
	}
	if(mma8653_goActive())
 8003050:	f7ff ff0a 	bl	8002e68 <mma8653_goActive>
 8003054:	1e03      	subs	r3, r0, #0
 8003056:	d001      	beq.n	800305c <mma8653_setDataWidth+0x58>
	{
		return 3;
 8003058:	2303      	movs	r3, #3
 800305a:	e000      	b.n	800305e <mma8653_setDataWidth+0x5a>
	}
	return 0;
 800305c:	2300      	movs	r3, #0
}
 800305e:	0018      	movs	r0, r3
 8003060:	46bd      	mov	sp, r7
 8003062:	b002      	add	sp, #8
 8003064:	bd80      	pop	{r7, pc}
 8003066:	46c0      	nop			; (mov r8, r8)

08003068 <mma8653_read8>:

//read when in fast (8-bit) mode
//needs the fast-read mode enabled as well
//max. sample frequency (because of communication) ~ 7kHz
acc8_t mma8653_read8()
{
 8003068:	b580      	push	{r7, lr}
 800306a:	b084      	sub	sp, #16
 800306c:	af00      	add	r7, sp, #0
	uint8_t rxBuf[3];
	acc8_t acc_result;

	I2C_RdReg(REG_OUT_X_MSB,rxBuf,3);
 800306e:	2308      	movs	r3, #8
 8003070:	18fb      	adds	r3, r7, r3
 8003072:	2203      	movs	r2, #3
 8003074:	0019      	movs	r1, r3
 8003076:	2001      	movs	r0, #1
 8003078:	f7ff fd98 	bl	8002bac <I2C_RdReg>
	//rxbuf[0] contains full 8 bit of data.
	//the first bit defines the sign!
	acc_result.x = rxBuf[0];
 800307c:	2308      	movs	r3, #8
 800307e:	18fb      	adds	r3, r7, r3
 8003080:	781b      	ldrb	r3, [r3, #0]
 8003082:	b25a      	sxtb	r2, r3
 8003084:	1d3b      	adds	r3, r7, #4
 8003086:	701a      	strb	r2, [r3, #0]
	acc_result.y = rxBuf[1];
 8003088:	2308      	movs	r3, #8
 800308a:	18fb      	adds	r3, r7, r3
 800308c:	785b      	ldrb	r3, [r3, #1]
 800308e:	b25a      	sxtb	r2, r3
 8003090:	1d3b      	adds	r3, r7, #4
 8003092:	705a      	strb	r2, [r3, #1]
	acc_result.z = rxBuf[2];
 8003094:	2308      	movs	r3, #8
 8003096:	18fb      	adds	r3, r7, r3
 8003098:	789b      	ldrb	r3, [r3, #2]
 800309a:	b25a      	sxtb	r2, r3
 800309c:	1d3b      	adds	r3, r7, #4
 800309e:	709a      	strb	r2, [r3, #2]
	return acc_result;
 80030a0:	230c      	movs	r3, #12
 80030a2:	18fb      	adds	r3, r7, r3
 80030a4:	1d3a      	adds	r2, r7, #4
 80030a6:	8811      	ldrh	r1, [r2, #0]
 80030a8:	8019      	strh	r1, [r3, #0]
 80030aa:	7892      	ldrb	r2, [r2, #2]
 80030ac:	709a      	strb	r2, [r3, #2]
 80030ae:	230c      	movs	r3, #12
 80030b0:	18fa      	adds	r2, r7, r3
 80030b2:	2300      	movs	r3, #0
 80030b4:	7811      	ldrb	r1, [r2, #0]
 80030b6:	20ff      	movs	r0, #255	; 0xff
 80030b8:	4001      	ands	r1, r0
 80030ba:	20ff      	movs	r0, #255	; 0xff
 80030bc:	4383      	bics	r3, r0
 80030be:	430b      	orrs	r3, r1
 80030c0:	7851      	ldrb	r1, [r2, #1]
 80030c2:	20ff      	movs	r0, #255	; 0xff
 80030c4:	4001      	ands	r1, r0
 80030c6:	0209      	lsls	r1, r1, #8
 80030c8:	4806      	ldr	r0, [pc, #24]	; (80030e4 <mma8653_read8+0x7c>)
 80030ca:	4003      	ands	r3, r0
 80030cc:	430b      	orrs	r3, r1
 80030ce:	7892      	ldrb	r2, [r2, #2]
 80030d0:	21ff      	movs	r1, #255	; 0xff
 80030d2:	400a      	ands	r2, r1
 80030d4:	0412      	lsls	r2, r2, #16
 80030d6:	4904      	ldr	r1, [pc, #16]	; (80030e8 <mma8653_read8+0x80>)
 80030d8:	400b      	ands	r3, r1
 80030da:	4313      	orrs	r3, r2
}
 80030dc:	0018      	movs	r0, r3
 80030de:	46bd      	mov	sp, r7
 80030e0:	b004      	add	sp, #16
 80030e2:	bd80      	pop	{r7, pc}
 80030e4:	ffff00ff 	.word	0xffff00ff
 80030e8:	ff00ffff 	.word	0xff00ffff

080030ec <mma8653_IrqHandler>:
	mma8653_goActive();
}

//TODO: don't forget to register the interrupt handler in startup code
void mma8653_IrqHandler()
{
 80030ec:	b580      	push	{r7, lr}
 80030ee:	af00      	add	r7, sp, #0

}
 80030f0:	46c0      	nop			; (mov r8, r8)
 80030f2:	46bd      	mov	sp, r7
 80030f4:	bd80      	pop	{r7, pc}
 80030f6:	46c0      	nop			; (mov r8, r8)

080030f8 <apa102_init>:
colorRgbi leds[LED_CNT];

uint8_t spiSendData[8+4*LED_CNT];

void apa102_init()
{
 80030f8:	b580      	push	{r7, lr}
 80030fa:	b092      	sub	sp, #72	; 0x48
 80030fc:	af00      	add	r7, sp, #0

	//enable clock for periphery modules
	RCC_AHBPeriphClockCmd(RCC_AHBPeriph_GPIOA, ENABLE);
 80030fe:	2380      	movs	r3, #128	; 0x80
 8003100:	029b      	lsls	r3, r3, #10
 8003102:	2101      	movs	r1, #1
 8003104:	0018      	movs	r0, r3
 8003106:	f003 f88d 	bl	8006224 <RCC_AHBPeriphClockCmd>
	RCC_APB2PeriphClockCmd(RCC_APB2Periph_SPI1, ENABLE);
 800310a:	2380      	movs	r3, #128	; 0x80
 800310c:	015b      	lsls	r3, r3, #5
 800310e:	2101      	movs	r1, #1
 8003110:	0018      	movs	r0, r3
 8003112:	f003 f8a7 	bl	8006264 <RCC_APB2PeriphClockCmd>
	RCC_AHBPeriphClockCmd(RCC_AHBPeriph_DMA1,ENABLE);
 8003116:	2101      	movs	r1, #1
 8003118:	2001      	movs	r0, #1
 800311a:	f003 f883 	bl	8006224 <RCC_AHBPeriphClockCmd>

	//gpio
	GPIO_InitTypeDef GPIO_InitStructure;
	//configure PINs PA7 and PA5 as AF out
	GPIO_InitStructure.GPIO_Pin = GPIO_Pin_5 | GPIO_Pin_7;
 800311e:	2340      	movs	r3, #64	; 0x40
 8003120:	18fb      	adds	r3, r7, r3
 8003122:	22a0      	movs	r2, #160	; 0xa0
 8003124:	601a      	str	r2, [r3, #0]
	GPIO_InitStructure.GPIO_Mode = GPIO_Mode_AF;
 8003126:	2340      	movs	r3, #64	; 0x40
 8003128:	18fb      	adds	r3, r7, r3
 800312a:	2202      	movs	r2, #2
 800312c:	711a      	strb	r2, [r3, #4]
	GPIO_InitStructure.GPIO_OType = GPIO_OType_PP;
 800312e:	2340      	movs	r3, #64	; 0x40
 8003130:	18fb      	adds	r3, r7, r3
 8003132:	2200      	movs	r2, #0
 8003134:	719a      	strb	r2, [r3, #6]
	GPIO_InitStructure.GPIO_Speed = GPIO_Speed_50MHz;
 8003136:	2340      	movs	r3, #64	; 0x40
 8003138:	18fb      	adds	r3, r7, r3
 800313a:	2203      	movs	r2, #3
 800313c:	715a      	strb	r2, [r3, #5]
	GPIO_Init(GPIOA, &GPIO_InitStructure);
 800313e:	2340      	movs	r3, #64	; 0x40
 8003140:	18fa      	adds	r2, r7, r3
 8003142:	2390      	movs	r3, #144	; 0x90
 8003144:	05db      	lsls	r3, r3, #23
 8003146:	0011      	movs	r1, r2
 8003148:	0018      	movs	r0, r3
 800314a:	f003 fa45 	bl	80065d8 <GPIO_Init>

	//init the SPI module
	SPI_InitTypeDef SPI_InitStruct;
	SPI_InitStruct.SPI_BaudRatePrescaler = SPI_BaudRatePrescaler_8;
 800314e:	232c      	movs	r3, #44	; 0x2c
 8003150:	18fb      	adds	r3, r7, r3
 8003152:	2210      	movs	r2, #16
 8003154:	819a      	strh	r2, [r3, #12]
	SPI_InitStruct.SPI_CPHA = SPI_CPHA_2Edge;
 8003156:	232c      	movs	r3, #44	; 0x2c
 8003158:	18fb      	adds	r3, r7, r3
 800315a:	2201      	movs	r2, #1
 800315c:	811a      	strh	r2, [r3, #8]
	SPI_InitStruct.SPI_CPOL = SPI_CPOL_High;
 800315e:	232c      	movs	r3, #44	; 0x2c
 8003160:	18fb      	adds	r3, r7, r3
 8003162:	2202      	movs	r2, #2
 8003164:	80da      	strh	r2, [r3, #6]
	SPI_InitStruct.SPI_DataSize = SPI_DataSize_8b;
 8003166:	232c      	movs	r3, #44	; 0x2c
 8003168:	18fb      	adds	r3, r7, r3
 800316a:	22e0      	movs	r2, #224	; 0xe0
 800316c:	00d2      	lsls	r2, r2, #3
 800316e:	809a      	strh	r2, [r3, #4]
	SPI_InitStruct.SPI_Direction = SPI_Direction_Tx;
 8003170:	232c      	movs	r3, #44	; 0x2c
 8003172:	18fb      	adds	r3, r7, r3
 8003174:	2280      	movs	r2, #128	; 0x80
 8003176:	01d2      	lsls	r2, r2, #7
 8003178:	801a      	strh	r2, [r3, #0]
	SPI_InitStruct.SPI_FirstBit = SPI_FirstBit_MSB;
 800317a:	232c      	movs	r3, #44	; 0x2c
 800317c:	18fb      	adds	r3, r7, r3
 800317e:	2200      	movs	r2, #0
 8003180:	81da      	strh	r2, [r3, #14]
	SPI_InitStruct.SPI_Mode = SPI_Mode_Master;
 8003182:	232c      	movs	r3, #44	; 0x2c
 8003184:	18fb      	adds	r3, r7, r3
 8003186:	2282      	movs	r2, #130	; 0x82
 8003188:	0052      	lsls	r2, r2, #1
 800318a:	805a      	strh	r2, [r3, #2]
	SPI_InitStruct.SPI_NSS = SPI_NSS_Soft;
 800318c:	232c      	movs	r3, #44	; 0x2c
 800318e:	18fb      	adds	r3, r7, r3
 8003190:	2280      	movs	r2, #128	; 0x80
 8003192:	0092      	lsls	r2, r2, #2
 8003194:	815a      	strh	r2, [r3, #10]
	SPI_Init(SPI1, &SPI_InitStruct);
 8003196:	232c      	movs	r3, #44	; 0x2c
 8003198:	18fb      	adds	r3, r7, r3
 800319a:	4a1c      	ldr	r2, [pc, #112]	; (800320c <apa102_init+0x114>)
 800319c:	0019      	movs	r1, r3
 800319e:	0010      	movs	r0, r2
 80031a0:	f002 ff5c 	bl	800605c <SPI_Init>

	SPI_I2S_DMACmd(SPI1,SPI_I2S_DMAReq_Tx,ENABLE);
 80031a4:	4b19      	ldr	r3, [pc, #100]	; (800320c <apa102_init+0x114>)
 80031a6:	2201      	movs	r2, #1
 80031a8:	2102      	movs	r1, #2
 80031aa:	0018      	movs	r0, r3
 80031ac:	f002 fffa 	bl	80061a4 <SPI_I2S_DMACmd>
	//start the SPI module:
	SPI_Cmd(SPI1,ENABLE);
 80031b0:	4b16      	ldr	r3, [pc, #88]	; (800320c <apa102_init+0x114>)
 80031b2:	2101      	movs	r1, #1
 80031b4:	0018      	movs	r0, r3
 80031b6:	f002 ffd5 	bl	8006164 <SPI_Cmd>

	DMA_InitTypeDef DMA_InitStruct;
	DMA_InitStruct.DMA_DIR = DMA_DIR_PeripheralDST;
 80031ba:	003b      	movs	r3, r7
 80031bc:	2210      	movs	r2, #16
 80031be:	609a      	str	r2, [r3, #8]
	DMA_InitStruct.DMA_M2M = DMA_M2M_Disable;
 80031c0:	003b      	movs	r3, r7
 80031c2:	2200      	movs	r2, #0
 80031c4:	629a      	str	r2, [r3, #40]	; 0x28
	DMA_InitStruct.DMA_MemoryBaseAddr = (uint32_t)spiSendData;
 80031c6:	4a12      	ldr	r2, [pc, #72]	; (8003210 <apa102_init+0x118>)
 80031c8:	003b      	movs	r3, r7
 80031ca:	605a      	str	r2, [r3, #4]
	DMA_InitStruct.DMA_MemoryDataSize = DMA_MemoryDataSize_Byte;
 80031cc:	003b      	movs	r3, r7
 80031ce:	2200      	movs	r2, #0
 80031d0:	61da      	str	r2, [r3, #28]
	DMA_InitStruct.DMA_MemoryInc = DMA_MemoryInc_Enable;
 80031d2:	003b      	movs	r3, r7
 80031d4:	2280      	movs	r2, #128	; 0x80
 80031d6:	615a      	str	r2, [r3, #20]
	DMA_InitStruct.DMA_Mode = DMA_Mode_Normal;
 80031d8:	003b      	movs	r3, r7
 80031da:	2200      	movs	r2, #0
 80031dc:	621a      	str	r2, [r3, #32]
	DMA_InitStruct.DMA_PeripheralBaseAddr = (uint32_t)&(SPI1->DR);
 80031de:	003b      	movs	r3, r7
 80031e0:	4a0c      	ldr	r2, [pc, #48]	; (8003214 <apa102_init+0x11c>)
 80031e2:	601a      	str	r2, [r3, #0]
	DMA_InitStruct.DMA_PeripheralDataSize = DMA_PeripheralDataSize_Byte;
 80031e4:	003b      	movs	r3, r7
 80031e6:	2200      	movs	r2, #0
 80031e8:	619a      	str	r2, [r3, #24]
	DMA_InitStruct.DMA_PeripheralInc = DMA_PeripheralInc_Disable;
 80031ea:	003b      	movs	r3, r7
 80031ec:	2200      	movs	r2, #0
 80031ee:	611a      	str	r2, [r3, #16]
	DMA_InitStruct.DMA_Priority = DMA_Priority_High;
 80031f0:	003b      	movs	r3, r7
 80031f2:	2280      	movs	r2, #128	; 0x80
 80031f4:	0192      	lsls	r2, r2, #6
 80031f6:	625a      	str	r2, [r3, #36]	; 0x24
	DMA_Init(DMA1_Channel3, &DMA_InitStruct);
 80031f8:	003b      	movs	r3, r7
 80031fa:	4a07      	ldr	r2, [pc, #28]	; (8003218 <apa102_init+0x120>)
 80031fc:	0019      	movs	r1, r3
 80031fe:	0010      	movs	r0, r2
 8003200:	f003 fad4 	bl	80067ac <DMA_Init>

}
 8003204:	46c0      	nop			; (mov r8, r8)
 8003206:	46bd      	mov	sp, r7
 8003208:	b012      	add	sp, #72	; 0x48
 800320a:	bd80      	pop	{r7, pc}
 800320c:	40013000 	.word	0x40013000
 8003210:	200003e0 	.word	0x200003e0
 8003214:	4001300c 	.word	0x4001300c
 8003218:	40020030 	.word	0x40020030

0800321c <updateStripe>:

void updateStripe()
{
 800321c:	b580      	push	{r7, lr}
 800321e:	b084      	sub	sp, #16
 8003220:	af00      	add	r7, sp, #0
	int ledIdx = 0;
 8003222:	2300      	movs	r3, #0
 8003224:	60fb      	str	r3, [r7, #12]
	DMA_Cmd(DMA1_Channel3, DISABLE);
 8003226:	4b33      	ldr	r3, [pc, #204]	; (80032f4 <updateStripe+0xd8>)
 8003228:	2100      	movs	r1, #0
 800322a:	0018      	movs	r0, r3
 800322c:	f003 fafc 	bl	8006828 <DMA_Cmd>
	//start frame
	for(int i = 0; i < 4; i++)
 8003230:	2300      	movs	r3, #0
 8003232:	60bb      	str	r3, [r7, #8]
 8003234:	e007      	b.n	8003246 <updateStripe+0x2a>
	{
		spiSendData[i] = 0x00;
 8003236:	4a30      	ldr	r2, [pc, #192]	; (80032f8 <updateStripe+0xdc>)
 8003238:	68bb      	ldr	r3, [r7, #8]
 800323a:	18d3      	adds	r3, r2, r3
 800323c:	2200      	movs	r2, #0
 800323e:	701a      	strb	r2, [r3, #0]
void updateStripe()
{
	int ledIdx = 0;
	DMA_Cmd(DMA1_Channel3, DISABLE);
	//start frame
	for(int i = 0; i < 4; i++)
 8003240:	68bb      	ldr	r3, [r7, #8]
 8003242:	3301      	adds	r3, #1
 8003244:	60bb      	str	r3, [r7, #8]
 8003246:	68bb      	ldr	r3, [r7, #8]
 8003248:	2b03      	cmp	r3, #3
 800324a:	ddf4      	ble.n	8003236 <updateStripe+0x1a>
	{
		spiSendData[i] = 0x00;
	}
	for(int i = 4; i < 4 * (LED_CNT + 1); i+= 4)
 800324c:	2304      	movs	r3, #4
 800324e:	607b      	str	r3, [r7, #4]
 8003250:	e030      	b.n	80032b4 <updateStripe+0x98>
	{
		spiSendData[i] = 0xE0 |(leds[ledIdx].global & 0x1F); //global
 8003252:	4b2a      	ldr	r3, [pc, #168]	; (80032fc <updateStripe+0xe0>)
 8003254:	68fa      	ldr	r2, [r7, #12]
 8003256:	0092      	lsls	r2, r2, #2
 8003258:	5cd3      	ldrb	r3, [r2, r3]
 800325a:	2220      	movs	r2, #32
 800325c:	4252      	negs	r2, r2
 800325e:	4313      	orrs	r3, r2
 8003260:	b2d9      	uxtb	r1, r3
 8003262:	4a25      	ldr	r2, [pc, #148]	; (80032f8 <updateStripe+0xdc>)
 8003264:	687b      	ldr	r3, [r7, #4]
 8003266:	18d3      	adds	r3, r2, r3
 8003268:	1c0a      	adds	r2, r1, #0
 800326a:	701a      	strb	r2, [r3, #0]
		spiSendData[i+1] = leds[ledIdx].blue;
 800326c:	687b      	ldr	r3, [r7, #4]
 800326e:	3301      	adds	r3, #1
 8003270:	4922      	ldr	r1, [pc, #136]	; (80032fc <updateStripe+0xe0>)
 8003272:	68fa      	ldr	r2, [r7, #12]
 8003274:	0092      	lsls	r2, r2, #2
 8003276:	188a      	adds	r2, r1, r2
 8003278:	3201      	adds	r2, #1
 800327a:	7811      	ldrb	r1, [r2, #0]
 800327c:	4a1e      	ldr	r2, [pc, #120]	; (80032f8 <updateStripe+0xdc>)
 800327e:	54d1      	strb	r1, [r2, r3]
		spiSendData[i+2] = leds[ledIdx].green;
 8003280:	687b      	ldr	r3, [r7, #4]
 8003282:	3302      	adds	r3, #2
 8003284:	491d      	ldr	r1, [pc, #116]	; (80032fc <updateStripe+0xe0>)
 8003286:	68fa      	ldr	r2, [r7, #12]
 8003288:	0092      	lsls	r2, r2, #2
 800328a:	188a      	adds	r2, r1, r2
 800328c:	3202      	adds	r2, #2
 800328e:	7811      	ldrb	r1, [r2, #0]
 8003290:	4a19      	ldr	r2, [pc, #100]	; (80032f8 <updateStripe+0xdc>)
 8003292:	54d1      	strb	r1, [r2, r3]
		spiSendData[i+3] = leds[ledIdx].red;
 8003294:	687b      	ldr	r3, [r7, #4]
 8003296:	3303      	adds	r3, #3
 8003298:	4918      	ldr	r1, [pc, #96]	; (80032fc <updateStripe+0xe0>)
 800329a:	68fa      	ldr	r2, [r7, #12]
 800329c:	0092      	lsls	r2, r2, #2
 800329e:	188a      	adds	r2, r1, r2
 80032a0:	3203      	adds	r2, #3
 80032a2:	7811      	ldrb	r1, [r2, #0]
 80032a4:	4a14      	ldr	r2, [pc, #80]	; (80032f8 <updateStripe+0xdc>)
 80032a6:	54d1      	strb	r1, [r2, r3]
		ledIdx++;
 80032a8:	68fb      	ldr	r3, [r7, #12]
 80032aa:	3301      	adds	r3, #1
 80032ac:	60fb      	str	r3, [r7, #12]
	//start frame
	for(int i = 0; i < 4; i++)
	{
		spiSendData[i] = 0x00;
	}
	for(int i = 4; i < 4 * (LED_CNT + 1); i+= 4)
 80032ae:	687b      	ldr	r3, [r7, #4]
 80032b0:	3304      	adds	r3, #4
 80032b2:	607b      	str	r3, [r7, #4]
 80032b4:	687b      	ldr	r3, [r7, #4]
 80032b6:	2b43      	cmp	r3, #67	; 0x43
 80032b8:	ddcb      	ble.n	8003252 <updateStripe+0x36>
		spiSendData[i+1] = leds[ledIdx].blue;
		spiSendData[i+2] = leds[ledIdx].green;
		spiSendData[i+3] = leds[ledIdx].red;
		ledIdx++;
	}
	for(int i = 4 * (LED_CNT +1); i < 4 * (LED_CNT+2); i++)
 80032ba:	2344      	movs	r3, #68	; 0x44
 80032bc:	603b      	str	r3, [r7, #0]
 80032be:	e007      	b.n	80032d0 <updateStripe+0xb4>
	{
		spiSendData[i] = 0xFF;
 80032c0:	4a0d      	ldr	r2, [pc, #52]	; (80032f8 <updateStripe+0xdc>)
 80032c2:	683b      	ldr	r3, [r7, #0]
 80032c4:	18d3      	adds	r3, r2, r3
 80032c6:	22ff      	movs	r2, #255	; 0xff
 80032c8:	701a      	strb	r2, [r3, #0]
		spiSendData[i+1] = leds[ledIdx].blue;
		spiSendData[i+2] = leds[ledIdx].green;
		spiSendData[i+3] = leds[ledIdx].red;
		ledIdx++;
	}
	for(int i = 4 * (LED_CNT +1); i < 4 * (LED_CNT+2); i++)
 80032ca:	683b      	ldr	r3, [r7, #0]
 80032cc:	3301      	adds	r3, #1
 80032ce:	603b      	str	r3, [r7, #0]
 80032d0:	683b      	ldr	r3, [r7, #0]
 80032d2:	2b47      	cmp	r3, #71	; 0x47
 80032d4:	ddf4      	ble.n	80032c0 <updateStripe+0xa4>
	{
		spiSendData[i] = 0xFF;
	}
	//now the DMA would only have to send the spiSendData to the SPI tx fifo :)
	DMA_SetCurrDataCounter(DMA1_Channel3,8+4*LED_CNT);
 80032d6:	4b07      	ldr	r3, [pc, #28]	; (80032f4 <updateStripe+0xd8>)
 80032d8:	2148      	movs	r1, #72	; 0x48
 80032da:	0018      	movs	r0, r3
 80032dc:	f003 fac2 	bl	8006864 <DMA_SetCurrDataCounter>
	DMA_Cmd(DMA1_Channel3, ENABLE);
 80032e0:	4b04      	ldr	r3, [pc, #16]	; (80032f4 <updateStripe+0xd8>)
 80032e2:	2101      	movs	r1, #1
 80032e4:	0018      	movs	r0, r3
 80032e6:	f003 fa9f 	bl	8006828 <DMA_Cmd>
//	while(SPI_GetTransmissionFIFOStatus(SPI1) != SPI_TransmissionFIFOStatus_Empty);
//	SPI_SendData8(SPI1, 0xFF);
//	SPI_SendData8(SPI1, 0xFF);
//	SPI_SendData8(SPI1, 0xFF);
//	SPI_SendData8(SPI1, 0xFF);
}
 80032ea:	46c0      	nop			; (mov r8, r8)
 80032ec:	46bd      	mov	sp, r7
 80032ee:	b004      	add	sp, #16
 80032f0:	bd80      	pop	{r7, pc}
 80032f2:	46c0      	nop			; (mov r8, r8)
 80032f4:	40020030 	.word	0x40020030
 80032f8:	200003e0 	.word	0x200003e0
 80032fc:	200003a0 	.word	0x200003a0

08003300 <apa102_setPattern>:

//white only (so far)
//global is only 5 bit (max.31)!
void apa102_setPattern(uint16_t mask, uint8_t global)
{
 8003300:	b580      	push	{r7, lr}
 8003302:	b084      	sub	sp, #16
 8003304:	af00      	add	r7, sp, #0
 8003306:	0002      	movs	r2, r0
 8003308:	1dbb      	adds	r3, r7, #6
 800330a:	801a      	strh	r2, [r3, #0]
 800330c:	1d7b      	adds	r3, r7, #5
 800330e:	1c0a      	adds	r2, r1, #0
 8003310:	701a      	strb	r2, [r3, #0]
	//limit the global value to 5 bits
	if(global > 0x1F)
 8003312:	1d7b      	adds	r3, r7, #5
 8003314:	781b      	ldrb	r3, [r3, #0]
 8003316:	2b1f      	cmp	r3, #31
 8003318:	d902      	bls.n	8003320 <apa102_setPattern+0x20>
	{
		global = 0x1F;
 800331a:	1d7b      	adds	r3, r7, #5
 800331c:	221f      	movs	r2, #31
 800331e:	701a      	strb	r2, [r3, #0]
	}
	for(uint16_t i = 0; i< 16; i++)
 8003320:	230e      	movs	r3, #14
 8003322:	18fb      	adds	r3, r7, r3
 8003324:	2200      	movs	r2, #0
 8003326:	801a      	strh	r2, [r3, #0]
 8003328:	e059      	b.n	80033de <apa102_setPattern+0xde>
		{
			if(mask & (1<<i))
 800332a:	1dbb      	adds	r3, r7, #6
 800332c:	881a      	ldrh	r2, [r3, #0]
 800332e:	230e      	movs	r3, #14
 8003330:	18fb      	adds	r3, r7, r3
 8003332:	881b      	ldrh	r3, [r3, #0]
 8003334:	411a      	asrs	r2, r3
 8003336:	0013      	movs	r3, r2
 8003338:	2201      	movs	r2, #1
 800333a:	4013      	ands	r3, r2
 800333c:	d026      	beq.n	800338c <apa102_setPattern+0x8c>
			{
				leds[i].global = global & 0x1F;
 800333e:	230e      	movs	r3, #14
 8003340:	18fb      	adds	r3, r7, r3
 8003342:	881a      	ldrh	r2, [r3, #0]
 8003344:	1d7b      	adds	r3, r7, #5
 8003346:	781b      	ldrb	r3, [r3, #0]
 8003348:	211f      	movs	r1, #31
 800334a:	400b      	ands	r3, r1
 800334c:	b2d9      	uxtb	r1, r3
 800334e:	4b29      	ldr	r3, [pc, #164]	; (80033f4 <apa102_setPattern+0xf4>)
 8003350:	0092      	lsls	r2, r2, #2
 8003352:	54d1      	strb	r1, [r2, r3]
				leds[i].blue = 255;
 8003354:	230e      	movs	r3, #14
 8003356:	18fb      	adds	r3, r7, r3
 8003358:	881b      	ldrh	r3, [r3, #0]
 800335a:	4a26      	ldr	r2, [pc, #152]	; (80033f4 <apa102_setPattern+0xf4>)
 800335c:	009b      	lsls	r3, r3, #2
 800335e:	18d3      	adds	r3, r2, r3
 8003360:	3301      	adds	r3, #1
 8003362:	22ff      	movs	r2, #255	; 0xff
 8003364:	701a      	strb	r2, [r3, #0]
				leds[i].green = 255;
 8003366:	230e      	movs	r3, #14
 8003368:	18fb      	adds	r3, r7, r3
 800336a:	881b      	ldrh	r3, [r3, #0]
 800336c:	4a21      	ldr	r2, [pc, #132]	; (80033f4 <apa102_setPattern+0xf4>)
 800336e:	009b      	lsls	r3, r3, #2
 8003370:	18d3      	adds	r3, r2, r3
 8003372:	3302      	adds	r3, #2
 8003374:	22ff      	movs	r2, #255	; 0xff
 8003376:	701a      	strb	r2, [r3, #0]
				leds[i].red = 255;
 8003378:	230e      	movs	r3, #14
 800337a:	18fb      	adds	r3, r7, r3
 800337c:	881b      	ldrh	r3, [r3, #0]
 800337e:	4a1d      	ldr	r2, [pc, #116]	; (80033f4 <apa102_setPattern+0xf4>)
 8003380:	009b      	lsls	r3, r3, #2
 8003382:	18d3      	adds	r3, r2, r3
 8003384:	3303      	adds	r3, #3
 8003386:	22ff      	movs	r2, #255	; 0xff
 8003388:	701a      	strb	r2, [r3, #0]
 800338a:	e021      	b.n	80033d0 <apa102_setPattern+0xd0>
			}
			else
			{
				leds[i].global = 0;
 800338c:	230e      	movs	r3, #14
 800338e:	18fb      	adds	r3, r7, r3
 8003390:	881a      	ldrh	r2, [r3, #0]
 8003392:	4b18      	ldr	r3, [pc, #96]	; (80033f4 <apa102_setPattern+0xf4>)
 8003394:	0092      	lsls	r2, r2, #2
 8003396:	2100      	movs	r1, #0
 8003398:	54d1      	strb	r1, [r2, r3]
				leds[i].blue = 0;
 800339a:	230e      	movs	r3, #14
 800339c:	18fb      	adds	r3, r7, r3
 800339e:	881b      	ldrh	r3, [r3, #0]
 80033a0:	4a14      	ldr	r2, [pc, #80]	; (80033f4 <apa102_setPattern+0xf4>)
 80033a2:	009b      	lsls	r3, r3, #2
 80033a4:	18d3      	adds	r3, r2, r3
 80033a6:	3301      	adds	r3, #1
 80033a8:	2200      	movs	r2, #0
 80033aa:	701a      	strb	r2, [r3, #0]
				leds[i].green = 0;
 80033ac:	230e      	movs	r3, #14
 80033ae:	18fb      	adds	r3, r7, r3
 80033b0:	881b      	ldrh	r3, [r3, #0]
 80033b2:	4a10      	ldr	r2, [pc, #64]	; (80033f4 <apa102_setPattern+0xf4>)
 80033b4:	009b      	lsls	r3, r3, #2
 80033b6:	18d3      	adds	r3, r2, r3
 80033b8:	3302      	adds	r3, #2
 80033ba:	2200      	movs	r2, #0
 80033bc:	701a      	strb	r2, [r3, #0]
				leds[i].red = 0;
 80033be:	230e      	movs	r3, #14
 80033c0:	18fb      	adds	r3, r7, r3
 80033c2:	881b      	ldrh	r3, [r3, #0]
 80033c4:	4a0b      	ldr	r2, [pc, #44]	; (80033f4 <apa102_setPattern+0xf4>)
 80033c6:	009b      	lsls	r3, r3, #2
 80033c8:	18d3      	adds	r3, r2, r3
 80033ca:	3303      	adds	r3, #3
 80033cc:	2200      	movs	r2, #0
 80033ce:	701a      	strb	r2, [r3, #0]
	//limit the global value to 5 bits
	if(global > 0x1F)
	{
		global = 0x1F;
	}
	for(uint16_t i = 0; i< 16; i++)
 80033d0:	230e      	movs	r3, #14
 80033d2:	18fb      	adds	r3, r7, r3
 80033d4:	881a      	ldrh	r2, [r3, #0]
 80033d6:	230e      	movs	r3, #14
 80033d8:	18fb      	adds	r3, r7, r3
 80033da:	3201      	adds	r2, #1
 80033dc:	801a      	strh	r2, [r3, #0]
 80033de:	230e      	movs	r3, #14
 80033e0:	18fb      	adds	r3, r7, r3
 80033e2:	881b      	ldrh	r3, [r3, #0]
 80033e4:	2b0f      	cmp	r3, #15
 80033e6:	d9a0      	bls.n	800332a <apa102_setPattern+0x2a>
				leds[i].blue = 0;
				leds[i].green = 0;
				leds[i].red = 0;
			}
		}
		updateStripe();
 80033e8:	f7ff ff18 	bl	800321c <updateStripe>
}
 80033ec:	46c0      	nop			; (mov r8, r8)
 80033ee:	46bd      	mov	sp, r7
 80033f0:	b004      	add	sp, #16
 80033f2:	bd80      	pop	{r7, pc}
 80033f4:	200003a0 	.word	0x200003a0

080033f8 <dbgLED_init>:
#include "dbgLED.h"
#include "stm32f0xx_gpio.h"
#include "stm32f0xx_rcc.h"

void dbgLED_init()
{
 80033f8:	b580      	push	{r7, lr}
 80033fa:	af00      	add	r7, sp, #0
	GPIO_InitStructure.GPIO_Mode = GPIO_Mode_OUT;
	GPIO_InitStructure.GPIO_OType = GPIO_OType_PP;
	GPIO_InitStructure.GPIO_Speed = GPIO_Speed_50MHz;
	GPIO_Init(GPIOA, &GPIO_InitStructure);
#endif
}
 80033fc:	46c0      	nop			; (mov r8, r8)
 80033fe:	46bd      	mov	sp, r7
 8003400:	bd80      	pop	{r7, pc}
 8003402:	46c0      	nop			; (mov r8, r8)

08003404 <dbgLED_on>:

void dbgLED_on()
{
 8003404:	b580      	push	{r7, lr}
 8003406:	af00      	add	r7, sp, #0
#ifdef	DBG_LED_ENABLED
	GPIO_WriteBit(GPIOA,GPIO_Pin_14,Bit_SET);
#endif
}
 8003408:	46c0      	nop			; (mov r8, r8)
 800340a:	46bd      	mov	sp, r7
 800340c:	bd80      	pop	{r7, pc}
 800340e:	46c0      	nop			; (mov r8, r8)

08003410 <dbgLED_off>:
void dbgLED_off()
{
 8003410:	b580      	push	{r7, lr}
 8003412:	af00      	add	r7, sp, #0
#ifdef	DBG_LED_ENABLED
	GPIO_WriteBit(GPIOA,GPIO_Pin_14,Bit_RESET);
#endif
}
 8003414:	46c0      	nop			; (mov r8, r8)
 8003416:	46bd      	mov	sp, r7
 8003418:	bd80      	pop	{r7, pc}
 800341a:	46c0      	nop			; (mov r8, r8)

0800341c <USBD_StdDevReq>:
  * @param  pdev: device instance
  * @param  req: usb request
  * @retval status
  */
USBD_Status  USBD_StdDevReq (USB_CORE_HANDLE  *pdev, USB_SETUP_REQ  *req)
{
 800341c:	b580      	push	{r7, lr}
 800341e:	b084      	sub	sp, #16
 8003420:	af00      	add	r7, sp, #0
 8003422:	6078      	str	r0, [r7, #4]
 8003424:	6039      	str	r1, [r7, #0]
  USBD_Status ret = USBD_OK;  
 8003426:	230f      	movs	r3, #15
 8003428:	18fb      	adds	r3, r7, r3
 800342a:	2200      	movs	r2, #0
 800342c:	701a      	strb	r2, [r3, #0]
  
  switch (req->bRequest) 
 800342e:	683b      	ldr	r3, [r7, #0]
 8003430:	785b      	ldrb	r3, [r3, #1]
 8003432:	2b09      	cmp	r3, #9
 8003434:	d835      	bhi.n	80034a2 <USBD_StdDevReq+0x86>
 8003436:	009a      	lsls	r2, r3, #2
 8003438:	4b21      	ldr	r3, [pc, #132]	; (80034c0 <USBD_StdDevReq+0xa4>)
 800343a:	18d3      	adds	r3, r2, r3
 800343c:	681b      	ldr	r3, [r3, #0]
 800343e:	469f      	mov	pc, r3
  {
  case USB_REQ_GET_DESCRIPTOR: 
    
    USBD_GetDescriptor (pdev, req) ;
 8003440:	683a      	ldr	r2, [r7, #0]
 8003442:	687b      	ldr	r3, [r7, #4]
 8003444:	0011      	movs	r1, r2
 8003446:	0018      	movs	r0, r3
 8003448:	f000 f98e 	bl	8003768 <USBD_GetDescriptor>
    break;
 800344c:	e030      	b.n	80034b0 <USBD_StdDevReq+0x94>
    
  case USB_REQ_SET_ADDRESS:                      
    USBD_SetAddress(pdev, req);
 800344e:	683a      	ldr	r2, [r7, #0]
 8003450:	687b      	ldr	r3, [r7, #4]
 8003452:	0011      	movs	r1, r2
 8003454:	0018      	movs	r0, r3
 8003456:	f000 fa6f 	bl	8003938 <USBD_SetAddress>
    break;
 800345a:	e029      	b.n	80034b0 <USBD_StdDevReq+0x94>
    
  case USB_REQ_SET_CONFIGURATION:                    
    USBD_SetConfig (pdev , req);
 800345c:	683a      	ldr	r2, [r7, #0]
 800345e:	687b      	ldr	r3, [r7, #4]
 8003460:	0011      	movs	r1, r2
 8003462:	0018      	movs	r0, r3
 8003464:	f000 fab0 	bl	80039c8 <USBD_SetConfig>
    break;
 8003468:	e022      	b.n	80034b0 <USBD_StdDevReq+0x94>
    
  case USB_REQ_GET_CONFIGURATION:                 
    USBD_GetConfig (pdev , req);
 800346a:	683a      	ldr	r2, [r7, #0]
 800346c:	687b      	ldr	r3, [r7, #4]
 800346e:	0011      	movs	r1, r2
 8003470:	0018      	movs	r0, r3
 8003472:	f000 fb27 	bl	8003ac4 <USBD_GetConfig>
    break;
 8003476:	e01b      	b.n	80034b0 <USBD_StdDevReq+0x94>
    
  case USB_REQ_GET_STATUS:                                  
    USBD_GetStatus (pdev , req);
 8003478:	683a      	ldr	r2, [r7, #0]
 800347a:	687b      	ldr	r3, [r7, #4]
 800347c:	0011      	movs	r1, r2
 800347e:	0018      	movs	r0, r3
 8003480:	f000 fb54 	bl	8003b2c <USBD_GetStatus>
    break;
 8003484:	e014      	b.n	80034b0 <USBD_StdDevReq+0x94>
    
    
  case USB_REQ_SET_FEATURE:   
    USBD_SetFeature (pdev , req);    
 8003486:	683a      	ldr	r2, [r7, #0]
 8003488:	687b      	ldr	r3, [r7, #4]
 800348a:	0011      	movs	r1, r2
 800348c:	0018      	movs	r0, r3
 800348e:	f000 fb77 	bl	8003b80 <USBD_SetFeature>
    break;
 8003492:	e00d      	b.n	80034b0 <USBD_StdDevReq+0x94>
    
  case USB_REQ_CLEAR_FEATURE:                                   
    USBD_ClrFeature (pdev , req);
 8003494:	683a      	ldr	r2, [r7, #0]
 8003496:	687b      	ldr	r3, [r7, #4]
 8003498:	0011      	movs	r1, r2
 800349a:	0018      	movs	r0, r3
 800349c:	f000 fb8e 	bl	8003bbc <USBD_ClrFeature>
    break;
 80034a0:	e006      	b.n	80034b0 <USBD_StdDevReq+0x94>
    
  default:  
    USBD_CtlError(pdev , req);
 80034a2:	683a      	ldr	r2, [r7, #0]
 80034a4:	687b      	ldr	r3, [r7, #4]
 80034a6:	0011      	movs	r1, r2
 80034a8:	0018      	movs	r0, r3
 80034aa:	f000 fbf1 	bl	8003c90 <USBD_CtlError>
    break;
 80034ae:	46c0      	nop			; (mov r8, r8)
  }
  
  return ret;
 80034b0:	230f      	movs	r3, #15
 80034b2:	18fb      	adds	r3, r7, r3
 80034b4:	781b      	ldrb	r3, [r3, #0]
}
 80034b6:	0018      	movs	r0, r3
 80034b8:	46bd      	mov	sp, r7
 80034ba:	b004      	add	sp, #16
 80034bc:	bd80      	pop	{r7, pc}
 80034be:	46c0      	nop			; (mov r8, r8)
 80034c0:	08007598 	.word	0x08007598

080034c4 <USBD_StdItfReq>:
  * @param  pdev: USB device instance
  * @param  req: usb request
  * @retval status
  */
USBD_Status  USBD_StdItfReq (USB_CORE_HANDLE  *pdev, USB_SETUP_REQ  *req)
{
 80034c4:	b590      	push	{r4, r7, lr}
 80034c6:	b085      	sub	sp, #20
 80034c8:	af00      	add	r7, sp, #0
 80034ca:	6078      	str	r0, [r7, #4]
 80034cc:	6039      	str	r1, [r7, #0]
  USBD_Status ret = USBD_OK; 
 80034ce:	230f      	movs	r3, #15
 80034d0:	18fb      	adds	r3, r7, r3
 80034d2:	2200      	movs	r2, #0
 80034d4:	701a      	strb	r2, [r3, #0]
  
  switch (pdev->dev.device_status) 
 80034d6:	687b      	ldr	r3, [r7, #4]
 80034d8:	789b      	ldrb	r3, [r3, #2]
 80034da:	2b03      	cmp	r3, #3
 80034dc:	d126      	bne.n	800352c <USBD_StdItfReq+0x68>
  {
  case USB_CONFIGURED:
    
    if (LOBYTE(req->wIndex) <= USBD_ITF_MAX_NUM) 
 80034de:	683b      	ldr	r3, [r7, #0]
 80034e0:	889b      	ldrh	r3, [r3, #4]
 80034e2:	b2db      	uxtb	r3, r3
 80034e4:	2b01      	cmp	r3, #1
 80034e6:	d81a      	bhi.n	800351e <USBD_StdItfReq+0x5a>
    {
      ret = (USBD_Status) (pdev->dev.class_cb->Setup (pdev, req)); 
 80034e8:	687a      	ldr	r2, [r7, #4]
 80034ea:	23ac      	movs	r3, #172	; 0xac
 80034ec:	005b      	lsls	r3, r3, #1
 80034ee:	58d3      	ldr	r3, [r2, r3]
 80034f0:	689b      	ldr	r3, [r3, #8]
 80034f2:	220f      	movs	r2, #15
 80034f4:	18bc      	adds	r4, r7, r2
 80034f6:	6839      	ldr	r1, [r7, #0]
 80034f8:	687a      	ldr	r2, [r7, #4]
 80034fa:	0010      	movs	r0, r2
 80034fc:	4798      	blx	r3
 80034fe:	0003      	movs	r3, r0
 8003500:	7023      	strb	r3, [r4, #0]
      
      if((req->wLength == 0)&& (ret == USBD_OK))
 8003502:	683b      	ldr	r3, [r7, #0]
 8003504:	88db      	ldrh	r3, [r3, #6]
 8003506:	2b00      	cmp	r3, #0
 8003508:	d117      	bne.n	800353a <USBD_StdItfReq+0x76>
 800350a:	230f      	movs	r3, #15
 800350c:	18fb      	adds	r3, r7, r3
 800350e:	781b      	ldrb	r3, [r3, #0]
 8003510:	2b00      	cmp	r3, #0
 8003512:	d112      	bne.n	800353a <USBD_StdItfReq+0x76>
      {
         USBD_CtlSendStatus(pdev);
 8003514:	687b      	ldr	r3, [r7, #4]
 8003516:	0018      	movs	r0, r3
 8003518:	f000 fcba 	bl	8003e90 <USBD_CtlSendStatus>
    } 
    else 
    {                                               
       USBD_CtlError(pdev , req);
    }
    break;
 800351c:	e00d      	b.n	800353a <USBD_StdItfReq+0x76>
         USBD_CtlSendStatus(pdev);
      }
    } 
    else 
    {                                               
       USBD_CtlError(pdev , req);
 800351e:	683a      	ldr	r2, [r7, #0]
 8003520:	687b      	ldr	r3, [r7, #4]
 8003522:	0011      	movs	r1, r2
 8003524:	0018      	movs	r0, r3
 8003526:	f000 fbb3 	bl	8003c90 <USBD_CtlError>
    }
    break;
 800352a:	e006      	b.n	800353a <USBD_StdItfReq+0x76>
    
  default:
     USBD_CtlError(pdev , req);
 800352c:	683a      	ldr	r2, [r7, #0]
 800352e:	687b      	ldr	r3, [r7, #4]
 8003530:	0011      	movs	r1, r2
 8003532:	0018      	movs	r0, r3
 8003534:	f000 fbac 	bl	8003c90 <USBD_CtlError>
    break;
 8003538:	e000      	b.n	800353c <USBD_StdItfReq+0x78>
    } 
    else 
    {                                               
       USBD_CtlError(pdev , req);
    }
    break;
 800353a:	46c0      	nop			; (mov r8, r8)
    
  default:
     USBD_CtlError(pdev , req);
    break;
  }
  return ret;
 800353c:	230f      	movs	r3, #15
 800353e:	18fb      	adds	r3, r7, r3
 8003540:	781b      	ldrb	r3, [r3, #0]
}
 8003542:	0018      	movs	r0, r3
 8003544:	46bd      	mov	sp, r7
 8003546:	b005      	add	sp, #20
 8003548:	bd90      	pop	{r4, r7, pc}
 800354a:	46c0      	nop			; (mov r8, r8)

0800354c <USBD_StdEPReq>:
  * @param  pdev: USB device instance
  * @param  req: usb request
  * @retval status
  */
USBD_Status  USBD_StdEPReq (USB_CORE_HANDLE  *pdev, USB_SETUP_REQ  *req)
{
 800354c:	b580      	push	{r7, lr}
 800354e:	b084      	sub	sp, #16
 8003550:	af00      	add	r7, sp, #0
 8003552:	6078      	str	r0, [r7, #4]
 8003554:	6039      	str	r1, [r7, #0]
  
  uint8_t   ep_addr;
  uint32_t USBD_ep_status  = 0; 
 8003556:	2300      	movs	r3, #0
 8003558:	60bb      	str	r3, [r7, #8]
  USBD_Status ret = USBD_OK; 
 800355a:	230f      	movs	r3, #15
 800355c:	18fb      	adds	r3, r7, r3
 800355e:	2200      	movs	r2, #0
 8003560:	701a      	strb	r2, [r3, #0]
  
  ep_addr  = LOBYTE(req->wIndex);   
 8003562:	683b      	ldr	r3, [r7, #0]
 8003564:	889a      	ldrh	r2, [r3, #4]
 8003566:	230e      	movs	r3, #14
 8003568:	18fb      	adds	r3, r7, r3
 800356a:	701a      	strb	r2, [r3, #0]
  
  switch (req->bRequest) 
 800356c:	683b      	ldr	r3, [r7, #0]
 800356e:	785b      	ldrb	r3, [r3, #1]
 8003570:	2b01      	cmp	r3, #1
 8003572:	d04c      	beq.n	800360e <USBD_StdEPReq+0xc2>
 8003574:	2b03      	cmp	r3, #3
 8003576:	d003      	beq.n	8003580 <USBD_StdEPReq+0x34>
 8003578:	2b00      	cmp	r3, #0
 800357a:	d100      	bne.n	800357e <USBD_StdEPReq+0x32>
 800357c:	e08e      	b.n	800369c <USBD_StdEPReq+0x150>
      break;
    }
    break;
    
  default:
    break;
 800357e:	e0ec      	b.n	800375a <USBD_StdEPReq+0x20e>
  
  switch (req->bRequest) 
  {  
  case USB_REQ_SET_FEATURE :
    
    switch (pdev->dev.device_status) 
 8003580:	687b      	ldr	r3, [r7, #4]
 8003582:	789b      	ldrb	r3, [r3, #2]
 8003584:	2b02      	cmp	r3, #2
 8003586:	d002      	beq.n	800358e <USBD_StdEPReq+0x42>
 8003588:	2b03      	cmp	r3, #3
 800358a:	d013      	beq.n	80035b4 <USBD_StdEPReq+0x68>
 800358c:	e036      	b.n	80035fc <USBD_StdEPReq+0xb0>
    {
    case USB_ADDRESSED:          
      if ((ep_addr != 0x00) && (ep_addr != 0x80)) 
 800358e:	230e      	movs	r3, #14
 8003590:	18fb      	adds	r3, r7, r3
 8003592:	781b      	ldrb	r3, [r3, #0]
 8003594:	2b00      	cmp	r3, #0
 8003596:	d038      	beq.n	800360a <USBD_StdEPReq+0xbe>
 8003598:	230e      	movs	r3, #14
 800359a:	18fb      	adds	r3, r7, r3
 800359c:	781b      	ldrb	r3, [r3, #0]
 800359e:	2b80      	cmp	r3, #128	; 0x80
 80035a0:	d033      	beq.n	800360a <USBD_StdEPReq+0xbe>
      {
        DCD_EP_Stall(pdev , ep_addr);
 80035a2:	230e      	movs	r3, #14
 80035a4:	18fb      	adds	r3, r7, r3
 80035a6:	781a      	ldrb	r2, [r3, #0]
 80035a8:	687b      	ldr	r3, [r7, #4]
 80035aa:	0011      	movs	r1, r2
 80035ac:	0018      	movs	r0, r3
 80035ae:	f001 ff7b 	bl	80054a8 <DCD_EP_Stall>
      }
      break;	
 80035b2:	e02a      	b.n	800360a <USBD_StdEPReq+0xbe>
      
    case USB_CONFIGURED:   
      if (req->wValue == USB_FEATURE_EP_HALT)
 80035b4:	683b      	ldr	r3, [r7, #0]
 80035b6:	885b      	ldrh	r3, [r3, #2]
 80035b8:	2b00      	cmp	r3, #0
 80035ba:	d111      	bne.n	80035e0 <USBD_StdEPReq+0x94>
      {
        if ((ep_addr != 0x00) && (ep_addr != 0x80)) 
 80035bc:	230e      	movs	r3, #14
 80035be:	18fb      	adds	r3, r7, r3
 80035c0:	781b      	ldrb	r3, [r3, #0]
 80035c2:	2b00      	cmp	r3, #0
 80035c4:	d00c      	beq.n	80035e0 <USBD_StdEPReq+0x94>
 80035c6:	230e      	movs	r3, #14
 80035c8:	18fb      	adds	r3, r7, r3
 80035ca:	781b      	ldrb	r3, [r3, #0]
 80035cc:	2b80      	cmp	r3, #128	; 0x80
 80035ce:	d007      	beq.n	80035e0 <USBD_StdEPReq+0x94>
        { 
          DCD_EP_Stall(pdev , ep_addr);
 80035d0:	230e      	movs	r3, #14
 80035d2:	18fb      	adds	r3, r7, r3
 80035d4:	781a      	ldrb	r2, [r3, #0]
 80035d6:	687b      	ldr	r3, [r7, #4]
 80035d8:	0011      	movs	r1, r2
 80035da:	0018      	movs	r0, r3
 80035dc:	f001 ff64 	bl	80054a8 <DCD_EP_Stall>
          
        }
      }
      pdev->dev.class_cb->Setup (pdev, req);   
 80035e0:	687a      	ldr	r2, [r7, #4]
 80035e2:	23ac      	movs	r3, #172	; 0xac
 80035e4:	005b      	lsls	r3, r3, #1
 80035e6:	58d3      	ldr	r3, [r2, r3]
 80035e8:	689b      	ldr	r3, [r3, #8]
 80035ea:	6839      	ldr	r1, [r7, #0]
 80035ec:	687a      	ldr	r2, [r7, #4]
 80035ee:	0010      	movs	r0, r2
 80035f0:	4798      	blx	r3
      USBD_CtlSendStatus(pdev);
 80035f2:	687b      	ldr	r3, [r7, #4]
 80035f4:	0018      	movs	r0, r3
 80035f6:	f000 fc4b 	bl	8003e90 <USBD_CtlSendStatus>
      
      break;
 80035fa:	e007      	b.n	800360c <USBD_StdEPReq+0xc0>
      
    default:                         
      USBD_CtlError(pdev , req);
 80035fc:	683a      	ldr	r2, [r7, #0]
 80035fe:	687b      	ldr	r3, [r7, #4]
 8003600:	0011      	movs	r1, r2
 8003602:	0018      	movs	r0, r3
 8003604:	f000 fb44 	bl	8003c90 <USBD_CtlError>
      break;    
 8003608:	e000      	b.n	800360c <USBD_StdEPReq+0xc0>
    case USB_ADDRESSED:          
      if ((ep_addr != 0x00) && (ep_addr != 0x80)) 
      {
        DCD_EP_Stall(pdev , ep_addr);
      }
      break;	
 800360a:	46c0      	nop			; (mov r8, r8)
      
    default:                         
      USBD_CtlError(pdev , req);
      break;    
    }
    break;
 800360c:	e0a5      	b.n	800375a <USBD_StdEPReq+0x20e>
    
  case USB_REQ_CLEAR_FEATURE :
    
    switch (pdev->dev.device_status) 
 800360e:	687b      	ldr	r3, [r7, #4]
 8003610:	789b      	ldrb	r3, [r3, #2]
 8003612:	2b02      	cmp	r3, #2
 8003614:	d002      	beq.n	800361c <USBD_StdEPReq+0xd0>
 8003616:	2b03      	cmp	r3, #3
 8003618:	d013      	beq.n	8003642 <USBD_StdEPReq+0xf6>
 800361a:	e036      	b.n	800368a <USBD_StdEPReq+0x13e>
    {
    case USB_ADDRESSED:          
      if ((ep_addr != 0x00) && (ep_addr != 0x80)) 
 800361c:	230e      	movs	r3, #14
 800361e:	18fb      	adds	r3, r7, r3
 8003620:	781b      	ldrb	r3, [r3, #0]
 8003622:	2b00      	cmp	r3, #0
 8003624:	d038      	beq.n	8003698 <USBD_StdEPReq+0x14c>
 8003626:	230e      	movs	r3, #14
 8003628:	18fb      	adds	r3, r7, r3
 800362a:	781b      	ldrb	r3, [r3, #0]
 800362c:	2b80      	cmp	r3, #128	; 0x80
 800362e:	d033      	beq.n	8003698 <USBD_StdEPReq+0x14c>
      {
        DCD_EP_Stall(pdev , ep_addr);
 8003630:	230e      	movs	r3, #14
 8003632:	18fb      	adds	r3, r7, r3
 8003634:	781a      	ldrb	r2, [r3, #0]
 8003636:	687b      	ldr	r3, [r7, #4]
 8003638:	0011      	movs	r1, r2
 800363a:	0018      	movs	r0, r3
 800363c:	f001 ff34 	bl	80054a8 <DCD_EP_Stall>
      }
      break;	
 8003640:	e02a      	b.n	8003698 <USBD_StdEPReq+0x14c>
      
    case USB_CONFIGURED:   
      if (req->wValue == USB_FEATURE_EP_HALT)
 8003642:	683b      	ldr	r3, [r7, #0]
 8003644:	885b      	ldrh	r3, [r3, #2]
 8003646:	2b00      	cmp	r3, #0
 8003648:	d111      	bne.n	800366e <USBD_StdEPReq+0x122>
      {
        if ((ep_addr != 0x00) && (ep_addr != 0x80)) 
 800364a:	230e      	movs	r3, #14
 800364c:	18fb      	adds	r3, r7, r3
 800364e:	781b      	ldrb	r3, [r3, #0]
 8003650:	2b00      	cmp	r3, #0
 8003652:	d00c      	beq.n	800366e <USBD_StdEPReq+0x122>
 8003654:	230e      	movs	r3, #14
 8003656:	18fb      	adds	r3, r7, r3
 8003658:	781b      	ldrb	r3, [r3, #0]
 800365a:	2b80      	cmp	r3, #128	; 0x80
 800365c:	d007      	beq.n	800366e <USBD_StdEPReq+0x122>
        {        
          DCD_EP_ClrStall(pdev , ep_addr);
 800365e:	230e      	movs	r3, #14
 8003660:	18fb      	adds	r3, r7, r3
 8003662:	781a      	ldrb	r2, [r3, #0]
 8003664:	687b      	ldr	r3, [r7, #4]
 8003666:	0011      	movs	r1, r2
 8003668:	0018      	movs	r0, r3
 800366a:	f001 ff8b 	bl	8005584 <DCD_EP_ClrStall>
        }
      }
      pdev->dev.class_cb->Setup (pdev, req);
 800366e:	687a      	ldr	r2, [r7, #4]
 8003670:	23ac      	movs	r3, #172	; 0xac
 8003672:	005b      	lsls	r3, r3, #1
 8003674:	58d3      	ldr	r3, [r2, r3]
 8003676:	689b      	ldr	r3, [r3, #8]
 8003678:	6839      	ldr	r1, [r7, #0]
 800367a:	687a      	ldr	r2, [r7, #4]
 800367c:	0010      	movs	r0, r2
 800367e:	4798      	blx	r3
      USBD_CtlSendStatus(pdev);
 8003680:	687b      	ldr	r3, [r7, #4]
 8003682:	0018      	movs	r0, r3
 8003684:	f000 fc04 	bl	8003e90 <USBD_CtlSendStatus>
      break;
 8003688:	e007      	b.n	800369a <USBD_StdEPReq+0x14e>
      
    default:                         
       USBD_CtlError(pdev , req);
 800368a:	683a      	ldr	r2, [r7, #0]
 800368c:	687b      	ldr	r3, [r7, #4]
 800368e:	0011      	movs	r1, r2
 8003690:	0018      	movs	r0, r3
 8003692:	f000 fafd 	bl	8003c90 <USBD_CtlError>
      break;    
 8003696:	e000      	b.n	800369a <USBD_StdEPReq+0x14e>
    case USB_ADDRESSED:          
      if ((ep_addr != 0x00) && (ep_addr != 0x80)) 
      {
        DCD_EP_Stall(pdev , ep_addr);
      }
      break;	
 8003698:	46c0      	nop			; (mov r8, r8)
      
    default:                         
       USBD_CtlError(pdev , req);
      break;    
    }
    break;
 800369a:	e05e      	b.n	800375a <USBD_StdEPReq+0x20e>
    
  case USB_REQ_GET_STATUS:                  
    switch (pdev->dev.device_status) 
 800369c:	687b      	ldr	r3, [r7, #4]
 800369e:	789b      	ldrb	r3, [r3, #2]
 80036a0:	2b02      	cmp	r3, #2
 80036a2:	d002      	beq.n	80036aa <USBD_StdEPReq+0x15e>
 80036a4:	2b03      	cmp	r3, #3
 80036a6:	d013      	beq.n	80036d0 <USBD_StdEPReq+0x184>
 80036a8:	e04e      	b.n	8003748 <USBD_StdEPReq+0x1fc>
    {
    case USB_ADDRESSED:          
      if ((ep_addr != 0x00) && (ep_addr != 0x80)) 
 80036aa:	230e      	movs	r3, #14
 80036ac:	18fb      	adds	r3, r7, r3
 80036ae:	781b      	ldrb	r3, [r3, #0]
 80036b0:	2b00      	cmp	r3, #0
 80036b2:	d050      	beq.n	8003756 <USBD_StdEPReq+0x20a>
 80036b4:	230e      	movs	r3, #14
 80036b6:	18fb      	adds	r3, r7, r3
 80036b8:	781b      	ldrb	r3, [r3, #0]
 80036ba:	2b80      	cmp	r3, #128	; 0x80
 80036bc:	d04b      	beq.n	8003756 <USBD_StdEPReq+0x20a>
      {
        DCD_EP_Stall(pdev , ep_addr);
 80036be:	230e      	movs	r3, #14
 80036c0:	18fb      	adds	r3, r7, r3
 80036c2:	781a      	ldrb	r2, [r3, #0]
 80036c4:	687b      	ldr	r3, [r7, #4]
 80036c6:	0011      	movs	r1, r2
 80036c8:	0018      	movs	r0, r3
 80036ca:	f001 feed 	bl	80054a8 <DCD_EP_Stall>
      }
      break;	
 80036ce:	e042      	b.n	8003756 <USBD_StdEPReq+0x20a>
      
    case USB_CONFIGURED:         
      
      if ((ep_addr & 0x80)== 0x80)
 80036d0:	230e      	movs	r3, #14
 80036d2:	18fb      	adds	r3, r7, r3
 80036d4:	781b      	ldrb	r3, [r3, #0]
 80036d6:	b25b      	sxtb	r3, r3
 80036d8:	2b00      	cmp	r3, #0
 80036da:	da14      	bge.n	8003706 <USBD_StdEPReq+0x1ba>
      {
        if(pdev->dev.in_ep[ep_addr & 0x7F].is_stall)
 80036dc:	230e      	movs	r3, #14
 80036de:	18fb      	adds	r3, r7, r3
 80036e0:	781b      	ldrb	r3, [r3, #0]
 80036e2:	227f      	movs	r2, #127	; 0x7f
 80036e4:	401a      	ands	r2, r3
 80036e6:	6879      	ldr	r1, [r7, #4]
 80036e8:	0013      	movs	r3, r2
 80036ea:	009b      	lsls	r3, r3, #2
 80036ec:	189b      	adds	r3, r3, r2
 80036ee:	00db      	lsls	r3, r3, #3
 80036f0:	18cb      	adds	r3, r1, r3
 80036f2:	331a      	adds	r3, #26
 80036f4:	781b      	ldrb	r3, [r3, #0]
 80036f6:	2b00      	cmp	r3, #0
 80036f8:	d002      	beq.n	8003700 <USBD_StdEPReq+0x1b4>
        {
          USBD_ep_status = 0x0001;     
 80036fa:	2301      	movs	r3, #1
 80036fc:	60bb      	str	r3, [r7, #8]
 80036fe:	e01b      	b.n	8003738 <USBD_StdEPReq+0x1ec>
        }
        else
        {
          USBD_ep_status = 0x0000;  
 8003700:	2300      	movs	r3, #0
 8003702:	60bb      	str	r3, [r7, #8]
 8003704:	e018      	b.n	8003738 <USBD_StdEPReq+0x1ec>
        }
      }
      else if ((ep_addr & 0x80)== 0x00)
 8003706:	230e      	movs	r3, #14
 8003708:	18fb      	adds	r3, r7, r3
 800370a:	781b      	ldrb	r3, [r3, #0]
 800370c:	b25b      	sxtb	r3, r3
 800370e:	2b00      	cmp	r3, #0
 8003710:	db12      	blt.n	8003738 <USBD_StdEPReq+0x1ec>
      {
        if(pdev->dev.out_ep[ep_addr].is_stall)
 8003712:	230e      	movs	r3, #14
 8003714:	18fb      	adds	r3, r7, r3
 8003716:	781a      	ldrb	r2, [r3, #0]
 8003718:	6879      	ldr	r1, [r7, #4]
 800371a:	20ba      	movs	r0, #186	; 0xba
 800371c:	0013      	movs	r3, r2
 800371e:	009b      	lsls	r3, r3, #2
 8003720:	189b      	adds	r3, r3, r2
 8003722:	00db      	lsls	r3, r3, #3
 8003724:	18cb      	adds	r3, r1, r3
 8003726:	181b      	adds	r3, r3, r0
 8003728:	781b      	ldrb	r3, [r3, #0]
 800372a:	2b00      	cmp	r3, #0
 800372c:	d002      	beq.n	8003734 <USBD_StdEPReq+0x1e8>
        {
          USBD_ep_status = 0x0001;     
 800372e:	2301      	movs	r3, #1
 8003730:	60bb      	str	r3, [r7, #8]
 8003732:	e001      	b.n	8003738 <USBD_StdEPReq+0x1ec>
        }
        
        else 
        {
          USBD_ep_status = 0x0000;     
 8003734:	2300      	movs	r3, #0
 8003736:	60bb      	str	r3, [r7, #8]
        }      
      }
      USBD_CtlSendData (pdev,
 8003738:	2308      	movs	r3, #8
 800373a:	18f9      	adds	r1, r7, r3
 800373c:	687b      	ldr	r3, [r7, #4]
 800373e:	2202      	movs	r2, #2
 8003740:	0018      	movs	r0, r3
 8003742:	f000 fb27 	bl	8003d94 <USBD_CtlSendData>
                        (uint8_t *)&USBD_ep_status,
                        2);
      break;
 8003746:	e007      	b.n	8003758 <USBD_StdEPReq+0x20c>
      
    default:                         
       USBD_CtlError(pdev , req);
 8003748:	683a      	ldr	r2, [r7, #0]
 800374a:	687b      	ldr	r3, [r7, #4]
 800374c:	0011      	movs	r1, r2
 800374e:	0018      	movs	r0, r3
 8003750:	f000 fa9e 	bl	8003c90 <USBD_CtlError>
      break;
 8003754:	e000      	b.n	8003758 <USBD_StdEPReq+0x20c>
    case USB_ADDRESSED:          
      if ((ep_addr != 0x00) && (ep_addr != 0x80)) 
      {
        DCD_EP_Stall(pdev , ep_addr);
      }
      break;	
 8003756:	46c0      	nop			; (mov r8, r8)
      
    default:                         
       USBD_CtlError(pdev , req);
      break;
    }
    break;
 8003758:	46c0      	nop			; (mov r8, r8)
    
  default:
    break;
  }
  return ret;
 800375a:	230f      	movs	r3, #15
 800375c:	18fb      	adds	r3, r7, r3
 800375e:	781b      	ldrb	r3, [r3, #0]
}
 8003760:	0018      	movs	r0, r3
 8003762:	46bd      	mov	sp, r7
 8003764:	b004      	add	sp, #16
 8003766:	bd80      	pop	{r7, pc}

08003768 <USBD_GetDescriptor>:
  * @param  req: usb request
  * @retval status
  */
static void USBD_GetDescriptor(USB_CORE_HANDLE  *pdev, 
                               USB_SETUP_REQ *req)
{
 8003768:	b580      	push	{r7, lr}
 800376a:	b084      	sub	sp, #16
 800376c:	af00      	add	r7, sp, #0
 800376e:	6078      	str	r0, [r7, #4]
 8003770:	6039      	str	r1, [r7, #0]
  uint16_t len;
  uint8_t *pbuf;
  
  switch (req->wValue >> 8)
 8003772:	683b      	ldr	r3, [r7, #0]
 8003774:	885b      	ldrh	r3, [r3, #2]
 8003776:	0a1b      	lsrs	r3, r3, #8
 8003778:	b29b      	uxth	r3, r3
 800377a:	2b07      	cmp	r3, #7
 800377c:	d900      	bls.n	8003780 <USBD_GetDescriptor+0x18>
 800377e:	e0aa      	b.n	80038d6 <USBD_GetDescriptor+0x16e>
 8003780:	009a      	lsls	r2, r3, #2
 8003782:	4b6b      	ldr	r3, [pc, #428]	; (8003930 <USBD_GetDescriptor+0x1c8>)
 8003784:	18d3      	adds	r3, r2, r3
 8003786:	681b      	ldr	r3, [r3, #0]
 8003788:	469f      	mov	pc, r3
  case USB_DESC_TYPE_BOS:
    pbuf = pdev->dev.usr_device->GetBOSDescriptor(pdev->dev.speed, &len);
    break;
#endif    
  case USB_DESC_TYPE_DEVICE:
    pbuf = pdev->dev.usr_device->GetDeviceDescriptor(pdev->dev.speed, &len);
 800378a:	687a      	ldr	r2, [r7, #4]
 800378c:	23b0      	movs	r3, #176	; 0xb0
 800378e:	005b      	lsls	r3, r3, #1
 8003790:	58d3      	ldr	r3, [r2, r3]
 8003792:	681a      	ldr	r2, [r3, #0]
 8003794:	687b      	ldr	r3, [r7, #4]
 8003796:	68db      	ldr	r3, [r3, #12]
 8003798:	b2db      	uxtb	r3, r3
 800379a:	210a      	movs	r1, #10
 800379c:	1879      	adds	r1, r7, r1
 800379e:	0018      	movs	r0, r3
 80037a0:	4790      	blx	r2
 80037a2:	0003      	movs	r3, r0
 80037a4:	60fb      	str	r3, [r7, #12]
    if (req->wLength == 64)   
 80037a6:	683b      	ldr	r3, [r7, #0]
 80037a8:	88db      	ldrh	r3, [r3, #6]
 80037aa:	2b40      	cmp	r3, #64	; 0x40
 80037ac:	d000      	beq.n	80037b0 <USBD_GetDescriptor+0x48>
 80037ae:	e099      	b.n	80038e4 <USBD_GetDescriptor+0x17c>
    {                  
      len = 8;
 80037b0:	230a      	movs	r3, #10
 80037b2:	18fb      	adds	r3, r7, r3
 80037b4:	2208      	movs	r2, #8
 80037b6:	801a      	strh	r2, [r3, #0]
    }
    break;
 80037b8:	e094      	b.n	80038e4 <USBD_GetDescriptor+0x17c>
    
  case USB_DESC_TYPE_CONFIGURATION:
      pbuf   = (uint8_t *)pdev->dev.class_cb->GetConfigDescriptor(pdev->dev.speed, &len);  
 80037ba:	687a      	ldr	r2, [r7, #4]
 80037bc:	23ac      	movs	r3, #172	; 0xac
 80037be:	005b      	lsls	r3, r3, #1
 80037c0:	58d3      	ldr	r3, [r2, r3]
 80037c2:	6a1a      	ldr	r2, [r3, #32]
 80037c4:	687b      	ldr	r3, [r7, #4]
 80037c6:	68db      	ldr	r3, [r3, #12]
 80037c8:	b2db      	uxtb	r3, r3
 80037ca:	210a      	movs	r1, #10
 80037cc:	1879      	adds	r1, r7, r1
 80037ce:	0018      	movs	r0, r3
 80037d0:	4790      	blx	r2
 80037d2:	0003      	movs	r3, r0
 80037d4:	60fb      	str	r3, [r7, #12]
      pdev->dev.pConfig_descriptor = pbuf;    
 80037d6:	687a      	ldr	r2, [r7, #4]
 80037d8:	23b2      	movs	r3, #178	; 0xb2
 80037da:	005b      	lsls	r3, r3, #1
 80037dc:	68f9      	ldr	r1, [r7, #12]
 80037de:	50d1      	str	r1, [r2, r3]
    break;
 80037e0:	e081      	b.n	80038e6 <USBD_GetDescriptor+0x17e>
    
  case USB_DESC_TYPE_STRING:
    switch ((uint8_t)(req->wValue))
 80037e2:	683b      	ldr	r3, [r7, #0]
 80037e4:	885b      	ldrh	r3, [r3, #2]
 80037e6:	b2db      	uxtb	r3, r3
 80037e8:	2b05      	cmp	r3, #5
 80037ea:	d85e      	bhi.n	80038aa <USBD_GetDescriptor+0x142>
 80037ec:	009a      	lsls	r2, r3, #2
 80037ee:	4b51      	ldr	r3, [pc, #324]	; (8003934 <USBD_GetDescriptor+0x1cc>)
 80037f0:	18d3      	adds	r3, r2, r3
 80037f2:	681b      	ldr	r3, [r3, #0]
 80037f4:	469f      	mov	pc, r3
    {
    case USBD_IDX_LANGID_STR:
     pbuf = pdev->dev.usr_device->GetLangIDStrDescriptor(pdev->dev.speed, &len);        
 80037f6:	687a      	ldr	r2, [r7, #4]
 80037f8:	23b0      	movs	r3, #176	; 0xb0
 80037fa:	005b      	lsls	r3, r3, #1
 80037fc:	58d3      	ldr	r3, [r2, r3]
 80037fe:	685a      	ldr	r2, [r3, #4]
 8003800:	687b      	ldr	r3, [r7, #4]
 8003802:	68db      	ldr	r3, [r3, #12]
 8003804:	b2db      	uxtb	r3, r3
 8003806:	210a      	movs	r1, #10
 8003808:	1879      	adds	r1, r7, r1
 800380a:	0018      	movs	r0, r3
 800380c:	4790      	blx	r2
 800380e:	0003      	movs	r3, r0
 8003810:	60fb      	str	r3, [r7, #12]
      break;
 8003812:	e051      	b.n	80038b8 <USBD_GetDescriptor+0x150>
      
    case USBD_IDX_MFC_STR:
      pbuf = pdev->dev.usr_device->GetManufacturerStrDescriptor(pdev->dev.speed, &len);
 8003814:	687a      	ldr	r2, [r7, #4]
 8003816:	23b0      	movs	r3, #176	; 0xb0
 8003818:	005b      	lsls	r3, r3, #1
 800381a:	58d3      	ldr	r3, [r2, r3]
 800381c:	689a      	ldr	r2, [r3, #8]
 800381e:	687b      	ldr	r3, [r7, #4]
 8003820:	68db      	ldr	r3, [r3, #12]
 8003822:	b2db      	uxtb	r3, r3
 8003824:	210a      	movs	r1, #10
 8003826:	1879      	adds	r1, r7, r1
 8003828:	0018      	movs	r0, r3
 800382a:	4790      	blx	r2
 800382c:	0003      	movs	r3, r0
 800382e:	60fb      	str	r3, [r7, #12]
      break;
 8003830:	e042      	b.n	80038b8 <USBD_GetDescriptor+0x150>
      
    case USBD_IDX_PRODUCT_STR:
      pbuf = pdev->dev.usr_device->GetProductStrDescriptor(pdev->dev.speed, &len);
 8003832:	687a      	ldr	r2, [r7, #4]
 8003834:	23b0      	movs	r3, #176	; 0xb0
 8003836:	005b      	lsls	r3, r3, #1
 8003838:	58d3      	ldr	r3, [r2, r3]
 800383a:	68da      	ldr	r2, [r3, #12]
 800383c:	687b      	ldr	r3, [r7, #4]
 800383e:	68db      	ldr	r3, [r3, #12]
 8003840:	b2db      	uxtb	r3, r3
 8003842:	210a      	movs	r1, #10
 8003844:	1879      	adds	r1, r7, r1
 8003846:	0018      	movs	r0, r3
 8003848:	4790      	blx	r2
 800384a:	0003      	movs	r3, r0
 800384c:	60fb      	str	r3, [r7, #12]
      break;
 800384e:	e033      	b.n	80038b8 <USBD_GetDescriptor+0x150>
      
    case USBD_IDX_SERIAL_STR:
      pbuf = pdev->dev.usr_device->GetSerialStrDescriptor(pdev->dev.speed, &len);
 8003850:	687a      	ldr	r2, [r7, #4]
 8003852:	23b0      	movs	r3, #176	; 0xb0
 8003854:	005b      	lsls	r3, r3, #1
 8003856:	58d3      	ldr	r3, [r2, r3]
 8003858:	691a      	ldr	r2, [r3, #16]
 800385a:	687b      	ldr	r3, [r7, #4]
 800385c:	68db      	ldr	r3, [r3, #12]
 800385e:	b2db      	uxtb	r3, r3
 8003860:	210a      	movs	r1, #10
 8003862:	1879      	adds	r1, r7, r1
 8003864:	0018      	movs	r0, r3
 8003866:	4790      	blx	r2
 8003868:	0003      	movs	r3, r0
 800386a:	60fb      	str	r3, [r7, #12]
      break;
 800386c:	e024      	b.n	80038b8 <USBD_GetDescriptor+0x150>
      
    case USBD_IDX_CONFIG_STR:
      pbuf = pdev->dev.usr_device->GetConfigurationStrDescriptor(pdev->dev.speed, &len);
 800386e:	687a      	ldr	r2, [r7, #4]
 8003870:	23b0      	movs	r3, #176	; 0xb0
 8003872:	005b      	lsls	r3, r3, #1
 8003874:	58d3      	ldr	r3, [r2, r3]
 8003876:	695a      	ldr	r2, [r3, #20]
 8003878:	687b      	ldr	r3, [r7, #4]
 800387a:	68db      	ldr	r3, [r3, #12]
 800387c:	b2db      	uxtb	r3, r3
 800387e:	210a      	movs	r1, #10
 8003880:	1879      	adds	r1, r7, r1
 8003882:	0018      	movs	r0, r3
 8003884:	4790      	blx	r2
 8003886:	0003      	movs	r3, r0
 8003888:	60fb      	str	r3, [r7, #12]
      break;
 800388a:	e015      	b.n	80038b8 <USBD_GetDescriptor+0x150>
      
    case USBD_IDX_INTERFACE_STR:
      pbuf = pdev->dev.usr_device->GetInterfaceStrDescriptor(pdev->dev.speed, &len);
 800388c:	687a      	ldr	r2, [r7, #4]
 800388e:	23b0      	movs	r3, #176	; 0xb0
 8003890:	005b      	lsls	r3, r3, #1
 8003892:	58d3      	ldr	r3, [r2, r3]
 8003894:	699a      	ldr	r2, [r3, #24]
 8003896:	687b      	ldr	r3, [r7, #4]
 8003898:	68db      	ldr	r3, [r3, #12]
 800389a:	b2db      	uxtb	r3, r3
 800389c:	210a      	movs	r1, #10
 800389e:	1879      	adds	r1, r7, r1
 80038a0:	0018      	movs	r0, r3
 80038a2:	4790      	blx	r2
 80038a4:	0003      	movs	r3, r0
 80038a6:	60fb      	str	r3, [r7, #12]
      break;
 80038a8:	e006      	b.n	80038b8 <USBD_GetDescriptor+0x150>
    default:
#ifdef USB_SUPPORT_USER_STRING_DESC
      pbuf = pdev->dev.class_cb->GetUsrStrDescriptor(pdev->dev.speed, (req->wValue) , &len);
      break;
#else      
       USBD_CtlError(pdev , req);
 80038aa:	683a      	ldr	r2, [r7, #0]
 80038ac:	687b      	ldr	r3, [r7, #4]
 80038ae:	0011      	movs	r1, r2
 80038b0:	0018      	movs	r0, r3
 80038b2:	f000 f9ed 	bl	8003c90 <USBD_CtlError>
      return;
 80038b6:	e037      	b.n	8003928 <USBD_GetDescriptor+0x1c0>
#endif /* USBD_CtlError(pdev , req); */      
    }
    break;
 80038b8:	e015      	b.n	80038e6 <USBD_GetDescriptor+0x17e>
  case USB_DESC_TYPE_DEVICE_QUALIFIER:                   
       USBD_CtlError(pdev , req);
 80038ba:	683a      	ldr	r2, [r7, #0]
 80038bc:	687b      	ldr	r3, [r7, #4]
 80038be:	0011      	movs	r1, r2
 80038c0:	0018      	movs	r0, r3
 80038c2:	f000 f9e5 	bl	8003c90 <USBD_CtlError>
      return;  
 80038c6:	e02f      	b.n	8003928 <USBD_GetDescriptor+0x1c0>

  case USB_DESC_TYPE_OTHER_SPEED_CONFIGURATION:
      USBD_CtlError(pdev , req);
 80038c8:	683a      	ldr	r2, [r7, #0]
 80038ca:	687b      	ldr	r3, [r7, #4]
 80038cc:	0011      	movs	r1, r2
 80038ce:	0018      	movs	r0, r3
 80038d0:	f000 f9de 	bl	8003c90 <USBD_CtlError>
      return;  
 80038d4:	e028      	b.n	8003928 <USBD_GetDescriptor+0x1c0>
  default: 
     USBD_CtlError(pdev , req);
 80038d6:	683a      	ldr	r2, [r7, #0]
 80038d8:	687b      	ldr	r3, [r7, #4]
 80038da:	0011      	movs	r1, r2
 80038dc:	0018      	movs	r0, r3
 80038de:	f000 f9d7 	bl	8003c90 <USBD_CtlError>
    return;
 80038e2:	e021      	b.n	8003928 <USBD_GetDescriptor+0x1c0>
    pbuf = pdev->dev.usr_device->GetDeviceDescriptor(pdev->dev.speed, &len);
    if (req->wLength == 64)   
    {                  
      len = 8;
    }
    break;
 80038e4:	46c0      	nop			; (mov r8, r8)
  default: 
     USBD_CtlError(pdev , req);
    return;
  }
  
  if((len != 0)&& (req->wLength != 0))
 80038e6:	230a      	movs	r3, #10
 80038e8:	18fb      	adds	r3, r7, r3
 80038ea:	881b      	ldrh	r3, [r3, #0]
 80038ec:	2b00      	cmp	r3, #0
 80038ee:	d01b      	beq.n	8003928 <USBD_GetDescriptor+0x1c0>
 80038f0:	683b      	ldr	r3, [r7, #0]
 80038f2:	88db      	ldrh	r3, [r3, #6]
 80038f4:	2b00      	cmp	r3, #0
 80038f6:	d017      	beq.n	8003928 <USBD_GetDescriptor+0x1c0>
  {
    
    len = MIN(len , req->wLength);
 80038f8:	683b      	ldr	r3, [r7, #0]
 80038fa:	88da      	ldrh	r2, [r3, #6]
 80038fc:	230a      	movs	r3, #10
 80038fe:	18fb      	adds	r3, r7, r3
 8003900:	881b      	ldrh	r3, [r3, #0]
 8003902:	1c18      	adds	r0, r3, #0
 8003904:	1c11      	adds	r1, r2, #0
 8003906:	b28a      	uxth	r2, r1
 8003908:	b283      	uxth	r3, r0
 800390a:	429a      	cmp	r2, r3
 800390c:	d900      	bls.n	8003910 <USBD_GetDescriptor+0x1a8>
 800390e:	1c01      	adds	r1, r0, #0
 8003910:	b28a      	uxth	r2, r1
 8003912:	230a      	movs	r3, #10
 8003914:	18fb      	adds	r3, r7, r3
 8003916:	801a      	strh	r2, [r3, #0]
    
    USBD_CtlSendData (pdev, 
 8003918:	230a      	movs	r3, #10
 800391a:	18fb      	adds	r3, r7, r3
 800391c:	881a      	ldrh	r2, [r3, #0]
 800391e:	68f9      	ldr	r1, [r7, #12]
 8003920:	687b      	ldr	r3, [r7, #4]
 8003922:	0018      	movs	r0, r3
 8003924:	f000 fa36 	bl	8003d94 <USBD_CtlSendData>
                      pbuf,
                      len);
  }
  
}
 8003928:	46bd      	mov	sp, r7
 800392a:	b004      	add	sp, #16
 800392c:	bd80      	pop	{r7, pc}
 800392e:	46c0      	nop			; (mov r8, r8)
 8003930:	080075c0 	.word	0x080075c0
 8003934:	080075e0 	.word	0x080075e0

08003938 <USBD_SetAddress>:
  * @param  req: usb request
  * @retval status
  */
static void USBD_SetAddress(USB_CORE_HANDLE  *pdev, 
                            USB_SETUP_REQ *req)
{
 8003938:	b580      	push	{r7, lr}
 800393a:	b084      	sub	sp, #16
 800393c:	af00      	add	r7, sp, #0
 800393e:	6078      	str	r0, [r7, #4]
 8003940:	6039      	str	r1, [r7, #0]
  uint8_t  dev_addr; 
  
  if ((req->wIndex == 0) && (req->wLength == 0)) 
 8003942:	683b      	ldr	r3, [r7, #0]
 8003944:	889b      	ldrh	r3, [r3, #4]
 8003946:	2b00      	cmp	r3, #0
 8003948:	d131      	bne.n	80039ae <USBD_SetAddress+0x76>
 800394a:	683b      	ldr	r3, [r7, #0]
 800394c:	88db      	ldrh	r3, [r3, #6]
 800394e:	2b00      	cmp	r3, #0
 8003950:	d12d      	bne.n	80039ae <USBD_SetAddress+0x76>
  {
    dev_addr = (uint8_t)(req->wValue) & 0x7F;     
 8003952:	683b      	ldr	r3, [r7, #0]
 8003954:	885b      	ldrh	r3, [r3, #2]
 8003956:	b2da      	uxtb	r2, r3
 8003958:	230f      	movs	r3, #15
 800395a:	18fb      	adds	r3, r7, r3
 800395c:	217f      	movs	r1, #127	; 0x7f
 800395e:	400a      	ands	r2, r1
 8003960:	701a      	strb	r2, [r3, #0]
    
    if (pdev->dev.device_status == USB_CONFIGURED) 
 8003962:	687b      	ldr	r3, [r7, #4]
 8003964:	789b      	ldrb	r3, [r3, #2]
 8003966:	2b03      	cmp	r3, #3
 8003968:	d106      	bne.n	8003978 <USBD_SetAddress+0x40>
    {
      USBD_CtlError(pdev , req);
 800396a:	683a      	ldr	r2, [r7, #0]
 800396c:	687b      	ldr	r3, [r7, #4]
 800396e:	0011      	movs	r1, r2
 8003970:	0018      	movs	r0, r3
 8003972:	f000 f98d 	bl	8003c90 <USBD_CtlError>
  
  if ((req->wIndex == 0) && (req->wLength == 0)) 
  {
    dev_addr = (uint8_t)(req->wValue) & 0x7F;     
    
    if (pdev->dev.device_status == USB_CONFIGURED) 
 8003976:	e020      	b.n	80039ba <USBD_SetAddress+0x82>
    {
      USBD_CtlError(pdev , req);
    } 
    else 
    {
      pdev->dev.device_address = dev_addr;              
 8003978:	687b      	ldr	r3, [r7, #4]
 800397a:	220f      	movs	r2, #15
 800397c:	18ba      	adds	r2, r7, r2
 800397e:	7812      	ldrb	r2, [r2, #0]
 8003980:	711a      	strb	r2, [r3, #4]
      ADDRESS = dev_addr;
 8003982:	230f      	movs	r3, #15
 8003984:	18fb      	adds	r3, r7, r3
 8003986:	781a      	ldrb	r2, [r3, #0]
 8003988:	4b0e      	ldr	r3, [pc, #56]	; (80039c4 <USBD_SetAddress+0x8c>)
 800398a:	601a      	str	r2, [r3, #0]
      USBD_CtlSendStatus(pdev);                         
 800398c:	687b      	ldr	r3, [r7, #4]
 800398e:	0018      	movs	r0, r3
 8003990:	f000 fa7e 	bl	8003e90 <USBD_CtlSendStatus>
      
      if (dev_addr != 0) 
 8003994:	230f      	movs	r3, #15
 8003996:	18fb      	adds	r3, r7, r3
 8003998:	781b      	ldrb	r3, [r3, #0]
 800399a:	2b00      	cmp	r3, #0
 800399c:	d003      	beq.n	80039a6 <USBD_SetAddress+0x6e>
      {
        pdev->dev.device_status  = USB_ADDRESSED;
 800399e:	687b      	ldr	r3, [r7, #4]
 80039a0:	2202      	movs	r2, #2
 80039a2:	709a      	strb	r2, [r3, #2]
  
  if ((req->wIndex == 0) && (req->wLength == 0)) 
  {
    dev_addr = (uint8_t)(req->wValue) & 0x7F;     
    
    if (pdev->dev.device_status == USB_CONFIGURED) 
 80039a4:	e009      	b.n	80039ba <USBD_SetAddress+0x82>
      {
        pdev->dev.device_status  = USB_ADDRESSED;
      } 
      else 
      {
        pdev->dev.device_status  = USB_DEFAULT; 
 80039a6:	687b      	ldr	r3, [r7, #4]
 80039a8:	2201      	movs	r2, #1
 80039aa:	709a      	strb	r2, [r3, #2]
  
  if ((req->wIndex == 0) && (req->wLength == 0)) 
  {
    dev_addr = (uint8_t)(req->wValue) & 0x7F;     
    
    if (pdev->dev.device_status == USB_CONFIGURED) 
 80039ac:	e005      	b.n	80039ba <USBD_SetAddress+0x82>
      }
    }
  } 
  else 
  {
     USBD_CtlError(pdev , req);                        
 80039ae:	683a      	ldr	r2, [r7, #0]
 80039b0:	687b      	ldr	r3, [r7, #4]
 80039b2:	0011      	movs	r1, r2
 80039b4:	0018      	movs	r0, r3
 80039b6:	f000 f96b 	bl	8003c90 <USBD_CtlError>
  } 
}
 80039ba:	46c0      	nop			; (mov r8, r8)
 80039bc:	46bd      	mov	sp, r7
 80039be:	b004      	add	sp, #16
 80039c0:	bd80      	pop	{r7, pc}
 80039c2:	46c0      	nop			; (mov r8, r8)
 80039c4:	2000014c 	.word	0x2000014c

080039c8 <USBD_SetConfig>:
  * @param  req: usb request
  * @retval status
  */
static void USBD_SetConfig(USB_CORE_HANDLE  *pdev, 
                           USB_SETUP_REQ *req)
{
 80039c8:	b580      	push	{r7, lr}
 80039ca:	b082      	sub	sp, #8
 80039cc:	af00      	add	r7, sp, #0
 80039ce:	6078      	str	r0, [r7, #4]
 80039d0:	6039      	str	r1, [r7, #0]
  
  static uint8_t  cfgidx;
  
  cfgidx = (uint8_t)(req->wValue);                 
 80039d2:	683b      	ldr	r3, [r7, #0]
 80039d4:	885b      	ldrh	r3, [r3, #2]
 80039d6:	b2da      	uxtb	r2, r3
 80039d8:	4b39      	ldr	r3, [pc, #228]	; (8003ac0 <USBD_SetConfig+0xf8>)
 80039da:	701a      	strb	r2, [r3, #0]
  
  if (cfgidx > USBD_CFG_MAX_NUM ) 
 80039dc:	4b38      	ldr	r3, [pc, #224]	; (8003ac0 <USBD_SetConfig+0xf8>)
 80039de:	781b      	ldrb	r3, [r3, #0]
 80039e0:	2b01      	cmp	r3, #1
 80039e2:	d906      	bls.n	80039f2 <USBD_SetConfig+0x2a>
  {            
     USBD_CtlError(pdev , req);                              
 80039e4:	683a      	ldr	r2, [r7, #0]
 80039e6:	687b      	ldr	r3, [r7, #4]
 80039e8:	0011      	movs	r1, r2
 80039ea:	0018      	movs	r0, r3
 80039ec:	f000 f950 	bl	8003c90 <USBD_CtlError>
    default:					
       USBD_CtlError(pdev , req);                     
      break;
    }
  }
}
 80039f0:	e062      	b.n	8003ab8 <USBD_SetConfig+0xf0>
  {            
     USBD_CtlError(pdev , req);                              
  } 
  else 
  {
    switch (pdev->dev.device_status) 
 80039f2:	687b      	ldr	r3, [r7, #4]
 80039f4:	789b      	ldrb	r3, [r3, #2]
 80039f6:	2b02      	cmp	r3, #2
 80039f8:	d002      	beq.n	8003a00 <USBD_SetConfig+0x38>
 80039fa:	2b03      	cmp	r3, #3
 80039fc:	d01c      	beq.n	8003a38 <USBD_SetConfig+0x70>
 80039fe:	e054      	b.n	8003aaa <USBD_SetConfig+0xe2>
    {
    case USB_ADDRESSED:
      if (cfgidx) 
 8003a00:	4b2f      	ldr	r3, [pc, #188]	; (8003ac0 <USBD_SetConfig+0xf8>)
 8003a02:	781b      	ldrb	r3, [r3, #0]
 8003a04:	2b00      	cmp	r3, #0
 8003a06:	d012      	beq.n	8003a2e <USBD_SetConfig+0x66>
      {                                			   							   							   				
        pdev->dev.device_config = cfgidx;
 8003a08:	4b2d      	ldr	r3, [pc, #180]	; (8003ac0 <USBD_SetConfig+0xf8>)
 8003a0a:	781a      	ldrb	r2, [r3, #0]
 8003a0c:	687b      	ldr	r3, [r7, #4]
 8003a0e:	701a      	strb	r2, [r3, #0]
        pdev->dev.device_status = USB_CONFIGURED;
 8003a10:	687b      	ldr	r3, [r7, #4]
 8003a12:	2203      	movs	r2, #3
 8003a14:	709a      	strb	r2, [r3, #2]
        USBD_SetCfg(pdev , cfgidx);
 8003a16:	4b2a      	ldr	r3, [pc, #168]	; (8003ac0 <USBD_SetConfig+0xf8>)
 8003a18:	781a      	ldrb	r2, [r3, #0]
 8003a1a:	687b      	ldr	r3, [r7, #4]
 8003a1c:	0011      	movs	r1, r2
 8003a1e:	0018      	movs	r0, r3
 8003a20:	f000 fc48 	bl	80042b4 <USBD_SetCfg>
        USBD_CtlSendStatus(pdev);
 8003a24:	687b      	ldr	r3, [r7, #4]
 8003a26:	0018      	movs	r0, r3
 8003a28:	f000 fa32 	bl	8003e90 <USBD_CtlSendStatus>
      }
      else 
      {
         USBD_CtlSendStatus(pdev);
      }
      break;
 8003a2c:	e044      	b.n	8003ab8 <USBD_SetConfig+0xf0>
        USBD_SetCfg(pdev , cfgidx);
        USBD_CtlSendStatus(pdev);
      }
      else 
      {
         USBD_CtlSendStatus(pdev);
 8003a2e:	687b      	ldr	r3, [r7, #4]
 8003a30:	0018      	movs	r0, r3
 8003a32:	f000 fa2d 	bl	8003e90 <USBD_CtlSendStatus>
      }
      break;
 8003a36:	e03f      	b.n	8003ab8 <USBD_SetConfig+0xf0>
      
    case USB_CONFIGURED:
      if (cfgidx == 0) 
 8003a38:	4b21      	ldr	r3, [pc, #132]	; (8003ac0 <USBD_SetConfig+0xf8>)
 8003a3a:	781b      	ldrb	r3, [r3, #0]
 8003a3c:	2b00      	cmp	r3, #0
 8003a3e:	d112      	bne.n	8003a66 <USBD_SetConfig+0x9e>
      {                           
        pdev->dev.device_status = USB_ADDRESSED;
 8003a40:	687b      	ldr	r3, [r7, #4]
 8003a42:	2202      	movs	r2, #2
 8003a44:	709a      	strb	r2, [r3, #2]
        pdev->dev.device_config = cfgidx;          
 8003a46:	4b1e      	ldr	r3, [pc, #120]	; (8003ac0 <USBD_SetConfig+0xf8>)
 8003a48:	781a      	ldrb	r2, [r3, #0]
 8003a4a:	687b      	ldr	r3, [r7, #4]
 8003a4c:	701a      	strb	r2, [r3, #0]
        USBD_ClrCfg(pdev , cfgidx);
 8003a4e:	4b1c      	ldr	r3, [pc, #112]	; (8003ac0 <USBD_SetConfig+0xf8>)
 8003a50:	781a      	ldrb	r2, [r3, #0]
 8003a52:	687b      	ldr	r3, [r7, #4]
 8003a54:	0011      	movs	r1, r2
 8003a56:	0018      	movs	r0, r3
 8003a58:	f000 fc48 	bl	80042ec <USBD_ClrCfg>
        USBD_CtlSendStatus(pdev);
 8003a5c:	687b      	ldr	r3, [r7, #4]
 8003a5e:	0018      	movs	r0, r3
 8003a60:	f000 fa16 	bl	8003e90 <USBD_CtlSendStatus>
      }
      else
      {
        USBD_CtlSendStatus(pdev);
      }
      break;
 8003a64:	e028      	b.n	8003ab8 <USBD_SetConfig+0xf0>
        pdev->dev.device_status = USB_ADDRESSED;
        pdev->dev.device_config = cfgidx;          
        USBD_ClrCfg(pdev , cfgidx);
        USBD_CtlSendStatus(pdev);
      } 
      else  if (cfgidx != pdev->dev.device_config) 
 8003a66:	687b      	ldr	r3, [r7, #4]
 8003a68:	781a      	ldrb	r2, [r3, #0]
 8003a6a:	4b15      	ldr	r3, [pc, #84]	; (8003ac0 <USBD_SetConfig+0xf8>)
 8003a6c:	781b      	ldrb	r3, [r3, #0]
 8003a6e:	429a      	cmp	r2, r3
 8003a70:	d016      	beq.n	8003aa0 <USBD_SetConfig+0xd8>
      {
        /* Clear old configuration */
        USBD_ClrCfg(pdev , pdev->dev.device_config);
 8003a72:	687b      	ldr	r3, [r7, #4]
 8003a74:	781a      	ldrb	r2, [r3, #0]
 8003a76:	687b      	ldr	r3, [r7, #4]
 8003a78:	0011      	movs	r1, r2
 8003a7a:	0018      	movs	r0, r3
 8003a7c:	f000 fc36 	bl	80042ec <USBD_ClrCfg>
        
        /* set new configuration */
        pdev->dev.device_config = cfgidx;
 8003a80:	4b0f      	ldr	r3, [pc, #60]	; (8003ac0 <USBD_SetConfig+0xf8>)
 8003a82:	781a      	ldrb	r2, [r3, #0]
 8003a84:	687b      	ldr	r3, [r7, #4]
 8003a86:	701a      	strb	r2, [r3, #0]
        USBD_SetCfg(pdev , cfgidx);
 8003a88:	4b0d      	ldr	r3, [pc, #52]	; (8003ac0 <USBD_SetConfig+0xf8>)
 8003a8a:	781a      	ldrb	r2, [r3, #0]
 8003a8c:	687b      	ldr	r3, [r7, #4]
 8003a8e:	0011      	movs	r1, r2
 8003a90:	0018      	movs	r0, r3
 8003a92:	f000 fc0f 	bl	80042b4 <USBD_SetCfg>
        USBD_CtlSendStatus(pdev);
 8003a96:	687b      	ldr	r3, [r7, #4]
 8003a98:	0018      	movs	r0, r3
 8003a9a:	f000 f9f9 	bl	8003e90 <USBD_CtlSendStatus>
      }
      else
      {
        USBD_CtlSendStatus(pdev);
      }
      break;
 8003a9e:	e00b      	b.n	8003ab8 <USBD_SetConfig+0xf0>
        USBD_SetCfg(pdev , cfgidx);
        USBD_CtlSendStatus(pdev);
      }
      else
      {
        USBD_CtlSendStatus(pdev);
 8003aa0:	687b      	ldr	r3, [r7, #4]
 8003aa2:	0018      	movs	r0, r3
 8003aa4:	f000 f9f4 	bl	8003e90 <USBD_CtlSendStatus>
      }
      break;
 8003aa8:	e006      	b.n	8003ab8 <USBD_SetConfig+0xf0>
      
    default:					
       USBD_CtlError(pdev , req);                     
 8003aaa:	683a      	ldr	r2, [r7, #0]
 8003aac:	687b      	ldr	r3, [r7, #4]
 8003aae:	0011      	movs	r1, r2
 8003ab0:	0018      	movs	r0, r3
 8003ab2:	f000 f8ed 	bl	8003c90 <USBD_CtlError>
      break;
 8003ab6:	46c0      	nop			; (mov r8, r8)
    }
  }
}
 8003ab8:	46c0      	nop			; (mov r8, r8)
 8003aba:	46bd      	mov	sp, r7
 8003abc:	b002      	add	sp, #8
 8003abe:	bd80      	pop	{r7, pc}
 8003ac0:	20000150 	.word	0x20000150

08003ac4 <USBD_GetConfig>:
  * @param  req: usb request
  * @retval status
  */
static void USBD_GetConfig(USB_CORE_HANDLE  *pdev, 
                           USB_SETUP_REQ *req)
{
 8003ac4:	b580      	push	{r7, lr}
 8003ac6:	b084      	sub	sp, #16
 8003ac8:	af00      	add	r7, sp, #0
 8003aca:	6078      	str	r0, [r7, #4]
 8003acc:	6039      	str	r1, [r7, #0]
  uint32_t  USBD_default_cfg  = 0;
 8003ace:	2300      	movs	r3, #0
 8003ad0:	60fb      	str	r3, [r7, #12]
 
  if (req->wLength != 1) 
 8003ad2:	683b      	ldr	r3, [r7, #0]
 8003ad4:	88db      	ldrh	r3, [r3, #6]
 8003ad6:	2b01      	cmp	r3, #1
 8003ad8:	d006      	beq.n	8003ae8 <USBD_GetConfig+0x24>
  {                   
     USBD_CtlError(pdev , req);
 8003ada:	683a      	ldr	r2, [r7, #0]
 8003adc:	687b      	ldr	r3, [r7, #4]
 8003ade:	0011      	movs	r1, r2
 8003ae0:	0018      	movs	r0, r3
 8003ae2:	f000 f8d5 	bl	8003c90 <USBD_CtlError>
    default:
       USBD_CtlError(pdev , req);
      break;
    }
  }
}
 8003ae6:	e01c      	b.n	8003b22 <USBD_GetConfig+0x5e>
  {                   
     USBD_CtlError(pdev , req);
  }
  else 
  {
    switch (pdev->dev.device_status )  
 8003ae8:	687b      	ldr	r3, [r7, #4]
 8003aea:	789b      	ldrb	r3, [r3, #2]
 8003aec:	2b02      	cmp	r3, #2
 8003aee:	d002      	beq.n	8003af6 <USBD_GetConfig+0x32>
 8003af0:	2b03      	cmp	r3, #3
 8003af2:	d008      	beq.n	8003b06 <USBD_GetConfig+0x42>
 8003af4:	e00e      	b.n	8003b14 <USBD_GetConfig+0x50>
    {
    case USB_ADDRESSED:                     
      
      USBD_CtlSendData (pdev, 
 8003af6:	230c      	movs	r3, #12
 8003af8:	18f9      	adds	r1, r7, r3
 8003afa:	687b      	ldr	r3, [r7, #4]
 8003afc:	2201      	movs	r2, #1
 8003afe:	0018      	movs	r0, r3
 8003b00:	f000 f948 	bl	8003d94 <USBD_CtlSendData>
                        (uint8_t *)&USBD_default_cfg,
                        1);
      break;
 8003b04:	e00d      	b.n	8003b22 <USBD_GetConfig+0x5e>
      
    case USB_CONFIGURED:                   
      
      USBD_CtlSendData (pdev, 
 8003b06:	6879      	ldr	r1, [r7, #4]
 8003b08:	687b      	ldr	r3, [r7, #4]
 8003b0a:	2201      	movs	r2, #1
 8003b0c:	0018      	movs	r0, r3
 8003b0e:	f000 f941 	bl	8003d94 <USBD_CtlSendData>
                        &pdev->dev.device_config,
                        1);
      break;
 8003b12:	e006      	b.n	8003b22 <USBD_GetConfig+0x5e>
      
    default:
       USBD_CtlError(pdev , req);
 8003b14:	683a      	ldr	r2, [r7, #0]
 8003b16:	687b      	ldr	r3, [r7, #4]
 8003b18:	0011      	movs	r1, r2
 8003b1a:	0018      	movs	r0, r3
 8003b1c:	f000 f8b8 	bl	8003c90 <USBD_CtlError>
      break;
 8003b20:	46c0      	nop			; (mov r8, r8)
    }
  }
}
 8003b22:	46c0      	nop			; (mov r8, r8)
 8003b24:	46bd      	mov	sp, r7
 8003b26:	b004      	add	sp, #16
 8003b28:	bd80      	pop	{r7, pc}
 8003b2a:	46c0      	nop			; (mov r8, r8)

08003b2c <USBD_GetStatus>:
  * @param  req: usb request
  * @retval status
  */
static void USBD_GetStatus(USB_CORE_HANDLE  *pdev, 
                           USB_SETUP_REQ *req)
{
 8003b2c:	b580      	push	{r7, lr}
 8003b2e:	b084      	sub	sp, #16
 8003b30:	af00      	add	r7, sp, #0
 8003b32:	6078      	str	r0, [r7, #4]
 8003b34:	6039      	str	r1, [r7, #0]
  uint32_t  USBD_cfg_status = 0;  
 8003b36:	2300      	movs	r3, #0
 8003b38:	60fb      	str	r3, [r7, #12]
  switch (pdev->dev.device_status) 
 8003b3a:	687b      	ldr	r3, [r7, #4]
 8003b3c:	789b      	ldrb	r3, [r3, #2]
 8003b3e:	3b02      	subs	r3, #2
 8003b40:	2b01      	cmp	r3, #1
 8003b42:	d811      	bhi.n	8003b68 <USBD_GetStatus+0x3c>
  {
  case USB_ADDRESSED:
  case USB_CONFIGURED:
    
#ifdef USBD_SELF_POWERED
    USBD_cfg_status = USB_CONFIG_SELF_POWERED;                                    
 8003b44:	2301      	movs	r3, #1
 8003b46:	60fb      	str	r3, [r7, #12]
#else
    USBD_cfg_status = 0x00;                                    
#endif
                      
    if (pdev->dev.DevRemoteWakeup) 
 8003b48:	687b      	ldr	r3, [r7, #4]
 8003b4a:	689b      	ldr	r3, [r3, #8]
 8003b4c:	2b00      	cmp	r3, #0
 8003b4e:	d003      	beq.n	8003b58 <USBD_GetStatus+0x2c>
    {
      USBD_cfg_status |= USB_CONFIG_REMOTE_WAKEUP;                                
 8003b50:	68fb      	ldr	r3, [r7, #12]
 8003b52:	2202      	movs	r2, #2
 8003b54:	4313      	orrs	r3, r2
 8003b56:	60fb      	str	r3, [r7, #12]
    }
    
    USBD_CtlSendData (pdev, 
 8003b58:	230c      	movs	r3, #12
 8003b5a:	18f9      	adds	r1, r7, r3
 8003b5c:	687b      	ldr	r3, [r7, #4]
 8003b5e:	2202      	movs	r2, #2
 8003b60:	0018      	movs	r0, r3
 8003b62:	f000 f917 	bl	8003d94 <USBD_CtlSendData>
                      (uint8_t *)&USBD_cfg_status,
                      2);
    break;
 8003b66:	e006      	b.n	8003b76 <USBD_GetStatus+0x4a>
    
  default :
    USBD_CtlError(pdev , req);                        
 8003b68:	683a      	ldr	r2, [r7, #0]
 8003b6a:	687b      	ldr	r3, [r7, #4]
 8003b6c:	0011      	movs	r1, r2
 8003b6e:	0018      	movs	r0, r3
 8003b70:	f000 f88e 	bl	8003c90 <USBD_CtlError>
    break;
 8003b74:	46c0      	nop			; (mov r8, r8)
  }
}
 8003b76:	46c0      	nop			; (mov r8, r8)
 8003b78:	46bd      	mov	sp, r7
 8003b7a:	b004      	add	sp, #16
 8003b7c:	bd80      	pop	{r7, pc}
 8003b7e:	46c0      	nop			; (mov r8, r8)

08003b80 <USBD_SetFeature>:
  * @param  req: usb request
  * @retval status
  */
static void USBD_SetFeature(USB_CORE_HANDLE  *pdev, 
                            USB_SETUP_REQ *req)
{
 8003b80:	b580      	push	{r7, lr}
 8003b82:	b082      	sub	sp, #8
 8003b84:	af00      	add	r7, sp, #0
 8003b86:	6078      	str	r0, [r7, #4]
 8003b88:	6039      	str	r1, [r7, #0]
 
  if (req->wValue == USB_FEATURE_REMOTE_WAKEUP)
 8003b8a:	683b      	ldr	r3, [r7, #0]
 8003b8c:	885b      	ldrh	r3, [r3, #2]
 8003b8e:	2b01      	cmp	r3, #1
 8003b90:	d10f      	bne.n	8003bb2 <USBD_SetFeature+0x32>
  {
    pdev->dev.DevRemoteWakeup = 1;  
 8003b92:	687b      	ldr	r3, [r7, #4]
 8003b94:	2201      	movs	r2, #1
 8003b96:	609a      	str	r2, [r3, #8]
    pdev->dev.class_cb->Setup (pdev, req);   
 8003b98:	687a      	ldr	r2, [r7, #4]
 8003b9a:	23ac      	movs	r3, #172	; 0xac
 8003b9c:	005b      	lsls	r3, r3, #1
 8003b9e:	58d3      	ldr	r3, [r2, r3]
 8003ba0:	689b      	ldr	r3, [r3, #8]
 8003ba2:	6839      	ldr	r1, [r7, #0]
 8003ba4:	687a      	ldr	r2, [r7, #4]
 8003ba6:	0010      	movs	r0, r2
 8003ba8:	4798      	blx	r3
    USBD_CtlSendStatus(pdev);
 8003baa:	687b      	ldr	r3, [r7, #4]
 8003bac:	0018      	movs	r0, r3
 8003bae:	f000 f96f 	bl	8003e90 <USBD_CtlSendStatus>
  }
}
 8003bb2:	46c0      	nop			; (mov r8, r8)
 8003bb4:	46bd      	mov	sp, r7
 8003bb6:	b002      	add	sp, #8
 8003bb8:	bd80      	pop	{r7, pc}
 8003bba:	46c0      	nop			; (mov r8, r8)

08003bbc <USBD_ClrFeature>:
  * @param  req: usb request
  * @retval status
  */
static void USBD_ClrFeature(USB_CORE_HANDLE  *pdev, 
                            USB_SETUP_REQ *req)
{
 8003bbc:	b580      	push	{r7, lr}
 8003bbe:	b082      	sub	sp, #8
 8003bc0:	af00      	add	r7, sp, #0
 8003bc2:	6078      	str	r0, [r7, #4]
 8003bc4:	6039      	str	r1, [r7, #0]
  switch (pdev->dev.device_status)
 8003bc6:	687b      	ldr	r3, [r7, #4]
 8003bc8:	789b      	ldrb	r3, [r3, #2]
 8003bca:	3b02      	subs	r3, #2
 8003bcc:	2b01      	cmp	r3, #1
 8003bce:	d814      	bhi.n	8003bfa <USBD_ClrFeature+0x3e>
  {
  case USB_ADDRESSED:
  case USB_CONFIGURED:
    if (req->wValue == USB_FEATURE_REMOTE_WAKEUP) 
 8003bd0:	683b      	ldr	r3, [r7, #0]
 8003bd2:	885b      	ldrh	r3, [r3, #2]
 8003bd4:	2b01      	cmp	r3, #1
 8003bd6:	d117      	bne.n	8003c08 <USBD_ClrFeature+0x4c>
    {
      pdev->dev.DevRemoteWakeup = 0; 
 8003bd8:	687b      	ldr	r3, [r7, #4]
 8003bda:	2200      	movs	r2, #0
 8003bdc:	609a      	str	r2, [r3, #8]
      pdev->dev.class_cb->Setup (pdev, req);   
 8003bde:	687a      	ldr	r2, [r7, #4]
 8003be0:	23ac      	movs	r3, #172	; 0xac
 8003be2:	005b      	lsls	r3, r3, #1
 8003be4:	58d3      	ldr	r3, [r2, r3]
 8003be6:	689b      	ldr	r3, [r3, #8]
 8003be8:	6839      	ldr	r1, [r7, #0]
 8003bea:	687a      	ldr	r2, [r7, #4]
 8003bec:	0010      	movs	r0, r2
 8003bee:	4798      	blx	r3
      USBD_CtlSendStatus(pdev);
 8003bf0:	687b      	ldr	r3, [r7, #4]
 8003bf2:	0018      	movs	r0, r3
 8003bf4:	f000 f94c 	bl	8003e90 <USBD_CtlSendStatus>
    }
    break;
 8003bf8:	e006      	b.n	8003c08 <USBD_ClrFeature+0x4c>
    
  default :
     USBD_CtlError(pdev , req);
 8003bfa:	683a      	ldr	r2, [r7, #0]
 8003bfc:	687b      	ldr	r3, [r7, #4]
 8003bfe:	0011      	movs	r1, r2
 8003c00:	0018      	movs	r0, r3
 8003c02:	f000 f845 	bl	8003c90 <USBD_CtlError>
    break;
 8003c06:	e000      	b.n	8003c0a <USBD_ClrFeature+0x4e>
    {
      pdev->dev.DevRemoteWakeup = 0; 
      pdev->dev.class_cb->Setup (pdev, req);   
      USBD_CtlSendStatus(pdev);
    }
    break;
 8003c08:	46c0      	nop			; (mov r8, r8)
    
  default :
     USBD_CtlError(pdev , req);
    break;
  }
}
 8003c0a:	46c0      	nop			; (mov r8, r8)
 8003c0c:	46bd      	mov	sp, r7
 8003c0e:	b002      	add	sp, #8
 8003c10:	bd80      	pop	{r7, pc}
 8003c12:	46c0      	nop			; (mov r8, r8)

08003c14 <USBD_ParseSetupRequest>:
  * @retval None
  */

void USBD_ParseSetupRequest( USB_CORE_HANDLE  *pdev,
                            USB_SETUP_REQ *req)
{
 8003c14:	b580      	push	{r7, lr}
 8003c16:	b082      	sub	sp, #8
 8003c18:	af00      	add	r7, sp, #0
 8003c1a:	6078      	str	r0, [r7, #4]
 8003c1c:	6039      	str	r1, [r7, #0]
  req->bmRequest     = *(uint8_t *)  (pdev->dev.setup_packet);
 8003c1e:	687b      	ldr	r3, [r7, #4]
 8003c20:	7c1a      	ldrb	r2, [r3, #16]
 8003c22:	683b      	ldr	r3, [r7, #0]
 8003c24:	701a      	strb	r2, [r3, #0]
  req->bRequest      = *(uint8_t *)  (pdev->dev.setup_packet +  1);
 8003c26:	687b      	ldr	r3, [r7, #4]
 8003c28:	7c5a      	ldrb	r2, [r3, #17]
 8003c2a:	683b      	ldr	r3, [r7, #0]
 8003c2c:	705a      	strb	r2, [r3, #1]
  req->wValue        = SWAPBYTE      (pdev->dev.setup_packet +  2);
 8003c2e:	687b      	ldr	r3, [r7, #4]
 8003c30:	7c9b      	ldrb	r3, [r3, #18]
 8003c32:	b29a      	uxth	r2, r3
 8003c34:	687b      	ldr	r3, [r7, #4]
 8003c36:	7cdb      	ldrb	r3, [r3, #19]
 8003c38:	b29b      	uxth	r3, r3
 8003c3a:	021b      	lsls	r3, r3, #8
 8003c3c:	b29b      	uxth	r3, r3
 8003c3e:	18d3      	adds	r3, r2, r3
 8003c40:	b29a      	uxth	r2, r3
 8003c42:	683b      	ldr	r3, [r7, #0]
 8003c44:	805a      	strh	r2, [r3, #2]
  req->wIndex        = SWAPBYTE      (pdev->dev.setup_packet +  4);
 8003c46:	687b      	ldr	r3, [r7, #4]
 8003c48:	7d1b      	ldrb	r3, [r3, #20]
 8003c4a:	b29a      	uxth	r2, r3
 8003c4c:	687b      	ldr	r3, [r7, #4]
 8003c4e:	7d5b      	ldrb	r3, [r3, #21]
 8003c50:	b29b      	uxth	r3, r3
 8003c52:	021b      	lsls	r3, r3, #8
 8003c54:	b29b      	uxth	r3, r3
 8003c56:	18d3      	adds	r3, r2, r3
 8003c58:	b29a      	uxth	r2, r3
 8003c5a:	683b      	ldr	r3, [r7, #0]
 8003c5c:	809a      	strh	r2, [r3, #4]
  req->wLength       = SWAPBYTE      (pdev->dev.setup_packet +  6);
 8003c5e:	687b      	ldr	r3, [r7, #4]
 8003c60:	7d9b      	ldrb	r3, [r3, #22]
 8003c62:	b29a      	uxth	r2, r3
 8003c64:	687b      	ldr	r3, [r7, #4]
 8003c66:	7ddb      	ldrb	r3, [r3, #23]
 8003c68:	b29b      	uxth	r3, r3
 8003c6a:	021b      	lsls	r3, r3, #8
 8003c6c:	b29b      	uxth	r3, r3
 8003c6e:	18d3      	adds	r3, r2, r3
 8003c70:	b29a      	uxth	r2, r3
 8003c72:	683b      	ldr	r3, [r7, #0]
 8003c74:	80da      	strh	r2, [r3, #6]
  
  pdev->dev.in_ep[0].ctl_data_len = req->wLength  ;
 8003c76:	683b      	ldr	r3, [r7, #0]
 8003c78:	88db      	ldrh	r3, [r3, #6]
 8003c7a:	001a      	movs	r2, r3
 8003c7c:	687b      	ldr	r3, [r7, #4]
 8003c7e:	63da      	str	r2, [r3, #60]	; 0x3c
  pdev->dev.device_state = USB_EP0_SETUP;
 8003c80:	687b      	ldr	r3, [r7, #4]
 8003c82:	2201      	movs	r2, #1
 8003c84:	705a      	strb	r2, [r3, #1]
}
 8003c86:	46c0      	nop			; (mov r8, r8)
 8003c88:	46bd      	mov	sp, r7
 8003c8a:	b002      	add	sp, #8
 8003c8c:	bd80      	pop	{r7, pc}
 8003c8e:	46c0      	nop			; (mov r8, r8)

08003c90 <USBD_CtlError>:
  * @retval None
  */

void USBD_CtlError( USB_CORE_HANDLE  *pdev,
                            USB_SETUP_REQ *req)
{
 8003c90:	b580      	push	{r7, lr}
 8003c92:	b082      	sub	sp, #8
 8003c94:	af00      	add	r7, sp, #0
 8003c96:	6078      	str	r0, [r7, #4]
 8003c98:	6039      	str	r1, [r7, #0]
  DCD_EP_Stall(pdev , 0);
 8003c9a:	687b      	ldr	r3, [r7, #4]
 8003c9c:	2100      	movs	r1, #0
 8003c9e:	0018      	movs	r0, r3
 8003ca0:	f001 fc02 	bl	80054a8 <DCD_EP_Stall>
}
 8003ca4:	46c0      	nop			; (mov r8, r8)
 8003ca6:	46bd      	mov	sp, r7
 8003ca8:	b002      	add	sp, #8
 8003caa:	bd80      	pop	{r7, pc}

08003cac <USBD_GetString>:
  * @param  unicode : Formatted string buffer (unicode)
  * @param  len : descriptor length
  * @retval None
  */
void USBD_GetString(uint8_t *desc, uint8_t *unicode, uint16_t *len)
{
 8003cac:	b580      	push	{r7, lr}
 8003cae:	b086      	sub	sp, #24
 8003cb0:	af00      	add	r7, sp, #0
 8003cb2:	60f8      	str	r0, [r7, #12]
 8003cb4:	60b9      	str	r1, [r7, #8]
 8003cb6:	607a      	str	r2, [r7, #4]
  uint8_t idx = 0;
 8003cb8:	2317      	movs	r3, #23
 8003cba:	18fb      	adds	r3, r7, r3
 8003cbc:	2200      	movs	r2, #0
 8003cbe:	701a      	strb	r2, [r3, #0]
  
  if (desc != NULL) 
 8003cc0:	68fb      	ldr	r3, [r7, #12]
 8003cc2:	2b00      	cmp	r3, #0
 8003cc4:	d044      	beq.n	8003d50 <USBD_GetString+0xa4>
  {
    *len =  USBD_GetLen(desc) * 2 + 2;    
 8003cc6:	68fb      	ldr	r3, [r7, #12]
 8003cc8:	0018      	movs	r0, r3
 8003cca:	f000 f845 	bl	8003d58 <USBD_GetLen>
 8003cce:	0003      	movs	r3, r0
 8003cd0:	3301      	adds	r3, #1
 8003cd2:	b29b      	uxth	r3, r3
 8003cd4:	18db      	adds	r3, r3, r3
 8003cd6:	b29a      	uxth	r2, r3
 8003cd8:	687b      	ldr	r3, [r7, #4]
 8003cda:	801a      	strh	r2, [r3, #0]
    unicode[idx++] = *len;
 8003cdc:	2317      	movs	r3, #23
 8003cde:	18fb      	adds	r3, r7, r3
 8003ce0:	781b      	ldrb	r3, [r3, #0]
 8003ce2:	2217      	movs	r2, #23
 8003ce4:	18ba      	adds	r2, r7, r2
 8003ce6:	1c59      	adds	r1, r3, #1
 8003ce8:	7011      	strb	r1, [r2, #0]
 8003cea:	001a      	movs	r2, r3
 8003cec:	68bb      	ldr	r3, [r7, #8]
 8003cee:	189b      	adds	r3, r3, r2
 8003cf0:	687a      	ldr	r2, [r7, #4]
 8003cf2:	8812      	ldrh	r2, [r2, #0]
 8003cf4:	b2d2      	uxtb	r2, r2
 8003cf6:	701a      	strb	r2, [r3, #0]
    unicode[idx++] =  USB_DESC_TYPE_STRING;
 8003cf8:	2317      	movs	r3, #23
 8003cfa:	18fb      	adds	r3, r7, r3
 8003cfc:	781b      	ldrb	r3, [r3, #0]
 8003cfe:	2217      	movs	r2, #23
 8003d00:	18ba      	adds	r2, r7, r2
 8003d02:	1c59      	adds	r1, r3, #1
 8003d04:	7011      	strb	r1, [r2, #0]
 8003d06:	001a      	movs	r2, r3
 8003d08:	68bb      	ldr	r3, [r7, #8]
 8003d0a:	189b      	adds	r3, r3, r2
 8003d0c:	2203      	movs	r2, #3
 8003d0e:	701a      	strb	r2, [r3, #0]
    
    while (*desc != NULL) 
 8003d10:	e01a      	b.n	8003d48 <USBD_GetString+0x9c>
    {
      unicode[idx++] = *desc++;
 8003d12:	2317      	movs	r3, #23
 8003d14:	18fb      	adds	r3, r7, r3
 8003d16:	781b      	ldrb	r3, [r3, #0]
 8003d18:	2217      	movs	r2, #23
 8003d1a:	18ba      	adds	r2, r7, r2
 8003d1c:	1c59      	adds	r1, r3, #1
 8003d1e:	7011      	strb	r1, [r2, #0]
 8003d20:	001a      	movs	r2, r3
 8003d22:	68bb      	ldr	r3, [r7, #8]
 8003d24:	189a      	adds	r2, r3, r2
 8003d26:	68fb      	ldr	r3, [r7, #12]
 8003d28:	1c59      	adds	r1, r3, #1
 8003d2a:	60f9      	str	r1, [r7, #12]
 8003d2c:	781b      	ldrb	r3, [r3, #0]
 8003d2e:	7013      	strb	r3, [r2, #0]
      unicode[idx++] =  0x00;
 8003d30:	2317      	movs	r3, #23
 8003d32:	18fb      	adds	r3, r7, r3
 8003d34:	781b      	ldrb	r3, [r3, #0]
 8003d36:	2217      	movs	r2, #23
 8003d38:	18ba      	adds	r2, r7, r2
 8003d3a:	1c59      	adds	r1, r3, #1
 8003d3c:	7011      	strb	r1, [r2, #0]
 8003d3e:	001a      	movs	r2, r3
 8003d40:	68bb      	ldr	r3, [r7, #8]
 8003d42:	189b      	adds	r3, r3, r2
 8003d44:	2200      	movs	r2, #0
 8003d46:	701a      	strb	r2, [r3, #0]
  {
    *len =  USBD_GetLen(desc) * 2 + 2;    
    unicode[idx++] = *len;
    unicode[idx++] =  USB_DESC_TYPE_STRING;
    
    while (*desc != NULL) 
 8003d48:	68fb      	ldr	r3, [r7, #12]
 8003d4a:	781b      	ldrb	r3, [r3, #0]
 8003d4c:	2b00      	cmp	r3, #0
 8003d4e:	d1e0      	bne.n	8003d12 <USBD_GetString+0x66>
    {
      unicode[idx++] = *desc++;
      unicode[idx++] =  0x00;
    }
  } 
}
 8003d50:	46c0      	nop			; (mov r8, r8)
 8003d52:	46bd      	mov	sp, r7
 8003d54:	b006      	add	sp, #24
 8003d56:	bd80      	pop	{r7, pc}

08003d58 <USBD_GetLen>:
  *         return the string length
   * @param  buf : pointer to the ascii string buffer
  * @retval string length
  */
static uint8_t USBD_GetLen(uint8_t *buf)
{
 8003d58:	b580      	push	{r7, lr}
 8003d5a:	b084      	sub	sp, #16
 8003d5c:	af00      	add	r7, sp, #0
 8003d5e:	6078      	str	r0, [r7, #4]
    uint8_t  len = 0;
 8003d60:	230f      	movs	r3, #15
 8003d62:	18fb      	adds	r3, r7, r3
 8003d64:	2200      	movs	r2, #0
 8003d66:	701a      	strb	r2, [r3, #0]

    while (*buf != NULL) 
 8003d68:	e009      	b.n	8003d7e <USBD_GetLen+0x26>
    {
        len++;
 8003d6a:	230f      	movs	r3, #15
 8003d6c:	18fb      	adds	r3, r7, r3
 8003d6e:	781a      	ldrb	r2, [r3, #0]
 8003d70:	230f      	movs	r3, #15
 8003d72:	18fb      	adds	r3, r7, r3
 8003d74:	3201      	adds	r2, #1
 8003d76:	701a      	strb	r2, [r3, #0]
        buf++;
 8003d78:	687b      	ldr	r3, [r7, #4]
 8003d7a:	3301      	adds	r3, #1
 8003d7c:	607b      	str	r3, [r7, #4]
  */
static uint8_t USBD_GetLen(uint8_t *buf)
{
    uint8_t  len = 0;

    while (*buf != NULL) 
 8003d7e:	687b      	ldr	r3, [r7, #4]
 8003d80:	781b      	ldrb	r3, [r3, #0]
 8003d82:	2b00      	cmp	r3, #0
 8003d84:	d1f1      	bne.n	8003d6a <USBD_GetLen+0x12>
    {
        len++;
        buf++;
    }

    return len;
 8003d86:	230f      	movs	r3, #15
 8003d88:	18fb      	adds	r3, r7, r3
 8003d8a:	781b      	ldrb	r3, [r3, #0]
}
 8003d8c:	0018      	movs	r0, r3
 8003d8e:	46bd      	mov	sp, r7
 8003d90:	b004      	add	sp, #16
 8003d92:	bd80      	pop	{r7, pc}

08003d94 <USBD_CtlSendData>:
  * @retval status
  */
USBD_Status  USBD_CtlSendData (USB_CORE_HANDLE  *pdev, 
                               uint8_t *pbuf,
                               uint16_t len)
{
 8003d94:	b580      	push	{r7, lr}
 8003d96:	b086      	sub	sp, #24
 8003d98:	af00      	add	r7, sp, #0
 8003d9a:	60f8      	str	r0, [r7, #12]
 8003d9c:	60b9      	str	r1, [r7, #8]
 8003d9e:	1dbb      	adds	r3, r7, #6
 8003da0:	801a      	strh	r2, [r3, #0]
  USBD_Status ret = USBD_OK;
 8003da2:	2317      	movs	r3, #23
 8003da4:	18fb      	adds	r3, r7, r3
 8003da6:	2200      	movs	r2, #0
 8003da8:	701a      	strb	r2, [r3, #0]
  
  pdev->dev.in_ep[0].total_data_len = len;
 8003daa:	1dbb      	adds	r3, r7, #6
 8003dac:	881a      	ldrh	r2, [r3, #0]
 8003dae:	68fb      	ldr	r3, [r7, #12]
 8003db0:	639a      	str	r2, [r3, #56]	; 0x38
  pdev->dev.in_ep[0].rem_data_len   = len;
 8003db2:	1dbb      	adds	r3, r7, #6
 8003db4:	881a      	ldrh	r2, [r3, #0]
 8003db6:	68fb      	ldr	r3, [r7, #12]
 8003db8:	635a      	str	r2, [r3, #52]	; 0x34
  pdev->dev.device_state = USB_EP0_DATA_IN;
 8003dba:	68fb      	ldr	r3, [r7, #12]
 8003dbc:	2202      	movs	r2, #2
 8003dbe:	705a      	strb	r2, [r3, #1]

  DCD_EP_Tx (pdev, 0, pbuf, len);
 8003dc0:	1dbb      	adds	r3, r7, #6
 8003dc2:	881b      	ldrh	r3, [r3, #0]
 8003dc4:	68ba      	ldr	r2, [r7, #8]
 8003dc6:	68f8      	ldr	r0, [r7, #12]
 8003dc8:	2100      	movs	r1, #0
 8003dca:	f001 fad7 	bl	800537c <DCD_EP_Tx>
 
  return ret;
 8003dce:	2317      	movs	r3, #23
 8003dd0:	18fb      	adds	r3, r7, r3
 8003dd2:	781b      	ldrb	r3, [r3, #0]
}
 8003dd4:	0018      	movs	r0, r3
 8003dd6:	46bd      	mov	sp, r7
 8003dd8:	b006      	add	sp, #24
 8003dda:	bd80      	pop	{r7, pc}

08003ddc <USBD_CtlContinueSendData>:
  * @retval status
  */
USBD_Status  USBD_CtlContinueSendData (USB_CORE_HANDLE  *pdev, 
                                       uint8_t *pbuf,
                                       uint16_t len)
{
 8003ddc:	b580      	push	{r7, lr}
 8003dde:	b086      	sub	sp, #24
 8003de0:	af00      	add	r7, sp, #0
 8003de2:	60f8      	str	r0, [r7, #12]
 8003de4:	60b9      	str	r1, [r7, #8]
 8003de6:	1dbb      	adds	r3, r7, #6
 8003de8:	801a      	strh	r2, [r3, #0]
  USBD_Status ret = USBD_OK;
 8003dea:	2317      	movs	r3, #23
 8003dec:	18fb      	adds	r3, r7, r3
 8003dee:	2200      	movs	r2, #0
 8003df0:	701a      	strb	r2, [r3, #0]
  
  DCD_EP_Tx (pdev, 0, pbuf, len);
 8003df2:	1dbb      	adds	r3, r7, #6
 8003df4:	881b      	ldrh	r3, [r3, #0]
 8003df6:	68ba      	ldr	r2, [r7, #8]
 8003df8:	68f8      	ldr	r0, [r7, #12]
 8003dfa:	2100      	movs	r1, #0
 8003dfc:	f001 fabe 	bl	800537c <DCD_EP_Tx>
  
  
  return ret;
 8003e00:	2317      	movs	r3, #23
 8003e02:	18fb      	adds	r3, r7, r3
 8003e04:	781b      	ldrb	r3, [r3, #0]
}
 8003e06:	0018      	movs	r0, r3
 8003e08:	46bd      	mov	sp, r7
 8003e0a:	b006      	add	sp, #24
 8003e0c:	bd80      	pop	{r7, pc}
 8003e0e:	46c0      	nop			; (mov r8, r8)

08003e10 <USBD_CtlPrepareRx>:
  * @retval status
  */
USBD_Status  USBD_CtlPrepareRx (USB_CORE_HANDLE  *pdev,
                                  uint8_t *pbuf,                                  
                                  uint16_t len)
{
 8003e10:	b580      	push	{r7, lr}
 8003e12:	b086      	sub	sp, #24
 8003e14:	af00      	add	r7, sp, #0
 8003e16:	60f8      	str	r0, [r7, #12]
 8003e18:	60b9      	str	r1, [r7, #8]
 8003e1a:	1dbb      	adds	r3, r7, #6
 8003e1c:	801a      	strh	r2, [r3, #0]
  USBD_Status ret = USBD_OK;
 8003e1e:	2317      	movs	r3, #23
 8003e20:	18fb      	adds	r3, r7, r3
 8003e22:	2200      	movs	r2, #0
 8003e24:	701a      	strb	r2, [r3, #0]
  
  pdev->dev.out_ep[0].total_data_len = len;
 8003e26:	1dbb      	adds	r3, r7, #6
 8003e28:	881a      	ldrh	r2, [r3, #0]
 8003e2a:	68fb      	ldr	r3, [r7, #12]
 8003e2c:	21d8      	movs	r1, #216	; 0xd8
 8003e2e:	505a      	str	r2, [r3, r1]
  pdev->dev.out_ep[0].rem_data_len   = len;
 8003e30:	1dbb      	adds	r3, r7, #6
 8003e32:	881a      	ldrh	r2, [r3, #0]
 8003e34:	68fb      	ldr	r3, [r7, #12]
 8003e36:	21d4      	movs	r1, #212	; 0xd4
 8003e38:	505a      	str	r2, [r3, r1]
  pdev->dev.device_state = USB_EP0_DATA_OUT;
 8003e3a:	68fb      	ldr	r3, [r7, #12]
 8003e3c:	2203      	movs	r2, #3
 8003e3e:	705a      	strb	r2, [r3, #1]
  
  DCD_EP_PrepareRx (pdev,
 8003e40:	1dbb      	adds	r3, r7, #6
 8003e42:	881b      	ldrh	r3, [r3, #0]
 8003e44:	68ba      	ldr	r2, [r7, #8]
 8003e46:	68f8      	ldr	r0, [r7, #12]
 8003e48:	2100      	movs	r1, #0
 8003e4a:	f001 fa35 	bl	80052b8 <DCD_EP_PrepareRx>
                    0,
                    pbuf,
                    len);
  

  return ret;
 8003e4e:	2317      	movs	r3, #23
 8003e50:	18fb      	adds	r3, r7, r3
 8003e52:	781b      	ldrb	r3, [r3, #0]
}
 8003e54:	0018      	movs	r0, r3
 8003e56:	46bd      	mov	sp, r7
 8003e58:	b006      	add	sp, #24
 8003e5a:	bd80      	pop	{r7, pc}

08003e5c <USBD_CtlContinueRx>:
  * @retval status
  */
USBD_Status  USBD_CtlContinueRx (USB_CORE_HANDLE  *pdev, 
                                          uint8_t *pbuf,                                          
                                          uint16_t len)
{
 8003e5c:	b580      	push	{r7, lr}
 8003e5e:	b086      	sub	sp, #24
 8003e60:	af00      	add	r7, sp, #0
 8003e62:	60f8      	str	r0, [r7, #12]
 8003e64:	60b9      	str	r1, [r7, #8]
 8003e66:	1dbb      	adds	r3, r7, #6
 8003e68:	801a      	strh	r2, [r3, #0]
  USBD_Status ret = USBD_OK;
 8003e6a:	2317      	movs	r3, #23
 8003e6c:	18fb      	adds	r3, r7, r3
 8003e6e:	2200      	movs	r2, #0
 8003e70:	701a      	strb	r2, [r3, #0]
  
  DCD_EP_PrepareRx (pdev,
 8003e72:	1dbb      	adds	r3, r7, #6
 8003e74:	881b      	ldrh	r3, [r3, #0]
 8003e76:	68ba      	ldr	r2, [r7, #8]
 8003e78:	68f8      	ldr	r0, [r7, #12]
 8003e7a:	2100      	movs	r1, #0
 8003e7c:	f001 fa1c 	bl	80052b8 <DCD_EP_PrepareRx>
                    0,                     
                    pbuf,                         
                    len);
  return ret;
 8003e80:	2317      	movs	r3, #23
 8003e82:	18fb      	adds	r3, r7, r3
 8003e84:	781b      	ldrb	r3, [r3, #0]
}
 8003e86:	0018      	movs	r0, r3
 8003e88:	46bd      	mov	sp, r7
 8003e8a:	b006      	add	sp, #24
 8003e8c:	bd80      	pop	{r7, pc}
 8003e8e:	46c0      	nop			; (mov r8, r8)

08003e90 <USBD_CtlSendStatus>:
  *         send zero length packet on the ctl pipe
  * @param  pdev: USB device instance
  * @retval status
  */
USBD_Status  USBD_CtlSendStatus (USB_CORE_HANDLE  *pdev)
{
 8003e90:	b580      	push	{r7, lr}
 8003e92:	b084      	sub	sp, #16
 8003e94:	af00      	add	r7, sp, #0
 8003e96:	6078      	str	r0, [r7, #4]
  USBD_Status ret = USBD_OK;
 8003e98:	230f      	movs	r3, #15
 8003e9a:	18fb      	adds	r3, r7, r3
 8003e9c:	2200      	movs	r2, #0
 8003e9e:	701a      	strb	r2, [r3, #0]
  pdev->dev.device_state = USB_EP0_STATUS_IN;
 8003ea0:	687b      	ldr	r3, [r7, #4]
 8003ea2:	2204      	movs	r2, #4
 8003ea4:	705a      	strb	r2, [r3, #1]
  DCD_EP_Tx (pdev,
 8003ea6:	6878      	ldr	r0, [r7, #4]
 8003ea8:	2300      	movs	r3, #0
 8003eaa:	2200      	movs	r2, #0
 8003eac:	2100      	movs	r1, #0
 8003eae:	f001 fa65 	bl	800537c <DCD_EP_Tx>
             0,
             NULL, 
             0); 
  return ret;
 8003eb2:	230f      	movs	r3, #15
 8003eb4:	18fb      	adds	r3, r7, r3
 8003eb6:	781b      	ldrb	r3, [r3, #0]
}
 8003eb8:	0018      	movs	r0, r3
 8003eba:	46bd      	mov	sp, r7
 8003ebc:	b004      	add	sp, #16
 8003ebe:	bd80      	pop	{r7, pc}

08003ec0 <USBD_CtlReceiveStatus>:
  *         receive zero length packet on the ctl pipe
  * @param  pdev: USB device instance
  * @retval status
  */
USBD_Status  USBD_CtlReceiveStatus (USB_CORE_HANDLE  *pdev)
{
 8003ec0:	b580      	push	{r7, lr}
 8003ec2:	b084      	sub	sp, #16
 8003ec4:	af00      	add	r7, sp, #0
 8003ec6:	6078      	str	r0, [r7, #4]
  USBD_Status ret = USBD_OK;
 8003ec8:	230f      	movs	r3, #15
 8003eca:	18fb      	adds	r3, r7, r3
 8003ecc:	2200      	movs	r2, #0
 8003ece:	701a      	strb	r2, [r3, #0]
  pdev->dev.device_state = USB_EP0_STATUS_OUT;  
 8003ed0:	687b      	ldr	r3, [r7, #4]
 8003ed2:	2205      	movs	r2, #5
 8003ed4:	705a      	strb	r2, [r3, #1]
  DCD_EP_PrepareRx ( pdev,
 8003ed6:	6878      	ldr	r0, [r7, #4]
 8003ed8:	2300      	movs	r3, #0
 8003eda:	2200      	movs	r2, #0
 8003edc:	2100      	movs	r1, #0
 8003ede:	f001 f9eb 	bl	80052b8 <DCD_EP_PrepareRx>
                    0,
                    NULL,
                    0); 
  
  return ret;
 8003ee2:	230f      	movs	r3, #15
 8003ee4:	18fb      	adds	r3, r7, r3
 8003ee6:	781b      	ldrb	r3, [r3, #0]
}
 8003ee8:	0018      	movs	r0, r3
 8003eea:	46bd      	mov	sp, r7
 8003eec:	b004      	add	sp, #16
 8003eee:	bd80      	pop	{r7, pc}

08003ef0 <USBD_Init>:
  */
void USBD_Init(USB_CORE_HANDLE *pdev,
               USBD_DEVICE *pDevice,                  
               USBD_Class_cb_TypeDef *class_cb, 
               USBD_Usr_cb_TypeDef *usr_cb)
{
 8003ef0:	b580      	push	{r7, lr}
 8003ef2:	b084      	sub	sp, #16
 8003ef4:	af00      	add	r7, sp, #0
 8003ef6:	60f8      	str	r0, [r7, #12]
 8003ef8:	60b9      	str	r1, [r7, #8]
 8003efa:	607a      	str	r2, [r7, #4]
 8003efc:	603b      	str	r3, [r7, #0]
  /* Hardware Init */
  USB_BSP_Init(pdev);  
 8003efe:	68fb      	ldr	r3, [r7, #12]
 8003f00:	0018      	movs	r0, r3
 8003f02:	f7fe fa21 	bl	8002348 <USB_BSP_Init>
  
  USBD_DeInit(pdev);
 8003f06:	68fb      	ldr	r3, [r7, #12]
 8003f08:	0018      	movs	r0, r3
 8003f0a:	f000 f827 	bl	8003f5c <USBD_DeInit>
  
  /*Register class and user callbacks */
  pdev->dev.class_cb = class_cb;
 8003f0e:	68fa      	ldr	r2, [r7, #12]
 8003f10:	23ac      	movs	r3, #172	; 0xac
 8003f12:	005b      	lsls	r3, r3, #1
 8003f14:	6879      	ldr	r1, [r7, #4]
 8003f16:	50d1      	str	r1, [r2, r3]
  pdev->dev.usr_cb = usr_cb;  
 8003f18:	68fa      	ldr	r2, [r7, #12]
 8003f1a:	23ae      	movs	r3, #174	; 0xae
 8003f1c:	005b      	lsls	r3, r3, #1
 8003f1e:	6839      	ldr	r1, [r7, #0]
 8003f20:	50d1      	str	r1, [r2, r3]
  pdev->dev.usr_device = pDevice;    
 8003f22:	68fa      	ldr	r2, [r7, #12]
 8003f24:	23b0      	movs	r3, #176	; 0xb0
 8003f26:	005b      	lsls	r3, r3, #1
 8003f28:	68b9      	ldr	r1, [r7, #8]
 8003f2a:	50d1      	str	r1, [r2, r3]
  
  /* Update the serial number string descriptor with the data from the unique ID*/
  Get_SerialNum();
 8003f2c:	f7fe f990 	bl	8002250 <Get_SerialNum>
  
  /* set USB DEVICE core params */
  DCD_Init(pdev);
 8003f30:	68fb      	ldr	r3, [r7, #12]
 8003f32:	0018      	movs	r0, r3
 8003f34:	f000 ffa2 	bl	8004e7c <DCD_Init>
  
  /* Upon Init call usr callback */
  pdev->dev.usr_cb->Init();
 8003f38:	68fa      	ldr	r2, [r7, #12]
 8003f3a:	23ae      	movs	r3, #174	; 0xae
 8003f3c:	005b      	lsls	r3, r3, #1
 8003f3e:	58d3      	ldr	r3, [r2, r3]
 8003f40:	681b      	ldr	r3, [r3, #0]
 8003f42:	4798      	blx	r3
//  dbgLED_off();
//  delay(500);


  /* Enable Interrupts */
  USB_BSP_EnableInterrupt(pdev);
 8003f44:	68fb      	ldr	r3, [r7, #12]
 8003f46:	0018      	movs	r0, r3
 8003f48:	f7fe fa12 	bl	8002370 <USB_BSP_EnableInterrupt>
//  delay(500);
  //TODO: Program flow works till here!

  /* Enable the pull-up */
//#ifdef INTERNAL_PULLUP
  DCD_DevConnect(pdev);
 8003f4c:	68fb      	ldr	r3, [r7, #12]
 8003f4e:	0018      	movs	r0, r3
 8003f50:	f001 fba8 	bl	80056a4 <DCD_DevConnect>
//  dbgLED_on();
//#else
// USB_BSP_DevConnect(pdev);
//#endif
  //TODO: but it's already stuck here!
}
 8003f54:	46c0      	nop			; (mov r8, r8)
 8003f56:	46bd      	mov	sp, r7
 8003f58:	b004      	add	sp, #16
 8003f5a:	bd80      	pop	{r7, pc}

08003f5c <USBD_DeInit>:
  *         Re-Initialize th device library
  * @param  pdev: device instance
  * @retval status: status
  */
USBD_Status USBD_DeInit(USB_CORE_HANDLE *pdev)
{
 8003f5c:	b580      	push	{r7, lr}
 8003f5e:	b082      	sub	sp, #8
 8003f60:	af00      	add	r7, sp, #0
 8003f62:	6078      	str	r0, [r7, #4]
  /* Software Init */
  
  return USBD_OK;
 8003f64:	2300      	movs	r3, #0
}
 8003f66:	0018      	movs	r0, r3
 8003f68:	46bd      	mov	sp, r7
 8003f6a:	b002      	add	sp, #8
 8003f6c:	bd80      	pop	{r7, pc}
 8003f6e:	46c0      	nop			; (mov r8, r8)

08003f70 <USBD_SetupStage>:
  *         Handle the setup stage
  * @param  pdev: device instance
  * @retval status
  */
static uint8_t USBD_SetupStage(USB_CORE_HANDLE *pdev)
{
 8003f70:	b580      	push	{r7, lr}
 8003f72:	b084      	sub	sp, #16
 8003f74:	af00      	add	r7, sp, #0
 8003f76:	6078      	str	r0, [r7, #4]
  USB_SETUP_REQ req;
  
  USBD_ParseSetupRequest(pdev , &req);
 8003f78:	2308      	movs	r3, #8
 8003f7a:	18fa      	adds	r2, r7, r3
 8003f7c:	687b      	ldr	r3, [r7, #4]
 8003f7e:	0011      	movs	r1, r2
 8003f80:	0018      	movs	r0, r3
 8003f82:	f7ff fe47 	bl	8003c14 <USBD_ParseSetupRequest>
  
  switch (req.bmRequest & 0x1F) 
 8003f86:	2308      	movs	r3, #8
 8003f88:	18fb      	adds	r3, r7, r3
 8003f8a:	781b      	ldrb	r3, [r3, #0]
 8003f8c:	001a      	movs	r2, r3
 8003f8e:	231f      	movs	r3, #31
 8003f90:	4013      	ands	r3, r2
 8003f92:	2b01      	cmp	r3, #1
 8003f94:	d00b      	beq.n	8003fae <USBD_SetupStage+0x3e>
 8003f96:	2b02      	cmp	r3, #2
 8003f98:	d011      	beq.n	8003fbe <USBD_SetupStage+0x4e>
 8003f9a:	2b00      	cmp	r3, #0
 8003f9c:	d117      	bne.n	8003fce <USBD_SetupStage+0x5e>
  {
  case USB_REQ_RECIPIENT_DEVICE:   
    USBD_StdDevReq (pdev, &req);
 8003f9e:	2308      	movs	r3, #8
 8003fa0:	18fa      	adds	r2, r7, r3
 8003fa2:	687b      	ldr	r3, [r7, #4]
 8003fa4:	0011      	movs	r1, r2
 8003fa6:	0018      	movs	r0, r3
 8003fa8:	f7ff fa38 	bl	800341c <USBD_StdDevReq>
    break;
 8003fac:	e01b      	b.n	8003fe6 <USBD_SetupStage+0x76>
    
  case USB_REQ_RECIPIENT_INTERFACE:     
    USBD_StdItfReq(pdev, &req);
 8003fae:	2308      	movs	r3, #8
 8003fb0:	18fa      	adds	r2, r7, r3
 8003fb2:	687b      	ldr	r3, [r7, #4]
 8003fb4:	0011      	movs	r1, r2
 8003fb6:	0018      	movs	r0, r3
 8003fb8:	f7ff fa84 	bl	80034c4 <USBD_StdItfReq>
    break;
 8003fbc:	e013      	b.n	8003fe6 <USBD_SetupStage+0x76>
    
  case USB_REQ_RECIPIENT_ENDPOINT:        
    USBD_StdEPReq(pdev, &req);   
 8003fbe:	2308      	movs	r3, #8
 8003fc0:	18fa      	adds	r2, r7, r3
 8003fc2:	687b      	ldr	r3, [r7, #4]
 8003fc4:	0011      	movs	r1, r2
 8003fc6:	0018      	movs	r0, r3
 8003fc8:	f7ff fac0 	bl	800354c <USBD_StdEPReq>
    break;
 8003fcc:	e00b      	b.n	8003fe6 <USBD_SetupStage+0x76>
    
  default:           
    DCD_EP_Stall(pdev , req.bmRequest & 0x80);
 8003fce:	2308      	movs	r3, #8
 8003fd0:	18fb      	adds	r3, r7, r3
 8003fd2:	781b      	ldrb	r3, [r3, #0]
 8003fd4:	227f      	movs	r2, #127	; 0x7f
 8003fd6:	4393      	bics	r3, r2
 8003fd8:	b2da      	uxtb	r2, r3
 8003fda:	687b      	ldr	r3, [r7, #4]
 8003fdc:	0011      	movs	r1, r2
 8003fde:	0018      	movs	r0, r3
 8003fe0:	f001 fa62 	bl	80054a8 <DCD_EP_Stall>
    break;
 8003fe4:	46c0      	nop			; (mov r8, r8)
  }  
  return USBD_OK;
 8003fe6:	2300      	movs	r3, #0
}
 8003fe8:	0018      	movs	r0, r3
 8003fea:	46bd      	mov	sp, r7
 8003fec:	b004      	add	sp, #16
 8003fee:	bd80      	pop	{r7, pc}

08003ff0 <USBD_DataOutStage>:
  * @param  pdev: device instance
  * @param  epnum: endpoint index
  * @retval status
  */
static uint8_t USBD_DataOutStage(USB_CORE_HANDLE *pdev , uint8_t epnum)
{
 8003ff0:	b580      	push	{r7, lr}
 8003ff2:	b084      	sub	sp, #16
 8003ff4:	af00      	add	r7, sp, #0
 8003ff6:	6078      	str	r0, [r7, #4]
 8003ff8:	000a      	movs	r2, r1
 8003ffa:	1cfb      	adds	r3, r7, #3
 8003ffc:	701a      	strb	r2, [r3, #0]
  USB_EP *ep;
  
  if(epnum == 0) 
 8003ffe:	1cfb      	adds	r3, r7, #3
 8004000:	781b      	ldrb	r3, [r3, #0]
 8004002:	2b00      	cmp	r3, #0
 8004004:	d13a      	bne.n	800407c <USBD_DataOutStage+0x8c>
  {
    ep = &pdev->dev.out_ep[0];
 8004006:	687b      	ldr	r3, [r7, #4]
 8004008:	33b8      	adds	r3, #184	; 0xb8
 800400a:	60fb      	str	r3, [r7, #12]
    if ( pdev->dev.device_state == USB_EP0_DATA_OUT)
 800400c:	687b      	ldr	r3, [r7, #4]
 800400e:	785b      	ldrb	r3, [r3, #1]
 8004010:	2b03      	cmp	r3, #3
 8004012:	d148      	bne.n	80040a6 <USBD_DataOutStage+0xb6>
    {
      if(ep->rem_data_len > ep->maxpacket)
 8004014:	68fb      	ldr	r3, [r7, #12]
 8004016:	69da      	ldr	r2, [r3, #28]
 8004018:	68fb      	ldr	r3, [r7, #12]
 800401a:	68db      	ldr	r3, [r3, #12]
 800401c:	429a      	cmp	r2, r3
 800401e:	d915      	bls.n	800404c <USBD_DataOutStage+0x5c>
      {
        ep->rem_data_len -=  ep->maxpacket;
 8004020:	68fb      	ldr	r3, [r7, #12]
 8004022:	69da      	ldr	r2, [r3, #28]
 8004024:	68fb      	ldr	r3, [r7, #12]
 8004026:	68db      	ldr	r3, [r3, #12]
 8004028:	1ad2      	subs	r2, r2, r3
 800402a:	68fb      	ldr	r3, [r7, #12]
 800402c:	61da      	str	r2, [r3, #28]
                
        USBD_CtlContinueRx (pdev, 
 800402e:	68fb      	ldr	r3, [r7, #12]
 8004030:	6919      	ldr	r1, [r3, #16]
                            ep->xfer_buff,
                            MIN(ep->rem_data_len ,ep->maxpacket));
 8004032:	68fb      	ldr	r3, [r7, #12]
 8004034:	68da      	ldr	r2, [r3, #12]
 8004036:	68fb      	ldr	r3, [r7, #12]
 8004038:	69db      	ldr	r3, [r3, #28]
 800403a:	429a      	cmp	r2, r3
 800403c:	d900      	bls.n	8004040 <USBD_DataOutStage+0x50>
 800403e:	001a      	movs	r2, r3
    {
      if(ep->rem_data_len > ep->maxpacket)
      {
        ep->rem_data_len -=  ep->maxpacket;
                
        USBD_CtlContinueRx (pdev, 
 8004040:	b292      	uxth	r2, r2
 8004042:	687b      	ldr	r3, [r7, #4]
 8004044:	0018      	movs	r0, r3
 8004046:	f7ff ff09 	bl	8003e5c <USBD_CtlContinueRx>
 800404a:	e02c      	b.n	80040a6 <USBD_DataOutStage+0xb6>
                            ep->xfer_buff,
                            MIN(ep->rem_data_len ,ep->maxpacket));
      }
      else
      {
        if((pdev->dev.class_cb->EP0_RxReady != NULL)&&
 800404c:	687a      	ldr	r2, [r7, #4]
 800404e:	23ac      	movs	r3, #172	; 0xac
 8004050:	005b      	lsls	r3, r3, #1
 8004052:	58d3      	ldr	r3, [r2, r3]
 8004054:	691b      	ldr	r3, [r3, #16]
 8004056:	2b00      	cmp	r3, #0
 8004058:	d00b      	beq.n	8004072 <USBD_DataOutStage+0x82>
           (pdev->dev.device_status == USB_CONFIGURED))
 800405a:	687b      	ldr	r3, [r7, #4]
 800405c:	789b      	ldrb	r3, [r3, #2]
                            ep->xfer_buff,
                            MIN(ep->rem_data_len ,ep->maxpacket));
      }
      else
      {
        if((pdev->dev.class_cb->EP0_RxReady != NULL)&&
 800405e:	2b03      	cmp	r3, #3
 8004060:	d107      	bne.n	8004072 <USBD_DataOutStage+0x82>
           (pdev->dev.device_status == USB_CONFIGURED))
        {
          pdev->dev.class_cb->EP0_RxReady(pdev); 
 8004062:	687a      	ldr	r2, [r7, #4]
 8004064:	23ac      	movs	r3, #172	; 0xac
 8004066:	005b      	lsls	r3, r3, #1
 8004068:	58d3      	ldr	r3, [r2, r3]
 800406a:	691b      	ldr	r3, [r3, #16]
 800406c:	687a      	ldr	r2, [r7, #4]
 800406e:	0010      	movs	r0, r2
 8004070:	4798      	blx	r3
        }
        USBD_CtlSendStatus(pdev);
 8004072:	687b      	ldr	r3, [r7, #4]
 8004074:	0018      	movs	r0, r3
 8004076:	f7ff ff0b 	bl	8003e90 <USBD_CtlSendStatus>
 800407a:	e014      	b.n	80040a6 <USBD_DataOutStage+0xb6>
      }
    }
  }
  else if((pdev->dev.class_cb->DataOut != NULL)&&
 800407c:	687a      	ldr	r2, [r7, #4]
 800407e:	23ac      	movs	r3, #172	; 0xac
 8004080:	005b      	lsls	r3, r3, #1
 8004082:	58d3      	ldr	r3, [r2, r3]
 8004084:	699b      	ldr	r3, [r3, #24]
 8004086:	2b00      	cmp	r3, #0
 8004088:	d00d      	beq.n	80040a6 <USBD_DataOutStage+0xb6>
          (pdev->dev.device_status == USB_CONFIGURED))
 800408a:	687b      	ldr	r3, [r7, #4]
 800408c:	789b      	ldrb	r3, [r3, #2]
        }
        USBD_CtlSendStatus(pdev);
      }
    }
  }
  else if((pdev->dev.class_cb->DataOut != NULL)&&
 800408e:	2b03      	cmp	r3, #3
 8004090:	d109      	bne.n	80040a6 <USBD_DataOutStage+0xb6>
          (pdev->dev.device_status == USB_CONFIGURED))
  {
    pdev->dev.class_cb->DataOut(pdev, epnum); 
 8004092:	687a      	ldr	r2, [r7, #4]
 8004094:	23ac      	movs	r3, #172	; 0xac
 8004096:	005b      	lsls	r3, r3, #1
 8004098:	58d3      	ldr	r3, [r2, r3]
 800409a:	699b      	ldr	r3, [r3, #24]
 800409c:	1cfa      	adds	r2, r7, #3
 800409e:	7811      	ldrb	r1, [r2, #0]
 80040a0:	687a      	ldr	r2, [r7, #4]
 80040a2:	0010      	movs	r0, r2
 80040a4:	4798      	blx	r3
  }  
  return USBD_OK;
 80040a6:	2300      	movs	r3, #0
}
 80040a8:	0018      	movs	r0, r3
 80040aa:	46bd      	mov	sp, r7
 80040ac:	b004      	add	sp, #16
 80040ae:	bd80      	pop	{r7, pc}

080040b0 <USBD_DataInStage>:
  * @param  pdev: device instance
  * @param  epnum: endpoint index
  * @retval status
  */
static uint8_t USBD_DataInStage(USB_CORE_HANDLE *pdev , uint8_t epnum)
{
 80040b0:	b580      	push	{r7, lr}
 80040b2:	b084      	sub	sp, #16
 80040b4:	af00      	add	r7, sp, #0
 80040b6:	6078      	str	r0, [r7, #4]
 80040b8:	000a      	movs	r2, r1
 80040ba:	1cfb      	adds	r3, r7, #3
 80040bc:	701a      	strb	r2, [r3, #0]
  USB_EP *ep;
  
  if(epnum == 0) 
 80040be:	1cfb      	adds	r3, r7, #3
 80040c0:	781b      	ldrb	r3, [r3, #0]
 80040c2:	2b00      	cmp	r3, #0
 80040c4:	d000      	beq.n	80040c8 <USBD_DataInStage+0x18>
 80040c6:	e069      	b.n	800419c <USBD_DataInStage+0xec>
  {
    ep = &pdev->dev.in_ep[0];
 80040c8:	687b      	ldr	r3, [r7, #4]
 80040ca:	3318      	adds	r3, #24
 80040cc:	60fb      	str	r3, [r7, #12]
    if ( pdev->dev.device_state == USB_EP0_DATA_IN)
 80040ce:	687b      	ldr	r3, [r7, #4]
 80040d0:	785b      	ldrb	r3, [r3, #1]
 80040d2:	2b02      	cmp	r3, #2
 80040d4:	d14e      	bne.n	8004174 <USBD_DataInStage+0xc4>
    {
      if(ep->rem_data_len > ep->maxpacket)
 80040d6:	68fb      	ldr	r3, [r7, #12]
 80040d8:	69da      	ldr	r2, [r3, #28]
 80040da:	68fb      	ldr	r3, [r7, #12]
 80040dc:	68db      	ldr	r3, [r3, #12]
 80040de:	429a      	cmp	r2, r3
 80040e0:	d910      	bls.n	8004104 <USBD_DataInStage+0x54>
      {
        ep->rem_data_len -=  ep->maxpacket;
 80040e2:	68fb      	ldr	r3, [r7, #12]
 80040e4:	69da      	ldr	r2, [r3, #28]
 80040e6:	68fb      	ldr	r3, [r7, #12]
 80040e8:	68db      	ldr	r3, [r3, #12]
 80040ea:	1ad2      	subs	r2, r2, r3
 80040ec:	68fb      	ldr	r3, [r7, #12]
 80040ee:	61da      	str	r2, [r3, #28]
        USBD_CtlContinueSendData (pdev, 
 80040f0:	68fb      	ldr	r3, [r7, #12]
 80040f2:	6919      	ldr	r1, [r3, #16]
                                  ep->xfer_buff, 
                                  ep->rem_data_len);
 80040f4:	68fb      	ldr	r3, [r7, #12]
 80040f6:	69db      	ldr	r3, [r3, #28]
    if ( pdev->dev.device_state == USB_EP0_DATA_IN)
    {
      if(ep->rem_data_len > ep->maxpacket)
      {
        ep->rem_data_len -=  ep->maxpacket;
        USBD_CtlContinueSendData (pdev, 
 80040f8:	b29a      	uxth	r2, r3
 80040fa:	687b      	ldr	r3, [r7, #4]
 80040fc:	0018      	movs	r0, r3
 80040fe:	f7ff fe6d 	bl	8003ddc <USBD_CtlContinueSendData>
 8004102:	e060      	b.n	80041c6 <USBD_DataInStage+0x116>
                                  ep->xfer_buff, 
                                  ep->rem_data_len);
      }
      else
      { /* last packet is MPS multiple, so send ZLP packet */
        if((ep->total_data_len % ep->maxpacket == 0) &&
 8004104:	68fb      	ldr	r3, [r7, #12]
 8004106:	6a1a      	ldr	r2, [r3, #32]
 8004108:	68fb      	ldr	r3, [r7, #12]
 800410a:	68db      	ldr	r3, [r3, #12]
 800410c:	0019      	movs	r1, r3
 800410e:	0010      	movs	r0, r2
 8004110:	f7fc f880 	bl	8000214 <__aeabi_uidivmod>
 8004114:	1e0b      	subs	r3, r1, #0
 8004116:	d115      	bne.n	8004144 <USBD_DataInStage+0x94>
           (ep->total_data_len >= ep->maxpacket) &&
 8004118:	68fb      	ldr	r3, [r7, #12]
 800411a:	6a1a      	ldr	r2, [r3, #32]
 800411c:	68fb      	ldr	r3, [r7, #12]
 800411e:	68db      	ldr	r3, [r3, #12]
                                  ep->xfer_buff, 
                                  ep->rem_data_len);
      }
      else
      { /* last packet is MPS multiple, so send ZLP packet */
        if((ep->total_data_len % ep->maxpacket == 0) &&
 8004120:	429a      	cmp	r2, r3
 8004122:	d30f      	bcc.n	8004144 <USBD_DataInStage+0x94>
           (ep->total_data_len >= ep->maxpacket) &&
             (ep->total_data_len < ep->ctl_data_len ))
 8004124:	68fb      	ldr	r3, [r7, #12]
 8004126:	6a1a      	ldr	r2, [r3, #32]
 8004128:	68fb      	ldr	r3, [r7, #12]
 800412a:	6a5b      	ldr	r3, [r3, #36]	; 0x24
                                  ep->rem_data_len);
      }
      else
      { /* last packet is MPS multiple, so send ZLP packet */
        if((ep->total_data_len % ep->maxpacket == 0) &&
           (ep->total_data_len >= ep->maxpacket) &&
 800412c:	429a      	cmp	r2, r3
 800412e:	d209      	bcs.n	8004144 <USBD_DataInStage+0x94>
             (ep->total_data_len < ep->ctl_data_len ))
        {
          
          USBD_CtlContinueSendData(pdev , NULL, 0);
 8004130:	687b      	ldr	r3, [r7, #4]
 8004132:	2200      	movs	r2, #0
 8004134:	2100      	movs	r1, #0
 8004136:	0018      	movs	r0, r3
 8004138:	f7ff fe50 	bl	8003ddc <USBD_CtlContinueSendData>
          ep->ctl_data_len = 0;
 800413c:	68fb      	ldr	r3, [r7, #12]
 800413e:	2200      	movs	r2, #0
 8004140:	625a      	str	r2, [r3, #36]	; 0x24
 8004142:	e040      	b.n	80041c6 <USBD_DataInStage+0x116>
        }
        else
        {
          if((pdev->dev.class_cb->EP0_TxSent != NULL)&&
 8004144:	687a      	ldr	r2, [r7, #4]
 8004146:	23ac      	movs	r3, #172	; 0xac
 8004148:	005b      	lsls	r3, r3, #1
 800414a:	58d3      	ldr	r3, [r2, r3]
 800414c:	68db      	ldr	r3, [r3, #12]
 800414e:	2b00      	cmp	r3, #0
 8004150:	d00b      	beq.n	800416a <USBD_DataInStage+0xba>
             (pdev->dev.device_status == USB_CONFIGURED))
 8004152:	687b      	ldr	r3, [r7, #4]
 8004154:	789b      	ldrb	r3, [r3, #2]
          USBD_CtlContinueSendData(pdev , NULL, 0);
          ep->ctl_data_len = 0;
        }
        else
        {
          if((pdev->dev.class_cb->EP0_TxSent != NULL)&&
 8004156:	2b03      	cmp	r3, #3
 8004158:	d107      	bne.n	800416a <USBD_DataInStage+0xba>
             (pdev->dev.device_status == USB_CONFIGURED))
          {
            pdev->dev.class_cb->EP0_TxSent(pdev); 
 800415a:	687a      	ldr	r2, [r7, #4]
 800415c:	23ac      	movs	r3, #172	; 0xac
 800415e:	005b      	lsls	r3, r3, #1
 8004160:	58d3      	ldr	r3, [r2, r3]
 8004162:	68db      	ldr	r3, [r3, #12]
 8004164:	687a      	ldr	r2, [r7, #4]
 8004166:	0010      	movs	r0, r2
 8004168:	4798      	blx	r3
          }          
          USBD_CtlReceiveStatus(pdev);
 800416a:	687b      	ldr	r3, [r7, #4]
 800416c:	0018      	movs	r0, r3
 800416e:	f7ff fea7 	bl	8003ec0 <USBD_CtlReceiveStatus>
 8004172:	e028      	b.n	80041c6 <USBD_DataInStage+0x116>
        }
      }
    }
    else  if ((pdev->dev.device_state == USB_EP0_STATUS_IN)&& (ADDRESS!=0))
 8004174:	687b      	ldr	r3, [r7, #4]
 8004176:	785b      	ldrb	r3, [r3, #1]
 8004178:	2b04      	cmp	r3, #4
 800417a:	d124      	bne.n	80041c6 <USBD_DataInStage+0x116>
 800417c:	4b14      	ldr	r3, [pc, #80]	; (80041d0 <USBD_DataInStage+0x120>)
 800417e:	681b      	ldr	r3, [r3, #0]
 8004180:	2b00      	cmp	r3, #0
 8004182:	d020      	beq.n	80041c6 <USBD_DataInStage+0x116>
    {
      
      DCD_EP_SetAddress(pdev, ADDRESS); 
 8004184:	4b12      	ldr	r3, [pc, #72]	; (80041d0 <USBD_DataInStage+0x120>)
 8004186:	681b      	ldr	r3, [r3, #0]
 8004188:	b2da      	uxtb	r2, r3
 800418a:	687b      	ldr	r3, [r7, #4]
 800418c:	0011      	movs	r1, r2
 800418e:	0018      	movs	r0, r3
 8004190:	f001 fa44 	bl	800561c <DCD_EP_SetAddress>
      ADDRESS = 0;
 8004194:	4b0e      	ldr	r3, [pc, #56]	; (80041d0 <USBD_DataInStage+0x120>)
 8004196:	2200      	movs	r2, #0
 8004198:	601a      	str	r2, [r3, #0]
 800419a:	e014      	b.n	80041c6 <USBD_DataInStage+0x116>
    }
  }
  else if((pdev->dev.class_cb->DataIn != NULL)&& 
 800419c:	687a      	ldr	r2, [r7, #4]
 800419e:	23ac      	movs	r3, #172	; 0xac
 80041a0:	005b      	lsls	r3, r3, #1
 80041a2:	58d3      	ldr	r3, [r2, r3]
 80041a4:	695b      	ldr	r3, [r3, #20]
 80041a6:	2b00      	cmp	r3, #0
 80041a8:	d00d      	beq.n	80041c6 <USBD_DataInStage+0x116>
          (pdev->dev.device_status == USB_CONFIGURED))
 80041aa:	687b      	ldr	r3, [r7, #4]
 80041ac:	789b      	ldrb	r3, [r3, #2]
      
      DCD_EP_SetAddress(pdev, ADDRESS); 
      ADDRESS = 0;
    }
  }
  else if((pdev->dev.class_cb->DataIn != NULL)&& 
 80041ae:	2b03      	cmp	r3, #3
 80041b0:	d109      	bne.n	80041c6 <USBD_DataInStage+0x116>
          (pdev->dev.device_status == USB_CONFIGURED))
  {
    pdev->dev.class_cb->DataIn(pdev, epnum); 
 80041b2:	687a      	ldr	r2, [r7, #4]
 80041b4:	23ac      	movs	r3, #172	; 0xac
 80041b6:	005b      	lsls	r3, r3, #1
 80041b8:	58d3      	ldr	r3, [r2, r3]
 80041ba:	695b      	ldr	r3, [r3, #20]
 80041bc:	1cfa      	adds	r2, r7, #3
 80041be:	7811      	ldrb	r1, [r2, #0]
 80041c0:	687a      	ldr	r2, [r7, #4]
 80041c2:	0010      	movs	r0, r2
 80041c4:	4798      	blx	r3
  }  
  return USBD_OK;
 80041c6:	2300      	movs	r3, #0
}
 80041c8:	0018      	movs	r0, r3
 80041ca:	46bd      	mov	sp, r7
 80041cc:	b004      	add	sp, #16
 80041ce:	bd80      	pop	{r7, pc}
 80041d0:	2000014c 	.word	0x2000014c

080041d4 <USBD_Reset>:
  * @param  pdev: device instance
  * @retval status
  */

static uint8_t USBD_Reset(USB_CORE_HANDLE  *pdev)
{
 80041d4:	b580      	push	{r7, lr}
 80041d6:	b082      	sub	sp, #8
 80041d8:	af00      	add	r7, sp, #0
 80041da:	6078      	str	r0, [r7, #4]

  DCD_PMA_Config(pdev , 0x00 ,USB_SNG_BUF, ENDP0_RX_ADDRESS);
 80041dc:	6878      	ldr	r0, [r7, #4]
 80041de:	2340      	movs	r3, #64	; 0x40
 80041e0:	2200      	movs	r2, #0
 80041e2:	2100      	movs	r1, #0
 80041e4:	f000 fe76 	bl	8004ed4 <DCD_PMA_Config>
  DCD_PMA_Config(pdev , 0x80 ,USB_SNG_BUF, ENDP0_TX_ADDRESS);
 80041e8:	6878      	ldr	r0, [r7, #4]
 80041ea:	2380      	movs	r3, #128	; 0x80
 80041ec:	2200      	movs	r2, #0
 80041ee:	2180      	movs	r1, #128	; 0x80
 80041f0:	f000 fe70 	bl	8004ed4 <DCD_PMA_Config>

  /* Open EP0 OUT */
  DCD_EP_Open(pdev,
 80041f4:	6878      	ldr	r0, [r7, #4]
 80041f6:	2300      	movs	r3, #0
 80041f8:	2240      	movs	r2, #64	; 0x40
 80041fa:	2100      	movs	r1, #0
 80041fc:	f000 feb8 	bl	8004f70 <DCD_EP_Open>
              0x00,
              USB_MAX_EP0_SIZE,
              EP_TYPE_CTRL);
  
  /* Open EP0 IN */
  DCD_EP_Open(pdev,
 8004200:	6878      	ldr	r0, [r7, #4]
 8004202:	2300      	movs	r3, #0
 8004204:	2240      	movs	r2, #64	; 0x40
 8004206:	2180      	movs	r1, #128	; 0x80
 8004208:	f000 feb2 	bl	8004f70 <DCD_EP_Open>
              0x80,
              USB_MAX_EP0_SIZE,
              EP_TYPE_CTRL);
  
  /* Upon Reset call user call back */
  pdev->dev.device_status = USB_DEFAULT;
 800420c:	687b      	ldr	r3, [r7, #4]
 800420e:	2201      	movs	r2, #1
 8004210:	709a      	strb	r2, [r3, #2]
  pdev->dev.usr_cb->DeviceReset(pdev->dev.speed);
 8004212:	687a      	ldr	r2, [r7, #4]
 8004214:	23ae      	movs	r3, #174	; 0xae
 8004216:	005b      	lsls	r3, r3, #1
 8004218:	58d3      	ldr	r3, [r2, r3]
 800421a:	685a      	ldr	r2, [r3, #4]
 800421c:	687b      	ldr	r3, [r7, #4]
 800421e:	68db      	ldr	r3, [r3, #12]
 8004220:	b2db      	uxtb	r3, r3
 8004222:	0018      	movs	r0, r3
 8004224:	4790      	blx	r2
  
  return USBD_OK;
 8004226:	2300      	movs	r3, #0
}
 8004228:	0018      	movs	r0, r3
 800422a:	46bd      	mov	sp, r7
 800422c:	b002      	add	sp, #8
 800422e:	bd80      	pop	{r7, pc}

08004230 <USBD_Resume>:
  * @param  pdev: device instance
  * @retval status
  */

static uint8_t USBD_Resume(USB_CORE_HANDLE  *pdev)
{
 8004230:	b580      	push	{r7, lr}
 8004232:	b082      	sub	sp, #8
 8004234:	af00      	add	r7, sp, #0
 8004236:	6078      	str	r0, [r7, #4]
  /* Upon Resume call user call back */
  pdev->dev.usr_cb->DeviceResumed(); 
 8004238:	687a      	ldr	r2, [r7, #4]
 800423a:	23ae      	movs	r3, #174	; 0xae
 800423c:	005b      	lsls	r3, r3, #1
 800423e:	58d3      	ldr	r3, [r2, r3]
 8004240:	691b      	ldr	r3, [r3, #16]
 8004242:	4798      	blx	r3
  pdev->dev.device_status = pdev->dev.device_old_status;   
 8004244:	687b      	ldr	r3, [r7, #4]
 8004246:	78da      	ldrb	r2, [r3, #3]
 8004248:	687b      	ldr	r3, [r7, #4]
 800424a:	709a      	strb	r2, [r3, #2]
  return USBD_OK;
 800424c:	2300      	movs	r3, #0
}
 800424e:	0018      	movs	r0, r3
 8004250:	46bd      	mov	sp, r7
 8004252:	b002      	add	sp, #8
 8004254:	bd80      	pop	{r7, pc}
 8004256:	46c0      	nop			; (mov r8, r8)

08004258 <USBD_Suspend>:
  * @param  pdev: device instance
  * @retval status
  */

static uint8_t USBD_Suspend(USB_CORE_HANDLE  *pdev)
{
 8004258:	b580      	push	{r7, lr}
 800425a:	b082      	sub	sp, #8
 800425c:	af00      	add	r7, sp, #0
 800425e:	6078      	str	r0, [r7, #4]
  pdev->dev.device_old_status = pdev->dev.device_status;
 8004260:	687b      	ldr	r3, [r7, #4]
 8004262:	789a      	ldrb	r2, [r3, #2]
 8004264:	687b      	ldr	r3, [r7, #4]
 8004266:	70da      	strb	r2, [r3, #3]
  /*Device is in Suspended State*/
  pdev->dev.device_status  = USB_SUSPENDED;
 8004268:	687b      	ldr	r3, [r7, #4]
 800426a:	2204      	movs	r2, #4
 800426c:	709a      	strb	r2, [r3, #2]
  /* Upon Resume call user call back */
  pdev->dev.usr_cb->DeviceSuspended(); 
 800426e:	687a      	ldr	r2, [r7, #4]
 8004270:	23ae      	movs	r3, #174	; 0xae
 8004272:	005b      	lsls	r3, r3, #1
 8004274:	58d3      	ldr	r3, [r2, r3]
 8004276:	68db      	ldr	r3, [r3, #12]
 8004278:	4798      	blx	r3
  return USBD_OK;
 800427a:	2300      	movs	r3, #0
}
 800427c:	0018      	movs	r0, r3
 800427e:	46bd      	mov	sp, r7
 8004280:	b002      	add	sp, #8
 8004282:	bd80      	pop	{r7, pc}

08004284 <USBD_SOF>:
  * @param  pdev: device instance
  * @retval status
  */

static uint8_t USBD_SOF(USB_CORE_HANDLE  *pdev)
{
 8004284:	b580      	push	{r7, lr}
 8004286:	b082      	sub	sp, #8
 8004288:	af00      	add	r7, sp, #0
 800428a:	6078      	str	r0, [r7, #4]
  if(pdev->dev.class_cb->SOF)
 800428c:	687a      	ldr	r2, [r7, #4]
 800428e:	23ac      	movs	r3, #172	; 0xac
 8004290:	005b      	lsls	r3, r3, #1
 8004292:	58d3      	ldr	r3, [r2, r3]
 8004294:	69db      	ldr	r3, [r3, #28]
 8004296:	2b00      	cmp	r3, #0
 8004298:	d007      	beq.n	80042aa <USBD_SOF+0x26>
  {
    pdev->dev.class_cb->SOF(pdev); 
 800429a:	687a      	ldr	r2, [r7, #4]
 800429c:	23ac      	movs	r3, #172	; 0xac
 800429e:	005b      	lsls	r3, r3, #1
 80042a0:	58d3      	ldr	r3, [r2, r3]
 80042a2:	69db      	ldr	r3, [r3, #28]
 80042a4:	687a      	ldr	r2, [r7, #4]
 80042a6:	0010      	movs	r0, r2
 80042a8:	4798      	blx	r3
  }
  return USBD_OK;
 80042aa:	2300      	movs	r3, #0
}
 80042ac:	0018      	movs	r0, r3
 80042ae:	46bd      	mov	sp, r7
 80042b0:	b002      	add	sp, #8
 80042b2:	bd80      	pop	{r7, pc}

080042b4 <USBD_SetCfg>:
  * @param  cfgidx: configuration index
  * @retval status
  */

USBD_Status USBD_SetCfg(USB_CORE_HANDLE  *pdev, uint8_t cfgidx)
{
 80042b4:	b580      	push	{r7, lr}
 80042b6:	b082      	sub	sp, #8
 80042b8:	af00      	add	r7, sp, #0
 80042ba:	6078      	str	r0, [r7, #4]
 80042bc:	000a      	movs	r2, r1
 80042be:	1cfb      	adds	r3, r7, #3
 80042c0:	701a      	strb	r2, [r3, #0]
  pdev->dev.class_cb->Init(pdev, cfgidx); 
 80042c2:	687a      	ldr	r2, [r7, #4]
 80042c4:	23ac      	movs	r3, #172	; 0xac
 80042c6:	005b      	lsls	r3, r3, #1
 80042c8:	58d3      	ldr	r3, [r2, r3]
 80042ca:	681b      	ldr	r3, [r3, #0]
 80042cc:	1cfa      	adds	r2, r7, #3
 80042ce:	7811      	ldrb	r1, [r2, #0]
 80042d0:	687a      	ldr	r2, [r7, #4]
 80042d2:	0010      	movs	r0, r2
 80042d4:	4798      	blx	r3
  
  /* Upon set config call user call back */
  pdev->dev.usr_cb->DeviceConfigured();
 80042d6:	687a      	ldr	r2, [r7, #4]
 80042d8:	23ae      	movs	r3, #174	; 0xae
 80042da:	005b      	lsls	r3, r3, #1
 80042dc:	58d3      	ldr	r3, [r2, r3]
 80042de:	689b      	ldr	r3, [r3, #8]
 80042e0:	4798      	blx	r3
  return USBD_OK; 
 80042e2:	2300      	movs	r3, #0
}
 80042e4:	0018      	movs	r0, r3
 80042e6:	46bd      	mov	sp, r7
 80042e8:	b002      	add	sp, #8
 80042ea:	bd80      	pop	{r7, pc}

080042ec <USBD_ClrCfg>:
  * @param  pdev: device instance
  * @param  cfgidx: configuration index
  * @retval status: USBD_Status
  */
USBD_Status USBD_ClrCfg(USB_CORE_HANDLE  *pdev, uint8_t cfgidx)
{
 80042ec:	b580      	push	{r7, lr}
 80042ee:	b082      	sub	sp, #8
 80042f0:	af00      	add	r7, sp, #0
 80042f2:	6078      	str	r0, [r7, #4]
 80042f4:	000a      	movs	r2, r1
 80042f6:	1cfb      	adds	r3, r7, #3
 80042f8:	701a      	strb	r2, [r3, #0]
  pdev->dev.class_cb->DeInit(pdev, cfgidx);   
 80042fa:	687a      	ldr	r2, [r7, #4]
 80042fc:	23ac      	movs	r3, #172	; 0xac
 80042fe:	005b      	lsls	r3, r3, #1
 8004300:	58d3      	ldr	r3, [r2, r3]
 8004302:	685b      	ldr	r3, [r3, #4]
 8004304:	1cfa      	adds	r2, r7, #3
 8004306:	7811      	ldrb	r1, [r2, #0]
 8004308:	687a      	ldr	r2, [r7, #4]
 800430a:	0010      	movs	r0, r2
 800430c:	4798      	blx	r3
  return USBD_OK;
 800430e:	2300      	movs	r3, #0
}
 8004310:	0018      	movs	r0, r3
 8004312:	46bd      	mov	sp, r7
 8004314:	b002      	add	sp, #8
 8004316:	bd80      	pop	{r7, pc}

08004318 <usbd_cdc_Init>:
  * @param  cfgidx: Configuration index
  * @retval status
  */
uint8_t  usbd_cdc_Init (void  *pdev, 
                               uint8_t cfgidx)
{
 8004318:	b580      	push	{r7, lr}
 800431a:	b082      	sub	sp, #8
 800431c:	af00      	add	r7, sp, #0
 800431e:	6078      	str	r0, [r7, #4]
 8004320:	000a      	movs	r2, r1
 8004322:	1cfb      	adds	r3, r7, #3
 8004324:	701a      	strb	r2, [r3, #0]
  DCD_PMA_Config(pdev , CDC_IN_EP,USB_SNG_BUF,BULK_IN_TX_ADDRESS);
 8004326:	6878      	ldr	r0, [r7, #4]
 8004328:	23c0      	movs	r3, #192	; 0xc0
 800432a:	2200      	movs	r2, #0
 800432c:	2181      	movs	r1, #129	; 0x81
 800432e:	f000 fdd1 	bl	8004ed4 <DCD_PMA_Config>
  DCD_PMA_Config(pdev , CDC_CMD_EP,USB_SNG_BUF,INT_IN_TX_ADDRESS);
 8004332:	2380      	movs	r3, #128	; 0x80
 8004334:	005b      	lsls	r3, r3, #1
 8004336:	6878      	ldr	r0, [r7, #4]
 8004338:	2200      	movs	r2, #0
 800433a:	2182      	movs	r1, #130	; 0x82
 800433c:	f000 fdca 	bl	8004ed4 <DCD_PMA_Config>
  DCD_PMA_Config(pdev , CDC_OUT_EP,USB_SNG_BUF,BULK_OUT_RX_ADDRESS);
 8004340:	2388      	movs	r3, #136	; 0x88
 8004342:	005b      	lsls	r3, r3, #1
 8004344:	6878      	ldr	r0, [r7, #4]
 8004346:	2200      	movs	r2, #0
 8004348:	2103      	movs	r1, #3
 800434a:	f000 fdc3 	bl	8004ed4 <DCD_PMA_Config>

  /* Open EP IN */
  DCD_EP_Open(pdev,
 800434e:	6878      	ldr	r0, [r7, #4]
 8004350:	2302      	movs	r3, #2
 8004352:	2240      	movs	r2, #64	; 0x40
 8004354:	2181      	movs	r1, #129	; 0x81
 8004356:	f000 fe0b 	bl	8004f70 <DCD_EP_Open>
              CDC_IN_EP,
              CDC_DATA_IN_PACKET_SIZE,
              USB_EP_BULK);
  
  /* Open EP OUT */
  DCD_EP_Open(pdev,
 800435a:	6878      	ldr	r0, [r7, #4]
 800435c:	2302      	movs	r3, #2
 800435e:	2240      	movs	r2, #64	; 0x40
 8004360:	2103      	movs	r1, #3
 8004362:	f000 fe05 	bl	8004f70 <DCD_EP_Open>
              CDC_OUT_EP,
              CDC_DATA_OUT_PACKET_SIZE,
              USB_EP_BULK);
  
  /* Open Command IN EP */
  DCD_EP_Open(pdev,
 8004366:	6878      	ldr	r0, [r7, #4]
 8004368:	2303      	movs	r3, #3
 800436a:	2208      	movs	r2, #8
 800436c:	2182      	movs	r1, #130	; 0x82
 800436e:	f000 fdff 	bl	8004f70 <DCD_EP_Open>
              USB_EP_INT);
  

  
  /* Initialize the Interface physical components */
  APP_FOPS.pIf_Init();
 8004372:	4b07      	ldr	r3, [pc, #28]	; (8004390 <usbd_cdc_Init+0x78>)
 8004374:	681b      	ldr	r3, [r3, #0]
 8004376:	4798      	blx	r3

  /* Prepare Out endpoint to receive next packet */
  DCD_EP_PrepareRx(pdev,
 8004378:	4a06      	ldr	r2, [pc, #24]	; (8004394 <usbd_cdc_Init+0x7c>)
 800437a:	6878      	ldr	r0, [r7, #4]
 800437c:	2340      	movs	r3, #64	; 0x40
 800437e:	2103      	movs	r1, #3
 8004380:	f000 ff9a 	bl	80052b8 <DCD_EP_PrepareRx>
                   CDC_OUT_EP,
                   (uint8_t*)(USB_Rx_Buffer),
                   CDC_DATA_OUT_PACKET_SIZE);
  
  return USBD_OK;
 8004384:	2300      	movs	r3, #0
}
 8004386:	0018      	movs	r0, r3
 8004388:	46bd      	mov	sp, r7
 800438a:	b002      	add	sp, #8
 800438c:	bd80      	pop	{r7, pc}
 800438e:	46c0      	nop			; (mov r8, r8)
 8004390:	20000060 	.word	0x20000060
 8004394:	2000056c 	.word	0x2000056c

08004398 <usbd_cdc_DeInit>:
  * @param  cfgidx: Configuration index
  * @retval status
  */
uint8_t  usbd_cdc_DeInit (void  *pdev, 
                                 uint8_t cfgidx)
{
 8004398:	b580      	push	{r7, lr}
 800439a:	b082      	sub	sp, #8
 800439c:	af00      	add	r7, sp, #0
 800439e:	6078      	str	r0, [r7, #4]
 80043a0:	000a      	movs	r2, r1
 80043a2:	1cfb      	adds	r3, r7, #3
 80043a4:	701a      	strb	r2, [r3, #0]
  /* Open EP IN */
  DCD_EP_Close(pdev,
 80043a6:	687b      	ldr	r3, [r7, #4]
 80043a8:	2181      	movs	r1, #129	; 0x81
 80043aa:	0018      	movs	r0, r3
 80043ac:	f000 fefe 	bl	80051ac <DCD_EP_Close>
              CDC_IN_EP);
  
  /* Open EP OUT */
  DCD_EP_Close(pdev,
 80043b0:	687b      	ldr	r3, [r7, #4]
 80043b2:	2103      	movs	r1, #3
 80043b4:	0018      	movs	r0, r3
 80043b6:	f000 fef9 	bl	80051ac <DCD_EP_Close>
              CDC_OUT_EP);
  
  /* Open Command IN EP */
  DCD_EP_Close(pdev,
 80043ba:	687b      	ldr	r3, [r7, #4]
 80043bc:	2182      	movs	r1, #130	; 0x82
 80043be:	0018      	movs	r0, r3
 80043c0:	f000 fef4 	bl	80051ac <DCD_EP_Close>
              CDC_CMD_EP);

  /* Restore default state of the Interface physical components */
  APP_FOPS.pIf_DeInit();
 80043c4:	4b03      	ldr	r3, [pc, #12]	; (80043d4 <usbd_cdc_DeInit+0x3c>)
 80043c6:	685b      	ldr	r3, [r3, #4]
 80043c8:	4798      	blx	r3
  
  return USBD_OK;
 80043ca:	2300      	movs	r3, #0
}
 80043cc:	0018      	movs	r0, r3
 80043ce:	46bd      	mov	sp, r7
 80043d0:	b002      	add	sp, #8
 80043d2:	bd80      	pop	{r7, pc}
 80043d4:	20000060 	.word	0x20000060

080043d8 <usbd_cdc_Setup>:
  * @param  req: usb requests
  * @retval status
  */
uint8_t  usbd_cdc_Setup (void  *pdev, 
                                USB_SETUP_REQ *req)
{
 80043d8:	b580      	push	{r7, lr}
 80043da:	b084      	sub	sp, #16
 80043dc:	af00      	add	r7, sp, #0
 80043de:	6078      	str	r0, [r7, #4]
 80043e0:	6039      	str	r1, [r7, #0]
  uint16_t len=USB_CDC_DESC_SIZ;
 80043e2:	230e      	movs	r3, #14
 80043e4:	18fb      	adds	r3, r7, r3
 80043e6:	223a      	movs	r2, #58	; 0x3a
 80043e8:	801a      	strh	r2, [r3, #0]
  uint8_t  *pbuf= (uint8_t*)usbd_cdc_CfgDesc + 9;
 80043ea:	4b44      	ldr	r3, [pc, #272]	; (80044fc <usbd_cdc_Setup+0x124>)
 80043ec:	60bb      	str	r3, [r7, #8]
  
  switch (req->bmRequest & USB_REQ_TYPE_MASK)
 80043ee:	683b      	ldr	r3, [r7, #0]
 80043f0:	781b      	ldrb	r3, [r3, #0]
 80043f2:	001a      	movs	r2, r3
 80043f4:	2360      	movs	r3, #96	; 0x60
 80043f6:	4013      	ands	r3, r2
 80043f8:	d03f      	beq.n	800447a <usbd_cdc_Setup+0xa2>
 80043fa:	2b20      	cmp	r3, #32
 80043fc:	d135      	bne.n	800446a <usbd_cdc_Setup+0x92>
  {
    /* CDC Class Requests -------------------------------*/
  case USB_REQ_TYPE_CLASS :
      /* Check if the request is a data setup packet */
      if (req->wLength)
 80043fe:	683b      	ldr	r3, [r7, #0]
 8004400:	88db      	ldrh	r3, [r3, #6]
 8004402:	2b00      	cmp	r3, #0
 8004404:	d027      	beq.n	8004456 <usbd_cdc_Setup+0x7e>
      {
        /* Check if the request is Device-to-Host */
        if (req->bmRequest & 0x80)
 8004406:	683b      	ldr	r3, [r7, #0]
 8004408:	781b      	ldrb	r3, [r3, #0]
 800440a:	b25b      	sxtb	r3, r3
 800440c:	2b00      	cmp	r3, #0
 800440e:	da10      	bge.n	8004432 <usbd_cdc_Setup+0x5a>
        {
          /* Get the data to be sent to Host from interface layer */
          APP_FOPS.pIf_Ctrl(req->bRequest, CmdBuff, req->wLength);
 8004410:	4b3b      	ldr	r3, [pc, #236]	; (8004500 <usbd_cdc_Setup+0x128>)
 8004412:	689b      	ldr	r3, [r3, #8]
 8004414:	683a      	ldr	r2, [r7, #0]
 8004416:	7852      	ldrb	r2, [r2, #1]
 8004418:	0010      	movs	r0, r2
 800441a:	683a      	ldr	r2, [r7, #0]
 800441c:	88d2      	ldrh	r2, [r2, #6]
 800441e:	4939      	ldr	r1, [pc, #228]	; (8004504 <usbd_cdc_Setup+0x12c>)
 8004420:	4798      	blx	r3
          
          /* Send the data to the host */
          USBD_CtlSendData (pdev, 
 8004422:	683b      	ldr	r3, [r7, #0]
 8004424:	88da      	ldrh	r2, [r3, #6]
 8004426:	4937      	ldr	r1, [pc, #220]	; (8004504 <usbd_cdc_Setup+0x12c>)
 8004428:	687b      	ldr	r3, [r7, #4]
 800442a:	0018      	movs	r0, r3
 800442c:	f7ff fcb2 	bl	8003d94 <USBD_CtlSendData>
 8004430:	e019      	b.n	8004466 <usbd_cdc_Setup+0x8e>
                            req->wLength);          
        }
        else /* Host-to-Device requeset */
        {
          /* Set the value of the current command to be processed */
          cdcCmd = req->bRequest;
 8004432:	683b      	ldr	r3, [r7, #0]
 8004434:	785b      	ldrb	r3, [r3, #1]
 8004436:	001a      	movs	r2, r3
 8004438:	4b33      	ldr	r3, [pc, #204]	; (8004508 <usbd_cdc_Setup+0x130>)
 800443a:	601a      	str	r2, [r3, #0]
          cdcLen = req->wLength;
 800443c:	683b      	ldr	r3, [r7, #0]
 800443e:	88db      	ldrh	r3, [r3, #6]
 8004440:	001a      	movs	r2, r3
 8004442:	4b32      	ldr	r3, [pc, #200]	; (800450c <usbd_cdc_Setup+0x134>)
 8004444:	601a      	str	r2, [r3, #0]
          
          /* Prepare the reception of the buffer over EP0
          Next step: the received data will be managed in usbd_cdc_EP0_TxSent() 
          function. */
          USBD_CtlPrepareRx (pdev,
 8004446:	683b      	ldr	r3, [r7, #0]
 8004448:	88da      	ldrh	r2, [r3, #6]
 800444a:	492e      	ldr	r1, [pc, #184]	; (8004504 <usbd_cdc_Setup+0x12c>)
 800444c:	687b      	ldr	r3, [r7, #4]
 800444e:	0018      	movs	r0, r3
 8004450:	f7ff fcde 	bl	8003e10 <USBD_CtlPrepareRx>
 8004454:	e007      	b.n	8004466 <usbd_cdc_Setup+0x8e>
        }
      }
      else /* No Data request */
      {
        /* Transfer the command to the interface layer */
        APP_FOPS.pIf_Ctrl(req->bRequest, NULL, 0);
 8004456:	4b2a      	ldr	r3, [pc, #168]	; (8004500 <usbd_cdc_Setup+0x128>)
 8004458:	689b      	ldr	r3, [r3, #8]
 800445a:	683a      	ldr	r2, [r7, #0]
 800445c:	7852      	ldrb	r2, [r2, #1]
 800445e:	0010      	movs	r0, r2
 8004460:	2200      	movs	r2, #0
 8004462:	2100      	movs	r1, #0
 8004464:	4798      	blx	r3
      }
      
      return USBD_OK;
 8004466:	2300      	movs	r3, #0
 8004468:	e044      	b.n	80044f4 <usbd_cdc_Setup+0x11c>
      
    default:
      USBD_CtlError (pdev, req);
 800446a:	683a      	ldr	r2, [r7, #0]
 800446c:	687b      	ldr	r3, [r7, #4]
 800446e:	0011      	movs	r1, r2
 8004470:	0018      	movs	r0, r3
 8004472:	f7ff fc0d 	bl	8003c90 <USBD_CtlError>
      return USBD_FAIL;
 8004476:	2302      	movs	r3, #2
 8004478:	e03c      	b.n	80044f4 <usbd_cdc_Setup+0x11c>
    
      
      
    /* Standard Requests -------------------------------*/
  case USB_REQ_TYPE_STANDARD:
    switch (req->bRequest)
 800447a:	683b      	ldr	r3, [r7, #0]
 800447c:	785b      	ldrb	r3, [r3, #1]
 800447e:	2b0a      	cmp	r3, #10
 8004480:	d01d      	beq.n	80044be <usbd_cdc_Setup+0xe6>
 8004482:	2b0b      	cmp	r3, #11
 8004484:	d022      	beq.n	80044cc <usbd_cdc_Setup+0xf4>
 8004486:	2b06      	cmp	r3, #6
 8004488:	d133      	bne.n	80044f2 <usbd_cdc_Setup+0x11a>
    {
    case USB_REQ_GET_DESCRIPTOR: 
      if( (req->wValue >> 8) == CDC_DESCRIPTOR_TYPE)
 800448a:	683b      	ldr	r3, [r7, #0]
 800448c:	885b      	ldrh	r3, [r3, #2]
 800448e:	0a1b      	lsrs	r3, r3, #8
 8004490:	b29b      	uxth	r3, r3
 8004492:	2b21      	cmp	r3, #33	; 0x21
 8004494:	d10a      	bne.n	80044ac <usbd_cdc_Setup+0xd4>
      {
        pbuf = (uint8_t*)usbd_cdc_CfgDesc + 9 + (9 * USBD_ITF_MAX_NUM);
 8004496:	4b1e      	ldr	r3, [pc, #120]	; (8004510 <usbd_cdc_Setup+0x138>)
 8004498:	60bb      	str	r3, [r7, #8]
        len = MIN(USB_CDC_DESC_SIZ , req->wLength);
 800449a:	683b      	ldr	r3, [r7, #0]
 800449c:	88db      	ldrh	r3, [r3, #6]
 800449e:	220e      	movs	r2, #14
 80044a0:	18ba      	adds	r2, r7, r2
 80044a2:	b299      	uxth	r1, r3
 80044a4:	293a      	cmp	r1, #58	; 0x3a
 80044a6:	d900      	bls.n	80044aa <usbd_cdc_Setup+0xd2>
 80044a8:	233a      	movs	r3, #58	; 0x3a
 80044aa:	8013      	strh	r3, [r2, #0]
      }
      
      USBD_CtlSendData (pdev, 
 80044ac:	230e      	movs	r3, #14
 80044ae:	18fb      	adds	r3, r7, r3
 80044b0:	881a      	ldrh	r2, [r3, #0]
 80044b2:	68b9      	ldr	r1, [r7, #8]
 80044b4:	687b      	ldr	r3, [r7, #4]
 80044b6:	0018      	movs	r0, r3
 80044b8:	f7ff fc6c 	bl	8003d94 <USBD_CtlSendData>
                        pbuf,
                        len);
      break;
 80044bc:	e019      	b.n	80044f2 <usbd_cdc_Setup+0x11a>
      
    case USB_REQ_GET_INTERFACE :
      USBD_CtlSendData (pdev,
 80044be:	4915      	ldr	r1, [pc, #84]	; (8004514 <usbd_cdc_Setup+0x13c>)
 80044c0:	687b      	ldr	r3, [r7, #4]
 80044c2:	2201      	movs	r2, #1
 80044c4:	0018      	movs	r0, r3
 80044c6:	f7ff fc65 	bl	8003d94 <USBD_CtlSendData>
                        (uint8_t *)&usbd_cdc_AltSet,
                        1);
      break;
 80044ca:	e012      	b.n	80044f2 <usbd_cdc_Setup+0x11a>
      
    case USB_REQ_SET_INTERFACE :
      if ((uint8_t)(req->wValue) < USBD_ITF_MAX_NUM)
 80044cc:	683b      	ldr	r3, [r7, #0]
 80044ce:	885b      	ldrh	r3, [r3, #2]
 80044d0:	b2db      	uxtb	r3, r3
 80044d2:	2b00      	cmp	r3, #0
 80044d4:	d106      	bne.n	80044e4 <usbd_cdc_Setup+0x10c>
      {
        usbd_cdc_AltSet = (uint8_t)(req->wValue);
 80044d6:	683b      	ldr	r3, [r7, #0]
 80044d8:	885b      	ldrh	r3, [r3, #2]
 80044da:	b2db      	uxtb	r3, r3
 80044dc:	001a      	movs	r2, r3
 80044de:	4b0d      	ldr	r3, [pc, #52]	; (8004514 <usbd_cdc_Setup+0x13c>)
 80044e0:	601a      	str	r2, [r3, #0]
      else
      {
        /* Call the error management function (command will be nacked */
        USBD_CtlError (pdev, req);
      }
      break;
 80044e2:	e005      	b.n	80044f0 <usbd_cdc_Setup+0x118>
        usbd_cdc_AltSet = (uint8_t)(req->wValue);
      }
      else
      {
        /* Call the error management function (command will be nacked */
        USBD_CtlError (pdev, req);
 80044e4:	683a      	ldr	r2, [r7, #0]
 80044e6:	687b      	ldr	r3, [r7, #4]
 80044e8:	0011      	movs	r1, r2
 80044ea:	0018      	movs	r0, r3
 80044ec:	f7ff fbd0 	bl	8003c90 <USBD_CtlError>
      }
      break;
 80044f0:	46c0      	nop			; (mov r8, r8)
    }
  }
  return USBD_OK;
 80044f2:	2300      	movs	r3, #0
}
 80044f4:	0018      	movs	r0, r3
 80044f6:	46bd      	mov	sp, r7
 80044f8:	b004      	add	sp, #16
 80044fa:	bd80      	pop	{r7, pc}
 80044fc:	08007601 	.word	0x08007601
 8004500:	20000060 	.word	0x20000060
 8004504:	200005ac 	.word	0x200005ac
 8004508:	20000094 	.word	0x20000094
 800450c:	2000016c 	.word	0x2000016c
 8004510:	0800760a 	.word	0x0800760a
 8004514:	20000154 	.word	0x20000154

08004518 <usbd_cdc_EP0_RxReady>:
  *         Data received on control endpoint
  * @param  pdev: device device instance
  * @retval status
  */
uint8_t  usbd_cdc_EP0_RxReady (void  *pdev)
{ 
 8004518:	b590      	push	{r4, r7, lr}
 800451a:	b083      	sub	sp, #12
 800451c:	af00      	add	r7, sp, #0
 800451e:	6078      	str	r0, [r7, #4]
  if (cdcCmd != NO_CMD)
 8004520:	4b0a      	ldr	r3, [pc, #40]	; (800454c <usbd_cdc_EP0_RxReady+0x34>)
 8004522:	681b      	ldr	r3, [r3, #0]
 8004524:	2bff      	cmp	r3, #255	; 0xff
 8004526:	d00b      	beq.n	8004540 <usbd_cdc_EP0_RxReady+0x28>
  {
    /* Process the data */
    APP_FOPS.pIf_Ctrl(cdcCmd, CmdBuff, cdcLen);
 8004528:	4b09      	ldr	r3, [pc, #36]	; (8004550 <usbd_cdc_EP0_RxReady+0x38>)
 800452a:	689c      	ldr	r4, [r3, #8]
 800452c:	4b07      	ldr	r3, [pc, #28]	; (800454c <usbd_cdc_EP0_RxReady+0x34>)
 800452e:	6818      	ldr	r0, [r3, #0]
 8004530:	4b08      	ldr	r3, [pc, #32]	; (8004554 <usbd_cdc_EP0_RxReady+0x3c>)
 8004532:	681a      	ldr	r2, [r3, #0]
 8004534:	4b08      	ldr	r3, [pc, #32]	; (8004558 <usbd_cdc_EP0_RxReady+0x40>)
 8004536:	0019      	movs	r1, r3
 8004538:	47a0      	blx	r4
    
    /* Reset the command variable to default value */
    cdcCmd = NO_CMD;
 800453a:	4b04      	ldr	r3, [pc, #16]	; (800454c <usbd_cdc_EP0_RxReady+0x34>)
 800453c:	22ff      	movs	r2, #255	; 0xff
 800453e:	601a      	str	r2, [r3, #0]
  }
  
  return USBD_OK;
 8004540:	2300      	movs	r3, #0
}
 8004542:	0018      	movs	r0, r3
 8004544:	46bd      	mov	sp, r7
 8004546:	b003      	add	sp, #12
 8004548:	bd90      	pop	{r4, r7, pc}
 800454a:	46c0      	nop			; (mov r8, r8)
 800454c:	20000094 	.word	0x20000094
 8004550:	20000060 	.word	0x20000060
 8004554:	2000016c 	.word	0x2000016c
 8004558:	200005ac 	.word	0x200005ac

0800455c <usbd_cdc_DataIn>:
  * @param  pdev: device instance
  * @param  epnum: endpoint number
  * @retval status
  */
uint8_t  usbd_cdc_DataIn (void *pdev, uint8_t epnum)
{
 800455c:	b580      	push	{r7, lr}
 800455e:	b084      	sub	sp, #16
 8004560:	af00      	add	r7, sp, #0
 8004562:	6078      	str	r0, [r7, #4]
 8004564:	000a      	movs	r2, r1
 8004566:	1cfb      	adds	r3, r7, #3
 8004568:	701a      	strb	r2, [r3, #0]
  uint16_t USB_Tx_ptr;
  uint16_t USB_Tx_length;
  
  if (USB_Tx_State == 1)
 800456a:	4b30      	ldr	r3, [pc, #192]	; (800462c <usbd_cdc_DataIn+0xd0>)
 800456c:	781b      	ldrb	r3, [r3, #0]
 800456e:	2b01      	cmp	r3, #1
 8004570:	d156      	bne.n	8004620 <usbd_cdc_DataIn+0xc4>
  {
    if (APP_Rx_length == 0) 
 8004572:	4b2f      	ldr	r3, [pc, #188]	; (8004630 <usbd_cdc_DataIn+0xd4>)
 8004574:	681b      	ldr	r3, [r3, #0]
 8004576:	2b00      	cmp	r3, #0
 8004578:	d111      	bne.n	800459e <usbd_cdc_DataIn+0x42>
    {
      if (last_packet ==1)
 800457a:	4b2e      	ldr	r3, [pc, #184]	; (8004634 <usbd_cdc_DataIn+0xd8>)
 800457c:	681b      	ldr	r3, [r3, #0]
 800457e:	2b01      	cmp	r3, #1
 8004580:	d109      	bne.n	8004596 <usbd_cdc_DataIn+0x3a>
      {
        last_packet =0;
 8004582:	4b2c      	ldr	r3, [pc, #176]	; (8004634 <usbd_cdc_DataIn+0xd8>)
 8004584:	2200      	movs	r2, #0
 8004586:	601a      	str	r2, [r3, #0]
        
        /*Send zero-length packet*/
        DCD_EP_Tx (pdev, CDC_IN_EP, 0, 0);
 8004588:	6878      	ldr	r0, [r7, #4]
 800458a:	2300      	movs	r3, #0
 800458c:	2200      	movs	r2, #0
 800458e:	2181      	movs	r1, #129	; 0x81
 8004590:	f000 fef4 	bl	800537c <DCD_EP_Tx>
 8004594:	e044      	b.n	8004620 <usbd_cdc_DataIn+0xc4>
      }
      else
      {
        USB_Tx_State = 0;
 8004596:	4b25      	ldr	r3, [pc, #148]	; (800462c <usbd_cdc_DataIn+0xd0>)
 8004598:	2200      	movs	r2, #0
 800459a:	701a      	strb	r2, [r3, #0]
 800459c:	e040      	b.n	8004620 <usbd_cdc_DataIn+0xc4>
      }
    }
    else 
    {
      if (APP_Rx_length > CDC_DATA_IN_PACKET_SIZE){
 800459e:	4b24      	ldr	r3, [pc, #144]	; (8004630 <usbd_cdc_DataIn+0xd4>)
 80045a0:	681b      	ldr	r3, [r3, #0]
 80045a2:	2b40      	cmp	r3, #64	; 0x40
 80045a4:	d915      	bls.n	80045d2 <usbd_cdc_DataIn+0x76>
        USB_Tx_ptr = APP_Rx_ptr_out;
 80045a6:	4b24      	ldr	r3, [pc, #144]	; (8004638 <usbd_cdc_DataIn+0xdc>)
 80045a8:	681a      	ldr	r2, [r3, #0]
 80045aa:	230e      	movs	r3, #14
 80045ac:	18fb      	adds	r3, r7, r3
 80045ae:	801a      	strh	r2, [r3, #0]
        USB_Tx_length = CDC_DATA_IN_PACKET_SIZE;
 80045b0:	230c      	movs	r3, #12
 80045b2:	18fb      	adds	r3, r7, r3
 80045b4:	2240      	movs	r2, #64	; 0x40
 80045b6:	801a      	strh	r2, [r3, #0]
        
        APP_Rx_ptr_out += CDC_DATA_IN_PACKET_SIZE;
 80045b8:	4b1f      	ldr	r3, [pc, #124]	; (8004638 <usbd_cdc_DataIn+0xdc>)
 80045ba:	681b      	ldr	r3, [r3, #0]
 80045bc:	3340      	adds	r3, #64	; 0x40
 80045be:	001a      	movs	r2, r3
 80045c0:	4b1d      	ldr	r3, [pc, #116]	; (8004638 <usbd_cdc_DataIn+0xdc>)
 80045c2:	601a      	str	r2, [r3, #0]
        APP_Rx_length -= CDC_DATA_IN_PACKET_SIZE;    
 80045c4:	4b1a      	ldr	r3, [pc, #104]	; (8004630 <usbd_cdc_DataIn+0xd4>)
 80045c6:	681b      	ldr	r3, [r3, #0]
 80045c8:	3b40      	subs	r3, #64	; 0x40
 80045ca:	001a      	movs	r2, r3
 80045cc:	4b18      	ldr	r3, [pc, #96]	; (8004630 <usbd_cdc_DataIn+0xd4>)
 80045ce:	601a      	str	r2, [r3, #0]
 80045d0:	e01a      	b.n	8004608 <usbd_cdc_DataIn+0xac>
      }
      else 
      {
        USB_Tx_ptr = APP_Rx_ptr_out;
 80045d2:	4b19      	ldr	r3, [pc, #100]	; (8004638 <usbd_cdc_DataIn+0xdc>)
 80045d4:	681a      	ldr	r2, [r3, #0]
 80045d6:	230e      	movs	r3, #14
 80045d8:	18fb      	adds	r3, r7, r3
 80045da:	801a      	strh	r2, [r3, #0]
        USB_Tx_length = APP_Rx_length;
 80045dc:	4b14      	ldr	r3, [pc, #80]	; (8004630 <usbd_cdc_DataIn+0xd4>)
 80045de:	681a      	ldr	r2, [r3, #0]
 80045e0:	230c      	movs	r3, #12
 80045e2:	18fb      	adds	r3, r7, r3
 80045e4:	801a      	strh	r2, [r3, #0]
        
        APP_Rx_ptr_out += APP_Rx_length;
 80045e6:	4b14      	ldr	r3, [pc, #80]	; (8004638 <usbd_cdc_DataIn+0xdc>)
 80045e8:	681a      	ldr	r2, [r3, #0]
 80045ea:	4b11      	ldr	r3, [pc, #68]	; (8004630 <usbd_cdc_DataIn+0xd4>)
 80045ec:	681b      	ldr	r3, [r3, #0]
 80045ee:	18d2      	adds	r2, r2, r3
 80045f0:	4b11      	ldr	r3, [pc, #68]	; (8004638 <usbd_cdc_DataIn+0xdc>)
 80045f2:	601a      	str	r2, [r3, #0]
        APP_Rx_length = 0;
 80045f4:	4b0e      	ldr	r3, [pc, #56]	; (8004630 <usbd_cdc_DataIn+0xd4>)
 80045f6:	2200      	movs	r2, #0
 80045f8:	601a      	str	r2, [r3, #0]
        if (APP_Rx_length == CDC_DATA_IN_PACKET_SIZE) last_packet = 1;
 80045fa:	4b0d      	ldr	r3, [pc, #52]	; (8004630 <usbd_cdc_DataIn+0xd4>)
 80045fc:	681b      	ldr	r3, [r3, #0]
 80045fe:	2b40      	cmp	r3, #64	; 0x40
 8004600:	d102      	bne.n	8004608 <usbd_cdc_DataIn+0xac>
 8004602:	4b0c      	ldr	r3, [pc, #48]	; (8004634 <usbd_cdc_DataIn+0xd8>)
 8004604:	2201      	movs	r2, #1
 8004606:	601a      	str	r2, [r3, #0]
      }
      
      /* Prepare the available data buffer to be sent on IN endpoint */
      DCD_EP_Tx (pdev,
                 CDC_IN_EP,
                 (uint8_t*)&APP_Rx_Buffer[USB_Tx_ptr],
 8004608:	230e      	movs	r3, #14
 800460a:	18fb      	adds	r3, r7, r3
 800460c:	881a      	ldrh	r2, [r3, #0]
        APP_Rx_length = 0;
        if (APP_Rx_length == CDC_DATA_IN_PACKET_SIZE) last_packet = 1;
      }
      
      /* Prepare the available data buffer to be sent on IN endpoint */
      DCD_EP_Tx (pdev,
 800460e:	4b0b      	ldr	r3, [pc, #44]	; (800463c <usbd_cdc_DataIn+0xe0>)
 8004610:	18d2      	adds	r2, r2, r3
 8004612:	230c      	movs	r3, #12
 8004614:	18fb      	adds	r3, r7, r3
 8004616:	881b      	ldrh	r3, [r3, #0]
 8004618:	6878      	ldr	r0, [r7, #4]
 800461a:	2181      	movs	r1, #129	; 0x81
 800461c:	f000 feae 	bl	800537c <DCD_EP_Tx>
                 (uint8_t*)&APP_Rx_Buffer[USB_Tx_ptr],
                 USB_Tx_length);
    }
  }  
  
  return USBD_OK;
 8004620:	2300      	movs	r3, #0
}
 8004622:	0018      	movs	r0, r3
 8004624:	46bd      	mov	sp, r7
 8004626:	b004      	add	sp, #16
 8004628:	bd80      	pop	{r7, pc}
 800462a:	46c0      	nop			; (mov r8, r8)
 800462c:	20000168 	.word	0x20000168
 8004630:	20000164 	.word	0x20000164
 8004634:	20000158 	.word	0x20000158
 8004638:	20000160 	.word	0x20000160
 800463c:	200005b4 	.word	0x200005b4

08004640 <usbd_cdc_DataOut>:
  * @param  pdev: device instance
  * @param  epnum: endpoint number
  * @retval status
  */
uint8_t  usbd_cdc_DataOut (void *pdev, uint8_t epnum)
{      
 8004640:	b580      	push	{r7, lr}
 8004642:	b084      	sub	sp, #16
 8004644:	af00      	add	r7, sp, #0
 8004646:	6078      	str	r0, [r7, #4]
 8004648:	000a      	movs	r2, r1
 800464a:	1cfb      	adds	r3, r7, #3
 800464c:	701a      	strb	r2, [r3, #0]
  uint16_t USB_Rx_Cnt;
  
  /* Get the received data buffer and update the counter */
  USB_Rx_Cnt = ((USB_CORE_HANDLE*)pdev)->dev.out_ep[epnum].xfer_count;
 800464e:	1cfb      	adds	r3, r7, #3
 8004650:	781a      	ldrb	r2, [r3, #0]
 8004652:	6879      	ldr	r1, [r7, #4]
 8004654:	20d0      	movs	r0, #208	; 0xd0
 8004656:	0013      	movs	r3, r2
 8004658:	009b      	lsls	r3, r3, #2
 800465a:	189b      	adds	r3, r3, r2
 800465c:	00db      	lsls	r3, r3, #3
 800465e:	18cb      	adds	r3, r1, r3
 8004660:	181b      	adds	r3, r3, r0
 8004662:	681a      	ldr	r2, [r3, #0]
 8004664:	230e      	movs	r3, #14
 8004666:	18fb      	adds	r3, r7, r3
 8004668:	801a      	strh	r2, [r3, #0]
  
  /* USB data will be immediately processed, this allow next USB traffic being 
     NAKed till the end of the application Xfer */
  APP_FOPS.pIf_DataRx(USB_Rx_Buffer, USB_Rx_Cnt);
 800466a:	4b09      	ldr	r3, [pc, #36]	; (8004690 <usbd_cdc_DataOut+0x50>)
 800466c:	691b      	ldr	r3, [r3, #16]
 800466e:	220e      	movs	r2, #14
 8004670:	18ba      	adds	r2, r7, r2
 8004672:	8811      	ldrh	r1, [r2, #0]
 8004674:	4a07      	ldr	r2, [pc, #28]	; (8004694 <usbd_cdc_DataOut+0x54>)
 8004676:	0010      	movs	r0, r2
 8004678:	4798      	blx	r3
  
  /* Prepare Out endpoint to receive next packet */
  DCD_EP_PrepareRx(pdev,
 800467a:	4a06      	ldr	r2, [pc, #24]	; (8004694 <usbd_cdc_DataOut+0x54>)
 800467c:	6878      	ldr	r0, [r7, #4]
 800467e:	2340      	movs	r3, #64	; 0x40
 8004680:	2103      	movs	r1, #3
 8004682:	f000 fe19 	bl	80052b8 <DCD_EP_PrepareRx>
                   CDC_OUT_EP,
                   (uint8_t*)(USB_Rx_Buffer),
                   CDC_DATA_OUT_PACKET_SIZE);

  return USBD_OK;
 8004686:	2300      	movs	r3, #0
}
 8004688:	0018      	movs	r0, r3
 800468a:	46bd      	mov	sp, r7
 800468c:	b004      	add	sp, #16
 800468e:	bd80      	pop	{r7, pc}
 8004690:	20000060 	.word	0x20000060
 8004694:	2000056c 	.word	0x2000056c

08004698 <usbd_cdc_SOF>:
  * @param  pdev: instance
  * @param  epnum: endpoint number
  * @retval status
  */
uint8_t  usbd_cdc_SOF (void *pdev)
{      
 8004698:	b580      	push	{r7, lr}
 800469a:	b082      	sub	sp, #8
 800469c:	af00      	add	r7, sp, #0
 800469e:	6078      	str	r0, [r7, #4]
  static uint32_t FrameCount = 0;
  
  if (FrameCount++ == CDC_IN_FRAME_INTERVAL)
 80046a0:	4b09      	ldr	r3, [pc, #36]	; (80046c8 <usbd_cdc_SOF+0x30>)
 80046a2:	681b      	ldr	r3, [r3, #0]
 80046a4:	1c59      	adds	r1, r3, #1
 80046a6:	4a08      	ldr	r2, [pc, #32]	; (80046c8 <usbd_cdc_SOF+0x30>)
 80046a8:	6011      	str	r1, [r2, #0]
 80046aa:	2b05      	cmp	r3, #5
 80046ac:	d106      	bne.n	80046bc <usbd_cdc_SOF+0x24>
  {
    /* Reset the frame counter */
    FrameCount = 0;
 80046ae:	4b06      	ldr	r3, [pc, #24]	; (80046c8 <usbd_cdc_SOF+0x30>)
 80046b0:	2200      	movs	r2, #0
 80046b2:	601a      	str	r2, [r3, #0]
    
    /* Check the data to be sent through IN pipe */
    Handle_USBAsynchXfer(pdev);
 80046b4:	687b      	ldr	r3, [r7, #4]
 80046b6:	0018      	movs	r0, r3
 80046b8:	f000 f808 	bl	80046cc <Handle_USBAsynchXfer>
  }
  
  return USBD_OK;
 80046bc:	2300      	movs	r3, #0
}
 80046be:	0018      	movs	r0, r3
 80046c0:	46bd      	mov	sp, r7
 80046c2:	b002      	add	sp, #8
 80046c4:	bd80      	pop	{r7, pc}
 80046c6:	46c0      	nop			; (mov r8, r8)
 80046c8:	20000170 	.word	0x20000170

080046cc <Handle_USBAsynchXfer>:
  *         Send data to USB
  * @param  pdev: instance
  * @retval None
  */
static void Handle_USBAsynchXfer (void *pdev)
{
 80046cc:	b580      	push	{r7, lr}
 80046ce:	b084      	sub	sp, #16
 80046d0:	af00      	add	r7, sp, #0
 80046d2:	6078      	str	r0, [r7, #4]
  uint16_t USB_Tx_ptr;
  uint16_t USB_Tx_length;
  
  if(USB_Tx_State != 1)
 80046d4:	4b3d      	ldr	r3, [pc, #244]	; (80047cc <Handle_USBAsynchXfer+0x100>)
 80046d6:	781b      	ldrb	r3, [r3, #0]
 80046d8:	2b01      	cmp	r3, #1
 80046da:	d100      	bne.n	80046de <Handle_USBAsynchXfer+0x12>
 80046dc:	e073      	b.n	80047c6 <Handle_USBAsynchXfer+0xfa>
  {
    if (APP_Rx_ptr_out == APP_RX_DATA_SIZE)
 80046de:	4b3c      	ldr	r3, [pc, #240]	; (80047d0 <Handle_USBAsynchXfer+0x104>)
 80046e0:	681a      	ldr	r2, [r3, #0]
 80046e2:	2380      	movs	r3, #128	; 0x80
 80046e4:	011b      	lsls	r3, r3, #4
 80046e6:	429a      	cmp	r2, r3
 80046e8:	d102      	bne.n	80046f0 <Handle_USBAsynchXfer+0x24>
    {
      APP_Rx_ptr_out = 0;
 80046ea:	4b39      	ldr	r3, [pc, #228]	; (80047d0 <Handle_USBAsynchXfer+0x104>)
 80046ec:	2200      	movs	r2, #0
 80046ee:	601a      	str	r2, [r3, #0]
    }
    
    if(APP_Rx_ptr_out == APP_Rx_ptr_in) 
 80046f0:	4b37      	ldr	r3, [pc, #220]	; (80047d0 <Handle_USBAsynchXfer+0x104>)
 80046f2:	681a      	ldr	r2, [r3, #0]
 80046f4:	4b37      	ldr	r3, [pc, #220]	; (80047d4 <Handle_USBAsynchXfer+0x108>)
 80046f6:	681b      	ldr	r3, [r3, #0]
 80046f8:	429a      	cmp	r2, r3
 80046fa:	d103      	bne.n	8004704 <Handle_USBAsynchXfer+0x38>
    {
      USB_Tx_State = 0; 
 80046fc:	4b33      	ldr	r3, [pc, #204]	; (80047cc <Handle_USBAsynchXfer+0x100>)
 80046fe:	2200      	movs	r2, #0
 8004700:	701a      	strb	r2, [r3, #0]
      return;
 8004702:	e060      	b.n	80047c6 <Handle_USBAsynchXfer+0xfa>
    }
    
    if(APP_Rx_ptr_out > APP_Rx_ptr_in) /* rollback */
 8004704:	4b32      	ldr	r3, [pc, #200]	; (80047d0 <Handle_USBAsynchXfer+0x104>)
 8004706:	681a      	ldr	r2, [r3, #0]
 8004708:	4b32      	ldr	r3, [pc, #200]	; (80047d4 <Handle_USBAsynchXfer+0x108>)
 800470a:	681b      	ldr	r3, [r3, #0]
 800470c:	429a      	cmp	r2, r3
 800470e:	d907      	bls.n	8004720 <Handle_USBAsynchXfer+0x54>
    { 
      APP_Rx_length = APP_RX_DATA_SIZE - APP_Rx_ptr_out;
 8004710:	4b2f      	ldr	r3, [pc, #188]	; (80047d0 <Handle_USBAsynchXfer+0x104>)
 8004712:	681b      	ldr	r3, [r3, #0]
 8004714:	2280      	movs	r2, #128	; 0x80
 8004716:	0112      	lsls	r2, r2, #4
 8004718:	1ad2      	subs	r2, r2, r3
 800471a:	4b2f      	ldr	r3, [pc, #188]	; (80047d8 <Handle_USBAsynchXfer+0x10c>)
 800471c:	601a      	str	r2, [r3, #0]
 800471e:	e006      	b.n	800472e <Handle_USBAsynchXfer+0x62>
      
    }
    else 
    {
      APP_Rx_length = APP_Rx_ptr_in - APP_Rx_ptr_out;
 8004720:	4b2c      	ldr	r3, [pc, #176]	; (80047d4 <Handle_USBAsynchXfer+0x108>)
 8004722:	681a      	ldr	r2, [r3, #0]
 8004724:	4b2a      	ldr	r3, [pc, #168]	; (80047d0 <Handle_USBAsynchXfer+0x104>)
 8004726:	681b      	ldr	r3, [r3, #0]
 8004728:	1ad2      	subs	r2, r2, r3
 800472a:	4b2b      	ldr	r3, [pc, #172]	; (80047d8 <Handle_USBAsynchXfer+0x10c>)
 800472c:	601a      	str	r2, [r3, #0]
      
    }
    
    if (APP_Rx_length > CDC_DATA_IN_PACKET_SIZE)
 800472e:	4b2a      	ldr	r3, [pc, #168]	; (80047d8 <Handle_USBAsynchXfer+0x10c>)
 8004730:	681b      	ldr	r3, [r3, #0]
 8004732:	2b40      	cmp	r3, #64	; 0x40
 8004734:	d915      	bls.n	8004762 <Handle_USBAsynchXfer+0x96>
    {
      USB_Tx_ptr = APP_Rx_ptr_out;
 8004736:	4b26      	ldr	r3, [pc, #152]	; (80047d0 <Handle_USBAsynchXfer+0x104>)
 8004738:	681a      	ldr	r2, [r3, #0]
 800473a:	230e      	movs	r3, #14
 800473c:	18fb      	adds	r3, r7, r3
 800473e:	801a      	strh	r2, [r3, #0]
      USB_Tx_length = CDC_DATA_IN_PACKET_SIZE;
 8004740:	230c      	movs	r3, #12
 8004742:	18fb      	adds	r3, r7, r3
 8004744:	2240      	movs	r2, #64	; 0x40
 8004746:	801a      	strh	r2, [r3, #0]
      
      APP_Rx_ptr_out += CDC_DATA_IN_PACKET_SIZE;	
 8004748:	4b21      	ldr	r3, [pc, #132]	; (80047d0 <Handle_USBAsynchXfer+0x104>)
 800474a:	681b      	ldr	r3, [r3, #0]
 800474c:	3340      	adds	r3, #64	; 0x40
 800474e:	001a      	movs	r2, r3
 8004750:	4b1f      	ldr	r3, [pc, #124]	; (80047d0 <Handle_USBAsynchXfer+0x104>)
 8004752:	601a      	str	r2, [r3, #0]
      APP_Rx_length -= CDC_DATA_IN_PACKET_SIZE;
 8004754:	4b20      	ldr	r3, [pc, #128]	; (80047d8 <Handle_USBAsynchXfer+0x10c>)
 8004756:	681b      	ldr	r3, [r3, #0]
 8004758:	3b40      	subs	r3, #64	; 0x40
 800475a:	001a      	movs	r2, r3
 800475c:	4b1e      	ldr	r3, [pc, #120]	; (80047d8 <Handle_USBAsynchXfer+0x10c>)
 800475e:	601a      	str	r2, [r3, #0]
 8004760:	e022      	b.n	80047a8 <Handle_USBAsynchXfer+0xdc>
    }
    else
    {
      USB_Tx_ptr = APP_Rx_ptr_out;
 8004762:	4b1b      	ldr	r3, [pc, #108]	; (80047d0 <Handle_USBAsynchXfer+0x104>)
 8004764:	681a      	ldr	r2, [r3, #0]
 8004766:	230e      	movs	r3, #14
 8004768:	18fb      	adds	r3, r7, r3
 800476a:	801a      	strh	r2, [r3, #0]
      USB_Tx_length = APP_Rx_length;
 800476c:	4b1a      	ldr	r3, [pc, #104]	; (80047d8 <Handle_USBAsynchXfer+0x10c>)
 800476e:	681a      	ldr	r2, [r3, #0]
 8004770:	230c      	movs	r3, #12
 8004772:	18fb      	adds	r3, r7, r3
 8004774:	801a      	strh	r2, [r3, #0]
      
      APP_Rx_ptr_out += APP_Rx_length;
 8004776:	4b16      	ldr	r3, [pc, #88]	; (80047d0 <Handle_USBAsynchXfer+0x104>)
 8004778:	681a      	ldr	r2, [r3, #0]
 800477a:	4b17      	ldr	r3, [pc, #92]	; (80047d8 <Handle_USBAsynchXfer+0x10c>)
 800477c:	681b      	ldr	r3, [r3, #0]
 800477e:	18d2      	adds	r2, r2, r3
 8004780:	4b13      	ldr	r3, [pc, #76]	; (80047d0 <Handle_USBAsynchXfer+0x104>)
 8004782:	601a      	str	r2, [r3, #0]
      APP_Rx_length = 0;
 8004784:	4b14      	ldr	r3, [pc, #80]	; (80047d8 <Handle_USBAsynchXfer+0x10c>)
 8004786:	2200      	movs	r2, #0
 8004788:	601a      	str	r2, [r3, #0]
      if (USB_Tx_length == CDC_DATA_IN_PACKET_SIZE) last_packet = 1; //IBA
 800478a:	230c      	movs	r3, #12
 800478c:	18fb      	adds	r3, r7, r3
 800478e:	881b      	ldrh	r3, [r3, #0]
 8004790:	2b40      	cmp	r3, #64	; 0x40
 8004792:	d102      	bne.n	800479a <Handle_USBAsynchXfer+0xce>
 8004794:	4b11      	ldr	r3, [pc, #68]	; (80047dc <Handle_USBAsynchXfer+0x110>)
 8004796:	2201      	movs	r2, #1
 8004798:	601a      	str	r2, [r3, #0]
      if (APP_Rx_ptr_in == 64) APP_Rx_ptr_in=0;
 800479a:	4b0e      	ldr	r3, [pc, #56]	; (80047d4 <Handle_USBAsynchXfer+0x108>)
 800479c:	681b      	ldr	r3, [r3, #0]
 800479e:	2b40      	cmp	r3, #64	; 0x40
 80047a0:	d102      	bne.n	80047a8 <Handle_USBAsynchXfer+0xdc>
 80047a2:	4b0c      	ldr	r3, [pc, #48]	; (80047d4 <Handle_USBAsynchXfer+0x108>)
 80047a4:	2200      	movs	r2, #0
 80047a6:	601a      	str	r2, [r3, #0]
    }
    USB_Tx_State = 1; 
 80047a8:	4b08      	ldr	r3, [pc, #32]	; (80047cc <Handle_USBAsynchXfer+0x100>)
 80047aa:	2201      	movs	r2, #1
 80047ac:	701a      	strb	r2, [r3, #0]
    
    DCD_EP_Tx (pdev,
               CDC_IN_EP,
               (uint8_t*)&APP_Rx_Buffer[USB_Tx_ptr],
 80047ae:	230e      	movs	r3, #14
 80047b0:	18fb      	adds	r3, r7, r3
 80047b2:	881a      	ldrh	r2, [r3, #0]
      if (USB_Tx_length == CDC_DATA_IN_PACKET_SIZE) last_packet = 1; //IBA
      if (APP_Rx_ptr_in == 64) APP_Rx_ptr_in=0;
    }
    USB_Tx_State = 1; 
    
    DCD_EP_Tx (pdev,
 80047b4:	4b0a      	ldr	r3, [pc, #40]	; (80047e0 <Handle_USBAsynchXfer+0x114>)
 80047b6:	18d2      	adds	r2, r2, r3
 80047b8:	230c      	movs	r3, #12
 80047ba:	18fb      	adds	r3, r7, r3
 80047bc:	881b      	ldrh	r3, [r3, #0]
 80047be:	6878      	ldr	r0, [r7, #4]
 80047c0:	2181      	movs	r1, #129	; 0x81
 80047c2:	f000 fddb 	bl	800537c <DCD_EP_Tx>
               CDC_IN_EP,
               (uint8_t*)&APP_Rx_Buffer[USB_Tx_ptr],
               USB_Tx_length);
  }  
  
}
 80047c6:	46bd      	mov	sp, r7
 80047c8:	b004      	add	sp, #16
 80047ca:	bd80      	pop	{r7, pc}
 80047cc:	20000168 	.word	0x20000168
 80047d0:	20000160 	.word	0x20000160
 80047d4:	2000015c 	.word	0x2000015c
 80047d8:	20000164 	.word	0x20000164
 80047dc:	20000158 	.word	0x20000158
 80047e0:	200005b4 	.word	0x200005b4

080047e4 <USBD_cdc_GetCfgDesc>:
  * @param  speed : current device speed
  * @param  length : pointer data length
  * @retval pointer to descriptor buffer
  */
static uint8_t  *USBD_cdc_GetCfgDesc (uint8_t speed, uint16_t *length)
{
 80047e4:	b580      	push	{r7, lr}
 80047e6:	b082      	sub	sp, #8
 80047e8:	af00      	add	r7, sp, #0
 80047ea:	0002      	movs	r2, r0
 80047ec:	6039      	str	r1, [r7, #0]
 80047ee:	1dfb      	adds	r3, r7, #7
 80047f0:	701a      	strb	r2, [r3, #0]
  *length = sizeof (usbd_cdc_CfgDesc);
 80047f2:	683b      	ldr	r3, [r7, #0]
 80047f4:	2243      	movs	r2, #67	; 0x43
 80047f6:	801a      	strh	r2, [r3, #0]
  return (uint8_t*)usbd_cdc_CfgDesc;
 80047f8:	4b02      	ldr	r3, [pc, #8]	; (8004804 <USBD_cdc_GetCfgDesc+0x20>)
}
 80047fa:	0018      	movs	r0, r3
 80047fc:	46bd      	mov	sp, r7
 80047fe:	b002      	add	sp, #8
 8004800:	bd80      	pop	{r7, pc}
 8004802:	46c0      	nop			; (mov r8, r8)
 8004804:	080075f8 	.word	0x080075f8

08004808 <CTR>:
  * @brief  Correct Transfer interrupt's service
  * @param  None
  * @retval None
  */
void CTR(void)
{
 8004808:	b590      	push	{r4, r7, lr}
 800480a:	b087      	sub	sp, #28
 800480c:	af00      	add	r7, sp, #0
  USB_EP *ep;
  uint16_t count=0;
 800480e:	2316      	movs	r3, #22
 8004810:	18fb      	adds	r3, r7, r3
 8004812:	2200      	movs	r2, #0
 8004814:	801a      	strh	r2, [r3, #0]
  uint8_t EPindex;
  volatile uint16_t wIstr;
  volatile uint16_t wEPVal = 0;
 8004816:	1d3b      	adds	r3, r7, #4
 8004818:	2200      	movs	r2, #0
 800481a:	801a      	strh	r2, [r3, #0]
  /* stay in loop while pending interrupts */
  while (((wIstr = _GetISTR()) & ISTR_CTR) != 0)
 800481c:	e26b      	b.n	8004cf6 <CTR+0x4ee>
  {
    /* extract highest priority endpoint number */
    EPindex = (uint8_t)(wIstr & ISTR_EP_ID);
 800481e:	1dbb      	adds	r3, r7, #6
 8004820:	881b      	ldrh	r3, [r3, #0]
 8004822:	b29b      	uxth	r3, r3
 8004824:	b2da      	uxtb	r2, r3
 8004826:	2313      	movs	r3, #19
 8004828:	18fb      	adds	r3, r7, r3
 800482a:	210f      	movs	r1, #15
 800482c:	400a      	ands	r2, r1
 800482e:	701a      	strb	r2, [r3, #0]
    
    if (EPindex == 0)
 8004830:	2313      	movs	r3, #19
 8004832:	18fb      	adds	r3, r7, r3
 8004834:	781b      	ldrb	r3, [r3, #0]
 8004836:	2b00      	cmp	r3, #0
 8004838:	d000      	beq.n	800483c <CTR+0x34>
 800483a:	e0dd      	b.n	80049f8 <CTR+0x1f0>
    {
      /* Decode and service control endpoint interrupt */
      
      /* DIR bit = origin of the interrupt */   
      if ((wIstr & ISTR_DIR) == 0)
 800483c:	1dbb      	adds	r3, r7, #6
 800483e:	881b      	ldrh	r3, [r3, #0]
 8004840:	b29b      	uxth	r3, r3
 8004842:	001a      	movs	r2, r3
 8004844:	2310      	movs	r3, #16
 8004846:	4013      	ands	r3, r2
 8004848:	d11f      	bne.n	800488a <CTR+0x82>
      {
        /* DIR = 0 */
        
        /* DIR = 0      => IN  int */
        /* DIR = 0 implies that (EP_CTR_TX = 1) always  */
        _ClearEP_CTR_TX(ENDP0);
 800484a:	4bc5      	ldr	r3, [pc, #788]	; (8004b60 <CTR+0x358>)
 800484c:	4ac4      	ldr	r2, [pc, #784]	; (8004b60 <CTR+0x358>)
 800484e:	6812      	ldr	r2, [r2, #0]
 8004850:	49c4      	ldr	r1, [pc, #784]	; (8004b64 <CTR+0x35c>)
 8004852:	400a      	ands	r2, r1
 8004854:	601a      	str	r2, [r3, #0]
        ep = &((&USB_Device_dev)->dev.in_ep[0]);
 8004856:	4bc4      	ldr	r3, [pc, #784]	; (8004b68 <CTR+0x360>)
 8004858:	60fb      	str	r3, [r7, #12]
        
        ep->xfer_count = GetEPTxCount(ep->num);
 800485a:	68fb      	ldr	r3, [r7, #12]
 800485c:	781b      	ldrb	r3, [r3, #0]
 800485e:	0018      	movs	r0, r3
 8004860:	f001 f9b0 	bl	8005bc4 <GetEPTxCount>
 8004864:	0003      	movs	r3, r0
 8004866:	001a      	movs	r2, r3
 8004868:	68fb      	ldr	r3, [r7, #12]
 800486a:	619a      	str	r2, [r3, #24]
        ep->xfer_buff += ep->xfer_count;
 800486c:	68fb      	ldr	r3, [r7, #12]
 800486e:	691a      	ldr	r2, [r3, #16]
 8004870:	68fb      	ldr	r3, [r7, #12]
 8004872:	699b      	ldr	r3, [r3, #24]
 8004874:	18d2      	adds	r2, r2, r3
 8004876:	68fb      	ldr	r3, [r7, #12]
 8004878:	611a      	str	r2, [r3, #16]
 
        /* TX COMPLETE */
        USBD_DCD_INT_fops->DataInStage(&USB_Device_dev, 0x00);
 800487a:	4bbc      	ldr	r3, [pc, #752]	; (8004b6c <CTR+0x364>)
 800487c:	681b      	ldr	r3, [r3, #0]
 800487e:	685b      	ldr	r3, [r3, #4]
 8004880:	4abb      	ldr	r2, [pc, #748]	; (8004b70 <CTR+0x368>)
 8004882:	2100      	movs	r1, #0
 8004884:	0010      	movs	r0, r2
 8004886:	4798      	blx	r3
 8004888:	e235      	b.n	8004cf6 <CTR+0x4ee>
      {
        /* DIR = 1 */
        
        /* DIR = 1 & CTR_RX       => SETUP or OUT int */
        /* DIR = 1 & (CTR_TX | CTR_RX) => 2 int pending */
        ep = &((&USB_Device_dev)->dev.out_ep[0]);
 800488a:	4bba      	ldr	r3, [pc, #744]	; (8004b74 <CTR+0x36c>)
 800488c:	60fb      	str	r3, [r7, #12]
        wEPVal = _GetENDPOINT(ENDP0);
 800488e:	4bb4      	ldr	r3, [pc, #720]	; (8004b60 <CTR+0x358>)
 8004890:	681b      	ldr	r3, [r3, #0]
 8004892:	b29a      	uxth	r2, r3
 8004894:	1d3b      	adds	r3, r7, #4
 8004896:	801a      	strh	r2, [r3, #0]
        
        if ((wEPVal &EP_SETUP) != 0)
 8004898:	1d3b      	adds	r3, r7, #4
 800489a:	881b      	ldrh	r3, [r3, #0]
 800489c:	b29b      	uxth	r3, r3
 800489e:	001a      	movs	r2, r3
 80048a0:	2380      	movs	r3, #128	; 0x80
 80048a2:	011b      	lsls	r3, r3, #4
 80048a4:	4013      	ands	r3, r2
 80048a6:	d01e      	beq.n	80048e6 <CTR+0xde>
        {
          /* Get SETUP Packet*/
          ep->xfer_count = GetEPRxCount(ep->num);
 80048a8:	68fb      	ldr	r3, [r7, #12]
 80048aa:	781b      	ldrb	r3, [r3, #0]
 80048ac:	0018      	movs	r0, r3
 80048ae:	f001 f9a7 	bl	8005c00 <GetEPRxCount>
 80048b2:	0003      	movs	r3, r0
 80048b4:	001a      	movs	r2, r3
 80048b6:	68fb      	ldr	r3, [r7, #12]
 80048b8:	619a      	str	r2, [r3, #24]
          PMAToUserBufferCopy(&((&USB_Device_dev)->dev.setup_packet[0]),ep->pmaadress , ep->xfer_count);       
 80048ba:	68fb      	ldr	r3, [r7, #12]
 80048bc:	8899      	ldrh	r1, [r3, #4]
 80048be:	68fb      	ldr	r3, [r7, #12]
 80048c0:	699b      	ldr	r3, [r3, #24]
 80048c2:	b29a      	uxth	r2, r3
 80048c4:	4bac      	ldr	r3, [pc, #688]	; (8004b78 <CTR+0x370>)
 80048c6:	0018      	movs	r0, r3
 80048c8:	f001 fb96 	bl	8005ff8 <PMAToUserBufferCopy>
          /* SETUP bit kept frozen while CTR_RX = 1*/ 
          _ClearEP_CTR_RX(ENDP0); 
 80048cc:	4ba4      	ldr	r3, [pc, #656]	; (8004b60 <CTR+0x358>)
 80048ce:	4aa4      	ldr	r2, [pc, #656]	; (8004b60 <CTR+0x358>)
 80048d0:	6812      	ldr	r2, [r2, #0]
 80048d2:	49aa      	ldr	r1, [pc, #680]	; (8004b7c <CTR+0x374>)
 80048d4:	400a      	ands	r2, r1
 80048d6:	601a      	str	r2, [r3, #0]
          
          /* Process SETUP Packet*/
          USBD_DCD_INT_fops->SetupStage(&USB_Device_dev);
 80048d8:	4ba4      	ldr	r3, [pc, #656]	; (8004b6c <CTR+0x364>)
 80048da:	681b      	ldr	r3, [r3, #0]
 80048dc:	689b      	ldr	r3, [r3, #8]
 80048de:	4aa4      	ldr	r2, [pc, #656]	; (8004b70 <CTR+0x368>)
 80048e0:	0010      	movs	r0, r2
 80048e2:	4798      	blx	r3
 80048e4:	e207      	b.n	8004cf6 <CTR+0x4ee>
        }
        
        else if ((wEPVal & EP_CTR_RX) != 0)
 80048e6:	1d3b      	adds	r3, r7, #4
 80048e8:	881b      	ldrh	r3, [r3, #0]
 80048ea:	b29b      	uxth	r3, r3
 80048ec:	b21b      	sxth	r3, r3
 80048ee:	2b00      	cmp	r3, #0
 80048f0:	db00      	blt.n	80048f4 <CTR+0xec>
 80048f2:	e200      	b.n	8004cf6 <CTR+0x4ee>
        {
          _ClearEP_CTR_RX(ENDP0);
 80048f4:	4b9a      	ldr	r3, [pc, #616]	; (8004b60 <CTR+0x358>)
 80048f6:	4a9a      	ldr	r2, [pc, #616]	; (8004b60 <CTR+0x358>)
 80048f8:	6812      	ldr	r2, [r2, #0]
 80048fa:	49a0      	ldr	r1, [pc, #640]	; (8004b7c <CTR+0x374>)
 80048fc:	400a      	ands	r2, r1
 80048fe:	601a      	str	r2, [r3, #0]
          /* Get Control Data OUT Packet*/
          ep->xfer_count = GetEPRxCount(ep->num);
 8004900:	68fb      	ldr	r3, [r7, #12]
 8004902:	781b      	ldrb	r3, [r3, #0]
 8004904:	0018      	movs	r0, r3
 8004906:	f001 f97b 	bl	8005c00 <GetEPRxCount>
 800490a:	0003      	movs	r3, r0
 800490c:	001a      	movs	r2, r3
 800490e:	68fb      	ldr	r3, [r7, #12]
 8004910:	619a      	str	r2, [r3, #24]
          
          if (ep->xfer_count != 0)
 8004912:	68fb      	ldr	r3, [r7, #12]
 8004914:	699b      	ldr	r3, [r3, #24]
 8004916:	2b00      	cmp	r3, #0
 8004918:	d010      	beq.n	800493c <CTR+0x134>
          {
            PMAToUserBufferCopy(ep->xfer_buff, ep->pmaadress, ep->xfer_count);
 800491a:	68fb      	ldr	r3, [r7, #12]
 800491c:	6918      	ldr	r0, [r3, #16]
 800491e:	68fb      	ldr	r3, [r7, #12]
 8004920:	8899      	ldrh	r1, [r3, #4]
 8004922:	68fb      	ldr	r3, [r7, #12]
 8004924:	699b      	ldr	r3, [r3, #24]
 8004926:	b29b      	uxth	r3, r3
 8004928:	001a      	movs	r2, r3
 800492a:	f001 fb65 	bl	8005ff8 <PMAToUserBufferCopy>
            ep->xfer_buff+=ep->xfer_count;
 800492e:	68fb      	ldr	r3, [r7, #12]
 8004930:	691a      	ldr	r2, [r3, #16]
 8004932:	68fb      	ldr	r3, [r7, #12]
 8004934:	699b      	ldr	r3, [r3, #24]
 8004936:	18d2      	adds	r2, r2, r3
 8004938:	68fb      	ldr	r3, [r7, #12]
 800493a:	611a      	str	r2, [r3, #16]
          }
          
          /* Process Control Data OUT Packet*/
          USBD_DCD_INT_fops->DataOutStage(&USB_Device_dev, 0x00);
 800493c:	4b8b      	ldr	r3, [pc, #556]	; (8004b6c <CTR+0x364>)
 800493e:	681b      	ldr	r3, [r3, #0]
 8004940:	681b      	ldr	r3, [r3, #0]
 8004942:	4a8b      	ldr	r2, [pc, #556]	; (8004b70 <CTR+0x368>)
 8004944:	2100      	movs	r1, #0
 8004946:	0010      	movs	r0, r2
 8004948:	4798      	blx	r3
          
          _SetEPRxCount(ENDP0, ep->maxpacket);
 800494a:	4b8d      	ldr	r3, [pc, #564]	; (8004b80 <CTR+0x378>)
 800494c:	681b      	ldr	r3, [r3, #0]
 800494e:	041b      	lsls	r3, r3, #16
 8004950:	0c1b      	lsrs	r3, r3, #16
 8004952:	4a8c      	ldr	r2, [pc, #560]	; (8004b84 <CTR+0x37c>)
 8004954:	4694      	mov	ip, r2
 8004956:	4463      	add	r3, ip
 8004958:	60bb      	str	r3, [r7, #8]
 800495a:	68fb      	ldr	r3, [r7, #12]
 800495c:	68db      	ldr	r3, [r3, #12]
 800495e:	2b3e      	cmp	r3, #62	; 0x3e
 8004960:	d91d      	bls.n	800499e <CTR+0x196>
 8004962:	68fb      	ldr	r3, [r7, #12]
 8004964:	68db      	ldr	r3, [r3, #12]
 8004966:	095a      	lsrs	r2, r3, #5
 8004968:	2314      	movs	r3, #20
 800496a:	18fb      	adds	r3, r7, r3
 800496c:	801a      	strh	r2, [r3, #0]
 800496e:	68fb      	ldr	r3, [r7, #12]
 8004970:	68db      	ldr	r3, [r3, #12]
 8004972:	221f      	movs	r2, #31
 8004974:	4013      	ands	r3, r2
 8004976:	d106      	bne.n	8004986 <CTR+0x17e>
 8004978:	2314      	movs	r3, #20
 800497a:	18fb      	adds	r3, r7, r3
 800497c:	881a      	ldrh	r2, [r3, #0]
 800497e:	2314      	movs	r3, #20
 8004980:	18fb      	adds	r3, r7, r3
 8004982:	3a01      	subs	r2, #1
 8004984:	801a      	strh	r2, [r3, #0]
 8004986:	2314      	movs	r3, #20
 8004988:	18fb      	adds	r3, r7, r3
 800498a:	881b      	ldrh	r3, [r3, #0]
 800498c:	029b      	lsls	r3, r3, #10
 800498e:	b21b      	sxth	r3, r3
 8004990:	4a7d      	ldr	r2, [pc, #500]	; (8004b88 <CTR+0x380>)
 8004992:	4313      	orrs	r3, r2
 8004994:	b21b      	sxth	r3, r3
 8004996:	b29a      	uxth	r2, r3
 8004998:	68bb      	ldr	r3, [r7, #8]
 800499a:	801a      	strh	r2, [r3, #0]
 800499c:	e018      	b.n	80049d0 <CTR+0x1c8>
 800499e:	68fb      	ldr	r3, [r7, #12]
 80049a0:	68db      	ldr	r3, [r3, #12]
 80049a2:	085a      	lsrs	r2, r3, #1
 80049a4:	2314      	movs	r3, #20
 80049a6:	18fb      	adds	r3, r7, r3
 80049a8:	801a      	strh	r2, [r3, #0]
 80049aa:	68fb      	ldr	r3, [r7, #12]
 80049ac:	68db      	ldr	r3, [r3, #12]
 80049ae:	2201      	movs	r2, #1
 80049b0:	4013      	ands	r3, r2
 80049b2:	d006      	beq.n	80049c2 <CTR+0x1ba>
 80049b4:	2314      	movs	r3, #20
 80049b6:	18fb      	adds	r3, r7, r3
 80049b8:	881a      	ldrh	r2, [r3, #0]
 80049ba:	2314      	movs	r3, #20
 80049bc:	18fb      	adds	r3, r7, r3
 80049be:	3201      	adds	r2, #1
 80049c0:	801a      	strh	r2, [r3, #0]
 80049c2:	2314      	movs	r3, #20
 80049c4:	18fb      	adds	r3, r7, r3
 80049c6:	881b      	ldrh	r3, [r3, #0]
 80049c8:	029b      	lsls	r3, r3, #10
 80049ca:	b29a      	uxth	r2, r3
 80049cc:	68bb      	ldr	r3, [r7, #8]
 80049ce:	801a      	strh	r2, [r3, #0]
          _SetEPRxStatus(ENDP0,EP_RX_VALID);
 80049d0:	4b63      	ldr	r3, [pc, #396]	; (8004b60 <CTR+0x358>)
 80049d2:	681b      	ldr	r3, [r3, #0]
 80049d4:	b29b      	uxth	r3, r3
 80049d6:	4a6d      	ldr	r2, [pc, #436]	; (8004b8c <CTR+0x384>)
 80049d8:	4013      	ands	r3, r2
 80049da:	b29c      	uxth	r4, r3
 80049dc:	2380      	movs	r3, #128	; 0x80
 80049de:	015b      	lsls	r3, r3, #5
 80049e0:	4063      	eors	r3, r4
 80049e2:	b29c      	uxth	r4, r3
 80049e4:	2380      	movs	r3, #128	; 0x80
 80049e6:	019b      	lsls	r3, r3, #6
 80049e8:	4063      	eors	r3, r4
 80049ea:	b29c      	uxth	r4, r3
 80049ec:	4b5c      	ldr	r3, [pc, #368]	; (8004b60 <CTR+0x358>)
 80049ee:	4a68      	ldr	r2, [pc, #416]	; (8004b90 <CTR+0x388>)
 80049f0:	4322      	orrs	r2, r4
 80049f2:	b292      	uxth	r2, r2
 80049f4:	601a      	str	r2, [r3, #0]
 80049f6:	e17e      	b.n	8004cf6 <CTR+0x4ee>
    {
      
      /* Decode and service non control endpoints interrupt  */
      
      /* process related endpoint register */
      wEPVal = _GetENDPOINT(EPindex);
 80049f8:	2313      	movs	r3, #19
 80049fa:	18fb      	adds	r3, r7, r3
 80049fc:	781b      	ldrb	r3, [r3, #0]
 80049fe:	009b      	lsls	r3, r3, #2
 8004a00:	4a57      	ldr	r2, [pc, #348]	; (8004b60 <CTR+0x358>)
 8004a02:	4694      	mov	ip, r2
 8004a04:	4463      	add	r3, ip
 8004a06:	681b      	ldr	r3, [r3, #0]
 8004a08:	b29a      	uxth	r2, r3
 8004a0a:	1d3b      	adds	r3, r7, #4
 8004a0c:	801a      	strh	r2, [r3, #0]
      if ((wEPVal & EP_CTR_RX) != 0)
 8004a0e:	1d3b      	adds	r3, r7, #4
 8004a10:	881b      	ldrh	r3, [r3, #0]
 8004a12:	b29b      	uxth	r3, r3
 8004a14:	b21b      	sxth	r3, r3
 8004a16:	2b00      	cmp	r3, #0
 8004a18:	db00      	blt.n	8004a1c <CTR+0x214>
 8004a1a:	e0c5      	b.n	8004ba8 <CTR+0x3a0>
      {  
        /* clear int flag */
        _ClearEP_CTR_RX(EPindex);
 8004a1c:	2313      	movs	r3, #19
 8004a1e:	18fb      	adds	r3, r7, r3
 8004a20:	781b      	ldrb	r3, [r3, #0]
 8004a22:	009b      	lsls	r3, r3, #2
 8004a24:	4a4e      	ldr	r2, [pc, #312]	; (8004b60 <CTR+0x358>)
 8004a26:	4694      	mov	ip, r2
 8004a28:	4463      	add	r3, ip
 8004a2a:	2213      	movs	r2, #19
 8004a2c:	18ba      	adds	r2, r7, r2
 8004a2e:	7812      	ldrb	r2, [r2, #0]
 8004a30:	0092      	lsls	r2, r2, #2
 8004a32:	494b      	ldr	r1, [pc, #300]	; (8004b60 <CTR+0x358>)
 8004a34:	468c      	mov	ip, r1
 8004a36:	4462      	add	r2, ip
 8004a38:	6812      	ldr	r2, [r2, #0]
 8004a3a:	4950      	ldr	r1, [pc, #320]	; (8004b7c <CTR+0x374>)
 8004a3c:	400a      	ands	r2, r1
 8004a3e:	601a      	str	r2, [r3, #0]
        ep = &((&USB_Device_dev)->dev.out_ep[EPindex]);
 8004a40:	2313      	movs	r3, #19
 8004a42:	18fb      	adds	r3, r7, r3
 8004a44:	781a      	ldrb	r2, [r3, #0]
 8004a46:	0013      	movs	r3, r2
 8004a48:	009b      	lsls	r3, r3, #2
 8004a4a:	189b      	adds	r3, r3, r2
 8004a4c:	00db      	lsls	r3, r3, #3
 8004a4e:	33b8      	adds	r3, #184	; 0xb8
 8004a50:	001a      	movs	r2, r3
 8004a52:	4b47      	ldr	r3, [pc, #284]	; (8004b70 <CTR+0x368>)
 8004a54:	18d3      	adds	r3, r2, r3
 8004a56:	60fb      	str	r3, [r7, #12]
        
        /* OUT double Buffering*/
        if (ep->doublebuffer == 0)
 8004a58:	68fb      	ldr	r3, [r7, #12]
 8004a5a:	7a9b      	ldrb	r3, [r3, #10]
 8004a5c:	2b00      	cmp	r3, #0
 8004a5e:	d118      	bne.n	8004a92 <CTR+0x28a>
        {
          count = GetEPRxCount(ep->num);
 8004a60:	68fb      	ldr	r3, [r7, #12]
 8004a62:	781b      	ldrb	r3, [r3, #0]
 8004a64:	2216      	movs	r2, #22
 8004a66:	18bc      	adds	r4, r7, r2
 8004a68:	0018      	movs	r0, r3
 8004a6a:	f001 f8c9 	bl	8005c00 <GetEPRxCount>
 8004a6e:	0003      	movs	r3, r0
 8004a70:	8023      	strh	r3, [r4, #0]
          if (count != 0)
 8004a72:	2316      	movs	r3, #22
 8004a74:	18fb      	adds	r3, r7, r3
 8004a76:	881b      	ldrh	r3, [r3, #0]
 8004a78:	2b00      	cmp	r3, #0
 8004a7a:	d04c      	beq.n	8004b16 <CTR+0x30e>
          {
            PMAToUserBufferCopy(ep->xfer_buff, ep->pmaadress, count);
 8004a7c:	68fb      	ldr	r3, [r7, #12]
 8004a7e:	6918      	ldr	r0, [r3, #16]
 8004a80:	68fb      	ldr	r3, [r7, #12]
 8004a82:	8899      	ldrh	r1, [r3, #4]
 8004a84:	2316      	movs	r3, #22
 8004a86:	18fb      	adds	r3, r7, r3
 8004a88:	881b      	ldrh	r3, [r3, #0]
 8004a8a:	001a      	movs	r2, r3
 8004a8c:	f001 fab4 	bl	8005ff8 <PMAToUserBufferCopy>
 8004a90:	e041      	b.n	8004b16 <CTR+0x30e>
          }
        }
        else
        {
          if (GetENDPOINT(ep->num) & EP_DTOG_RX)
 8004a92:	68fb      	ldr	r3, [r7, #12]
 8004a94:	781b      	ldrb	r3, [r3, #0]
 8004a96:	0018      	movs	r0, r3
 8004a98:	f000 fe4c 	bl	8005734 <GetENDPOINT>
 8004a9c:	0003      	movs	r3, r0
 8004a9e:	001a      	movs	r2, r3
 8004aa0:	2380      	movs	r3, #128	; 0x80
 8004aa2:	01db      	lsls	r3, r3, #7
 8004aa4:	4013      	ands	r3, r2
 8004aa6:	d018      	beq.n	8004ada <CTR+0x2d2>
          {
            /*read from endpoint BUF0Addr buffer*/
            count = GetEPDblBuf0Count(ep->num);
 8004aa8:	68fb      	ldr	r3, [r7, #12]
 8004aaa:	781b      	ldrb	r3, [r3, #0]
 8004aac:	2216      	movs	r2, #22
 8004aae:	18bc      	adds	r4, r7, r2
 8004ab0:	0018      	movs	r0, r3
 8004ab2:	f001 f9db 	bl	8005e6c <GetEPDblBuf0Count>
 8004ab6:	0003      	movs	r3, r0
 8004ab8:	8023      	strh	r3, [r4, #0]
            if (count != 0)
 8004aba:	2316      	movs	r3, #22
 8004abc:	18fb      	adds	r3, r7, r3
 8004abe:	881b      	ldrh	r3, [r3, #0]
 8004ac0:	2b00      	cmp	r3, #0
 8004ac2:	d022      	beq.n	8004b0a <CTR+0x302>
            {
              PMAToUserBufferCopy(ep->xfer_buff, ep->pmaaddr0, count);
 8004ac4:	68fb      	ldr	r3, [r7, #12]
 8004ac6:	6918      	ldr	r0, [r3, #16]
 8004ac8:	68fb      	ldr	r3, [r7, #12]
 8004aca:	88d9      	ldrh	r1, [r3, #6]
 8004acc:	2316      	movs	r3, #22
 8004ace:	18fb      	adds	r3, r7, r3
 8004ad0:	881b      	ldrh	r3, [r3, #0]
 8004ad2:	001a      	movs	r2, r3
 8004ad4:	f001 fa90 	bl	8005ff8 <PMAToUserBufferCopy>
 8004ad8:	e017      	b.n	8004b0a <CTR+0x302>
            }
          }
          else
          {
            /*read from endpoint BUF1Addr buffer*/
            count = GetEPDblBuf1Count(ep->num);
 8004ada:	68fb      	ldr	r3, [r7, #12]
 8004adc:	781b      	ldrb	r3, [r3, #0]
 8004ade:	2216      	movs	r2, #22
 8004ae0:	18bc      	adds	r4, r7, r2
 8004ae2:	0018      	movs	r0, r3
 8004ae4:	f001 f9e0 	bl	8005ea8 <GetEPDblBuf1Count>
 8004ae8:	0003      	movs	r3, r0
 8004aea:	8023      	strh	r3, [r4, #0]
            if (count != 0)
 8004aec:	2316      	movs	r3, #22
 8004aee:	18fb      	adds	r3, r7, r3
 8004af0:	881b      	ldrh	r3, [r3, #0]
 8004af2:	2b00      	cmp	r3, #0
 8004af4:	d009      	beq.n	8004b0a <CTR+0x302>
            {
              PMAToUserBufferCopy(ep->xfer_buff, ep->pmaaddr1, count);
 8004af6:	68fb      	ldr	r3, [r7, #12]
 8004af8:	6918      	ldr	r0, [r3, #16]
 8004afa:	68fb      	ldr	r3, [r7, #12]
 8004afc:	8919      	ldrh	r1, [r3, #8]
 8004afe:	2316      	movs	r3, #22
 8004b00:	18fb      	adds	r3, r7, r3
 8004b02:	881b      	ldrh	r3, [r3, #0]
 8004b04:	001a      	movs	r2, r3
 8004b06:	f001 fa77 	bl	8005ff8 <PMAToUserBufferCopy>
            }
          }
          FreeUserBuffer(ep->num, EP_DBUF_OUT);  
 8004b0a:	68fb      	ldr	r3, [r7, #12]
 8004b0c:	781b      	ldrb	r3, [r3, #0]
 8004b0e:	2100      	movs	r1, #0
 8004b10:	0018      	movs	r0, r3
 8004b12:	f001 f9e7 	bl	8005ee4 <FreeUserBuffer>
        }
        /*multi-packet on the NON control OUT endpoint*/
        ep->xfer_count+=count;
 8004b16:	68fb      	ldr	r3, [r7, #12]
 8004b18:	699a      	ldr	r2, [r3, #24]
 8004b1a:	2316      	movs	r3, #22
 8004b1c:	18fb      	adds	r3, r7, r3
 8004b1e:	881b      	ldrh	r3, [r3, #0]
 8004b20:	18d2      	adds	r2, r2, r3
 8004b22:	68fb      	ldr	r3, [r7, #12]
 8004b24:	619a      	str	r2, [r3, #24]
        ep->xfer_buff+=count;
 8004b26:	68fb      	ldr	r3, [r7, #12]
 8004b28:	691a      	ldr	r2, [r3, #16]
 8004b2a:	2316      	movs	r3, #22
 8004b2c:	18fb      	adds	r3, r7, r3
 8004b2e:	881b      	ldrh	r3, [r3, #0]
 8004b30:	18d2      	adds	r2, r2, r3
 8004b32:	68fb      	ldr	r3, [r7, #12]
 8004b34:	611a      	str	r2, [r3, #16]
       
        if ((ep->xfer_len == 0) || (count < ep->maxpacket))
 8004b36:	68fb      	ldr	r3, [r7, #12]
 8004b38:	695b      	ldr	r3, [r3, #20]
 8004b3a:	2b00      	cmp	r3, #0
 8004b3c:	d006      	beq.n	8004b4c <CTR+0x344>
 8004b3e:	2316      	movs	r3, #22
 8004b40:	18fb      	adds	r3, r7, r3
 8004b42:	881a      	ldrh	r2, [r3, #0]
 8004b44:	68fb      	ldr	r3, [r7, #12]
 8004b46:	68db      	ldr	r3, [r3, #12]
 8004b48:	429a      	cmp	r2, r3
 8004b4a:	d223      	bcs.n	8004b94 <CTR+0x38c>
        {
          /* RX COMPLETE */
          USBD_DCD_INT_fops->DataOutStage(&USB_Device_dev, ep->num);
 8004b4c:	4b07      	ldr	r3, [pc, #28]	; (8004b6c <CTR+0x364>)
 8004b4e:	681b      	ldr	r3, [r3, #0]
 8004b50:	681b      	ldr	r3, [r3, #0]
 8004b52:	68fa      	ldr	r2, [r7, #12]
 8004b54:	7811      	ldrb	r1, [r2, #0]
 8004b56:	4a06      	ldr	r2, [pc, #24]	; (8004b70 <CTR+0x368>)
 8004b58:	0010      	movs	r0, r2
 8004b5a:	4798      	blx	r3
 8004b5c:	e024      	b.n	8004ba8 <CTR+0x3a0>
 8004b5e:	46c0      	nop			; (mov r8, r8)
 8004b60:	40005c00 	.word	0x40005c00
 8004b64:	00008f0f 	.word	0x00008f0f
 8004b68:	2000024c 	.word	0x2000024c
 8004b6c:	20000090 	.word	0x20000090
 8004b70:	20000234 	.word	0x20000234
 8004b74:	200002ec 	.word	0x200002ec
 8004b78:	20000244 	.word	0x20000244
 8004b7c:	00000f8f 	.word	0x00000f8f
 8004b80:	40005c50 	.word	0x40005c50
 8004b84:	40006006 	.word	0x40006006
 8004b88:	ffff8000 	.word	0xffff8000
 8004b8c:	ffffbf8f 	.word	0xffffbf8f
 8004b90:	ffff8080 	.word	0xffff8080
        }
        else
        {
          DCD_EP_PrepareRx (&USB_Device_dev,ep->num, ep->xfer_buff, ep->xfer_len);
 8004b94:	68fb      	ldr	r3, [r7, #12]
 8004b96:	7819      	ldrb	r1, [r3, #0]
 8004b98:	68fb      	ldr	r3, [r7, #12]
 8004b9a:	691a      	ldr	r2, [r3, #16]
 8004b9c:	68fb      	ldr	r3, [r7, #12]
 8004b9e:	695b      	ldr	r3, [r3, #20]
 8004ba0:	b29b      	uxth	r3, r3
 8004ba2:	485c      	ldr	r0, [pc, #368]	; (8004d14 <CTR+0x50c>)
 8004ba4:	f000 fb88 	bl	80052b8 <DCD_EP_PrepareRx>
        }
        
      } /* if((wEPVal & EP_CTR_RX) */
      
      if ((wEPVal & EP_CTR_TX) != 0)
 8004ba8:	1d3b      	adds	r3, r7, #4
 8004baa:	881b      	ldrh	r3, [r3, #0]
 8004bac:	b29b      	uxth	r3, r3
 8004bae:	001a      	movs	r2, r3
 8004bb0:	2380      	movs	r3, #128	; 0x80
 8004bb2:	4013      	ands	r3, r2
 8004bb4:	d100      	bne.n	8004bb8 <CTR+0x3b0>
 8004bb6:	e09e      	b.n	8004cf6 <CTR+0x4ee>
      {
        ep = &((&USB_Device_dev)->dev.in_ep[EPindex]);
 8004bb8:	2313      	movs	r3, #19
 8004bba:	18fb      	adds	r3, r7, r3
 8004bbc:	781a      	ldrb	r2, [r3, #0]
 8004bbe:	0013      	movs	r3, r2
 8004bc0:	009b      	lsls	r3, r3, #2
 8004bc2:	189b      	adds	r3, r3, r2
 8004bc4:	00db      	lsls	r3, r3, #3
 8004bc6:	3318      	adds	r3, #24
 8004bc8:	001a      	movs	r2, r3
 8004bca:	4b52      	ldr	r3, [pc, #328]	; (8004d14 <CTR+0x50c>)
 8004bcc:	18d3      	adds	r3, r2, r3
 8004bce:	60fb      	str	r3, [r7, #12]
        
        /* clear int flag */
        _ClearEP_CTR_TX(EPindex);
 8004bd0:	2313      	movs	r3, #19
 8004bd2:	18fb      	adds	r3, r7, r3
 8004bd4:	781b      	ldrb	r3, [r3, #0]
 8004bd6:	009b      	lsls	r3, r3, #2
 8004bd8:	4a4f      	ldr	r2, [pc, #316]	; (8004d18 <CTR+0x510>)
 8004bda:	4694      	mov	ip, r2
 8004bdc:	4463      	add	r3, ip
 8004bde:	2213      	movs	r2, #19
 8004be0:	18ba      	adds	r2, r7, r2
 8004be2:	7812      	ldrb	r2, [r2, #0]
 8004be4:	0092      	lsls	r2, r2, #2
 8004be6:	494c      	ldr	r1, [pc, #304]	; (8004d18 <CTR+0x510>)
 8004be8:	468c      	mov	ip, r1
 8004bea:	4462      	add	r2, ip
 8004bec:	6812      	ldr	r2, [r2, #0]
 8004bee:	494b      	ldr	r1, [pc, #300]	; (8004d1c <CTR+0x514>)
 8004bf0:	400a      	ands	r2, r1
 8004bf2:	601a      	str	r2, [r3, #0]
        
        /* IN double Buffering*/
        if (ep->doublebuffer == 0)
 8004bf4:	68fb      	ldr	r3, [r7, #12]
 8004bf6:	7a9b      	ldrb	r3, [r3, #10]
 8004bf8:	2b00      	cmp	r3, #0
 8004bfa:	d117      	bne.n	8004c2c <CTR+0x424>
        {
          ep->xfer_count = GetEPTxCount(ep->num);
 8004bfc:	68fb      	ldr	r3, [r7, #12]
 8004bfe:	781b      	ldrb	r3, [r3, #0]
 8004c00:	0018      	movs	r0, r3
 8004c02:	f000 ffdf 	bl	8005bc4 <GetEPTxCount>
 8004c06:	0003      	movs	r3, r0
 8004c08:	001a      	movs	r2, r3
 8004c0a:	68fb      	ldr	r3, [r7, #12]
 8004c0c:	619a      	str	r2, [r3, #24]
          if (ep->xfer_count != 0)
 8004c0e:	68fb      	ldr	r3, [r7, #12]
 8004c10:	699b      	ldr	r3, [r3, #24]
 8004c12:	2b00      	cmp	r3, #0
 8004c14:	d049      	beq.n	8004caa <CTR+0x4a2>
          {
            UserToPMABufferCopy(ep->xfer_buff, ep->pmaadress, ep->xfer_count);
 8004c16:	68fb      	ldr	r3, [r7, #12]
 8004c18:	6918      	ldr	r0, [r3, #16]
 8004c1a:	68fb      	ldr	r3, [r7, #12]
 8004c1c:	8899      	ldrh	r1, [r3, #4]
 8004c1e:	68fb      	ldr	r3, [r7, #12]
 8004c20:	699b      	ldr	r3, [r3, #24]
 8004c22:	b29b      	uxth	r3, r3
 8004c24:	001a      	movs	r2, r3
 8004c26:	f001 f9a1 	bl	8005f6c <UserToPMABufferCopy>
 8004c2a:	e03e      	b.n	8004caa <CTR+0x4a2>
          }
        }
        else
        {
          if (GetENDPOINT(ep->num) & EP_DTOG_TX)
 8004c2c:	68fb      	ldr	r3, [r7, #12]
 8004c2e:	781b      	ldrb	r3, [r3, #0]
 8004c30:	0018      	movs	r0, r3
 8004c32:	f000 fd7f 	bl	8005734 <GetENDPOINT>
 8004c36:	0003      	movs	r3, r0
 8004c38:	001a      	movs	r2, r3
 8004c3a:	2340      	movs	r3, #64	; 0x40
 8004c3c:	4013      	ands	r3, r2
 8004c3e:	d017      	beq.n	8004c70 <CTR+0x468>
          {
            /*read from endpoint BUF0Addr buffer*/
            ep->xfer_count = GetEPDblBuf0Count(ep->num);
 8004c40:	68fb      	ldr	r3, [r7, #12]
 8004c42:	781b      	ldrb	r3, [r3, #0]
 8004c44:	0018      	movs	r0, r3
 8004c46:	f001 f911 	bl	8005e6c <GetEPDblBuf0Count>
 8004c4a:	0003      	movs	r3, r0
 8004c4c:	001a      	movs	r2, r3
 8004c4e:	68fb      	ldr	r3, [r7, #12]
 8004c50:	619a      	str	r2, [r3, #24]
            if (ep->xfer_count != 0)
 8004c52:	68fb      	ldr	r3, [r7, #12]
 8004c54:	699b      	ldr	r3, [r3, #24]
 8004c56:	2b00      	cmp	r3, #0
 8004c58:	d021      	beq.n	8004c9e <CTR+0x496>
            {
              UserToPMABufferCopy(ep->xfer_buff, ep->pmaaddr0, ep->xfer_count);
 8004c5a:	68fb      	ldr	r3, [r7, #12]
 8004c5c:	6918      	ldr	r0, [r3, #16]
 8004c5e:	68fb      	ldr	r3, [r7, #12]
 8004c60:	88d9      	ldrh	r1, [r3, #6]
 8004c62:	68fb      	ldr	r3, [r7, #12]
 8004c64:	699b      	ldr	r3, [r3, #24]
 8004c66:	b29b      	uxth	r3, r3
 8004c68:	001a      	movs	r2, r3
 8004c6a:	f001 f97f 	bl	8005f6c <UserToPMABufferCopy>
 8004c6e:	e016      	b.n	8004c9e <CTR+0x496>
            }
          }
          else
          {
            /*read from endpoint BUF1Addr buffer*/
            ep->xfer_count = GetEPDblBuf1Count(ep->num);
 8004c70:	68fb      	ldr	r3, [r7, #12]
 8004c72:	781b      	ldrb	r3, [r3, #0]
 8004c74:	0018      	movs	r0, r3
 8004c76:	f001 f917 	bl	8005ea8 <GetEPDblBuf1Count>
 8004c7a:	0003      	movs	r3, r0
 8004c7c:	001a      	movs	r2, r3
 8004c7e:	68fb      	ldr	r3, [r7, #12]
 8004c80:	619a      	str	r2, [r3, #24]
            if (ep->xfer_count != 0)
 8004c82:	68fb      	ldr	r3, [r7, #12]
 8004c84:	699b      	ldr	r3, [r3, #24]
 8004c86:	2b00      	cmp	r3, #0
 8004c88:	d009      	beq.n	8004c9e <CTR+0x496>
            {
              UserToPMABufferCopy(ep->xfer_buff, ep->pmaaddr1, ep->xfer_count);
 8004c8a:	68fb      	ldr	r3, [r7, #12]
 8004c8c:	6918      	ldr	r0, [r3, #16]
 8004c8e:	68fb      	ldr	r3, [r7, #12]
 8004c90:	8919      	ldrh	r1, [r3, #8]
 8004c92:	68fb      	ldr	r3, [r7, #12]
 8004c94:	699b      	ldr	r3, [r3, #24]
 8004c96:	b29b      	uxth	r3, r3
 8004c98:	001a      	movs	r2, r3
 8004c9a:	f001 f967 	bl	8005f6c <UserToPMABufferCopy>
            }
          }
          FreeUserBuffer(ep->num, EP_DBUF_IN);  
 8004c9e:	68fb      	ldr	r3, [r7, #12]
 8004ca0:	781b      	ldrb	r3, [r3, #0]
 8004ca2:	2101      	movs	r1, #1
 8004ca4:	0018      	movs	r0, r3
 8004ca6:	f001 f91d 	bl	8005ee4 <FreeUserBuffer>
        }
        /*multi-packet on the NON control IN endpoint*/
        ep->xfer_count =GetEPTxCount(ep->num);
 8004caa:	68fb      	ldr	r3, [r7, #12]
 8004cac:	781b      	ldrb	r3, [r3, #0]
 8004cae:	0018      	movs	r0, r3
 8004cb0:	f000 ff88 	bl	8005bc4 <GetEPTxCount>
 8004cb4:	0003      	movs	r3, r0
 8004cb6:	001a      	movs	r2, r3
 8004cb8:	68fb      	ldr	r3, [r7, #12]
 8004cba:	619a      	str	r2, [r3, #24]
        ep->xfer_buff+=ep->xfer_count;
 8004cbc:	68fb      	ldr	r3, [r7, #12]
 8004cbe:	691a      	ldr	r2, [r3, #16]
 8004cc0:	68fb      	ldr	r3, [r7, #12]
 8004cc2:	699b      	ldr	r3, [r3, #24]
 8004cc4:	18d2      	adds	r2, r2, r3
 8004cc6:	68fb      	ldr	r3, [r7, #12]
 8004cc8:	611a      	str	r2, [r3, #16]
       
        /* Zero Length Packet? */
        if (ep->xfer_len == 0)
 8004cca:	68fb      	ldr	r3, [r7, #12]
 8004ccc:	695b      	ldr	r3, [r3, #20]
 8004cce:	2b00      	cmp	r3, #0
 8004cd0:	d108      	bne.n	8004ce4 <CTR+0x4dc>
        {
          /* TX COMPLETE */
          USBD_DCD_INT_fops->DataInStage(&USB_Device_dev, ep->num);
 8004cd2:	4b13      	ldr	r3, [pc, #76]	; (8004d20 <CTR+0x518>)
 8004cd4:	681b      	ldr	r3, [r3, #0]
 8004cd6:	685b      	ldr	r3, [r3, #4]
 8004cd8:	68fa      	ldr	r2, [r7, #12]
 8004cda:	7811      	ldrb	r1, [r2, #0]
 8004cdc:	4a0d      	ldr	r2, [pc, #52]	; (8004d14 <CTR+0x50c>)
 8004cde:	0010      	movs	r0, r2
 8004ce0:	4798      	blx	r3
 8004ce2:	e008      	b.n	8004cf6 <CTR+0x4ee>
        }
        else
        {
          DCD_EP_Tx  (&USB_Device_dev,ep->num, ep->xfer_buff, ep->xfer_len);
 8004ce4:	68fb      	ldr	r3, [r7, #12]
 8004ce6:	7819      	ldrb	r1, [r3, #0]
 8004ce8:	68fb      	ldr	r3, [r7, #12]
 8004cea:	691a      	ldr	r2, [r3, #16]
 8004cec:	68fb      	ldr	r3, [r7, #12]
 8004cee:	695b      	ldr	r3, [r3, #20]
 8004cf0:	4808      	ldr	r0, [pc, #32]	; (8004d14 <CTR+0x50c>)
 8004cf2:	f000 fb43 	bl	800537c <DCD_EP_Tx>
  uint16_t count=0;
  uint8_t EPindex;
  volatile uint16_t wIstr;
  volatile uint16_t wEPVal = 0;
  /* stay in loop while pending interrupts */
  while (((wIstr = _GetISTR()) & ISTR_CTR) != 0)
 8004cf6:	4b0b      	ldr	r3, [pc, #44]	; (8004d24 <CTR+0x51c>)
 8004cf8:	681b      	ldr	r3, [r3, #0]
 8004cfa:	b29a      	uxth	r2, r3
 8004cfc:	1dbb      	adds	r3, r7, #6
 8004cfe:	1c11      	adds	r1, r2, #0
 8004d00:	8019      	strh	r1, [r3, #0]
 8004d02:	b213      	sxth	r3, r2
 8004d04:	2b00      	cmp	r3, #0
 8004d06:	da00      	bge.n	8004d0a <CTR+0x502>
 8004d08:	e589      	b.n	800481e <CTR+0x16>
      } /* if((wEPVal & EP_CTR_TX) != 0) */
      
    }/* if(EPindex == 0) else */
    
  }/* while(...) */
}
 8004d0a:	46c0      	nop			; (mov r8, r8)
 8004d0c:	46bd      	mov	sp, r7
 8004d0e:	b007      	add	sp, #28
 8004d10:	bd90      	pop	{r4, r7, pc}
 8004d12:	46c0      	nop			; (mov r8, r8)
 8004d14:	20000234 	.word	0x20000234
 8004d18:	40005c00 	.word	0x40005c00
 8004d1c:	00008f0f 	.word	0x00008f0f
 8004d20:	20000090 	.word	0x20000090
 8004d24:	40005c44 	.word	0x40005c44

08004d28 <USB_Istr>:
  * @brief ISTR events interrupt service routine
  * @param  None
  * @retval None
  */
void USB_Istr(void)
{
 8004d28:	b580      	push	{r7, lr}
 8004d2a:	b082      	sub	sp, #8
 8004d2c:	af00      	add	r7, sp, #0
  volatile uint16_t wIstr = 0;
 8004d2e:	1dbb      	adds	r3, r7, #6
 8004d30:	2200      	movs	r2, #0
 8004d32:	801a      	strh	r2, [r3, #0]
  
  wIstr = _GetISTR();
 8004d34:	4b47      	ldr	r3, [pc, #284]	; (8004e54 <USB_Istr+0x12c>)
 8004d36:	681b      	ldr	r3, [r3, #0]
 8004d38:	b29a      	uxth	r2, r3
 8004d3a:	1dbb      	adds	r3, r7, #6
 8004d3c:	801a      	strh	r2, [r3, #0]
  
#if (IMR_MSK & ISTR_CTR)
  if (wIstr & ISTR_CTR & wInterrupt_Mask)
 8004d3e:	1dbb      	adds	r3, r7, #6
 8004d40:	881b      	ldrh	r3, [r3, #0]
 8004d42:	b29b      	uxth	r3, r3
 8004d44:	001a      	movs	r2, r3
 8004d46:	4b44      	ldr	r3, [pc, #272]	; (8004e58 <USB_Istr+0x130>)
 8004d48:	681b      	ldr	r3, [r3, #0]
 8004d4a:	401a      	ands	r2, r3
 8004d4c:	2380      	movs	r3, #128	; 0x80
 8004d4e:	021b      	lsls	r3, r3, #8
 8004d50:	4013      	ands	r3, r2
 8004d52:	d001      	beq.n	8004d58 <USB_Istr+0x30>
  {
    /* servicing of the endpoint correct transfer interrupt */
    /* clear of the CTR flag into the sub */
    CTR();
 8004d54:	f7ff fd58 	bl	8004808 <CTR>
  }
#endif  
  /*-*-*-*-*-*-*-*-*-*-*-*-*-*-*-*-*-*-*-*-*-*-*-*-*-*-*-*-*-*-*-*-*-*-*/
#if (IMR_MSK & ISTR_RESET)
  if (wIstr & ISTR_RESET & wInterrupt_Mask)
 8004d58:	1dbb      	adds	r3, r7, #6
 8004d5a:	881b      	ldrh	r3, [r3, #0]
 8004d5c:	b29b      	uxth	r3, r3
 8004d5e:	001a      	movs	r2, r3
 8004d60:	4b3d      	ldr	r3, [pc, #244]	; (8004e58 <USB_Istr+0x130>)
 8004d62:	681b      	ldr	r3, [r3, #0]
 8004d64:	401a      	ands	r2, r3
 8004d66:	2380      	movs	r3, #128	; 0x80
 8004d68:	00db      	lsls	r3, r3, #3
 8004d6a:	4013      	ands	r3, r2
 8004d6c:	d00d      	beq.n	8004d8a <USB_Istr+0x62>
  {
    _SetISTR((uint16_t)CLR_RESET);
 8004d6e:	4b39      	ldr	r3, [pc, #228]	; (8004e54 <USB_Istr+0x12c>)
 8004d70:	4a3a      	ldr	r2, [pc, #232]	; (8004e5c <USB_Istr+0x134>)
 8004d72:	601a      	str	r2, [r3, #0]
    USBD_DCD_INT_fops->Reset(&USB_Device_dev);
 8004d74:	4b3a      	ldr	r3, [pc, #232]	; (8004e60 <USB_Istr+0x138>)
 8004d76:	681b      	ldr	r3, [r3, #0]
 8004d78:	691b      	ldr	r3, [r3, #16]
 8004d7a:	4a3a      	ldr	r2, [pc, #232]	; (8004e64 <USB_Istr+0x13c>)
 8004d7c:	0010      	movs	r0, r2
 8004d7e:	4798      	blx	r3
    DCD_EP_SetAddress(&USB_Device_dev, 0);
 8004d80:	4b38      	ldr	r3, [pc, #224]	; (8004e64 <USB_Istr+0x13c>)
 8004d82:	2100      	movs	r1, #0
 8004d84:	0018      	movs	r0, r3
 8004d86:	f000 fc49 	bl	800561c <DCD_EP_SetAddress>
    _SetISTR((uint16_t)CLR_DOVR);
  }
#endif
  /*-*-*-*-*-*-*-*-*-*-*-*-*-*-*-*-*-*-*-*-*-*-*-*-*-*-*-*-*-*-*-*-*-*-*/
#if (IMR_MSK & ISTR_ERR)
  if (wIstr & ISTR_ERR & wInterrupt_Mask)
 8004d8a:	1dbb      	adds	r3, r7, #6
 8004d8c:	881b      	ldrh	r3, [r3, #0]
 8004d8e:	b29b      	uxth	r3, r3
 8004d90:	001a      	movs	r2, r3
 8004d92:	4b31      	ldr	r3, [pc, #196]	; (8004e58 <USB_Istr+0x130>)
 8004d94:	681b      	ldr	r3, [r3, #0]
 8004d96:	401a      	ands	r2, r3
 8004d98:	2380      	movs	r3, #128	; 0x80
 8004d9a:	019b      	lsls	r3, r3, #6
 8004d9c:	4013      	ands	r3, r2
 8004d9e:	d002      	beq.n	8004da6 <USB_Istr+0x7e>
  {
    _SetISTR((uint16_t)CLR_ERR);
 8004da0:	4b2c      	ldr	r3, [pc, #176]	; (8004e54 <USB_Istr+0x12c>)
 8004da2:	4a31      	ldr	r2, [pc, #196]	; (8004e68 <USB_Istr+0x140>)
 8004da4:	601a      	str	r2, [r3, #0]
  }
#endif
  /*-*-*-*-*-*-*-*-*-*-*-*-*-*-*-*-*-*-*-*-*-*-*-*-*-*-*-*-*-*-*-*-*-*-*/
#if (IMR_MSK & ISTR_WKUP)
  if (wIstr & ISTR_WKUP & wInterrupt_Mask)
 8004da6:	1dbb      	adds	r3, r7, #6
 8004da8:	881b      	ldrh	r3, [r3, #0]
 8004daa:	b29b      	uxth	r3, r3
 8004dac:	001a      	movs	r2, r3
 8004dae:	4b2a      	ldr	r3, [pc, #168]	; (8004e58 <USB_Istr+0x130>)
 8004db0:	681b      	ldr	r3, [r3, #0]
 8004db2:	401a      	ands	r2, r3
 8004db4:	2380      	movs	r3, #128	; 0x80
 8004db6:	015b      	lsls	r3, r3, #5
 8004db8:	4013      	ands	r3, r2
 8004dba:	d00b      	beq.n	8004dd4 <USB_Istr+0xac>
  {
    _SetISTR((uint16_t)CLR_WKUP);
 8004dbc:	4b25      	ldr	r3, [pc, #148]	; (8004e54 <USB_Istr+0x12c>)
 8004dbe:	4a2b      	ldr	r2, [pc, #172]	; (8004e6c <USB_Istr+0x144>)
 8004dc0:	601a      	str	r2, [r3, #0]
    
    USBD_DCD_INT_fops->Resume(&USB_Device_dev);
 8004dc2:	4b27      	ldr	r3, [pc, #156]	; (8004e60 <USB_Istr+0x138>)
 8004dc4:	681b      	ldr	r3, [r3, #0]
 8004dc6:	699b      	ldr	r3, [r3, #24]
 8004dc8:	4a26      	ldr	r2, [pc, #152]	; (8004e64 <USB_Istr+0x13c>)
 8004dca:	0010      	movs	r0, r2
 8004dcc:	4798      	blx	r3
     
    /* Handle Resume state machine */  
    Resume(RESUME_EXTERNAL);
 8004dce:	2000      	movs	r0, #0
 8004dd0:	f7fd f918 	bl	8002004 <Resume>
#endif
  }
#endif
  /*-*-*-*-*-*-*-*-*-*-*-*-*-*-*-*-*-*-*-*-*-*-*-*-*-*-*-*-*-*-*-*-*-*-*/
#if (IMR_MSK & ISTR_SUSP)
  if (wIstr & ISTR_SUSP & wInterrupt_Mask)
 8004dd4:	1dbb      	adds	r3, r7, #6
 8004dd6:	881b      	ldrh	r3, [r3, #0]
 8004dd8:	b29b      	uxth	r3, r3
 8004dda:	001a      	movs	r2, r3
 8004ddc:	4b1e      	ldr	r3, [pc, #120]	; (8004e58 <USB_Istr+0x130>)
 8004dde:	681b      	ldr	r3, [r3, #0]
 8004de0:	401a      	ands	r2, r3
 8004de2:	2380      	movs	r3, #128	; 0x80
 8004de4:	011b      	lsls	r3, r3, #4
 8004de6:	4013      	ands	r3, r2
 8004de8:	d00a      	beq.n	8004e00 <USB_Istr+0xd8>
  {
   /* clear of the ISTR bit must be done after setting of CNTR_FSUSP */
    _SetISTR((uint16_t)CLR_SUSP);
 8004dea:	4b1a      	ldr	r3, [pc, #104]	; (8004e54 <USB_Istr+0x12c>)
 8004dec:	4a20      	ldr	r2, [pc, #128]	; (8004e70 <USB_Istr+0x148>)
 8004dee:	601a      	str	r2, [r3, #0]
    
    /* process library core layer suspend routine*/
    USBD_DCD_INT_fops->Suspend(&USB_Device_dev); 
 8004df0:	4b1b      	ldr	r3, [pc, #108]	; (8004e60 <USB_Istr+0x138>)
 8004df2:	681b      	ldr	r3, [r3, #0]
 8004df4:	695b      	ldr	r3, [r3, #20]
 8004df6:	4a1b      	ldr	r2, [pc, #108]	; (8004e64 <USB_Istr+0x13c>)
 8004df8:	0010      	movs	r0, r2
 8004dfa:	4798      	blx	r3
    
    /* enter macrocell in suspend and system in low power mode when 
       USB_DEVICE_LOW_PWR_MGMT_SUPPORT defined in usb_conf.h */
    Suspend();   
 8004dfc:	f7fd f8c0 	bl	8001f80 <Suspend>
  }
#endif
  /*-*-*-*-*-*-*-*-*-*-*-*-*-*-*-*-*-*-*-*-*-*-*-*-*-*-*-*-*-*-*-*-*-*-*/
#if (IMR_MSK & ISTR_SOF)
  if (wIstr & ISTR_SOF & wInterrupt_Mask)
 8004e00:	1dbb      	adds	r3, r7, #6
 8004e02:	881b      	ldrh	r3, [r3, #0]
 8004e04:	b29b      	uxth	r3, r3
 8004e06:	001a      	movs	r2, r3
 8004e08:	4b13      	ldr	r3, [pc, #76]	; (8004e58 <USB_Istr+0x130>)
 8004e0a:	681b      	ldr	r3, [r3, #0]
 8004e0c:	401a      	ands	r2, r3
 8004e0e:	2380      	movs	r3, #128	; 0x80
 8004e10:	009b      	lsls	r3, r3, #2
 8004e12:	4013      	ands	r3, r2
 8004e14:	d008      	beq.n	8004e28 <USB_Istr+0x100>
  {
    _SetISTR((uint16_t)CLR_SOF);
 8004e16:	4b0f      	ldr	r3, [pc, #60]	; (8004e54 <USB_Istr+0x12c>)
 8004e18:	4a16      	ldr	r2, [pc, #88]	; (8004e74 <USB_Istr+0x14c>)
 8004e1a:	601a      	str	r2, [r3, #0]
    USBD_DCD_INT_fops->SOF(&USB_Device_dev);
 8004e1c:	4b10      	ldr	r3, [pc, #64]	; (8004e60 <USB_Istr+0x138>)
 8004e1e:	681b      	ldr	r3, [r3, #0]
 8004e20:	68db      	ldr	r3, [r3, #12]
 8004e22:	4a10      	ldr	r2, [pc, #64]	; (8004e64 <USB_Istr+0x13c>)
 8004e24:	0010      	movs	r0, r2
 8004e26:	4798      	blx	r3
  }
#endif
  /*-*-*-*-*-*-*-*-*-*-*-*-*-*-*-*-*-*-*-*-*-*-*-*-*-*-*-*-*-*-*-*-*-*-*/
#if (IMR_MSK & ISTR_ESOF)
  if (wIstr & ISTR_ESOF & wInterrupt_Mask)
 8004e28:	1dbb      	adds	r3, r7, #6
 8004e2a:	881b      	ldrh	r3, [r3, #0]
 8004e2c:	b29b      	uxth	r3, r3
 8004e2e:	001a      	movs	r2, r3
 8004e30:	4b09      	ldr	r3, [pc, #36]	; (8004e58 <USB_Istr+0x130>)
 8004e32:	681b      	ldr	r3, [r3, #0]
 8004e34:	401a      	ands	r2, r3
 8004e36:	2380      	movs	r3, #128	; 0x80
 8004e38:	005b      	lsls	r3, r3, #1
 8004e3a:	4013      	ands	r3, r2
 8004e3c:	d005      	beq.n	8004e4a <USB_Istr+0x122>
  {
    /* clear ESOF flag in ISTR */
    _SetISTR((uint16_t)CLR_ESOF);
 8004e3e:	4b05      	ldr	r3, [pc, #20]	; (8004e54 <USB_Istr+0x12c>)
 8004e40:	4a0d      	ldr	r2, [pc, #52]	; (8004e78 <USB_Istr+0x150>)
 8004e42:	601a      	str	r2, [r3, #0]
    
    /* resume handling timing is made with ESOFs */
    Resume(RESUME_ESOF); /* request without change of the machine state */
 8004e44:	2007      	movs	r0, #7
 8004e46:	f7fd f8dd 	bl	8002004 <Resume>
    STM32F072 can wakeup system from STOP mode in less than 50 us */
    Suspend();
  }
#endif
#endif
} /* USB_Istr */
 8004e4a:	46c0      	nop			; (mov r8, r8)
 8004e4c:	46bd      	mov	sp, r7
 8004e4e:	b002      	add	sp, #8
 8004e50:	bd80      	pop	{r7, pc}
 8004e52:	46c0      	nop			; (mov r8, r8)
 8004e54:	40005c44 	.word	0x40005c44
 8004e58:	20000174 	.word	0x20000174
 8004e5c:	0000fbff 	.word	0x0000fbff
 8004e60:	20000090 	.word	0x20000090
 8004e64:	20000234 	.word	0x20000234
 8004e68:	0000dfff 	.word	0x0000dfff
 8004e6c:	0000efff 	.word	0x0000efff
 8004e70:	0000f7ff 	.word	0x0000f7ff
 8004e74:	0000fdff 	.word	0x0000fdff
 8004e78:	0000feff 	.word	0x0000feff

08004e7c <DCD_Init>:
  * @brief Device Initialization
  * @param  pdev: device instance
  * @retval : None
  */
void DCD_Init(USB_CORE_HANDLE *pdev)
{
 8004e7c:	b580      	push	{r7, lr}
 8004e7e:	b082      	sub	sp, #8
 8004e80:	af00      	add	r7, sp, #0
 8004e82:	6078      	str	r0, [r7, #4]
  /*Device is in Default State*/
  pdev->dev.device_status = USB_DEFAULT;
 8004e84:	687b      	ldr	r3, [r7, #4]
 8004e86:	2201      	movs	r2, #1
 8004e88:	709a      	strb	r2, [r3, #2]
  pdev->dev.device_address = 0;
 8004e8a:	687b      	ldr	r3, [r7, #4]
 8004e8c:	2200      	movs	r2, #0
 8004e8e:	711a      	strb	r2, [r3, #4]
  pdev->dev.DevRemoteWakeup = 0;
 8004e90:	687b      	ldr	r3, [r7, #4]
 8004e92:	2200      	movs	r2, #0
 8004e94:	609a      	str	r2, [r3, #8]
  
  pdev->dev.speed = USB_SPEED_FULL; /*kept for API compatibility reason*/
 8004e96:	687b      	ldr	r3, [r7, #4]
 8004e98:	2201      	movs	r2, #1
 8004e9a:	60da      	str	r2, [r3, #12]
  
  /*CNTR_FRES = 1*/
  SetCNTR(CNTR_FRES);
 8004e9c:	2001      	movs	r0, #1
 8004e9e:	f000 fc15 	bl	80056cc <SetCNTR>
  
  /*CNTR_FRES = 0*/
  SetCNTR(0);
 8004ea2:	2000      	movs	r0, #0
 8004ea4:	f000 fc12 	bl	80056cc <SetCNTR>
  
  /*Clear pending interrupts*/
  SetISTR(0);
 8004ea8:	2000      	movs	r0, #0
 8004eaa:	f000 fc1f 	bl	80056ec <SetISTR>
  
  /*Set Btable Address*/
  SetBTABLE(BTABLE_ADDRESS);
 8004eae:	2000      	movs	r0, #0
 8004eb0:	f000 fc2c 	bl	800570c <SetBTABLE>
  
  /*set wInterrupt_Mask global variable*/
  wInterrupt_Mask = CNTR_CTRM  | CNTR_WKUPM | CNTR_SUSPM | CNTR_ERRM  | CNTR_SOFM \
 8004eb4:	4b06      	ldr	r3, [pc, #24]	; (8004ed0 <DCD_Init+0x54>)
 8004eb6:	22bf      	movs	r2, #191	; 0xbf
 8004eb8:	0212      	lsls	r2, r2, #8
 8004eba:	601a      	str	r2, [r3, #0]
  /* Enable LPM support and enable ACK answer to LPM request*/
  _SetLPMCSR(LPMCSR_LMPEN | LPMCSR_LPMACK);
#endif
 
  /*Set interrupt mask*/
  SetCNTR(wInterrupt_Mask); 
 8004ebc:	4b04      	ldr	r3, [pc, #16]	; (8004ed0 <DCD_Init+0x54>)
 8004ebe:	681b      	ldr	r3, [r3, #0]
 8004ec0:	b29b      	uxth	r3, r3
 8004ec2:	0018      	movs	r0, r3
 8004ec4:	f000 fc02 	bl	80056cc <SetCNTR>
}
 8004ec8:	46c0      	nop			; (mov r8, r8)
 8004eca:	46bd      	mov	sp, r7
 8004ecc:	b002      	add	sp, #8
 8004ece:	bd80      	pop	{r7, pc}
 8004ed0:	20000174 	.word	0x20000174

08004ed4 <DCD_PMA_Config>:
uint32_t DCD_PMA_Config(USB_CORE_HANDLE *pdev , 
                        uint16_t ep_addr,
                        uint16_t ep_kind,
                        uint32_t pmaadress)

{
 8004ed4:	b580      	push	{r7, lr}
 8004ed6:	b086      	sub	sp, #24
 8004ed8:	af00      	add	r7, sp, #0
 8004eda:	60f8      	str	r0, [r7, #12]
 8004edc:	0008      	movs	r0, r1
 8004ede:	0011      	movs	r1, r2
 8004ee0:	607b      	str	r3, [r7, #4]
 8004ee2:	230a      	movs	r3, #10
 8004ee4:	18fb      	adds	r3, r7, r3
 8004ee6:	1c02      	adds	r2, r0, #0
 8004ee8:	801a      	strh	r2, [r3, #0]
 8004eea:	2308      	movs	r3, #8
 8004eec:	18fb      	adds	r3, r7, r3
 8004eee:	1c0a      	adds	r2, r1, #0
 8004ef0:	801a      	strh	r2, [r3, #0]
  USB_EP *ep;
  /* initialize ep structure*/
  if ((ep_addr & 0x80) == 0x80)
 8004ef2:	230a      	movs	r3, #10
 8004ef4:	18fb      	adds	r3, r7, r3
 8004ef6:	881b      	ldrh	r3, [r3, #0]
 8004ef8:	2280      	movs	r2, #128	; 0x80
 8004efa:	4013      	ands	r3, r2
 8004efc:	d00d      	beq.n	8004f1a <DCD_PMA_Config+0x46>
  {
    ep = &pdev->dev.in_ep[ep_addr & 0x7F];
 8004efe:	230a      	movs	r3, #10
 8004f00:	18fb      	adds	r3, r7, r3
 8004f02:	881b      	ldrh	r3, [r3, #0]
 8004f04:	227f      	movs	r2, #127	; 0x7f
 8004f06:	401a      	ands	r2, r3
 8004f08:	0013      	movs	r3, r2
 8004f0a:	009b      	lsls	r3, r3, #2
 8004f0c:	189b      	adds	r3, r3, r2
 8004f0e:	00db      	lsls	r3, r3, #3
 8004f10:	3318      	adds	r3, #24
 8004f12:	68fa      	ldr	r2, [r7, #12]
 8004f14:	18d3      	adds	r3, r2, r3
 8004f16:	617b      	str	r3, [r7, #20]
 8004f18:	e00c      	b.n	8004f34 <DCD_PMA_Config+0x60>
  }
  else
  {
    ep = &pdev->dev.out_ep[ep_addr & 0x7F];
 8004f1a:	230a      	movs	r3, #10
 8004f1c:	18fb      	adds	r3, r7, r3
 8004f1e:	881b      	ldrh	r3, [r3, #0]
 8004f20:	227f      	movs	r2, #127	; 0x7f
 8004f22:	401a      	ands	r2, r3
 8004f24:	0013      	movs	r3, r2
 8004f26:	009b      	lsls	r3, r3, #2
 8004f28:	189b      	adds	r3, r3, r2
 8004f2a:	00db      	lsls	r3, r3, #3
 8004f2c:	33b8      	adds	r3, #184	; 0xb8
 8004f2e:	68fa      	ldr	r2, [r7, #12]
 8004f30:	18d3      	adds	r3, r2, r3
 8004f32:	617b      	str	r3, [r7, #20]
  }
  
  /* Here we check if the endpoint is single or double Buffer*/
  if (ep_kind == USB_SNG_BUF)
 8004f34:	2308      	movs	r3, #8
 8004f36:	18fb      	adds	r3, r7, r3
 8004f38:	881b      	ldrh	r3, [r3, #0]
 8004f3a:	2b00      	cmp	r3, #0
 8004f3c:	d107      	bne.n	8004f4e <DCD_PMA_Config+0x7a>
  {
    /*Single Buffer*/
    ep->doublebuffer = 0;
 8004f3e:	697b      	ldr	r3, [r7, #20]
 8004f40:	2200      	movs	r2, #0
 8004f42:	729a      	strb	r2, [r3, #10]
    /*Configure te PMA*/
    ep->pmaadress = (uint16_t)pmaadress;
 8004f44:	687b      	ldr	r3, [r7, #4]
 8004f46:	b29a      	uxth	r2, r3
 8004f48:	697b      	ldr	r3, [r7, #20]
 8004f4a:	809a      	strh	r2, [r3, #4]
 8004f4c:	e00b      	b.n	8004f66 <DCD_PMA_Config+0x92>
  }
  else /*USB_DBL_BUF*/
  {
    /*Double Buffer Endpoint*/
    ep->doublebuffer = 1;
 8004f4e:	697b      	ldr	r3, [r7, #20]
 8004f50:	2201      	movs	r2, #1
 8004f52:	729a      	strb	r2, [r3, #10]
    /*Configure the PMA*/
    ep->pmaaddr0 =  pmaadress & 0xFFFF;
 8004f54:	687b      	ldr	r3, [r7, #4]
 8004f56:	b29a      	uxth	r2, r3
 8004f58:	697b      	ldr	r3, [r7, #20]
 8004f5a:	80da      	strh	r2, [r3, #6]
    ep->pmaaddr1 =  (pmaadress & 0xFFFF0000) >> 16;
 8004f5c:	687b      	ldr	r3, [r7, #4]
 8004f5e:	0c1b      	lsrs	r3, r3, #16
 8004f60:	b29a      	uxth	r2, r3
 8004f62:	697b      	ldr	r3, [r7, #20]
 8004f64:	811a      	strh	r2, [r3, #8]
  }
  
  return USB_OK; 
 8004f66:	2300      	movs	r3, #0
}
 8004f68:	0018      	movs	r0, r3
 8004f6a:	46bd      	mov	sp, r7
 8004f6c:	b006      	add	sp, #24
 8004f6e:	bd80      	pop	{r7, pc}

08004f70 <DCD_EP_Open>:
  */
uint32_t DCD_EP_Open(USB_CORE_HANDLE *pdev , 
                     uint16_t ep_addr,
                     uint16_t ep_mps,
                     uint8_t ep_type)
{
 8004f70:	b590      	push	{r4, r7, lr}
 8004f72:	b087      	sub	sp, #28
 8004f74:	af00      	add	r7, sp, #0
 8004f76:	60f8      	str	r0, [r7, #12]
 8004f78:	000c      	movs	r4, r1
 8004f7a:	0010      	movs	r0, r2
 8004f7c:	0019      	movs	r1, r3
 8004f7e:	230a      	movs	r3, #10
 8004f80:	18fb      	adds	r3, r7, r3
 8004f82:	1c22      	adds	r2, r4, #0
 8004f84:	801a      	strh	r2, [r3, #0]
 8004f86:	2308      	movs	r3, #8
 8004f88:	18fb      	adds	r3, r7, r3
 8004f8a:	1c02      	adds	r2, r0, #0
 8004f8c:	801a      	strh	r2, [r3, #0]
 8004f8e:	1dfb      	adds	r3, r7, #7
 8004f90:	1c0a      	adds	r2, r1, #0
 8004f92:	701a      	strb	r2, [r3, #0]
  
  USB_EP *ep;
  
  /* initialize ep structure*/
  if ((ep_addr & 0x80) == 0x80)
 8004f94:	230a      	movs	r3, #10
 8004f96:	18fb      	adds	r3, r7, r3
 8004f98:	881b      	ldrh	r3, [r3, #0]
 8004f9a:	2280      	movs	r2, #128	; 0x80
 8004f9c:	4013      	ands	r3, r2
 8004f9e:	d010      	beq.n	8004fc2 <DCD_EP_Open+0x52>
  {
    ep = &pdev->dev.in_ep[ep_addr & 0x7F];
 8004fa0:	230a      	movs	r3, #10
 8004fa2:	18fb      	adds	r3, r7, r3
 8004fa4:	881b      	ldrh	r3, [r3, #0]
 8004fa6:	227f      	movs	r2, #127	; 0x7f
 8004fa8:	401a      	ands	r2, r3
 8004faa:	0013      	movs	r3, r2
 8004fac:	009b      	lsls	r3, r3, #2
 8004fae:	189b      	adds	r3, r3, r2
 8004fb0:	00db      	lsls	r3, r3, #3
 8004fb2:	3318      	adds	r3, #24
 8004fb4:	68fa      	ldr	r2, [r7, #12]
 8004fb6:	18d3      	adds	r3, r2, r3
 8004fb8:	617b      	str	r3, [r7, #20]
    ep->is_in = 1;
 8004fba:	697b      	ldr	r3, [r7, #20]
 8004fbc:	2201      	movs	r2, #1
 8004fbe:	705a      	strb	r2, [r3, #1]
 8004fc0:	e00f      	b.n	8004fe2 <DCD_EP_Open+0x72>
  }
  else
  {
    ep = &pdev->dev.out_ep[ep_addr & 0x7F];
 8004fc2:	230a      	movs	r3, #10
 8004fc4:	18fb      	adds	r3, r7, r3
 8004fc6:	881b      	ldrh	r3, [r3, #0]
 8004fc8:	227f      	movs	r2, #127	; 0x7f
 8004fca:	401a      	ands	r2, r3
 8004fcc:	0013      	movs	r3, r2
 8004fce:	009b      	lsls	r3, r3, #2
 8004fd0:	189b      	adds	r3, r3, r2
 8004fd2:	00db      	lsls	r3, r3, #3
 8004fd4:	33b8      	adds	r3, #184	; 0xb8
 8004fd6:	68fa      	ldr	r2, [r7, #12]
 8004fd8:	18d3      	adds	r3, r2, r3
 8004fda:	617b      	str	r3, [r7, #20]
    ep->is_in = 0;
 8004fdc:	697b      	ldr	r3, [r7, #20]
 8004fde:	2200      	movs	r2, #0
 8004fe0:	705a      	strb	r2, [r3, #1]
  }
  
  ep->maxpacket = ep_mps;
 8004fe2:	2308      	movs	r3, #8
 8004fe4:	18fb      	adds	r3, r7, r3
 8004fe6:	881a      	ldrh	r2, [r3, #0]
 8004fe8:	697b      	ldr	r3, [r7, #20]
 8004fea:	60da      	str	r2, [r3, #12]
  ep->type = ep_type;
 8004fec:	697b      	ldr	r3, [r7, #20]
 8004fee:	1dfa      	adds	r2, r7, #7
 8004ff0:	7812      	ldrb	r2, [r2, #0]
 8004ff2:	70da      	strb	r2, [r3, #3]
  ep->num   = ep_addr & 0x7F;
 8004ff4:	230a      	movs	r3, #10
 8004ff6:	18fb      	adds	r3, r7, r3
 8004ff8:	881b      	ldrh	r3, [r3, #0]
 8004ffa:	b2db      	uxtb	r3, r3
 8004ffc:	227f      	movs	r2, #127	; 0x7f
 8004ffe:	4013      	ands	r3, r2
 8005000:	b2da      	uxtb	r2, r3
 8005002:	697b      	ldr	r3, [r7, #20]
 8005004:	701a      	strb	r2, [r3, #0]
  
  if (ep->num == 0)
 8005006:	697b      	ldr	r3, [r7, #20]
 8005008:	781b      	ldrb	r3, [r3, #0]
 800500a:	2b00      	cmp	r3, #0
 800500c:	d108      	bne.n	8005020 <DCD_EP_Open+0xb0>
  {
    /* Initialize the control transfer variables*/ 
    ep->ctl_data_len =0;
 800500e:	697b      	ldr	r3, [r7, #20]
 8005010:	2200      	movs	r2, #0
 8005012:	625a      	str	r2, [r3, #36]	; 0x24
    ep->rem_data_len = 0;
 8005014:	697b      	ldr	r3, [r7, #20]
 8005016:	2200      	movs	r2, #0
 8005018:	61da      	str	r2, [r3, #28]
    ep->total_data_len = 0;
 800501a:	697b      	ldr	r3, [r7, #20]
 800501c:	2200      	movs	r2, #0
 800501e:	621a      	str	r2, [r3, #32]
  }
  
  /* Initialize the transaction level variables */
  ep->xfer_buff = 0;
 8005020:	697b      	ldr	r3, [r7, #20]
 8005022:	2200      	movs	r2, #0
 8005024:	611a      	str	r2, [r3, #16]
  ep->xfer_len = 0;
 8005026:	697b      	ldr	r3, [r7, #20]
 8005028:	2200      	movs	r2, #0
 800502a:	615a      	str	r2, [r3, #20]
  ep->xfer_count = 0;
 800502c:	697b      	ldr	r3, [r7, #20]
 800502e:	2200      	movs	r2, #0
 8005030:	619a      	str	r2, [r3, #24]
  ep->is_stall = 0;
 8005032:	697b      	ldr	r3, [r7, #20]
 8005034:	2200      	movs	r2, #0
 8005036:	709a      	strb	r2, [r3, #2]
  
  /* initialize HW */
  switch (ep->type)
 8005038:	697b      	ldr	r3, [r7, #20]
 800503a:	78db      	ldrb	r3, [r3, #3]
 800503c:	2b01      	cmp	r3, #1
 800503e:	d021      	beq.n	8005084 <DCD_EP_Open+0x114>
 8005040:	dc02      	bgt.n	8005048 <DCD_EP_Open+0xd8>
 8005042:	2b00      	cmp	r3, #0
 8005044:	d005      	beq.n	8005052 <DCD_EP_Open+0xe2>
 8005046:	e026      	b.n	8005096 <DCD_EP_Open+0x126>
 8005048:	2b02      	cmp	r3, #2
 800504a:	d00b      	beq.n	8005064 <DCD_EP_Open+0xf4>
 800504c:	2b03      	cmp	r3, #3
 800504e:	d010      	beq.n	8005072 <DCD_EP_Open+0x102>
 8005050:	e021      	b.n	8005096 <DCD_EP_Open+0x126>
  {
  case USB_EP_CONTROL:
    SetEPType(ep->num, EP_CONTROL);
 8005052:	697b      	ldr	r3, [r7, #20]
 8005054:	781a      	ldrb	r2, [r3, #0]
 8005056:	2380      	movs	r3, #128	; 0x80
 8005058:	009b      	lsls	r3, r3, #2
 800505a:	0019      	movs	r1, r3
 800505c:	0010      	movs	r0, r2
 800505e:	f000 fb7d 	bl	800575c <SetEPType>
    break;
 8005062:	e018      	b.n	8005096 <DCD_EP_Open+0x126>
  case USB_EP_BULK:
    SetEPType(ep->num, EP_BULK);
 8005064:	697b      	ldr	r3, [r7, #20]
 8005066:	781b      	ldrb	r3, [r3, #0]
 8005068:	2100      	movs	r1, #0
 800506a:	0018      	movs	r0, r3
 800506c:	f000 fb76 	bl	800575c <SetEPType>
    break;
 8005070:	e011      	b.n	8005096 <DCD_EP_Open+0x126>
  case USB_EP_INT:
    SetEPType(ep->num, EP_INTERRUPT);
 8005072:	697b      	ldr	r3, [r7, #20]
 8005074:	781a      	ldrb	r2, [r3, #0]
 8005076:	23c0      	movs	r3, #192	; 0xc0
 8005078:	00db      	lsls	r3, r3, #3
 800507a:	0019      	movs	r1, r3
 800507c:	0010      	movs	r0, r2
 800507e:	f000 fb6d 	bl	800575c <SetEPType>
    break;
 8005082:	e008      	b.n	8005096 <DCD_EP_Open+0x126>
  case USB_EP_ISOC:
    SetEPType(ep->num, EP_ISOCHRONOUS);
 8005084:	697b      	ldr	r3, [r7, #20]
 8005086:	781a      	ldrb	r2, [r3, #0]
 8005088:	2380      	movs	r3, #128	; 0x80
 800508a:	00db      	lsls	r3, r3, #3
 800508c:	0019      	movs	r1, r3
 800508e:	0010      	movs	r0, r2
 8005090:	f000 fb64 	bl	800575c <SetEPType>
    break;
 8005094:	46c0      	nop			; (mov r8, r8)
  } 
  
  if (ep->doublebuffer == 0) 
 8005096:	697b      	ldr	r3, [r7, #20]
 8005098:	7a9b      	ldrb	r3, [r3, #10]
 800509a:	2b00      	cmp	r3, #0
 800509c:	d136      	bne.n	800510c <DCD_EP_Open+0x19c>
  {
    if (ep->is_in)
 800509e:	697b      	ldr	r3, [r7, #20]
 80050a0:	785b      	ldrb	r3, [r3, #1]
 80050a2:	2b00      	cmp	r3, #0
 80050a4:	d013      	beq.n	80050ce <DCD_EP_Open+0x15e>
    {
      /*Set the endpoint Transmit buffer address */
      SetEPTxAddr(ep->num, ep->pmaadress);
 80050a6:	697b      	ldr	r3, [r7, #20]
 80050a8:	781a      	ldrb	r2, [r3, #0]
 80050aa:	697b      	ldr	r3, [r7, #20]
 80050ac:	889b      	ldrh	r3, [r3, #4]
 80050ae:	0019      	movs	r1, r3
 80050b0:	0010      	movs	r0, r2
 80050b2:	f000 fcc5 	bl	8005a40 <SetEPTxAddr>
      ClearDTOG_TX(ep->num);
 80050b6:	697b      	ldr	r3, [r7, #20]
 80050b8:	781b      	ldrb	r3, [r3, #0]
 80050ba:	0018      	movs	r0, r3
 80050bc:	f000 fc92 	bl	80059e4 <ClearDTOG_TX>
      /* Configure NAK status for the Endpoint*/
      SetEPTxStatus(ep->num, EP_TX_NAK); 
 80050c0:	697b      	ldr	r3, [r7, #20]
 80050c2:	781b      	ldrb	r3, [r3, #0]
 80050c4:	2120      	movs	r1, #32
 80050c6:	0018      	movs	r0, r3
 80050c8:	f000 fb72 	bl	80057b0 <SetEPTxStatus>
 80050cc:	e069      	b.n	80051a2 <DCD_EP_Open+0x232>
    }
    else
    {
      /*Set the endpoint Receive buffer address */
      SetEPRxAddr(ep->num, ep->pmaadress);
 80050ce:	697b      	ldr	r3, [r7, #20]
 80050d0:	781a      	ldrb	r2, [r3, #0]
 80050d2:	697b      	ldr	r3, [r7, #20]
 80050d4:	889b      	ldrh	r3, [r3, #4]
 80050d6:	0019      	movs	r1, r3
 80050d8:	0010      	movs	r0, r2
 80050da:	f000 fcd5 	bl	8005a88 <SetEPRxAddr>
      /*Set the endpoint Receive buffer counter*/
      SetEPRxCount(ep->num, ep->maxpacket);
 80050de:	697b      	ldr	r3, [r7, #20]
 80050e0:	781a      	ldrb	r2, [r3, #0]
 80050e2:	697b      	ldr	r3, [r7, #20]
 80050e4:	68db      	ldr	r3, [r3, #12]
 80050e6:	b29b      	uxth	r3, r3
 80050e8:	0019      	movs	r1, r3
 80050ea:	0010      	movs	r0, r2
 80050ec:	f000 fd10 	bl	8005b10 <SetEPRxCount>
      ClearDTOG_RX(ep->num);
 80050f0:	697b      	ldr	r3, [r7, #20]
 80050f2:	781b      	ldrb	r3, [r3, #0]
 80050f4:	0018      	movs	r0, r3
 80050f6:	f000 fc45 	bl	8005984 <ClearDTOG_RX>
      /* Configure VALID status for the Endpoint*/
      SetEPRxStatus(ep->num, EP_RX_VALID);
 80050fa:	697b      	ldr	r3, [r7, #20]
 80050fc:	781a      	ldrb	r2, [r3, #0]
 80050fe:	23c0      	movs	r3, #192	; 0xc0
 8005100:	019b      	lsls	r3, r3, #6
 8005102:	0019      	movs	r1, r3
 8005104:	0010      	movs	r0, r2
 8005106:	f000 fb8f 	bl	8005828 <SetEPRxStatus>
 800510a:	e04a      	b.n	80051a2 <DCD_EP_Open+0x232>
  }
  /*Double Buffer*/
  else
  {
    /*Set the endpoint as double buffered*/
    SetEPDoubleBuff(ep->num);
 800510c:	697b      	ldr	r3, [r7, #20]
 800510e:	781b      	ldrb	r3, [r3, #0]
 8005110:	0018      	movs	r0, r3
 8005112:	f000 fbc9 	bl	80058a8 <SetEPDoubleBuff>
    /*Set buffer address for double buffered mode*/
    SetEPDblBuffAddr(ep->num,ep->pmaaddr0, ep->pmaaddr1);
 8005116:	697b      	ldr	r3, [r7, #20]
 8005118:	7818      	ldrb	r0, [r3, #0]
 800511a:	697b      	ldr	r3, [r7, #20]
 800511c:	88d9      	ldrh	r1, [r3, #6]
 800511e:	697b      	ldr	r3, [r7, #20]
 8005120:	891b      	ldrh	r3, [r3, #8]
 8005122:	001a      	movs	r2, r3
 8005124:	f000 fd8a 	bl	8005c3c <SetEPDblBuffAddr>
    
    if (ep->is_in==0)
 8005128:	697b      	ldr	r3, [r7, #20]
 800512a:	785b      	ldrb	r3, [r3, #1]
 800512c:	2b00      	cmp	r3, #0
 800512e:	d11d      	bne.n	800516c <DCD_EP_Open+0x1fc>
    {
      /* Clear the data toggle bits for the endpoint IN/OUT*/
      ClearDTOG_RX(ep->num);
 8005130:	697b      	ldr	r3, [r7, #20]
 8005132:	781b      	ldrb	r3, [r3, #0]
 8005134:	0018      	movs	r0, r3
 8005136:	f000 fc25 	bl	8005984 <ClearDTOG_RX>
      ClearDTOG_TX(ep->num);
 800513a:	697b      	ldr	r3, [r7, #20]
 800513c:	781b      	ldrb	r3, [r3, #0]
 800513e:	0018      	movs	r0, r3
 8005140:	f000 fc50 	bl	80059e4 <ClearDTOG_TX>
      
      /* Reset value of the data toggle bits for the endpoint out*/
      ToggleDTOG_TX(ep->num);
 8005144:	697b      	ldr	r3, [r7, #20]
 8005146:	781b      	ldrb	r3, [r3, #0]
 8005148:	0018      	movs	r0, r3
 800514a:	f000 fbf7 	bl	800593c <ToggleDTOG_TX>
      
      SetEPRxStatus(ep->num, EP_RX_VALID);
 800514e:	697b      	ldr	r3, [r7, #20]
 8005150:	781a      	ldrb	r2, [r3, #0]
 8005152:	23c0      	movs	r3, #192	; 0xc0
 8005154:	019b      	lsls	r3, r3, #6
 8005156:	0019      	movs	r1, r3
 8005158:	0010      	movs	r0, r2
 800515a:	f000 fb65 	bl	8005828 <SetEPRxStatus>
      SetEPTxStatus(ep->num, EP_TX_DIS);
 800515e:	697b      	ldr	r3, [r7, #20]
 8005160:	781b      	ldrb	r3, [r3, #0]
 8005162:	2100      	movs	r1, #0
 8005164:	0018      	movs	r0, r3
 8005166:	f000 fb23 	bl	80057b0 <SetEPTxStatus>
 800516a:	e01a      	b.n	80051a2 <DCD_EP_Open+0x232>
    }
    else
    {
      /* Clear the data toggle bits for the endpoint IN/OUT*/
      ClearDTOG_RX(ep->num);
 800516c:	697b      	ldr	r3, [r7, #20]
 800516e:	781b      	ldrb	r3, [r3, #0]
 8005170:	0018      	movs	r0, r3
 8005172:	f000 fc07 	bl	8005984 <ClearDTOG_RX>
      ClearDTOG_TX(ep->num);
 8005176:	697b      	ldr	r3, [r7, #20]
 8005178:	781b      	ldrb	r3, [r3, #0]
 800517a:	0018      	movs	r0, r3
 800517c:	f000 fc32 	bl	80059e4 <ClearDTOG_TX>
      ToggleDTOG_RX(ep->num);
 8005180:	697b      	ldr	r3, [r7, #20]
 8005182:	781b      	ldrb	r3, [r3, #0]
 8005184:	0018      	movs	r0, r3
 8005186:	f000 fbb5 	bl	80058f4 <ToggleDTOG_RX>
      /* Configure DISABLE status for the Endpoint*/
      SetEPTxStatus(ep->num, EP_TX_DIS);
 800518a:	697b      	ldr	r3, [r7, #20]
 800518c:	781b      	ldrb	r3, [r3, #0]
 800518e:	2100      	movs	r1, #0
 8005190:	0018      	movs	r0, r3
 8005192:	f000 fb0d 	bl	80057b0 <SetEPTxStatus>
      SetEPRxStatus(ep->num, EP_RX_DIS);
 8005196:	697b      	ldr	r3, [r7, #20]
 8005198:	781b      	ldrb	r3, [r3, #0]
 800519a:	2100      	movs	r1, #0
 800519c:	0018      	movs	r0, r3
 800519e:	f000 fb43 	bl	8005828 <SetEPRxStatus>
    }
  } 
  return USB_OK; 
 80051a2:	2300      	movs	r3, #0
}
 80051a4:	0018      	movs	r0, r3
 80051a6:	46bd      	mov	sp, r7
 80051a8:	b007      	add	sp, #28
 80051aa:	bd90      	pop	{r4, r7, pc}

080051ac <DCD_EP_Close>:
  * @param  pdev: device instance
  * @param  ep_addr: endpoint address
  * @retval : status
  */
uint32_t DCD_EP_Close(USB_CORE_HANDLE *pdev , uint8_t  ep_addr)
{
 80051ac:	b580      	push	{r7, lr}
 80051ae:	b084      	sub	sp, #16
 80051b0:	af00      	add	r7, sp, #0
 80051b2:	6078      	str	r0, [r7, #4]
 80051b4:	000a      	movs	r2, r1
 80051b6:	1cfb      	adds	r3, r7, #3
 80051b8:	701a      	strb	r2, [r3, #0]
  USB_EP *ep;
  
  if ((ep_addr&0x80) == 0x80)
 80051ba:	1cfb      	adds	r3, r7, #3
 80051bc:	781b      	ldrb	r3, [r3, #0]
 80051be:	b25b      	sxtb	r3, r3
 80051c0:	2b00      	cmp	r3, #0
 80051c2:	da0c      	bge.n	80051de <DCD_EP_Close+0x32>
  {
    ep = &pdev->dev.in_ep[ep_addr & 0x7F];
 80051c4:	1cfb      	adds	r3, r7, #3
 80051c6:	781b      	ldrb	r3, [r3, #0]
 80051c8:	227f      	movs	r2, #127	; 0x7f
 80051ca:	401a      	ands	r2, r3
 80051cc:	0013      	movs	r3, r2
 80051ce:	009b      	lsls	r3, r3, #2
 80051d0:	189b      	adds	r3, r3, r2
 80051d2:	00db      	lsls	r3, r3, #3
 80051d4:	3318      	adds	r3, #24
 80051d6:	687a      	ldr	r2, [r7, #4]
 80051d8:	18d3      	adds	r3, r2, r3
 80051da:	60fb      	str	r3, [r7, #12]
 80051dc:	e00b      	b.n	80051f6 <DCD_EP_Close+0x4a>
  }
  else
  {
    ep = &pdev->dev.out_ep[ep_addr & 0x7F];
 80051de:	1cfb      	adds	r3, r7, #3
 80051e0:	781b      	ldrb	r3, [r3, #0]
 80051e2:	227f      	movs	r2, #127	; 0x7f
 80051e4:	401a      	ands	r2, r3
 80051e6:	0013      	movs	r3, r2
 80051e8:	009b      	lsls	r3, r3, #2
 80051ea:	189b      	adds	r3, r3, r2
 80051ec:	00db      	lsls	r3, r3, #3
 80051ee:	33b8      	adds	r3, #184	; 0xb8
 80051f0:	687a      	ldr	r2, [r7, #4]
 80051f2:	18d3      	adds	r3, r2, r3
 80051f4:	60fb      	str	r3, [r7, #12]
  }
  
  if (ep->doublebuffer == 0) 
 80051f6:	68fb      	ldr	r3, [r7, #12]
 80051f8:	7a9b      	ldrb	r3, [r3, #10]
 80051fa:	2b00      	cmp	r3, #0
 80051fc:	d11b      	bne.n	8005236 <DCD_EP_Close+0x8a>
  {
    if (ep->is_in)
 80051fe:	68fb      	ldr	r3, [r7, #12]
 8005200:	785b      	ldrb	r3, [r3, #1]
 8005202:	2b00      	cmp	r3, #0
 8005204:	d00b      	beq.n	800521e <DCD_EP_Close+0x72>
    {
      ClearDTOG_TX(ep->num);
 8005206:	68fb      	ldr	r3, [r7, #12]
 8005208:	781b      	ldrb	r3, [r3, #0]
 800520a:	0018      	movs	r0, r3
 800520c:	f000 fbea 	bl	80059e4 <ClearDTOG_TX>
      /* Configure DISABLE status for the Endpoint*/
      SetEPTxStatus(ep->num, EP_TX_DIS); 
 8005210:	68fb      	ldr	r3, [r7, #12]
 8005212:	781b      	ldrb	r3, [r3, #0]
 8005214:	2100      	movs	r1, #0
 8005216:	0018      	movs	r0, r3
 8005218:	f000 faca 	bl	80057b0 <SetEPTxStatus>
 800521c:	e046      	b.n	80052ac <DCD_EP_Close+0x100>
    }
    else
    {
      ClearDTOG_RX(ep->num);
 800521e:	68fb      	ldr	r3, [r7, #12]
 8005220:	781b      	ldrb	r3, [r3, #0]
 8005222:	0018      	movs	r0, r3
 8005224:	f000 fbae 	bl	8005984 <ClearDTOG_RX>
      /* Configure DISABLE status for the Endpoint*/
      SetEPRxStatus(ep->num, EP_RX_DIS);
 8005228:	68fb      	ldr	r3, [r7, #12]
 800522a:	781b      	ldrb	r3, [r3, #0]
 800522c:	2100      	movs	r1, #0
 800522e:	0018      	movs	r0, r3
 8005230:	f000 fafa 	bl	8005828 <SetEPRxStatus>
 8005234:	e03a      	b.n	80052ac <DCD_EP_Close+0x100>
    }
  }
  /*Double Buffer*/
  else
  { 
    if (ep->is_in==0)
 8005236:	68fb      	ldr	r3, [r7, #12]
 8005238:	785b      	ldrb	r3, [r3, #1]
 800523a:	2b00      	cmp	r3, #0
 800523c:	d11b      	bne.n	8005276 <DCD_EP_Close+0xca>
    {
      /* Clear the data toggle bits for the endpoint IN/OUT*/
      ClearDTOG_RX(ep->num);
 800523e:	68fb      	ldr	r3, [r7, #12]
 8005240:	781b      	ldrb	r3, [r3, #0]
 8005242:	0018      	movs	r0, r3
 8005244:	f000 fb9e 	bl	8005984 <ClearDTOG_RX>
      ClearDTOG_TX(ep->num);
 8005248:	68fb      	ldr	r3, [r7, #12]
 800524a:	781b      	ldrb	r3, [r3, #0]
 800524c:	0018      	movs	r0, r3
 800524e:	f000 fbc9 	bl	80059e4 <ClearDTOG_TX>
      
      /* Reset value of the data toggle bits for the endpoint out*/
      ToggleDTOG_TX(ep->num);
 8005252:	68fb      	ldr	r3, [r7, #12]
 8005254:	781b      	ldrb	r3, [r3, #0]
 8005256:	0018      	movs	r0, r3
 8005258:	f000 fb70 	bl	800593c <ToggleDTOG_TX>
      
      SetEPRxStatus(ep->num, EP_RX_DIS);
 800525c:	68fb      	ldr	r3, [r7, #12]
 800525e:	781b      	ldrb	r3, [r3, #0]
 8005260:	2100      	movs	r1, #0
 8005262:	0018      	movs	r0, r3
 8005264:	f000 fae0 	bl	8005828 <SetEPRxStatus>
      SetEPTxStatus(ep->num, EP_TX_DIS);
 8005268:	68fb      	ldr	r3, [r7, #12]
 800526a:	781b      	ldrb	r3, [r3, #0]
 800526c:	2100      	movs	r1, #0
 800526e:	0018      	movs	r0, r3
 8005270:	f000 fa9e 	bl	80057b0 <SetEPTxStatus>
 8005274:	e01a      	b.n	80052ac <DCD_EP_Close+0x100>
    }
    else
    {
      /* Clear the data toggle bits for the endpoint IN/OUT*/
      ClearDTOG_RX(ep->num);
 8005276:	68fb      	ldr	r3, [r7, #12]
 8005278:	781b      	ldrb	r3, [r3, #0]
 800527a:	0018      	movs	r0, r3
 800527c:	f000 fb82 	bl	8005984 <ClearDTOG_RX>
      ClearDTOG_TX(ep->num);
 8005280:	68fb      	ldr	r3, [r7, #12]
 8005282:	781b      	ldrb	r3, [r3, #0]
 8005284:	0018      	movs	r0, r3
 8005286:	f000 fbad 	bl	80059e4 <ClearDTOG_TX>
      ToggleDTOG_RX(ep->num);
 800528a:	68fb      	ldr	r3, [r7, #12]
 800528c:	781b      	ldrb	r3, [r3, #0]
 800528e:	0018      	movs	r0, r3
 8005290:	f000 fb30 	bl	80058f4 <ToggleDTOG_RX>
      /* Configure DISABLE status for the Endpoint*/
      SetEPTxStatus(ep->num, EP_TX_DIS);
 8005294:	68fb      	ldr	r3, [r7, #12]
 8005296:	781b      	ldrb	r3, [r3, #0]
 8005298:	2100      	movs	r1, #0
 800529a:	0018      	movs	r0, r3
 800529c:	f000 fa88 	bl	80057b0 <SetEPTxStatus>
      SetEPRxStatus(ep->num, EP_RX_DIS);
 80052a0:	68fb      	ldr	r3, [r7, #12]
 80052a2:	781b      	ldrb	r3, [r3, #0]
 80052a4:	2100      	movs	r1, #0
 80052a6:	0018      	movs	r0, r3
 80052a8:	f000 fabe 	bl	8005828 <SetEPRxStatus>
    }
  } 
  return USB_OK;
 80052ac:	2300      	movs	r3, #0
}
 80052ae:	0018      	movs	r0, r3
 80052b0:	46bd      	mov	sp, r7
 80052b2:	b004      	add	sp, #16
 80052b4:	bd80      	pop	{r7, pc}
 80052b6:	46c0      	nop			; (mov r8, r8)

080052b8 <DCD_EP_PrepareRx>:
  */
uint32_t DCD_EP_PrepareRx( USB_CORE_HANDLE *pdev,
                          uint8_t   ep_addr,
                          uint8_t *pbuf,                        
                          uint16_t  buf_len)
{
 80052b8:	b580      	push	{r7, lr}
 80052ba:	b086      	sub	sp, #24
 80052bc:	af00      	add	r7, sp, #0
 80052be:	60f8      	str	r0, [r7, #12]
 80052c0:	0008      	movs	r0, r1
 80052c2:	607a      	str	r2, [r7, #4]
 80052c4:	0019      	movs	r1, r3
 80052c6:	230b      	movs	r3, #11
 80052c8:	18fb      	adds	r3, r7, r3
 80052ca:	1c02      	adds	r2, r0, #0
 80052cc:	701a      	strb	r2, [r3, #0]
 80052ce:	2308      	movs	r3, #8
 80052d0:	18fb      	adds	r3, r7, r3
 80052d2:	1c0a      	adds	r2, r1, #0
 80052d4:	801a      	strh	r2, [r3, #0]
  volatile uint32_t len = 0;
 80052d6:	2300      	movs	r3, #0
 80052d8:	613b      	str	r3, [r7, #16]
  USB_EP *ep;
  
  ep = &pdev->dev.out_ep[ep_addr & 0x7F];
 80052da:	230b      	movs	r3, #11
 80052dc:	18fb      	adds	r3, r7, r3
 80052de:	781b      	ldrb	r3, [r3, #0]
 80052e0:	227f      	movs	r2, #127	; 0x7f
 80052e2:	401a      	ands	r2, r3
 80052e4:	0013      	movs	r3, r2
 80052e6:	009b      	lsls	r3, r3, #2
 80052e8:	189b      	adds	r3, r3, r2
 80052ea:	00db      	lsls	r3, r3, #3
 80052ec:	33b8      	adds	r3, #184	; 0xb8
 80052ee:	68fa      	ldr	r2, [r7, #12]
 80052f0:	18d3      	adds	r3, r2, r3
 80052f2:	617b      	str	r3, [r7, #20]
  
  /*setup and start the Xfer */
  ep->xfer_buff = pbuf;  
 80052f4:	697b      	ldr	r3, [r7, #20]
 80052f6:	687a      	ldr	r2, [r7, #4]
 80052f8:	611a      	str	r2, [r3, #16]
  ep->xfer_len = buf_len;
 80052fa:	2308      	movs	r3, #8
 80052fc:	18fb      	adds	r3, r7, r3
 80052fe:	881a      	ldrh	r2, [r3, #0]
 8005300:	697b      	ldr	r3, [r7, #20]
 8005302:	615a      	str	r2, [r3, #20]
  ep->xfer_count = 0; 
 8005304:	697b      	ldr	r3, [r7, #20]
 8005306:	2200      	movs	r2, #0
 8005308:	619a      	str	r2, [r3, #24]
  
  /*Multi packet transfer*/
  if (ep->xfer_len > ep->maxpacket)
 800530a:	697b      	ldr	r3, [r7, #20]
 800530c:	695a      	ldr	r2, [r3, #20]
 800530e:	697b      	ldr	r3, [r7, #20]
 8005310:	68db      	ldr	r3, [r3, #12]
 8005312:	429a      	cmp	r2, r3
 8005314:	d909      	bls.n	800532a <DCD_EP_PrepareRx+0x72>
  {
    len=ep->maxpacket;
 8005316:	697b      	ldr	r3, [r7, #20]
 8005318:	68db      	ldr	r3, [r3, #12]
 800531a:	613b      	str	r3, [r7, #16]
    ep->xfer_len-=len; 
 800531c:	693a      	ldr	r2, [r7, #16]
 800531e:	697b      	ldr	r3, [r7, #20]
 8005320:	695b      	ldr	r3, [r3, #20]
 8005322:	1a9a      	subs	r2, r3, r2
 8005324:	697b      	ldr	r3, [r7, #20]
 8005326:	615a      	str	r2, [r3, #20]
 8005328:	e005      	b.n	8005336 <DCD_EP_PrepareRx+0x7e>
  }
  else
  {
    len=ep->xfer_len;
 800532a:	697b      	ldr	r3, [r7, #20]
 800532c:	695b      	ldr	r3, [r3, #20]
 800532e:	613b      	str	r3, [r7, #16]
    ep->xfer_len =0;
 8005330:	697b      	ldr	r3, [r7, #20]
 8005332:	2200      	movs	r2, #0
 8005334:	615a      	str	r2, [r3, #20]
  }
  
  /* configure and validate Rx endpoint */
  if (ep->doublebuffer == 0) 
 8005336:	697b      	ldr	r3, [r7, #20]
 8005338:	7a9b      	ldrb	r3, [r3, #10]
 800533a:	2b00      	cmp	r3, #0
 800533c:	d108      	bne.n	8005350 <DCD_EP_PrepareRx+0x98>
  {
    /*Set RX buffer count*/
    SetEPRxCount(ep->num, len);
 800533e:	697b      	ldr	r3, [r7, #20]
 8005340:	781b      	ldrb	r3, [r3, #0]
 8005342:	693a      	ldr	r2, [r7, #16]
 8005344:	b292      	uxth	r2, r2
 8005346:	0011      	movs	r1, r2
 8005348:	0018      	movs	r0, r3
 800534a:	f000 fbe1 	bl	8005b10 <SetEPRxCount>
 800534e:	e008      	b.n	8005362 <DCD_EP_PrepareRx+0xaa>
  }
  else
  {
    /*Set the Double buffer counter*/
    SetEPDblBuffCount(ep->num, ep->is_in, len);
 8005350:	697b      	ldr	r3, [r7, #20]
 8005352:	7818      	ldrb	r0, [r3, #0]
 8005354:	697b      	ldr	r3, [r7, #20]
 8005356:	785b      	ldrb	r3, [r3, #1]
 8005358:	693a      	ldr	r2, [r7, #16]
 800535a:	b292      	uxth	r2, r2
 800535c:	0019      	movs	r1, r3
 800535e:	f000 fcab 	bl	8005cb8 <SetEPDblBuffCount>
  } 
  
  SetEPRxStatus(ep->num, EP_RX_VALID);
 8005362:	697b      	ldr	r3, [r7, #20]
 8005364:	781a      	ldrb	r2, [r3, #0]
 8005366:	23c0      	movs	r3, #192	; 0xc0
 8005368:	019b      	lsls	r3, r3, #6
 800536a:	0019      	movs	r1, r3
 800536c:	0010      	movs	r0, r2
 800536e:	f000 fa5b 	bl	8005828 <SetEPRxStatus>
  
  return USB_OK;
 8005372:	2300      	movs	r3, #0
}
 8005374:	0018      	movs	r0, r3
 8005376:	46bd      	mov	sp, r7
 8005378:	b006      	add	sp, #24
 800537a:	bd80      	pop	{r7, pc}

0800537c <DCD_EP_Tx>:
  */
uint32_t  DCD_EP_Tx ( USB_CORE_HANDLE *pdev,
                     uint8_t   ep_addr,
                     uint8_t   *pbuf,
                     uint32_t   buf_len)
{
 800537c:	b580      	push	{r7, lr}
 800537e:	b088      	sub	sp, #32
 8005380:	af00      	add	r7, sp, #0
 8005382:	60f8      	str	r0, [r7, #12]
 8005384:	607a      	str	r2, [r7, #4]
 8005386:	603b      	str	r3, [r7, #0]
 8005388:	230b      	movs	r3, #11
 800538a:	18fb      	adds	r3, r7, r3
 800538c:	1c0a      	adds	r2, r1, #0
 800538e:	701a      	strb	r2, [r3, #0]
  volatile uint32_t len = 0;
 8005390:	2300      	movs	r3, #0
 8005392:	617b      	str	r3, [r7, #20]
  USB_EP *ep;
  
  ep = &pdev->dev.in_ep[ep_addr & 0x7F];
 8005394:	230b      	movs	r3, #11
 8005396:	18fb      	adds	r3, r7, r3
 8005398:	781b      	ldrb	r3, [r3, #0]
 800539a:	227f      	movs	r2, #127	; 0x7f
 800539c:	401a      	ands	r2, r3
 800539e:	0013      	movs	r3, r2
 80053a0:	009b      	lsls	r3, r3, #2
 80053a2:	189b      	adds	r3, r3, r2
 80053a4:	00db      	lsls	r3, r3, #3
 80053a6:	3318      	adds	r3, #24
 80053a8:	68fa      	ldr	r2, [r7, #12]
 80053aa:	18d3      	adds	r3, r2, r3
 80053ac:	61bb      	str	r3, [r7, #24]
  
  /*setup and start the Xfer */
  ep->num = ep_addr & 0x7F; 
 80053ae:	230b      	movs	r3, #11
 80053b0:	18fb      	adds	r3, r7, r3
 80053b2:	781b      	ldrb	r3, [r3, #0]
 80053b4:	227f      	movs	r2, #127	; 0x7f
 80053b6:	4013      	ands	r3, r2
 80053b8:	b2da      	uxtb	r2, r3
 80053ba:	69bb      	ldr	r3, [r7, #24]
 80053bc:	701a      	strb	r2, [r3, #0]
  ep->xfer_buff = pbuf;  
 80053be:	69bb      	ldr	r3, [r7, #24]
 80053c0:	687a      	ldr	r2, [r7, #4]
 80053c2:	611a      	str	r2, [r3, #16]
  ep->xfer_len = buf_len;
 80053c4:	69bb      	ldr	r3, [r7, #24]
 80053c6:	683a      	ldr	r2, [r7, #0]
 80053c8:	615a      	str	r2, [r3, #20]
  ep->xfer_count = 0; 
 80053ca:	69bb      	ldr	r3, [r7, #24]
 80053cc:	2200      	movs	r2, #0
 80053ce:	619a      	str	r2, [r3, #24]
  
  /*Multi packet transfer*/
  if (ep->xfer_len > ep->maxpacket)
 80053d0:	69bb      	ldr	r3, [r7, #24]
 80053d2:	695a      	ldr	r2, [r3, #20]
 80053d4:	69bb      	ldr	r3, [r7, #24]
 80053d6:	68db      	ldr	r3, [r3, #12]
 80053d8:	429a      	cmp	r2, r3
 80053da:	d909      	bls.n	80053f0 <DCD_EP_Tx+0x74>
  {
    len=ep->maxpacket;
 80053dc:	69bb      	ldr	r3, [r7, #24]
 80053de:	68db      	ldr	r3, [r3, #12]
 80053e0:	617b      	str	r3, [r7, #20]
    ep->xfer_len-=len; 
 80053e2:	697a      	ldr	r2, [r7, #20]
 80053e4:	69bb      	ldr	r3, [r7, #24]
 80053e6:	695b      	ldr	r3, [r3, #20]
 80053e8:	1a9a      	subs	r2, r3, r2
 80053ea:	69bb      	ldr	r3, [r7, #24]
 80053ec:	615a      	str	r2, [r3, #20]
 80053ee:	e005      	b.n	80053fc <DCD_EP_Tx+0x80>
  }
  else
  {
    len=ep->xfer_len;
 80053f0:	69bb      	ldr	r3, [r7, #24]
 80053f2:	695b      	ldr	r3, [r3, #20]
 80053f4:	617b      	str	r3, [r7, #20]
    ep->xfer_len =0;
 80053f6:	69bb      	ldr	r3, [r7, #24]
 80053f8:	2200      	movs	r2, #0
 80053fa:	615a      	str	r2, [r3, #20]
  }
  
  /* configure and validate Tx endpoint */
  if (ep->doublebuffer == 0) 
 80053fc:	69bb      	ldr	r3, [r7, #24]
 80053fe:	7a9b      	ldrb	r3, [r3, #10]
 8005400:	2b00      	cmp	r3, #0
 8005402:	d111      	bne.n	8005428 <DCD_EP_Tx+0xac>
  {
    UserToPMABufferCopy(ep->xfer_buff, ep->pmaadress, len);
 8005404:	69bb      	ldr	r3, [r7, #24]
 8005406:	6918      	ldr	r0, [r3, #16]
 8005408:	69bb      	ldr	r3, [r7, #24]
 800540a:	889b      	ldrh	r3, [r3, #4]
 800540c:	697a      	ldr	r2, [r7, #20]
 800540e:	b292      	uxth	r2, r2
 8005410:	0019      	movs	r1, r3
 8005412:	f000 fdab 	bl	8005f6c <UserToPMABufferCopy>
    SetEPTxCount(ep->num, len);
 8005416:	69bb      	ldr	r3, [r7, #24]
 8005418:	781b      	ldrb	r3, [r3, #0]
 800541a:	697a      	ldr	r2, [r7, #20]
 800541c:	b292      	uxth	r2, r2
 800541e:	0011      	movs	r1, r2
 8005420:	0018      	movs	r0, r3
 8005422:	f000 fb55 	bl	8005ad0 <SetEPTxCount>
 8005426:	e033      	b.n	8005490 <DCD_EP_Tx+0x114>
  }
  else
  {
    uint16_t pmabuffer=0;
 8005428:	231e      	movs	r3, #30
 800542a:	18fb      	adds	r3, r7, r3
 800542c:	2200      	movs	r2, #0
 800542e:	801a      	strh	r2, [r3, #0]
    /*Set the Double buffer counter*/
    SetEPDblBuffCount(ep->num, ep->is_in, len);
 8005430:	69bb      	ldr	r3, [r7, #24]
 8005432:	7818      	ldrb	r0, [r3, #0]
 8005434:	69bb      	ldr	r3, [r7, #24]
 8005436:	785b      	ldrb	r3, [r3, #1]
 8005438:	697a      	ldr	r2, [r7, #20]
 800543a:	b292      	uxth	r2, r2
 800543c:	0019      	movs	r1, r3
 800543e:	f000 fc3b 	bl	8005cb8 <SetEPDblBuffCount>
    
    /*Write the data to the USB endpoint*/
    if (GetENDPOINT(ep->num)&EP_DTOG_TX)
 8005442:	69bb      	ldr	r3, [r7, #24]
 8005444:	781b      	ldrb	r3, [r3, #0]
 8005446:	0018      	movs	r0, r3
 8005448:	f000 f974 	bl	8005734 <GetENDPOINT>
 800544c:	0003      	movs	r3, r0
 800544e:	001a      	movs	r2, r3
 8005450:	2340      	movs	r3, #64	; 0x40
 8005452:	4013      	ands	r3, r2
 8005454:	d005      	beq.n	8005462 <DCD_EP_Tx+0xe6>
    {
      pmabuffer = ep->pmaaddr1;
 8005456:	231e      	movs	r3, #30
 8005458:	18fb      	adds	r3, r7, r3
 800545a:	69ba      	ldr	r2, [r7, #24]
 800545c:	8912      	ldrh	r2, [r2, #8]
 800545e:	801a      	strh	r2, [r3, #0]
 8005460:	e004      	b.n	800546c <DCD_EP_Tx+0xf0>
    }
    else
    {
      pmabuffer = ep->pmaaddr0;
 8005462:	231e      	movs	r3, #30
 8005464:	18fb      	adds	r3, r7, r3
 8005466:	69ba      	ldr	r2, [r7, #24]
 8005468:	88d2      	ldrh	r2, [r2, #6]
 800546a:	801a      	strh	r2, [r3, #0]
    }
    UserToPMABufferCopy(ep->xfer_buff, pmabuffer, len);
 800546c:	69bb      	ldr	r3, [r7, #24]
 800546e:	6918      	ldr	r0, [r3, #16]
 8005470:	697b      	ldr	r3, [r7, #20]
 8005472:	b29a      	uxth	r2, r3
 8005474:	231e      	movs	r3, #30
 8005476:	18fb      	adds	r3, r7, r3
 8005478:	881b      	ldrh	r3, [r3, #0]
 800547a:	0019      	movs	r1, r3
 800547c:	f000 fd76 	bl	8005f6c <UserToPMABufferCopy>
    FreeUserBuffer(ep->num, ep->is_in);
 8005480:	69bb      	ldr	r3, [r7, #24]
 8005482:	781a      	ldrb	r2, [r3, #0]
 8005484:	69bb      	ldr	r3, [r7, #24]
 8005486:	785b      	ldrb	r3, [r3, #1]
 8005488:	0019      	movs	r1, r3
 800548a:	0010      	movs	r0, r2
 800548c:	f000 fd2a 	bl	8005ee4 <FreeUserBuffer>
  }
  
  SetEPTxStatus(ep->num, EP_TX_VALID);
 8005490:	69bb      	ldr	r3, [r7, #24]
 8005492:	781b      	ldrb	r3, [r3, #0]
 8005494:	2130      	movs	r1, #48	; 0x30
 8005496:	0018      	movs	r0, r3
 8005498:	f000 f98a 	bl	80057b0 <SetEPTxStatus>
  
  return USB_OK; 
 800549c:	2300      	movs	r3, #0
}
 800549e:	0018      	movs	r0, r3
 80054a0:	46bd      	mov	sp, r7
 80054a2:	b008      	add	sp, #32
 80054a4:	bd80      	pop	{r7, pc}
 80054a6:	46c0      	nop			; (mov r8, r8)

080054a8 <DCD_EP_Stall>:
  * @param  pdev: device instance
  * @param  epnum: endpoint address
  * @retval : status
  */
uint32_t  DCD_EP_Stall (USB_CORE_HANDLE *pdev, uint8_t   epnum)
{
 80054a8:	b590      	push	{r4, r7, lr}
 80054aa:	b085      	sub	sp, #20
 80054ac:	af00      	add	r7, sp, #0
 80054ae:	6078      	str	r0, [r7, #4]
 80054b0:	000a      	movs	r2, r1
 80054b2:	1cfb      	adds	r3, r7, #3
 80054b4:	701a      	strb	r2, [r3, #0]
  USB_EP *ep;
  if ((0x80 & epnum) == 0x80)
 80054b6:	1cfb      	adds	r3, r7, #3
 80054b8:	781b      	ldrb	r3, [r3, #0]
 80054ba:	b25b      	sxtb	r3, r3
 80054bc:	2b00      	cmp	r3, #0
 80054be:	da0c      	bge.n	80054da <DCD_EP_Stall+0x32>
  {
    ep = &pdev->dev.in_ep[epnum & 0x7F];    
 80054c0:	1cfb      	adds	r3, r7, #3
 80054c2:	781b      	ldrb	r3, [r3, #0]
 80054c4:	227f      	movs	r2, #127	; 0x7f
 80054c6:	401a      	ands	r2, r3
 80054c8:	0013      	movs	r3, r2
 80054ca:	009b      	lsls	r3, r3, #2
 80054cc:	189b      	adds	r3, r3, r2
 80054ce:	00db      	lsls	r3, r3, #3
 80054d0:	3318      	adds	r3, #24
 80054d2:	687a      	ldr	r2, [r7, #4]
 80054d4:	18d3      	adds	r3, r2, r3
 80054d6:	60fb      	str	r3, [r7, #12]
 80054d8:	e009      	b.n	80054ee <DCD_EP_Stall+0x46>
  }
  else
  {
    ep = &pdev->dev.out_ep[epnum];
 80054da:	1cfb      	adds	r3, r7, #3
 80054dc:	781a      	ldrb	r2, [r3, #0]
 80054de:	0013      	movs	r3, r2
 80054e0:	009b      	lsls	r3, r3, #2
 80054e2:	189b      	adds	r3, r3, r2
 80054e4:	00db      	lsls	r3, r3, #3
 80054e6:	33b8      	adds	r3, #184	; 0xb8
 80054e8:	687a      	ldr	r2, [r7, #4]
 80054ea:	18d3      	adds	r3, r2, r3
 80054ec:	60fb      	str	r3, [r7, #12]
  }
  
  if (ep->num ==0)
 80054ee:	68fb      	ldr	r3, [r7, #12]
 80054f0:	781b      	ldrb	r3, [r3, #0]
 80054f2:	2b00      	cmp	r3, #0
 80054f4:	d121      	bne.n	800553a <DCD_EP_Stall+0x92>
  {
    /* This macro sets STALL status for RX & TX*/ 
    _SetEPRxTxStatus(ep->num,EP_RX_STALL,EP_TX_STALL); 
 80054f6:	68fb      	ldr	r3, [r7, #12]
 80054f8:	781b      	ldrb	r3, [r3, #0]
 80054fa:	009b      	lsls	r3, r3, #2
 80054fc:	4a1e      	ldr	r2, [pc, #120]	; (8005578 <DCD_EP_Stall+0xd0>)
 80054fe:	4694      	mov	ip, r2
 8005500:	4463      	add	r3, ip
 8005502:	681b      	ldr	r3, [r3, #0]
 8005504:	4a1d      	ldr	r2, [pc, #116]	; (800557c <DCD_EP_Stall+0xd4>)
 8005506:	4013      	ands	r3, r2
 8005508:	001c      	movs	r4, r3
 800550a:	2380      	movs	r3, #128	; 0x80
 800550c:	015b      	lsls	r3, r3, #5
 800550e:	4063      	eors	r3, r4
 8005510:	001c      	movs	r4, r3
 8005512:	2310      	movs	r3, #16
 8005514:	4063      	eors	r3, r4
 8005516:	001c      	movs	r4, r3
 8005518:	68fb      	ldr	r3, [r7, #12]
 800551a:	781b      	ldrb	r3, [r3, #0]
 800551c:	009b      	lsls	r3, r3, #2
 800551e:	4a16      	ldr	r2, [pc, #88]	; (8005578 <DCD_EP_Stall+0xd0>)
 8005520:	4694      	mov	ip, r2
 8005522:	4463      	add	r3, ip
 8005524:	0022      	movs	r2, r4
 8005526:	0412      	lsls	r2, r2, #16
 8005528:	0c12      	lsrs	r2, r2, #16
 800552a:	4915      	ldr	r1, [pc, #84]	; (8005580 <DCD_EP_Stall+0xd8>)
 800552c:	430a      	orrs	r2, r1
 800552e:	601a      	str	r2, [r3, #0]
    /*Endpoint is stalled */
    ep->is_stall = 1;
 8005530:	68fb      	ldr	r3, [r7, #12]
 8005532:	2201      	movs	r2, #1
 8005534:	709a      	strb	r2, [r3, #2]
    return USB_OK;
 8005536:	2300      	movs	r3, #0
 8005538:	e019      	b.n	800556e <DCD_EP_Stall+0xc6>
  }
  if (ep->is_in)
 800553a:	68fb      	ldr	r3, [r7, #12]
 800553c:	785b      	ldrb	r3, [r3, #1]
 800553e:	2b00      	cmp	r3, #0
 8005540:	d009      	beq.n	8005556 <DCD_EP_Stall+0xae>
  {  
    /* IN endpoint */
    ep->is_stall = 1;
 8005542:	68fb      	ldr	r3, [r7, #12]
 8005544:	2201      	movs	r2, #1
 8005546:	709a      	strb	r2, [r3, #2]
    /* IN Endpoint stalled */
   SetEPTxStatus(ep->num , EP_TX_STALL); 
 8005548:	68fb      	ldr	r3, [r7, #12]
 800554a:	781b      	ldrb	r3, [r3, #0]
 800554c:	2110      	movs	r1, #16
 800554e:	0018      	movs	r0, r3
 8005550:	f000 f92e 	bl	80057b0 <SetEPTxStatus>
 8005554:	e00a      	b.n	800556c <DCD_EP_Stall+0xc4>
  }
  else
  { 
    ep->is_stall = 1;
 8005556:	68fb      	ldr	r3, [r7, #12]
 8005558:	2201      	movs	r2, #1
 800555a:	709a      	strb	r2, [r3, #2]
    /* OUT Endpoint stalled */
    SetEPRxStatus(ep->num , EP_RX_STALL);
 800555c:	68fb      	ldr	r3, [r7, #12]
 800555e:	781a      	ldrb	r2, [r3, #0]
 8005560:	2380      	movs	r3, #128	; 0x80
 8005562:	015b      	lsls	r3, r3, #5
 8005564:	0019      	movs	r1, r3
 8005566:	0010      	movs	r0, r2
 8005568:	f000 f95e 	bl	8005828 <SetEPRxStatus>
  }
  
  return USB_OK;
 800556c:	2300      	movs	r3, #0
}
 800556e:	0018      	movs	r0, r3
 8005570:	46bd      	mov	sp, r7
 8005572:	b005      	add	sp, #20
 8005574:	bd90      	pop	{r4, r7, pc}
 8005576:	46c0      	nop			; (mov r8, r8)
 8005578:	40005c00 	.word	0x40005c00
 800557c:	0000bfbf 	.word	0x0000bfbf
 8005580:	00008080 	.word	0x00008080

08005584 <DCD_EP_ClrStall>:
  * @param  pdev: device instance
  * @param  epnum: endpoint address
  * @retval : status
  */
uint32_t  DCD_EP_ClrStall (USB_CORE_HANDLE *pdev, uint8_t epnum)
{
 8005584:	b580      	push	{r7, lr}
 8005586:	b084      	sub	sp, #16
 8005588:	af00      	add	r7, sp, #0
 800558a:	6078      	str	r0, [r7, #4]
 800558c:	000a      	movs	r2, r1
 800558e:	1cfb      	adds	r3, r7, #3
 8005590:	701a      	strb	r2, [r3, #0]
  USB_EP *ep;
  if ((0x80 & epnum) == 0x80)
 8005592:	1cfb      	adds	r3, r7, #3
 8005594:	781b      	ldrb	r3, [r3, #0]
 8005596:	b25b      	sxtb	r3, r3
 8005598:	2b00      	cmp	r3, #0
 800559a:	da0c      	bge.n	80055b6 <DCD_EP_ClrStall+0x32>
  {
    ep = &pdev->dev.in_ep[epnum & 0x7F];    
 800559c:	1cfb      	adds	r3, r7, #3
 800559e:	781b      	ldrb	r3, [r3, #0]
 80055a0:	227f      	movs	r2, #127	; 0x7f
 80055a2:	401a      	ands	r2, r3
 80055a4:	0013      	movs	r3, r2
 80055a6:	009b      	lsls	r3, r3, #2
 80055a8:	189b      	adds	r3, r3, r2
 80055aa:	00db      	lsls	r3, r3, #3
 80055ac:	3318      	adds	r3, #24
 80055ae:	687a      	ldr	r2, [r7, #4]
 80055b0:	18d3      	adds	r3, r2, r3
 80055b2:	60fb      	str	r3, [r7, #12]
 80055b4:	e009      	b.n	80055ca <DCD_EP_ClrStall+0x46>
  }
  else
  {
    ep = &pdev->dev.out_ep[epnum];
 80055b6:	1cfb      	adds	r3, r7, #3
 80055b8:	781a      	ldrb	r2, [r3, #0]
 80055ba:	0013      	movs	r3, r2
 80055bc:	009b      	lsls	r3, r3, #2
 80055be:	189b      	adds	r3, r3, r2
 80055c0:	00db      	lsls	r3, r3, #3
 80055c2:	33b8      	adds	r3, #184	; 0xb8
 80055c4:	687a      	ldr	r2, [r7, #4]
 80055c6:	18d3      	adds	r3, r2, r3
 80055c8:	60fb      	str	r3, [r7, #12]
  } 
  
  if (ep->is_in)
 80055ca:	68fb      	ldr	r3, [r7, #12]
 80055cc:	785b      	ldrb	r3, [r3, #1]
 80055ce:	2b00      	cmp	r3, #0
 80055d0:	d00e      	beq.n	80055f0 <DCD_EP_ClrStall+0x6c>
  {
    ClearDTOG_TX(ep->num);
 80055d2:	68fb      	ldr	r3, [r7, #12]
 80055d4:	781b      	ldrb	r3, [r3, #0]
 80055d6:	0018      	movs	r0, r3
 80055d8:	f000 fa04 	bl	80059e4 <ClearDTOG_TX>
    SetEPTxStatus(ep->num, EP_TX_VALID);
 80055dc:	68fb      	ldr	r3, [r7, #12]
 80055de:	781b      	ldrb	r3, [r3, #0]
 80055e0:	2130      	movs	r1, #48	; 0x30
 80055e2:	0018      	movs	r0, r3
 80055e4:	f000 f8e4 	bl	80057b0 <SetEPTxStatus>
    ep->is_stall = 0;  
 80055e8:	68fb      	ldr	r3, [r7, #12]
 80055ea:	2200      	movs	r2, #0
 80055ec:	709a      	strb	r2, [r3, #2]
 80055ee:	e00f      	b.n	8005610 <DCD_EP_ClrStall+0x8c>
  }
  else
  {
    ClearDTOG_RX(ep->num);
 80055f0:	68fb      	ldr	r3, [r7, #12]
 80055f2:	781b      	ldrb	r3, [r3, #0]
 80055f4:	0018      	movs	r0, r3
 80055f6:	f000 f9c5 	bl	8005984 <ClearDTOG_RX>
    SetEPRxStatus(ep->num, EP_RX_VALID);
 80055fa:	68fb      	ldr	r3, [r7, #12]
 80055fc:	781a      	ldrb	r2, [r3, #0]
 80055fe:	23c0      	movs	r3, #192	; 0xc0
 8005600:	019b      	lsls	r3, r3, #6
 8005602:	0019      	movs	r1, r3
 8005604:	0010      	movs	r0, r2
 8005606:	f000 f90f 	bl	8005828 <SetEPRxStatus>
    ep->is_stall = 0;  
 800560a:	68fb      	ldr	r3, [r7, #12]
 800560c:	2200      	movs	r2, #0
 800560e:	709a      	strb	r2, [r3, #2]
  }
  
  return USB_OK;
 8005610:	2300      	movs	r3, #0
}
 8005612:	0018      	movs	r0, r3
 8005614:	46bd      	mov	sp, r7
 8005616:	b004      	add	sp, #16
 8005618:	bd80      	pop	{r7, pc}
 800561a:	46c0      	nop			; (mov r8, r8)

0800561c <DCD_EP_SetAddress>:
  * @brief This Function set USB device address
  * @param  pdev: device instance
  * @param  address: new device address
  */
void  DCD_EP_SetAddress (USB_CORE_HANDLE *pdev, uint8_t address)
{
 800561c:	b580      	push	{r7, lr}
 800561e:	b084      	sub	sp, #16
 8005620:	af00      	add	r7, sp, #0
 8005622:	6078      	str	r0, [r7, #4]
 8005624:	000a      	movs	r2, r1
 8005626:	1cfb      	adds	r3, r7, #3
 8005628:	701a      	strb	r2, [r3, #0]
  uint32_t i=0;
 800562a:	2300      	movs	r3, #0
 800562c:	60fb      	str	r3, [r7, #12]
  pdev->dev.device_address = address;
 800562e:	687b      	ldr	r3, [r7, #4]
 8005630:	1cfa      	adds	r2, r7, #3
 8005632:	7812      	ldrb	r2, [r2, #0]
 8005634:	711a      	strb	r2, [r3, #4]
  
  /* set address in every used endpoint */
  for (i = 0; i < EP_NUM; i++)
 8005636:	2300      	movs	r3, #0
 8005638:	60fb      	str	r3, [r7, #12]
 800563a:	e01b      	b.n	8005674 <DCD_EP_SetAddress+0x58>
  {
    _SetEPAddress((uint8_t)i, (uint8_t)i);
 800563c:	68fb      	ldr	r3, [r7, #12]
 800563e:	22ff      	movs	r2, #255	; 0xff
 8005640:	4013      	ands	r3, r2
 8005642:	009b      	lsls	r3, r3, #2
 8005644:	4a13      	ldr	r2, [pc, #76]	; (8005694 <DCD_EP_SetAddress+0x78>)
 8005646:	4694      	mov	ip, r2
 8005648:	4463      	add	r3, ip
 800564a:	68fa      	ldr	r2, [r7, #12]
 800564c:	21ff      	movs	r1, #255	; 0xff
 800564e:	400a      	ands	r2, r1
 8005650:	0092      	lsls	r2, r2, #2
 8005652:	4910      	ldr	r1, [pc, #64]	; (8005694 <DCD_EP_SetAddress+0x78>)
 8005654:	468c      	mov	ip, r1
 8005656:	4462      	add	r2, ip
 8005658:	6812      	ldr	r2, [r2, #0]
 800565a:	0011      	movs	r1, r2
 800565c:	4a0e      	ldr	r2, [pc, #56]	; (8005698 <DCD_EP_SetAddress+0x7c>)
 800565e:	400a      	ands	r2, r1
 8005660:	490e      	ldr	r1, [pc, #56]	; (800569c <DCD_EP_SetAddress+0x80>)
 8005662:	4311      	orrs	r1, r2
 8005664:	68fa      	ldr	r2, [r7, #12]
 8005666:	20ff      	movs	r0, #255	; 0xff
 8005668:	4002      	ands	r2, r0
 800566a:	430a      	orrs	r2, r1
 800566c:	601a      	str	r2, [r3, #0]
{
  uint32_t i=0;
  pdev->dev.device_address = address;
  
  /* set address in every used endpoint */
  for (i = 0; i < EP_NUM; i++)
 800566e:	68fb      	ldr	r3, [r7, #12]
 8005670:	3301      	adds	r3, #1
 8005672:	60fb      	str	r3, [r7, #12]
 8005674:	68fb      	ldr	r3, [r7, #12]
 8005676:	2b03      	cmp	r3, #3
 8005678:	d9e0      	bls.n	800563c <DCD_EP_SetAddress+0x20>
  {
    _SetEPAddress((uint8_t)i, (uint8_t)i);
  } /* set device address and enable function */
  _SetDADDR(address | DADDR_EF); 
 800567a:	4b09      	ldr	r3, [pc, #36]	; (80056a0 <DCD_EP_SetAddress+0x84>)
 800567c:	1cfa      	adds	r2, r7, #3
 800567e:	7812      	ldrb	r2, [r2, #0]
 8005680:	2180      	movs	r1, #128	; 0x80
 8005682:	4249      	negs	r1, r1
 8005684:	430a      	orrs	r2, r1
 8005686:	b2d2      	uxtb	r2, r2
 8005688:	601a      	str	r2, [r3, #0]
}
 800568a:	46c0      	nop			; (mov r8, r8)
 800568c:	46bd      	mov	sp, r7
 800568e:	b004      	add	sp, #16
 8005690:	bd80      	pop	{r7, pc}
 8005692:	46c0      	nop			; (mov r8, r8)
 8005694:	40005c00 	.word	0x40005c00
 8005698:	00000f0f 	.word	0x00000f0f
 800569c:	00008080 	.word	0x00008080
 80056a0:	40005c4c 	.word	0x40005c4c

080056a4 <DCD_DevConnect>:
  * @brief Connect device (enable internal pull-up)
  * @param  pdev: device instance
  * @retval : None
  */
void  DCD_DevConnect (USB_CORE_HANDLE *pdev)
{
 80056a4:	b580      	push	{r7, lr}
 80056a6:	b082      	sub	sp, #8
 80056a8:	af00      	add	r7, sp, #0
 80056aa:	6078      	str	r0, [r7, #4]
  /* Enabling DP Pull-Down bit to Connect internal pull-up on USB DP line */
  *BCDR |= BCDR_DPPU;
 80056ac:	4b06      	ldr	r3, [pc, #24]	; (80056c8 <DCD_DevConnect+0x24>)
 80056ae:	4a06      	ldr	r2, [pc, #24]	; (80056c8 <DCD_DevConnect+0x24>)
 80056b0:	6812      	ldr	r2, [r2, #0]
 80056b2:	2180      	movs	r1, #128	; 0x80
 80056b4:	0209      	lsls	r1, r1, #8
 80056b6:	430a      	orrs	r2, r1
 80056b8:	601a      	str	r2, [r3, #0]
  /*Device is in default state*/
  pdev->dev.device_status  = USB_DEFAULT;
 80056ba:	687b      	ldr	r3, [r7, #4]
 80056bc:	2201      	movs	r2, #1
 80056be:	709a      	strb	r2, [r3, #2]
}
 80056c0:	46c0      	nop			; (mov r8, r8)
 80056c2:	46bd      	mov	sp, r7
 80056c4:	b002      	add	sp, #8
 80056c6:	bd80      	pop	{r7, pc}
 80056c8:	40005c58 	.word	0x40005c58

080056cc <SetCNTR>:
  * @brief Set the CNTR register value 
  * @param   wRegValue: new register value
  * @retval None
  */
void SetCNTR(uint16_t wRegValue)
{
 80056cc:	b580      	push	{r7, lr}
 80056ce:	b082      	sub	sp, #8
 80056d0:	af00      	add	r7, sp, #0
 80056d2:	0002      	movs	r2, r0
 80056d4:	1dbb      	adds	r3, r7, #6
 80056d6:	801a      	strh	r2, [r3, #0]
  _SetCNTR(wRegValue);
 80056d8:	4b03      	ldr	r3, [pc, #12]	; (80056e8 <SetCNTR+0x1c>)
 80056da:	1dba      	adds	r2, r7, #6
 80056dc:	8812      	ldrh	r2, [r2, #0]
 80056de:	601a      	str	r2, [r3, #0]
}
 80056e0:	46c0      	nop			; (mov r8, r8)
 80056e2:	46bd      	mov	sp, r7
 80056e4:	b002      	add	sp, #8
 80056e6:	bd80      	pop	{r7, pc}
 80056e8:	40005c40 	.word	0x40005c40

080056ec <SetISTR>:
  * @brief Set the ISTR register value 
  * @param   wRegValue: new register value
  * @retval None
  */
void SetISTR(uint16_t wRegValue)
{
 80056ec:	b580      	push	{r7, lr}
 80056ee:	b082      	sub	sp, #8
 80056f0:	af00      	add	r7, sp, #0
 80056f2:	0002      	movs	r2, r0
 80056f4:	1dbb      	adds	r3, r7, #6
 80056f6:	801a      	strh	r2, [r3, #0]
  _SetISTR(wRegValue);
 80056f8:	4b03      	ldr	r3, [pc, #12]	; (8005708 <SetISTR+0x1c>)
 80056fa:	1dba      	adds	r2, r7, #6
 80056fc:	8812      	ldrh	r2, [r2, #0]
 80056fe:	601a      	str	r2, [r3, #0]
}
 8005700:	46c0      	nop			; (mov r8, r8)
 8005702:	46bd      	mov	sp, r7
 8005704:	b002      	add	sp, #8
 8005706:	bd80      	pop	{r7, pc}
 8005708:	40005c44 	.word	0x40005c44

0800570c <SetBTABLE>:
  * @brief Set the BTABLE.
  * @param   wRegValue: New register value
  * @retval None
  */
void SetBTABLE(uint16_t wRegValue)
{
 800570c:	b580      	push	{r7, lr}
 800570e:	b082      	sub	sp, #8
 8005710:	af00      	add	r7, sp, #0
 8005712:	0002      	movs	r2, r0
 8005714:	1dbb      	adds	r3, r7, #6
 8005716:	801a      	strh	r2, [r3, #0]
  _SetBTABLE(wRegValue);
 8005718:	4b04      	ldr	r3, [pc, #16]	; (800572c <SetBTABLE+0x20>)
 800571a:	1dba      	adds	r2, r7, #6
 800571c:	8812      	ldrh	r2, [r2, #0]
 800571e:	4904      	ldr	r1, [pc, #16]	; (8005730 <SetBTABLE+0x24>)
 8005720:	400a      	ands	r2, r1
 8005722:	601a      	str	r2, [r3, #0]
}
 8005724:	46c0      	nop			; (mov r8, r8)
 8005726:	46bd      	mov	sp, r7
 8005728:	b002      	add	sp, #8
 800572a:	bd80      	pop	{r7, pc}
 800572c:	40005c50 	.word	0x40005c50
 8005730:	0000fff8 	.word	0x0000fff8

08005734 <GetENDPOINT>:
  * @brief Return the Endpoint register value.
  * @param   bEpNum: Endpoint Number
  * @retval Endpoint register value.
  */
uint16_t GetENDPOINT(uint8_t bEpNum)
{
 8005734:	b580      	push	{r7, lr}
 8005736:	b082      	sub	sp, #8
 8005738:	af00      	add	r7, sp, #0
 800573a:	0002      	movs	r2, r0
 800573c:	1dfb      	adds	r3, r7, #7
 800573e:	701a      	strb	r2, [r3, #0]
  return(_GetENDPOINT(bEpNum));
 8005740:	1dfb      	adds	r3, r7, #7
 8005742:	781b      	ldrb	r3, [r3, #0]
 8005744:	009b      	lsls	r3, r3, #2
 8005746:	4a04      	ldr	r2, [pc, #16]	; (8005758 <GetENDPOINT+0x24>)
 8005748:	4694      	mov	ip, r2
 800574a:	4463      	add	r3, ip
 800574c:	681b      	ldr	r3, [r3, #0]
 800574e:	b29b      	uxth	r3, r3
}
 8005750:	0018      	movs	r0, r3
 8005752:	46bd      	mov	sp, r7
 8005754:	b002      	add	sp, #8
 8005756:	bd80      	pop	{r7, pc}
 8005758:	40005c00 	.word	0x40005c00

0800575c <SetEPType>:
  * @param   bEpNum: Endpoint Number
  * @param   wType: type definition
  * @retval None.
  */
void SetEPType(uint8_t bEpNum, uint16_t wType)
{
 800575c:	b580      	push	{r7, lr}
 800575e:	b082      	sub	sp, #8
 8005760:	af00      	add	r7, sp, #0
 8005762:	0002      	movs	r2, r0
 8005764:	1dfb      	adds	r3, r7, #7
 8005766:	701a      	strb	r2, [r3, #0]
 8005768:	1d3b      	adds	r3, r7, #4
 800576a:	1c0a      	adds	r2, r1, #0
 800576c:	801a      	strh	r2, [r3, #0]
  _SetEPType(bEpNum, wType);
 800576e:	1dfb      	adds	r3, r7, #7
 8005770:	781b      	ldrb	r3, [r3, #0]
 8005772:	009b      	lsls	r3, r3, #2
 8005774:	4a0c      	ldr	r2, [pc, #48]	; (80057a8 <SetEPType+0x4c>)
 8005776:	4694      	mov	ip, r2
 8005778:	4463      	add	r3, ip
 800577a:	1dfa      	adds	r2, r7, #7
 800577c:	7812      	ldrb	r2, [r2, #0]
 800577e:	0092      	lsls	r2, r2, #2
 8005780:	4909      	ldr	r1, [pc, #36]	; (80057a8 <SetEPType+0x4c>)
 8005782:	468c      	mov	ip, r1
 8005784:	4462      	add	r2, ip
 8005786:	6812      	ldr	r2, [r2, #0]
 8005788:	b212      	sxth	r2, r2
 800578a:	4908      	ldr	r1, [pc, #32]	; (80057ac <SetEPType+0x50>)
 800578c:	400a      	ands	r2, r1
 800578e:	b211      	sxth	r1, r2
 8005790:	1d3a      	adds	r2, r7, #4
 8005792:	2000      	movs	r0, #0
 8005794:	5e12      	ldrsh	r2, [r2, r0]
 8005796:	430a      	orrs	r2, r1
 8005798:	b212      	sxth	r2, r2
 800579a:	b292      	uxth	r2, r2
 800579c:	601a      	str	r2, [r3, #0]
}
 800579e:	46c0      	nop			; (mov r8, r8)
 80057a0:	46bd      	mov	sp, r7
 80057a2:	b002      	add	sp, #8
 80057a4:	bd80      	pop	{r7, pc}
 80057a6:	46c0      	nop			; (mov r8, r8)
 80057a8:	40005c00 	.word	0x40005c00
 80057ac:	ffff898f 	.word	0xffff898f

080057b0 <SetEPTxStatus>:
  * @param   bEpNum: Endpoint Number
  * @param   wState: new state.
  * @retval None
  */
void SetEPTxStatus(uint8_t bEpNum, uint16_t wState)
{
 80057b0:	b590      	push	{r4, r7, lr}
 80057b2:	b083      	sub	sp, #12
 80057b4:	af00      	add	r7, sp, #0
 80057b6:	0002      	movs	r2, r0
 80057b8:	1dfb      	adds	r3, r7, #7
 80057ba:	701a      	strb	r2, [r3, #0]
 80057bc:	1d3b      	adds	r3, r7, #4
 80057be:	1c0a      	adds	r2, r1, #0
 80057c0:	801a      	strh	r2, [r3, #0]
  _SetEPTxStatus(bEpNum, wState);   
 80057c2:	1dfb      	adds	r3, r7, #7
 80057c4:	781b      	ldrb	r3, [r3, #0]
 80057c6:	009b      	lsls	r3, r3, #2
 80057c8:	4a14      	ldr	r2, [pc, #80]	; (800581c <SetEPTxStatus+0x6c>)
 80057ca:	4694      	mov	ip, r2
 80057cc:	4463      	add	r3, ip
 80057ce:	681b      	ldr	r3, [r3, #0]
 80057d0:	b29b      	uxth	r3, r3
 80057d2:	4a13      	ldr	r2, [pc, #76]	; (8005820 <SetEPTxStatus+0x70>)
 80057d4:	4013      	ands	r3, r2
 80057d6:	b29c      	uxth	r4, r3
 80057d8:	1d3b      	adds	r3, r7, #4
 80057da:	881b      	ldrh	r3, [r3, #0]
 80057dc:	2210      	movs	r2, #16
 80057de:	4013      	ands	r3, r2
 80057e0:	b29b      	uxth	r3, r3
 80057e2:	2b00      	cmp	r3, #0
 80057e4:	d002      	beq.n	80057ec <SetEPTxStatus+0x3c>
 80057e6:	2310      	movs	r3, #16
 80057e8:	4063      	eors	r3, r4
 80057ea:	b29c      	uxth	r4, r3
 80057ec:	1d3b      	adds	r3, r7, #4
 80057ee:	881b      	ldrh	r3, [r3, #0]
 80057f0:	2220      	movs	r2, #32
 80057f2:	4013      	ands	r3, r2
 80057f4:	b29b      	uxth	r3, r3
 80057f6:	2b00      	cmp	r3, #0
 80057f8:	d002      	beq.n	8005800 <SetEPTxStatus+0x50>
 80057fa:	2320      	movs	r3, #32
 80057fc:	4063      	eors	r3, r4
 80057fe:	b29c      	uxth	r4, r3
 8005800:	1dfb      	adds	r3, r7, #7
 8005802:	781b      	ldrb	r3, [r3, #0]
 8005804:	009b      	lsls	r3, r3, #2
 8005806:	4a05      	ldr	r2, [pc, #20]	; (800581c <SetEPTxStatus+0x6c>)
 8005808:	4694      	mov	ip, r2
 800580a:	4463      	add	r3, ip
 800580c:	4a05      	ldr	r2, [pc, #20]	; (8005824 <SetEPTxStatus+0x74>)
 800580e:	4322      	orrs	r2, r4
 8005810:	b292      	uxth	r2, r2
 8005812:	601a      	str	r2, [r3, #0]
}
 8005814:	46c0      	nop			; (mov r8, r8)
 8005816:	46bd      	mov	sp, r7
 8005818:	b003      	add	sp, #12
 800581a:	bd90      	pop	{r4, r7, pc}
 800581c:	40005c00 	.word	0x40005c00
 8005820:	ffff8fbf 	.word	0xffff8fbf
 8005824:	ffff8080 	.word	0xffff8080

08005828 <SetEPRxStatus>:
  * @param   bEpNum: Endpoint Number
  * @param   wState: new state.
  * @retval None
  */
void SetEPRxStatus(uint8_t bEpNum, uint16_t wState)
{
 8005828:	b590      	push	{r4, r7, lr}
 800582a:	b083      	sub	sp, #12
 800582c:	af00      	add	r7, sp, #0
 800582e:	0002      	movs	r2, r0
 8005830:	1dfb      	adds	r3, r7, #7
 8005832:	701a      	strb	r2, [r3, #0]
 8005834:	1d3b      	adds	r3, r7, #4
 8005836:	1c0a      	adds	r2, r1, #0
 8005838:	801a      	strh	r2, [r3, #0]
  _SetEPRxStatus(bEpNum, wState);
 800583a:	1dfb      	adds	r3, r7, #7
 800583c:	781b      	ldrb	r3, [r3, #0]
 800583e:	009b      	lsls	r3, r3, #2
 8005840:	4a16      	ldr	r2, [pc, #88]	; (800589c <SetEPRxStatus+0x74>)
 8005842:	4694      	mov	ip, r2
 8005844:	4463      	add	r3, ip
 8005846:	681b      	ldr	r3, [r3, #0]
 8005848:	b29b      	uxth	r3, r3
 800584a:	4a15      	ldr	r2, [pc, #84]	; (80058a0 <SetEPRxStatus+0x78>)
 800584c:	4013      	ands	r3, r2
 800584e:	b29c      	uxth	r4, r3
 8005850:	1d3b      	adds	r3, r7, #4
 8005852:	881a      	ldrh	r2, [r3, #0]
 8005854:	2380      	movs	r3, #128	; 0x80
 8005856:	015b      	lsls	r3, r3, #5
 8005858:	4013      	ands	r3, r2
 800585a:	b29b      	uxth	r3, r3
 800585c:	2b00      	cmp	r3, #0
 800585e:	d003      	beq.n	8005868 <SetEPRxStatus+0x40>
 8005860:	2380      	movs	r3, #128	; 0x80
 8005862:	015b      	lsls	r3, r3, #5
 8005864:	4063      	eors	r3, r4
 8005866:	b29c      	uxth	r4, r3
 8005868:	1d3b      	adds	r3, r7, #4
 800586a:	881a      	ldrh	r2, [r3, #0]
 800586c:	2380      	movs	r3, #128	; 0x80
 800586e:	019b      	lsls	r3, r3, #6
 8005870:	4013      	ands	r3, r2
 8005872:	b29b      	uxth	r3, r3
 8005874:	2b00      	cmp	r3, #0
 8005876:	d003      	beq.n	8005880 <SetEPRxStatus+0x58>
 8005878:	2380      	movs	r3, #128	; 0x80
 800587a:	019b      	lsls	r3, r3, #6
 800587c:	4063      	eors	r3, r4
 800587e:	b29c      	uxth	r4, r3
 8005880:	1dfb      	adds	r3, r7, #7
 8005882:	781b      	ldrb	r3, [r3, #0]
 8005884:	009b      	lsls	r3, r3, #2
 8005886:	4a05      	ldr	r2, [pc, #20]	; (800589c <SetEPRxStatus+0x74>)
 8005888:	4694      	mov	ip, r2
 800588a:	4463      	add	r3, ip
 800588c:	4a05      	ldr	r2, [pc, #20]	; (80058a4 <SetEPRxStatus+0x7c>)
 800588e:	4322      	orrs	r2, r4
 8005890:	b292      	uxth	r2, r2
 8005892:	601a      	str	r2, [r3, #0]
}
 8005894:	46c0      	nop			; (mov r8, r8)
 8005896:	46bd      	mov	sp, r7
 8005898:	b003      	add	sp, #12
 800589a:	bd90      	pop	{r4, r7, pc}
 800589c:	40005c00 	.word	0x40005c00
 80058a0:	ffffbf8f 	.word	0xffffbf8f
 80058a4:	ffff8080 	.word	0xffff8080

080058a8 <SetEPDoubleBuff>:
  * @brief Enable the double buffer feature for the endpoint.
  * @param   bEpNum: Endpoint Number
  * @retval None
  */
void SetEPDoubleBuff(uint8_t bEpNum)
{
 80058a8:	b580      	push	{r7, lr}
 80058aa:	b082      	sub	sp, #8
 80058ac:	af00      	add	r7, sp, #0
 80058ae:	0002      	movs	r2, r0
 80058b0:	1dfb      	adds	r3, r7, #7
 80058b2:	701a      	strb	r2, [r3, #0]
  _SetEP_KIND(bEpNum);
 80058b4:	1dfb      	adds	r3, r7, #7
 80058b6:	781b      	ldrb	r3, [r3, #0]
 80058b8:	009b      	lsls	r3, r3, #2
 80058ba:	4a0b      	ldr	r2, [pc, #44]	; (80058e8 <SetEPDoubleBuff+0x40>)
 80058bc:	4694      	mov	ip, r2
 80058be:	4463      	add	r3, ip
 80058c0:	1dfa      	adds	r2, r7, #7
 80058c2:	7812      	ldrb	r2, [r2, #0]
 80058c4:	0092      	lsls	r2, r2, #2
 80058c6:	4908      	ldr	r1, [pc, #32]	; (80058e8 <SetEPDoubleBuff+0x40>)
 80058c8:	468c      	mov	ip, r1
 80058ca:	4462      	add	r2, ip
 80058cc:	6812      	ldr	r2, [r2, #0]
 80058ce:	b212      	sxth	r2, r2
 80058d0:	4906      	ldr	r1, [pc, #24]	; (80058ec <SetEPDoubleBuff+0x44>)
 80058d2:	400a      	ands	r2, r1
 80058d4:	b212      	sxth	r2, r2
 80058d6:	4906      	ldr	r1, [pc, #24]	; (80058f0 <SetEPDoubleBuff+0x48>)
 80058d8:	430a      	orrs	r2, r1
 80058da:	b212      	sxth	r2, r2
 80058dc:	b292      	uxth	r2, r2
 80058de:	601a      	str	r2, [r3, #0]
}
 80058e0:	46c0      	nop			; (mov r8, r8)
 80058e2:	46bd      	mov	sp, r7
 80058e4:	b002      	add	sp, #8
 80058e6:	bd80      	pop	{r7, pc}
 80058e8:	40005c00 	.word	0x40005c00
 80058ec:	00000e0f 	.word	0x00000e0f
 80058f0:	ffff8180 	.word	0xffff8180

080058f4 <ToggleDTOG_RX>:
  * @brief Toggle the DTOG_RX bit.
  * @param   bEpNum: Endpoint Number
  * @retval None
  */
void ToggleDTOG_RX(uint8_t bEpNum)
{
 80058f4:	b580      	push	{r7, lr}
 80058f6:	b082      	sub	sp, #8
 80058f8:	af00      	add	r7, sp, #0
 80058fa:	0002      	movs	r2, r0
 80058fc:	1dfb      	adds	r3, r7, #7
 80058fe:	701a      	strb	r2, [r3, #0]
  _ToggleDTOG_RX(bEpNum);
 8005900:	1dfb      	adds	r3, r7, #7
 8005902:	781b      	ldrb	r3, [r3, #0]
 8005904:	009b      	lsls	r3, r3, #2
 8005906:	4a0a      	ldr	r2, [pc, #40]	; (8005930 <ToggleDTOG_RX+0x3c>)
 8005908:	4694      	mov	ip, r2
 800590a:	4463      	add	r3, ip
 800590c:	1dfa      	adds	r2, r7, #7
 800590e:	7812      	ldrb	r2, [r2, #0]
 8005910:	0092      	lsls	r2, r2, #2
 8005912:	4907      	ldr	r1, [pc, #28]	; (8005930 <ToggleDTOG_RX+0x3c>)
 8005914:	468c      	mov	ip, r1
 8005916:	4462      	add	r2, ip
 8005918:	6812      	ldr	r2, [r2, #0]
 800591a:	0011      	movs	r1, r2
 800591c:	4a05      	ldr	r2, [pc, #20]	; (8005934 <ToggleDTOG_RX+0x40>)
 800591e:	400a      	ands	r2, r1
 8005920:	4905      	ldr	r1, [pc, #20]	; (8005938 <ToggleDTOG_RX+0x44>)
 8005922:	430a      	orrs	r2, r1
 8005924:	601a      	str	r2, [r3, #0]
}
 8005926:	46c0      	nop			; (mov r8, r8)
 8005928:	46bd      	mov	sp, r7
 800592a:	b002      	add	sp, #8
 800592c:	bd80      	pop	{r7, pc}
 800592e:	46c0      	nop			; (mov r8, r8)
 8005930:	40005c00 	.word	0x40005c00
 8005934:	00000f0f 	.word	0x00000f0f
 8005938:	0000c080 	.word	0x0000c080

0800593c <ToggleDTOG_TX>:
  * @brief Toggle the DTOG_TX bit.
  * @param   bEpNum: Endpoint Number
  * @retval None
  */
void ToggleDTOG_TX(uint8_t bEpNum)
{
 800593c:	b580      	push	{r7, lr}
 800593e:	b082      	sub	sp, #8
 8005940:	af00      	add	r7, sp, #0
 8005942:	0002      	movs	r2, r0
 8005944:	1dfb      	adds	r3, r7, #7
 8005946:	701a      	strb	r2, [r3, #0]
  _ToggleDTOG_TX(bEpNum);
 8005948:	1dfb      	adds	r3, r7, #7
 800594a:	781b      	ldrb	r3, [r3, #0]
 800594c:	009b      	lsls	r3, r3, #2
 800594e:	4a0a      	ldr	r2, [pc, #40]	; (8005978 <ToggleDTOG_TX+0x3c>)
 8005950:	4694      	mov	ip, r2
 8005952:	4463      	add	r3, ip
 8005954:	1dfa      	adds	r2, r7, #7
 8005956:	7812      	ldrb	r2, [r2, #0]
 8005958:	0092      	lsls	r2, r2, #2
 800595a:	4907      	ldr	r1, [pc, #28]	; (8005978 <ToggleDTOG_TX+0x3c>)
 800595c:	468c      	mov	ip, r1
 800595e:	4462      	add	r2, ip
 8005960:	6812      	ldr	r2, [r2, #0]
 8005962:	0011      	movs	r1, r2
 8005964:	4a05      	ldr	r2, [pc, #20]	; (800597c <ToggleDTOG_TX+0x40>)
 8005966:	400a      	ands	r2, r1
 8005968:	4905      	ldr	r1, [pc, #20]	; (8005980 <ToggleDTOG_TX+0x44>)
 800596a:	430a      	orrs	r2, r1
 800596c:	601a      	str	r2, [r3, #0]
}
 800596e:	46c0      	nop			; (mov r8, r8)
 8005970:	46bd      	mov	sp, r7
 8005972:	b002      	add	sp, #8
 8005974:	bd80      	pop	{r7, pc}
 8005976:	46c0      	nop			; (mov r8, r8)
 8005978:	40005c00 	.word	0x40005c00
 800597c:	00000f0f 	.word	0x00000f0f
 8005980:	000080c0 	.word	0x000080c0

08005984 <ClearDTOG_RX>:
  * @brief Clear the DTOG_RX bit.
  * @param   bEpNum: Endpoint Number
  * @retval None
  */
void ClearDTOG_RX(uint8_t bEpNum)
{
 8005984:	b580      	push	{r7, lr}
 8005986:	b082      	sub	sp, #8
 8005988:	af00      	add	r7, sp, #0
 800598a:	0002      	movs	r2, r0
 800598c:	1dfb      	adds	r3, r7, #7
 800598e:	701a      	strb	r2, [r3, #0]
  _ClearDTOG_RX(bEpNum);
 8005990:	1dfb      	adds	r3, r7, #7
 8005992:	781b      	ldrb	r3, [r3, #0]
 8005994:	009b      	lsls	r3, r3, #2
 8005996:	4a10      	ldr	r2, [pc, #64]	; (80059d8 <ClearDTOG_RX+0x54>)
 8005998:	4694      	mov	ip, r2
 800599a:	4463      	add	r3, ip
 800599c:	681b      	ldr	r3, [r3, #0]
 800599e:	001a      	movs	r2, r3
 80059a0:	2380      	movs	r3, #128	; 0x80
 80059a2:	01db      	lsls	r3, r3, #7
 80059a4:	4013      	ands	r3, r2
 80059a6:	d012      	beq.n	80059ce <ClearDTOG_RX+0x4a>
 80059a8:	1dfb      	adds	r3, r7, #7
 80059aa:	781b      	ldrb	r3, [r3, #0]
 80059ac:	009b      	lsls	r3, r3, #2
 80059ae:	4a0a      	ldr	r2, [pc, #40]	; (80059d8 <ClearDTOG_RX+0x54>)
 80059b0:	4694      	mov	ip, r2
 80059b2:	4463      	add	r3, ip
 80059b4:	1dfa      	adds	r2, r7, #7
 80059b6:	7812      	ldrb	r2, [r2, #0]
 80059b8:	0092      	lsls	r2, r2, #2
 80059ba:	4907      	ldr	r1, [pc, #28]	; (80059d8 <ClearDTOG_RX+0x54>)
 80059bc:	468c      	mov	ip, r1
 80059be:	4462      	add	r2, ip
 80059c0:	6812      	ldr	r2, [r2, #0]
 80059c2:	0011      	movs	r1, r2
 80059c4:	4a05      	ldr	r2, [pc, #20]	; (80059dc <ClearDTOG_RX+0x58>)
 80059c6:	400a      	ands	r2, r1
 80059c8:	4905      	ldr	r1, [pc, #20]	; (80059e0 <ClearDTOG_RX+0x5c>)
 80059ca:	430a      	orrs	r2, r1
 80059cc:	601a      	str	r2, [r3, #0]
}
 80059ce:	46c0      	nop			; (mov r8, r8)
 80059d0:	46bd      	mov	sp, r7
 80059d2:	b002      	add	sp, #8
 80059d4:	bd80      	pop	{r7, pc}
 80059d6:	46c0      	nop			; (mov r8, r8)
 80059d8:	40005c00 	.word	0x40005c00
 80059dc:	00000f0f 	.word	0x00000f0f
 80059e0:	0000c080 	.word	0x0000c080

080059e4 <ClearDTOG_TX>:
  * @brief Clear the DTOG_TX bit.
  * @param   bEpNum: Endpoint Number
  * @retval None
  */
void ClearDTOG_TX(uint8_t bEpNum)
{
 80059e4:	b580      	push	{r7, lr}
 80059e6:	b082      	sub	sp, #8
 80059e8:	af00      	add	r7, sp, #0
 80059ea:	0002      	movs	r2, r0
 80059ec:	1dfb      	adds	r3, r7, #7
 80059ee:	701a      	strb	r2, [r3, #0]
  _ClearDTOG_TX(bEpNum);
 80059f0:	1dfb      	adds	r3, r7, #7
 80059f2:	781b      	ldrb	r3, [r3, #0]
 80059f4:	009b      	lsls	r3, r3, #2
 80059f6:	4a0f      	ldr	r2, [pc, #60]	; (8005a34 <ClearDTOG_TX+0x50>)
 80059f8:	4694      	mov	ip, r2
 80059fa:	4463      	add	r3, ip
 80059fc:	681b      	ldr	r3, [r3, #0]
 80059fe:	001a      	movs	r2, r3
 8005a00:	2340      	movs	r3, #64	; 0x40
 8005a02:	4013      	ands	r3, r2
 8005a04:	d012      	beq.n	8005a2c <ClearDTOG_TX+0x48>
 8005a06:	1dfb      	adds	r3, r7, #7
 8005a08:	781b      	ldrb	r3, [r3, #0]
 8005a0a:	009b      	lsls	r3, r3, #2
 8005a0c:	4a09      	ldr	r2, [pc, #36]	; (8005a34 <ClearDTOG_TX+0x50>)
 8005a0e:	4694      	mov	ip, r2
 8005a10:	4463      	add	r3, ip
 8005a12:	1dfa      	adds	r2, r7, #7
 8005a14:	7812      	ldrb	r2, [r2, #0]
 8005a16:	0092      	lsls	r2, r2, #2
 8005a18:	4906      	ldr	r1, [pc, #24]	; (8005a34 <ClearDTOG_TX+0x50>)
 8005a1a:	468c      	mov	ip, r1
 8005a1c:	4462      	add	r2, ip
 8005a1e:	6812      	ldr	r2, [r2, #0]
 8005a20:	0011      	movs	r1, r2
 8005a22:	4a05      	ldr	r2, [pc, #20]	; (8005a38 <ClearDTOG_TX+0x54>)
 8005a24:	400a      	ands	r2, r1
 8005a26:	4905      	ldr	r1, [pc, #20]	; (8005a3c <ClearDTOG_TX+0x58>)
 8005a28:	430a      	orrs	r2, r1
 8005a2a:	601a      	str	r2, [r3, #0]
}
 8005a2c:	46c0      	nop			; (mov r8, r8)
 8005a2e:	46bd      	mov	sp, r7
 8005a30:	b002      	add	sp, #8
 8005a32:	bd80      	pop	{r7, pc}
 8005a34:	40005c00 	.word	0x40005c00
 8005a38:	00000f0f 	.word	0x00000f0f
 8005a3c:	000080c0 	.word	0x000080c0

08005a40 <SetEPTxAddr>:
  * @param   bEpNum: Endpoint Number
  * @param   wAddr: new address.
  * @retval Endpoint address.
  */
void SetEPTxAddr(uint8_t bEpNum, uint16_t wAddr)
{
 8005a40:	b580      	push	{r7, lr}
 8005a42:	b082      	sub	sp, #8
 8005a44:	af00      	add	r7, sp, #0
 8005a46:	0002      	movs	r2, r0
 8005a48:	1dfb      	adds	r3, r7, #7
 8005a4a:	701a      	strb	r2, [r3, #0]
 8005a4c:	1d3b      	adds	r3, r7, #4
 8005a4e:	1c0a      	adds	r2, r1, #0
 8005a50:	801a      	strh	r2, [r3, #0]
  _SetEPTxAddr(bEpNum, wAddr);
 8005a52:	4b0b      	ldr	r3, [pc, #44]	; (8005a80 <SetEPTxAddr+0x40>)
 8005a54:	681b      	ldr	r3, [r3, #0]
 8005a56:	041b      	lsls	r3, r3, #16
 8005a58:	0c1a      	lsrs	r2, r3, #16
 8005a5a:	1dfb      	adds	r3, r7, #7
 8005a5c:	781b      	ldrb	r3, [r3, #0]
 8005a5e:	00db      	lsls	r3, r3, #3
 8005a60:	18d3      	adds	r3, r2, r3
 8005a62:	4a08      	ldr	r2, [pc, #32]	; (8005a84 <SetEPTxAddr+0x44>)
 8005a64:	4694      	mov	ip, r2
 8005a66:	4463      	add	r3, ip
 8005a68:	0019      	movs	r1, r3
 8005a6a:	1d3b      	adds	r3, r7, #4
 8005a6c:	881b      	ldrh	r3, [r3, #0]
 8005a6e:	2201      	movs	r2, #1
 8005a70:	4393      	bics	r3, r2
 8005a72:	b29b      	uxth	r3, r3
 8005a74:	800b      	strh	r3, [r1, #0]
}
 8005a76:	46c0      	nop			; (mov r8, r8)
 8005a78:	46bd      	mov	sp, r7
 8005a7a:	b002      	add	sp, #8
 8005a7c:	bd80      	pop	{r7, pc}
 8005a7e:	46c0      	nop			; (mov r8, r8)
 8005a80:	40005c50 	.word	0x40005c50
 8005a84:	40006000 	.word	0x40006000

08005a88 <SetEPRxAddr>:
  * @param   bEpNum: Endpoint Number
  * @param   wAddr: new address.
  * @retval Endpoint address.
  */
void SetEPRxAddr(uint8_t bEpNum, uint16_t wAddr)
{
 8005a88:	b580      	push	{r7, lr}
 8005a8a:	b082      	sub	sp, #8
 8005a8c:	af00      	add	r7, sp, #0
 8005a8e:	0002      	movs	r2, r0
 8005a90:	1dfb      	adds	r3, r7, #7
 8005a92:	701a      	strb	r2, [r3, #0]
 8005a94:	1d3b      	adds	r3, r7, #4
 8005a96:	1c0a      	adds	r2, r1, #0
 8005a98:	801a      	strh	r2, [r3, #0]
  _SetEPRxAddr(bEpNum, wAddr);
 8005a9a:	4b0b      	ldr	r3, [pc, #44]	; (8005ac8 <SetEPRxAddr+0x40>)
 8005a9c:	681b      	ldr	r3, [r3, #0]
 8005a9e:	041b      	lsls	r3, r3, #16
 8005aa0:	0c1a      	lsrs	r2, r3, #16
 8005aa2:	1dfb      	adds	r3, r7, #7
 8005aa4:	781b      	ldrb	r3, [r3, #0]
 8005aa6:	00db      	lsls	r3, r3, #3
 8005aa8:	18d3      	adds	r3, r2, r3
 8005aaa:	4a08      	ldr	r2, [pc, #32]	; (8005acc <SetEPRxAddr+0x44>)
 8005aac:	4694      	mov	ip, r2
 8005aae:	4463      	add	r3, ip
 8005ab0:	0019      	movs	r1, r3
 8005ab2:	1d3b      	adds	r3, r7, #4
 8005ab4:	881b      	ldrh	r3, [r3, #0]
 8005ab6:	2201      	movs	r2, #1
 8005ab8:	4393      	bics	r3, r2
 8005aba:	b29b      	uxth	r3, r3
 8005abc:	800b      	strh	r3, [r1, #0]
}
 8005abe:	46c0      	nop			; (mov r8, r8)
 8005ac0:	46bd      	mov	sp, r7
 8005ac2:	b002      	add	sp, #8
 8005ac4:	bd80      	pop	{r7, pc}
 8005ac6:	46c0      	nop			; (mov r8, r8)
 8005ac8:	40005c50 	.word	0x40005c50
 8005acc:	40006004 	.word	0x40006004

08005ad0 <SetEPTxCount>:
  * @param   bEpNum: Endpoint Number
  * @param   wCount: new count value.
  * @retval Rx buffer address.
  */
void SetEPTxCount(uint8_t bEpNum, uint16_t wCount)
{
 8005ad0:	b580      	push	{r7, lr}
 8005ad2:	b082      	sub	sp, #8
 8005ad4:	af00      	add	r7, sp, #0
 8005ad6:	0002      	movs	r2, r0
 8005ad8:	1dfb      	adds	r3, r7, #7
 8005ada:	701a      	strb	r2, [r3, #0]
 8005adc:	1d3b      	adds	r3, r7, #4
 8005ade:	1c0a      	adds	r2, r1, #0
 8005ae0:	801a      	strh	r2, [r3, #0]
  _SetEPTxCount(bEpNum, wCount);
 8005ae2:	4b09      	ldr	r3, [pc, #36]	; (8005b08 <SetEPTxCount+0x38>)
 8005ae4:	681b      	ldr	r3, [r3, #0]
 8005ae6:	041b      	lsls	r3, r3, #16
 8005ae8:	0c1a      	lsrs	r2, r3, #16
 8005aea:	1dfb      	adds	r3, r7, #7
 8005aec:	781b      	ldrb	r3, [r3, #0]
 8005aee:	00db      	lsls	r3, r3, #3
 8005af0:	18d3      	adds	r3, r2, r3
 8005af2:	4a06      	ldr	r2, [pc, #24]	; (8005b0c <SetEPTxCount+0x3c>)
 8005af4:	4694      	mov	ip, r2
 8005af6:	4463      	add	r3, ip
 8005af8:	001a      	movs	r2, r3
 8005afa:	1d3b      	adds	r3, r7, #4
 8005afc:	881b      	ldrh	r3, [r3, #0]
 8005afe:	8013      	strh	r3, [r2, #0]
}
 8005b00:	46c0      	nop			; (mov r8, r8)
 8005b02:	46bd      	mov	sp, r7
 8005b04:	b002      	add	sp, #8
 8005b06:	bd80      	pop	{r7, pc}
 8005b08:	40005c50 	.word	0x40005c50
 8005b0c:	40006002 	.word	0x40006002

08005b10 <SetEPRxCount>:
  * @param   bEpNum: Endpoint Number.
  * @param   wCount: the new register value.
  * @retval None
  */
void SetEPRxCount(uint8_t bEpNum, uint16_t wCount)
{
 8005b10:	b580      	push	{r7, lr}
 8005b12:	b084      	sub	sp, #16
 8005b14:	af00      	add	r7, sp, #0
 8005b16:	0002      	movs	r2, r0
 8005b18:	1dfb      	adds	r3, r7, #7
 8005b1a:	701a      	strb	r2, [r3, #0]
 8005b1c:	1d3b      	adds	r3, r7, #4
 8005b1e:	1c0a      	adds	r2, r1, #0
 8005b20:	801a      	strh	r2, [r3, #0]
  _SetEPRxCount(bEpNum, wCount);
 8005b22:	4b25      	ldr	r3, [pc, #148]	; (8005bb8 <SetEPRxCount+0xa8>)
 8005b24:	681b      	ldr	r3, [r3, #0]
 8005b26:	041b      	lsls	r3, r3, #16
 8005b28:	0c1a      	lsrs	r2, r3, #16
 8005b2a:	1dfb      	adds	r3, r7, #7
 8005b2c:	781b      	ldrb	r3, [r3, #0]
 8005b2e:	00db      	lsls	r3, r3, #3
 8005b30:	18d3      	adds	r3, r2, r3
 8005b32:	4a22      	ldr	r2, [pc, #136]	; (8005bbc <SetEPRxCount+0xac>)
 8005b34:	4694      	mov	ip, r2
 8005b36:	4463      	add	r3, ip
 8005b38:	60bb      	str	r3, [r7, #8]
 8005b3a:	1d3b      	adds	r3, r7, #4
 8005b3c:	881b      	ldrh	r3, [r3, #0]
 8005b3e:	2b3e      	cmp	r3, #62	; 0x3e
 8005b40:	d91d      	bls.n	8005b7e <SetEPRxCount+0x6e>
 8005b42:	230e      	movs	r3, #14
 8005b44:	18fb      	adds	r3, r7, r3
 8005b46:	1d3a      	adds	r2, r7, #4
 8005b48:	8812      	ldrh	r2, [r2, #0]
 8005b4a:	0952      	lsrs	r2, r2, #5
 8005b4c:	801a      	strh	r2, [r3, #0]
 8005b4e:	1d3b      	adds	r3, r7, #4
 8005b50:	881b      	ldrh	r3, [r3, #0]
 8005b52:	221f      	movs	r2, #31
 8005b54:	4013      	ands	r3, r2
 8005b56:	d106      	bne.n	8005b66 <SetEPRxCount+0x56>
 8005b58:	230e      	movs	r3, #14
 8005b5a:	18fb      	adds	r3, r7, r3
 8005b5c:	881a      	ldrh	r2, [r3, #0]
 8005b5e:	230e      	movs	r3, #14
 8005b60:	18fb      	adds	r3, r7, r3
 8005b62:	3a01      	subs	r2, #1
 8005b64:	801a      	strh	r2, [r3, #0]
 8005b66:	230e      	movs	r3, #14
 8005b68:	18fb      	adds	r3, r7, r3
 8005b6a:	881b      	ldrh	r3, [r3, #0]
 8005b6c:	029b      	lsls	r3, r3, #10
 8005b6e:	b21b      	sxth	r3, r3
 8005b70:	4a13      	ldr	r2, [pc, #76]	; (8005bc0 <SetEPRxCount+0xb0>)
 8005b72:	4313      	orrs	r3, r2
 8005b74:	b21b      	sxth	r3, r3
 8005b76:	b29a      	uxth	r2, r3
 8005b78:	68bb      	ldr	r3, [r7, #8]
 8005b7a:	801a      	strh	r2, [r3, #0]
}
 8005b7c:	e018      	b.n	8005bb0 <SetEPRxCount+0xa0>
  * @param   wCount: the new register value.
  * @retval None
  */
void SetEPRxCount(uint8_t bEpNum, uint16_t wCount)
{
  _SetEPRxCount(bEpNum, wCount);
 8005b7e:	230e      	movs	r3, #14
 8005b80:	18fb      	adds	r3, r7, r3
 8005b82:	1d3a      	adds	r2, r7, #4
 8005b84:	8812      	ldrh	r2, [r2, #0]
 8005b86:	0852      	lsrs	r2, r2, #1
 8005b88:	801a      	strh	r2, [r3, #0]
 8005b8a:	1d3b      	adds	r3, r7, #4
 8005b8c:	881b      	ldrh	r3, [r3, #0]
 8005b8e:	2201      	movs	r2, #1
 8005b90:	4013      	ands	r3, r2
 8005b92:	d006      	beq.n	8005ba2 <SetEPRxCount+0x92>
 8005b94:	230e      	movs	r3, #14
 8005b96:	18fb      	adds	r3, r7, r3
 8005b98:	881a      	ldrh	r2, [r3, #0]
 8005b9a:	230e      	movs	r3, #14
 8005b9c:	18fb      	adds	r3, r7, r3
 8005b9e:	3201      	adds	r2, #1
 8005ba0:	801a      	strh	r2, [r3, #0]
 8005ba2:	230e      	movs	r3, #14
 8005ba4:	18fb      	adds	r3, r7, r3
 8005ba6:	881b      	ldrh	r3, [r3, #0]
 8005ba8:	029b      	lsls	r3, r3, #10
 8005baa:	b29a      	uxth	r2, r3
 8005bac:	68bb      	ldr	r3, [r7, #8]
 8005bae:	801a      	strh	r2, [r3, #0]
}
 8005bb0:	46c0      	nop			; (mov r8, r8)
 8005bb2:	46bd      	mov	sp, r7
 8005bb4:	b004      	add	sp, #16
 8005bb6:	bd80      	pop	{r7, pc}
 8005bb8:	40005c50 	.word	0x40005c50
 8005bbc:	40006006 	.word	0x40006006
 8005bc0:	ffff8000 	.word	0xffff8000

08005bc4 <GetEPTxCount>:
  * @brief Get the Tx count.
  * @param   bEpNum: Endpoint Number.
  * @retval Tx count value.
  */
uint16_t GetEPTxCount(uint8_t bEpNum)
{
 8005bc4:	b580      	push	{r7, lr}
 8005bc6:	b082      	sub	sp, #8
 8005bc8:	af00      	add	r7, sp, #0
 8005bca:	0002      	movs	r2, r0
 8005bcc:	1dfb      	adds	r3, r7, #7
 8005bce:	701a      	strb	r2, [r3, #0]
  return(_GetEPTxCount(bEpNum));
 8005bd0:	4b09      	ldr	r3, [pc, #36]	; (8005bf8 <GetEPTxCount+0x34>)
 8005bd2:	681b      	ldr	r3, [r3, #0]
 8005bd4:	041b      	lsls	r3, r3, #16
 8005bd6:	0c1a      	lsrs	r2, r3, #16
 8005bd8:	1dfb      	adds	r3, r7, #7
 8005bda:	781b      	ldrb	r3, [r3, #0]
 8005bdc:	00db      	lsls	r3, r3, #3
 8005bde:	18d3      	adds	r3, r2, r3
 8005be0:	4a06      	ldr	r2, [pc, #24]	; (8005bfc <GetEPTxCount+0x38>)
 8005be2:	4694      	mov	ip, r2
 8005be4:	4463      	add	r3, ip
 8005be6:	881b      	ldrh	r3, [r3, #0]
 8005be8:	059b      	lsls	r3, r3, #22
 8005bea:	0d9b      	lsrs	r3, r3, #22
 8005bec:	b29b      	uxth	r3, r3
}
 8005bee:	0018      	movs	r0, r3
 8005bf0:	46bd      	mov	sp, r7
 8005bf2:	b002      	add	sp, #8
 8005bf4:	bd80      	pop	{r7, pc}
 8005bf6:	46c0      	nop			; (mov r8, r8)
 8005bf8:	40005c50 	.word	0x40005c50
 8005bfc:	40006002 	.word	0x40006002

08005c00 <GetEPRxCount>:
  * @brief Get the Rx count.
  * @param   bEpNum: Endpoint Number.
  * @retval Rx count value.
  */
uint16_t GetEPRxCount(uint8_t bEpNum)
{
 8005c00:	b580      	push	{r7, lr}
 8005c02:	b082      	sub	sp, #8
 8005c04:	af00      	add	r7, sp, #0
 8005c06:	0002      	movs	r2, r0
 8005c08:	1dfb      	adds	r3, r7, #7
 8005c0a:	701a      	strb	r2, [r3, #0]
  return(_GetEPRxCount(bEpNum));
 8005c0c:	4b09      	ldr	r3, [pc, #36]	; (8005c34 <GetEPRxCount+0x34>)
 8005c0e:	681b      	ldr	r3, [r3, #0]
 8005c10:	041b      	lsls	r3, r3, #16
 8005c12:	0c1a      	lsrs	r2, r3, #16
 8005c14:	1dfb      	adds	r3, r7, #7
 8005c16:	781b      	ldrb	r3, [r3, #0]
 8005c18:	00db      	lsls	r3, r3, #3
 8005c1a:	18d3      	adds	r3, r2, r3
 8005c1c:	4a06      	ldr	r2, [pc, #24]	; (8005c38 <GetEPRxCount+0x38>)
 8005c1e:	4694      	mov	ip, r2
 8005c20:	4463      	add	r3, ip
 8005c22:	881b      	ldrh	r3, [r3, #0]
 8005c24:	059b      	lsls	r3, r3, #22
 8005c26:	0d9b      	lsrs	r3, r3, #22
 8005c28:	b29b      	uxth	r3, r3
}
 8005c2a:	0018      	movs	r0, r3
 8005c2c:	46bd      	mov	sp, r7
 8005c2e:	b002      	add	sp, #8
 8005c30:	bd80      	pop	{r7, pc}
 8005c32:	46c0      	nop			; (mov r8, r8)
 8005c34:	40005c50 	.word	0x40005c50
 8005c38:	40006006 	.word	0x40006006

08005c3c <SetEPDblBuffAddr>:
  * @param   wBuf0Addr: new address of buffer 0.
  * @param   wBuf1Addr: new address of buffer 1.
  * @retval None
  */
void SetEPDblBuffAddr(uint8_t bEpNum, uint16_t wBuf0Addr, uint16_t wBuf1Addr)
{
 8005c3c:	b590      	push	{r4, r7, lr}
 8005c3e:	b083      	sub	sp, #12
 8005c40:	af00      	add	r7, sp, #0
 8005c42:	0004      	movs	r4, r0
 8005c44:	0008      	movs	r0, r1
 8005c46:	0011      	movs	r1, r2
 8005c48:	1dfb      	adds	r3, r7, #7
 8005c4a:	1c22      	adds	r2, r4, #0
 8005c4c:	701a      	strb	r2, [r3, #0]
 8005c4e:	1d3b      	adds	r3, r7, #4
 8005c50:	1c02      	adds	r2, r0, #0
 8005c52:	801a      	strh	r2, [r3, #0]
 8005c54:	1cbb      	adds	r3, r7, #2
 8005c56:	1c0a      	adds	r2, r1, #0
 8005c58:	801a      	strh	r2, [r3, #0]
  _SetEPDblBuffAddr(bEpNum, wBuf0Addr, wBuf1Addr);
 8005c5a:	4b14      	ldr	r3, [pc, #80]	; (8005cac <SetEPDblBuffAddr+0x70>)
 8005c5c:	681b      	ldr	r3, [r3, #0]
 8005c5e:	041b      	lsls	r3, r3, #16
 8005c60:	0c1a      	lsrs	r2, r3, #16
 8005c62:	1dfb      	adds	r3, r7, #7
 8005c64:	781b      	ldrb	r3, [r3, #0]
 8005c66:	00db      	lsls	r3, r3, #3
 8005c68:	18d3      	adds	r3, r2, r3
 8005c6a:	4a11      	ldr	r2, [pc, #68]	; (8005cb0 <SetEPDblBuffAddr+0x74>)
 8005c6c:	4694      	mov	ip, r2
 8005c6e:	4463      	add	r3, ip
 8005c70:	0019      	movs	r1, r3
 8005c72:	1d3b      	adds	r3, r7, #4
 8005c74:	881b      	ldrh	r3, [r3, #0]
 8005c76:	2201      	movs	r2, #1
 8005c78:	4393      	bics	r3, r2
 8005c7a:	b29b      	uxth	r3, r3
 8005c7c:	800b      	strh	r3, [r1, #0]
 8005c7e:	4b0b      	ldr	r3, [pc, #44]	; (8005cac <SetEPDblBuffAddr+0x70>)
 8005c80:	681b      	ldr	r3, [r3, #0]
 8005c82:	041b      	lsls	r3, r3, #16
 8005c84:	0c1a      	lsrs	r2, r3, #16
 8005c86:	1dfb      	adds	r3, r7, #7
 8005c88:	781b      	ldrb	r3, [r3, #0]
 8005c8a:	00db      	lsls	r3, r3, #3
 8005c8c:	18d3      	adds	r3, r2, r3
 8005c8e:	4a09      	ldr	r2, [pc, #36]	; (8005cb4 <SetEPDblBuffAddr+0x78>)
 8005c90:	4694      	mov	ip, r2
 8005c92:	4463      	add	r3, ip
 8005c94:	0019      	movs	r1, r3
 8005c96:	1cbb      	adds	r3, r7, #2
 8005c98:	881b      	ldrh	r3, [r3, #0]
 8005c9a:	2201      	movs	r2, #1
 8005c9c:	4393      	bics	r3, r2
 8005c9e:	b29b      	uxth	r3, r3
 8005ca0:	800b      	strh	r3, [r1, #0]
}
 8005ca2:	46c0      	nop			; (mov r8, r8)
 8005ca4:	46bd      	mov	sp, r7
 8005ca6:	b003      	add	sp, #12
 8005ca8:	bd90      	pop	{r4, r7, pc}
 8005caa:	46c0      	nop			; (mov r8, r8)
 8005cac:	40005c50 	.word	0x40005c50
 8005cb0:	40006000 	.word	0x40006000
 8005cb4:	40006004 	.word	0x40006004

08005cb8 <SetEPDblBuffCount>:
  * @brief Set the number of bytes for a double Buffer
  * @param   bEpNum,bDir, wCount
  * @retval Address of the Buffer 1.
  */
void SetEPDblBuffCount(uint8_t bEpNum, uint8_t bDir, uint16_t wCount)
{
 8005cb8:	b590      	push	{r4, r7, lr}
 8005cba:	b087      	sub	sp, #28
 8005cbc:	af00      	add	r7, sp, #0
 8005cbe:	0004      	movs	r4, r0
 8005cc0:	0008      	movs	r0, r1
 8005cc2:	0011      	movs	r1, r2
 8005cc4:	1dfb      	adds	r3, r7, #7
 8005cc6:	1c22      	adds	r2, r4, #0
 8005cc8:	701a      	strb	r2, [r3, #0]
 8005cca:	1dbb      	adds	r3, r7, #6
 8005ccc:	1c02      	adds	r2, r0, #0
 8005cce:	701a      	strb	r2, [r3, #0]
 8005cd0:	1d3b      	adds	r3, r7, #4
 8005cd2:	1c0a      	adds	r2, r1, #0
 8005cd4:	801a      	strh	r2, [r3, #0]
  _SetEPDblBuffCount(bEpNum, bDir, wCount);
 8005cd6:	1dbb      	adds	r3, r7, #6
 8005cd8:	781b      	ldrb	r3, [r3, #0]
 8005cda:	2b00      	cmp	r3, #0
 8005cdc:	d147      	bne.n	8005d6e <SetEPDblBuffCount+0xb6>
 8005cde:	4b5f      	ldr	r3, [pc, #380]	; (8005e5c <SetEPDblBuffCount+0x1a4>)
 8005ce0:	681b      	ldr	r3, [r3, #0]
 8005ce2:	041b      	lsls	r3, r3, #16
 8005ce4:	0c1a      	lsrs	r2, r3, #16
 8005ce6:	1dfb      	adds	r3, r7, #7
 8005ce8:	781b      	ldrb	r3, [r3, #0]
 8005cea:	00db      	lsls	r3, r3, #3
 8005cec:	18d3      	adds	r3, r2, r3
 8005cee:	4a5c      	ldr	r2, [pc, #368]	; (8005e60 <SetEPDblBuffCount+0x1a8>)
 8005cf0:	4694      	mov	ip, r2
 8005cf2:	4463      	add	r3, ip
 8005cf4:	613b      	str	r3, [r7, #16]
 8005cf6:	1d3b      	adds	r3, r7, #4
 8005cf8:	881b      	ldrh	r3, [r3, #0]
 8005cfa:	2b3e      	cmp	r3, #62	; 0x3e
 8005cfc:	d91d      	bls.n	8005d3a <SetEPDblBuffCount+0x82>
 8005cfe:	2316      	movs	r3, #22
 8005d00:	18fb      	adds	r3, r7, r3
 8005d02:	1d3a      	adds	r2, r7, #4
 8005d04:	8812      	ldrh	r2, [r2, #0]
 8005d06:	0952      	lsrs	r2, r2, #5
 8005d08:	801a      	strh	r2, [r3, #0]
 8005d0a:	1d3b      	adds	r3, r7, #4
 8005d0c:	881b      	ldrh	r3, [r3, #0]
 8005d0e:	221f      	movs	r2, #31
 8005d10:	4013      	ands	r3, r2
 8005d12:	d106      	bne.n	8005d22 <SetEPDblBuffCount+0x6a>
 8005d14:	2316      	movs	r3, #22
 8005d16:	18fb      	adds	r3, r7, r3
 8005d18:	881a      	ldrh	r2, [r3, #0]
 8005d1a:	2316      	movs	r3, #22
 8005d1c:	18fb      	adds	r3, r7, r3
 8005d1e:	3a01      	subs	r2, #1
 8005d20:	801a      	strh	r2, [r3, #0]
 8005d22:	2316      	movs	r3, #22
 8005d24:	18fb      	adds	r3, r7, r3
 8005d26:	881b      	ldrh	r3, [r3, #0]
 8005d28:	029b      	lsls	r3, r3, #10
 8005d2a:	b21b      	sxth	r3, r3
 8005d2c:	4a4d      	ldr	r2, [pc, #308]	; (8005e64 <SetEPDblBuffCount+0x1ac>)
 8005d2e:	4313      	orrs	r3, r2
 8005d30:	b21b      	sxth	r3, r3
 8005d32:	b29a      	uxth	r2, r3
 8005d34:	693b      	ldr	r3, [r7, #16]
 8005d36:	801a      	strh	r2, [r3, #0]
 8005d38:	e02c      	b.n	8005d94 <SetEPDblBuffCount+0xdc>
 8005d3a:	2316      	movs	r3, #22
 8005d3c:	18fb      	adds	r3, r7, r3
 8005d3e:	1d3a      	adds	r2, r7, #4
 8005d40:	8812      	ldrh	r2, [r2, #0]
 8005d42:	0852      	lsrs	r2, r2, #1
 8005d44:	801a      	strh	r2, [r3, #0]
 8005d46:	1d3b      	adds	r3, r7, #4
 8005d48:	881b      	ldrh	r3, [r3, #0]
 8005d4a:	2201      	movs	r2, #1
 8005d4c:	4013      	ands	r3, r2
 8005d4e:	d006      	beq.n	8005d5e <SetEPDblBuffCount+0xa6>
 8005d50:	2316      	movs	r3, #22
 8005d52:	18fb      	adds	r3, r7, r3
 8005d54:	881a      	ldrh	r2, [r3, #0]
 8005d56:	2316      	movs	r3, #22
 8005d58:	18fb      	adds	r3, r7, r3
 8005d5a:	3201      	adds	r2, #1
 8005d5c:	801a      	strh	r2, [r3, #0]
 8005d5e:	2316      	movs	r3, #22
 8005d60:	18fb      	adds	r3, r7, r3
 8005d62:	881b      	ldrh	r3, [r3, #0]
 8005d64:	029b      	lsls	r3, r3, #10
 8005d66:	b29a      	uxth	r2, r3
 8005d68:	693b      	ldr	r3, [r7, #16]
 8005d6a:	801a      	strh	r2, [r3, #0]
 8005d6c:	e012      	b.n	8005d94 <SetEPDblBuffCount+0xdc>
 8005d6e:	1dbb      	adds	r3, r7, #6
 8005d70:	781b      	ldrb	r3, [r3, #0]
 8005d72:	2b01      	cmp	r3, #1
 8005d74:	d10e      	bne.n	8005d94 <SetEPDblBuffCount+0xdc>
 8005d76:	4b39      	ldr	r3, [pc, #228]	; (8005e5c <SetEPDblBuffCount+0x1a4>)
 8005d78:	681b      	ldr	r3, [r3, #0]
 8005d7a:	041b      	lsls	r3, r3, #16
 8005d7c:	0c1a      	lsrs	r2, r3, #16
 8005d7e:	1dfb      	adds	r3, r7, #7
 8005d80:	781b      	ldrb	r3, [r3, #0]
 8005d82:	00db      	lsls	r3, r3, #3
 8005d84:	18d3      	adds	r3, r2, r3
 8005d86:	4a36      	ldr	r2, [pc, #216]	; (8005e60 <SetEPDblBuffCount+0x1a8>)
 8005d88:	4694      	mov	ip, r2
 8005d8a:	4463      	add	r3, ip
 8005d8c:	001a      	movs	r2, r3
 8005d8e:	1d3b      	adds	r3, r7, #4
 8005d90:	881b      	ldrh	r3, [r3, #0]
 8005d92:	8013      	strh	r3, [r2, #0]
 8005d94:	1dbb      	adds	r3, r7, #6
 8005d96:	781b      	ldrb	r3, [r3, #0]
 8005d98:	2b00      	cmp	r3, #0
 8005d9a:	d147      	bne.n	8005e2c <SetEPDblBuffCount+0x174>
 8005d9c:	4b2f      	ldr	r3, [pc, #188]	; (8005e5c <SetEPDblBuffCount+0x1a4>)
 8005d9e:	681b      	ldr	r3, [r3, #0]
 8005da0:	041b      	lsls	r3, r3, #16
 8005da2:	0c1a      	lsrs	r2, r3, #16
 8005da4:	1dfb      	adds	r3, r7, #7
 8005da6:	781b      	ldrb	r3, [r3, #0]
 8005da8:	00db      	lsls	r3, r3, #3
 8005daa:	18d3      	adds	r3, r2, r3
 8005dac:	4a2e      	ldr	r2, [pc, #184]	; (8005e68 <SetEPDblBuffCount+0x1b0>)
 8005dae:	4694      	mov	ip, r2
 8005db0:	4463      	add	r3, ip
 8005db2:	60fb      	str	r3, [r7, #12]
 8005db4:	1d3b      	adds	r3, r7, #4
 8005db6:	881b      	ldrh	r3, [r3, #0]
 8005db8:	2b3e      	cmp	r3, #62	; 0x3e
 8005dba:	d91d      	bls.n	8005df8 <SetEPDblBuffCount+0x140>
 8005dbc:	2314      	movs	r3, #20
 8005dbe:	18fb      	adds	r3, r7, r3
 8005dc0:	1d3a      	adds	r2, r7, #4
 8005dc2:	8812      	ldrh	r2, [r2, #0]
 8005dc4:	0952      	lsrs	r2, r2, #5
 8005dc6:	801a      	strh	r2, [r3, #0]
 8005dc8:	1d3b      	adds	r3, r7, #4
 8005dca:	881b      	ldrh	r3, [r3, #0]
 8005dcc:	221f      	movs	r2, #31
 8005dce:	4013      	ands	r3, r2
 8005dd0:	d106      	bne.n	8005de0 <SetEPDblBuffCount+0x128>
 8005dd2:	2314      	movs	r3, #20
 8005dd4:	18fb      	adds	r3, r7, r3
 8005dd6:	881a      	ldrh	r2, [r3, #0]
 8005dd8:	2314      	movs	r3, #20
 8005dda:	18fb      	adds	r3, r7, r3
 8005ddc:	3a01      	subs	r2, #1
 8005dde:	801a      	strh	r2, [r3, #0]
 8005de0:	2314      	movs	r3, #20
 8005de2:	18fb      	adds	r3, r7, r3
 8005de4:	881b      	ldrh	r3, [r3, #0]
 8005de6:	029b      	lsls	r3, r3, #10
 8005de8:	b21b      	sxth	r3, r3
 8005dea:	4a1e      	ldr	r2, [pc, #120]	; (8005e64 <SetEPDblBuffCount+0x1ac>)
 8005dec:	4313      	orrs	r3, r2
 8005dee:	b21b      	sxth	r3, r3
 8005df0:	b29a      	uxth	r2, r3
 8005df2:	68fb      	ldr	r3, [r7, #12]
 8005df4:	801a      	strh	r2, [r3, #0]
}
 8005df6:	e02c      	b.n	8005e52 <SetEPDblBuffCount+0x19a>
  * @param   bEpNum,bDir, wCount
  * @retval Address of the Buffer 1.
  */
void SetEPDblBuffCount(uint8_t bEpNum, uint8_t bDir, uint16_t wCount)
{
  _SetEPDblBuffCount(bEpNum, bDir, wCount);
 8005df8:	2314      	movs	r3, #20
 8005dfa:	18fb      	adds	r3, r7, r3
 8005dfc:	1d3a      	adds	r2, r7, #4
 8005dfe:	8812      	ldrh	r2, [r2, #0]
 8005e00:	0852      	lsrs	r2, r2, #1
 8005e02:	801a      	strh	r2, [r3, #0]
 8005e04:	1d3b      	adds	r3, r7, #4
 8005e06:	881b      	ldrh	r3, [r3, #0]
 8005e08:	2201      	movs	r2, #1
 8005e0a:	4013      	ands	r3, r2
 8005e0c:	d006      	beq.n	8005e1c <SetEPDblBuffCount+0x164>
 8005e0e:	2314      	movs	r3, #20
 8005e10:	18fb      	adds	r3, r7, r3
 8005e12:	881a      	ldrh	r2, [r3, #0]
 8005e14:	2314      	movs	r3, #20
 8005e16:	18fb      	adds	r3, r7, r3
 8005e18:	3201      	adds	r2, #1
 8005e1a:	801a      	strh	r2, [r3, #0]
 8005e1c:	2314      	movs	r3, #20
 8005e1e:	18fb      	adds	r3, r7, r3
 8005e20:	881b      	ldrh	r3, [r3, #0]
 8005e22:	029b      	lsls	r3, r3, #10
 8005e24:	b29a      	uxth	r2, r3
 8005e26:	68fb      	ldr	r3, [r7, #12]
 8005e28:	801a      	strh	r2, [r3, #0]
}
 8005e2a:	e012      	b.n	8005e52 <SetEPDblBuffCount+0x19a>
  * @param   bEpNum,bDir, wCount
  * @retval Address of the Buffer 1.
  */
void SetEPDblBuffCount(uint8_t bEpNum, uint8_t bDir, uint16_t wCount)
{
  _SetEPDblBuffCount(bEpNum, bDir, wCount);
 8005e2c:	1dbb      	adds	r3, r7, #6
 8005e2e:	781b      	ldrb	r3, [r3, #0]
 8005e30:	2b01      	cmp	r3, #1
 8005e32:	d10e      	bne.n	8005e52 <SetEPDblBuffCount+0x19a>
 8005e34:	4b09      	ldr	r3, [pc, #36]	; (8005e5c <SetEPDblBuffCount+0x1a4>)
 8005e36:	681b      	ldr	r3, [r3, #0]
 8005e38:	041b      	lsls	r3, r3, #16
 8005e3a:	0c1a      	lsrs	r2, r3, #16
 8005e3c:	1dfb      	adds	r3, r7, #7
 8005e3e:	781b      	ldrb	r3, [r3, #0]
 8005e40:	00db      	lsls	r3, r3, #3
 8005e42:	18d3      	adds	r3, r2, r3
 8005e44:	4a08      	ldr	r2, [pc, #32]	; (8005e68 <SetEPDblBuffCount+0x1b0>)
 8005e46:	4694      	mov	ip, r2
 8005e48:	4463      	add	r3, ip
 8005e4a:	001a      	movs	r2, r3
 8005e4c:	1d3b      	adds	r3, r7, #4
 8005e4e:	881b      	ldrh	r3, [r3, #0]
 8005e50:	8013      	strh	r3, [r2, #0]
}
 8005e52:	46c0      	nop			; (mov r8, r8)
 8005e54:	46bd      	mov	sp, r7
 8005e56:	b007      	add	sp, #28
 8005e58:	bd90      	pop	{r4, r7, pc}
 8005e5a:	46c0      	nop			; (mov r8, r8)
 8005e5c:	40005c50 	.word	0x40005c50
 8005e60:	40006002 	.word	0x40006002
 8005e64:	ffff8000 	.word	0xffff8000
 8005e68:	40006006 	.word	0x40006006

08005e6c <GetEPDblBuf0Count>:
  *         Buffer endpoint.
  * @param   bEpNum: Endpoint Number.
  * @retval Endpoint Buffer 0 count
  */
uint16_t GetEPDblBuf0Count(uint8_t bEpNum)
{
 8005e6c:	b580      	push	{r7, lr}
 8005e6e:	b082      	sub	sp, #8
 8005e70:	af00      	add	r7, sp, #0
 8005e72:	0002      	movs	r2, r0
 8005e74:	1dfb      	adds	r3, r7, #7
 8005e76:	701a      	strb	r2, [r3, #0]
  return(_GetEPDblBuf0Count(bEpNum));
 8005e78:	4b09      	ldr	r3, [pc, #36]	; (8005ea0 <GetEPDblBuf0Count+0x34>)
 8005e7a:	681b      	ldr	r3, [r3, #0]
 8005e7c:	041b      	lsls	r3, r3, #16
 8005e7e:	0c1a      	lsrs	r2, r3, #16
 8005e80:	1dfb      	adds	r3, r7, #7
 8005e82:	781b      	ldrb	r3, [r3, #0]
 8005e84:	00db      	lsls	r3, r3, #3
 8005e86:	18d3      	adds	r3, r2, r3
 8005e88:	4a06      	ldr	r2, [pc, #24]	; (8005ea4 <GetEPDblBuf0Count+0x38>)
 8005e8a:	4694      	mov	ip, r2
 8005e8c:	4463      	add	r3, ip
 8005e8e:	881b      	ldrh	r3, [r3, #0]
 8005e90:	059b      	lsls	r3, r3, #22
 8005e92:	0d9b      	lsrs	r3, r3, #22
 8005e94:	b29b      	uxth	r3, r3
}
 8005e96:	0018      	movs	r0, r3
 8005e98:	46bd      	mov	sp, r7
 8005e9a:	b002      	add	sp, #8
 8005e9c:	bd80      	pop	{r7, pc}
 8005e9e:	46c0      	nop			; (mov r8, r8)
 8005ea0:	40005c50 	.word	0x40005c50
 8005ea4:	40006002 	.word	0x40006002

08005ea8 <GetEPDblBuf1Count>:
  * @brief Returns the number of data received in the buffer 1 of a double
  * @param   bEpNum: Endpoint Number.
  * @retval Endpoint Buffer 1 count
  */
uint16_t GetEPDblBuf1Count(uint8_t bEpNum)
{
 8005ea8:	b580      	push	{r7, lr}
 8005eaa:	b082      	sub	sp, #8
 8005eac:	af00      	add	r7, sp, #0
 8005eae:	0002      	movs	r2, r0
 8005eb0:	1dfb      	adds	r3, r7, #7
 8005eb2:	701a      	strb	r2, [r3, #0]
  return(_GetEPDblBuf1Count(bEpNum));
 8005eb4:	4b09      	ldr	r3, [pc, #36]	; (8005edc <GetEPDblBuf1Count+0x34>)
 8005eb6:	681b      	ldr	r3, [r3, #0]
 8005eb8:	041b      	lsls	r3, r3, #16
 8005eba:	0c1a      	lsrs	r2, r3, #16
 8005ebc:	1dfb      	adds	r3, r7, #7
 8005ebe:	781b      	ldrb	r3, [r3, #0]
 8005ec0:	00db      	lsls	r3, r3, #3
 8005ec2:	18d3      	adds	r3, r2, r3
 8005ec4:	4a06      	ldr	r2, [pc, #24]	; (8005ee0 <GetEPDblBuf1Count+0x38>)
 8005ec6:	4694      	mov	ip, r2
 8005ec8:	4463      	add	r3, ip
 8005eca:	881b      	ldrh	r3, [r3, #0]
 8005ecc:	059b      	lsls	r3, r3, #22
 8005ece:	0d9b      	lsrs	r3, r3, #22
 8005ed0:	b29b      	uxth	r3, r3
}
 8005ed2:	0018      	movs	r0, r3
 8005ed4:	46bd      	mov	sp, r7
 8005ed6:	b002      	add	sp, #8
 8005ed8:	bd80      	pop	{r7, pc}
 8005eda:	46c0      	nop			; (mov r8, r8)
 8005edc:	40005c50 	.word	0x40005c50
 8005ee0:	40006006 	.word	0x40006006

08005ee4 <FreeUserBuffer>:
          toggles bit SW_BUF in the double buffered endpoint register
  * @param   bEpNum, bDir
  * @retval None
  */
void FreeUserBuffer(uint8_t bEpNum, uint8_t bDir)
{
 8005ee4:	b580      	push	{r7, lr}
 8005ee6:	b082      	sub	sp, #8
 8005ee8:	af00      	add	r7, sp, #0
 8005eea:	0002      	movs	r2, r0
 8005eec:	1dfb      	adds	r3, r7, #7
 8005eee:	701a      	strb	r2, [r3, #0]
 8005ef0:	1dbb      	adds	r3, r7, #6
 8005ef2:	1c0a      	adds	r2, r1, #0
 8005ef4:	701a      	strb	r2, [r3, #0]
  if (bDir == EP_DBUF_OUT)
 8005ef6:	1dbb      	adds	r3, r7, #6
 8005ef8:	781b      	ldrb	r3, [r3, #0]
 8005efa:	2b00      	cmp	r3, #0
 8005efc:	d113      	bne.n	8005f26 <FreeUserBuffer+0x42>
  { /* OUT double buffered endpoint */
    _ToggleDTOG_TX(bEpNum);
 8005efe:	1dfb      	adds	r3, r7, #7
 8005f00:	781b      	ldrb	r3, [r3, #0]
 8005f02:	009b      	lsls	r3, r3, #2
 8005f04:	4a15      	ldr	r2, [pc, #84]	; (8005f5c <FreeUserBuffer+0x78>)
 8005f06:	4694      	mov	ip, r2
 8005f08:	4463      	add	r3, ip
 8005f0a:	1dfa      	adds	r2, r7, #7
 8005f0c:	7812      	ldrb	r2, [r2, #0]
 8005f0e:	0092      	lsls	r2, r2, #2
 8005f10:	4912      	ldr	r1, [pc, #72]	; (8005f5c <FreeUserBuffer+0x78>)
 8005f12:	468c      	mov	ip, r1
 8005f14:	4462      	add	r2, ip
 8005f16:	6812      	ldr	r2, [r2, #0]
 8005f18:	0011      	movs	r1, r2
 8005f1a:	4a11      	ldr	r2, [pc, #68]	; (8005f60 <FreeUserBuffer+0x7c>)
 8005f1c:	400a      	ands	r2, r1
 8005f1e:	4911      	ldr	r1, [pc, #68]	; (8005f64 <FreeUserBuffer+0x80>)
 8005f20:	430a      	orrs	r2, r1
 8005f22:	601a      	str	r2, [r3, #0]
  }
  else if (bDir == EP_DBUF_IN)
  { /* IN double buffered endpoint */
    _ToggleDTOG_RX(bEpNum);
  }
}
 8005f24:	e016      	b.n	8005f54 <FreeUserBuffer+0x70>
{
  if (bDir == EP_DBUF_OUT)
  { /* OUT double buffered endpoint */
    _ToggleDTOG_TX(bEpNum);
  }
  else if (bDir == EP_DBUF_IN)
 8005f26:	1dbb      	adds	r3, r7, #6
 8005f28:	781b      	ldrb	r3, [r3, #0]
 8005f2a:	2b01      	cmp	r3, #1
 8005f2c:	d112      	bne.n	8005f54 <FreeUserBuffer+0x70>
  { /* IN double buffered endpoint */
    _ToggleDTOG_RX(bEpNum);
 8005f2e:	1dfb      	adds	r3, r7, #7
 8005f30:	781b      	ldrb	r3, [r3, #0]
 8005f32:	009b      	lsls	r3, r3, #2
 8005f34:	4a09      	ldr	r2, [pc, #36]	; (8005f5c <FreeUserBuffer+0x78>)
 8005f36:	4694      	mov	ip, r2
 8005f38:	4463      	add	r3, ip
 8005f3a:	1dfa      	adds	r2, r7, #7
 8005f3c:	7812      	ldrb	r2, [r2, #0]
 8005f3e:	0092      	lsls	r2, r2, #2
 8005f40:	4906      	ldr	r1, [pc, #24]	; (8005f5c <FreeUserBuffer+0x78>)
 8005f42:	468c      	mov	ip, r1
 8005f44:	4462      	add	r2, ip
 8005f46:	6812      	ldr	r2, [r2, #0]
 8005f48:	0011      	movs	r1, r2
 8005f4a:	4a05      	ldr	r2, [pc, #20]	; (8005f60 <FreeUserBuffer+0x7c>)
 8005f4c:	400a      	ands	r2, r1
 8005f4e:	4906      	ldr	r1, [pc, #24]	; (8005f68 <FreeUserBuffer+0x84>)
 8005f50:	430a      	orrs	r2, r1
 8005f52:	601a      	str	r2, [r3, #0]
  }
}
 8005f54:	46c0      	nop			; (mov r8, r8)
 8005f56:	46bd      	mov	sp, r7
 8005f58:	b002      	add	sp, #8
 8005f5a:	bd80      	pop	{r7, pc}
 8005f5c:	40005c00 	.word	0x40005c00
 8005f60:	00000f0f 	.word	0x00000f0f
 8005f64:	000080c0 	.word	0x000080c0
 8005f68:	0000c080 	.word	0x0000c080

08005f6c <UserToPMABufferCopy>:
  * @param   wPMABufAddr: address into PMA.
  * @param   wNBytes: no. of bytes to be copied.
  * @retval None
  */
void UserToPMABufferCopy(uint8_t *pbUsrBuf, uint16_t wPMABufAddr, uint16_t wNBytes)
{
 8005f6c:	b580      	push	{r7, lr}
 8005f6e:	b086      	sub	sp, #24
 8005f70:	af00      	add	r7, sp, #0
 8005f72:	6078      	str	r0, [r7, #4]
 8005f74:	0008      	movs	r0, r1
 8005f76:	0011      	movs	r1, r2
 8005f78:	1cbb      	adds	r3, r7, #2
 8005f7a:	1c02      	adds	r2, r0, #0
 8005f7c:	801a      	strh	r2, [r3, #0]
 8005f7e:	003b      	movs	r3, r7
 8005f80:	1c0a      	adds	r2, r1, #0
 8005f82:	801a      	strh	r2, [r3, #0]
  uint32_t n = (wNBytes + 1) >> 1; 
 8005f84:	003b      	movs	r3, r7
 8005f86:	881b      	ldrh	r3, [r3, #0]
 8005f88:	3301      	adds	r3, #1
 8005f8a:	105b      	asrs	r3, r3, #1
 8005f8c:	60fb      	str	r3, [r7, #12]
  uint32_t i;
  uint16_t temp1, temp2;
  uint16_t *pdwVal;
  pdwVal = (uint16_t *)(wPMABufAddr + PMAAddr);
 8005f8e:	1cbb      	adds	r3, r7, #2
 8005f90:	881b      	ldrh	r3, [r3, #0]
 8005f92:	4a18      	ldr	r2, [pc, #96]	; (8005ff4 <UserToPMABufferCopy+0x88>)
 8005f94:	4694      	mov	ip, r2
 8005f96:	4463      	add	r3, ip
 8005f98:	613b      	str	r3, [r7, #16]
  
  for (i = n; i != 0; i--)
 8005f9a:	68fb      	ldr	r3, [r7, #12]
 8005f9c:	617b      	str	r3, [r7, #20]
 8005f9e:	e021      	b.n	8005fe4 <UserToPMABufferCopy+0x78>
  {
    temp1 = (uint16_t) * pbUsrBuf;
 8005fa0:	687b      	ldr	r3, [r7, #4]
 8005fa2:	781a      	ldrb	r2, [r3, #0]
 8005fa4:	230a      	movs	r3, #10
 8005fa6:	18fb      	adds	r3, r7, r3
 8005fa8:	801a      	strh	r2, [r3, #0]
    pbUsrBuf++;
 8005faa:	687b      	ldr	r3, [r7, #4]
 8005fac:	3301      	adds	r3, #1
 8005fae:	607b      	str	r3, [r7, #4]
    temp2 = temp1 | (uint16_t) * pbUsrBuf << 8;
 8005fb0:	687b      	ldr	r3, [r7, #4]
 8005fb2:	781b      	ldrb	r3, [r3, #0]
 8005fb4:	021b      	lsls	r3, r3, #8
 8005fb6:	b21a      	sxth	r2, r3
 8005fb8:	230a      	movs	r3, #10
 8005fba:	18fb      	adds	r3, r7, r3
 8005fbc:	2100      	movs	r1, #0
 8005fbe:	5e5b      	ldrsh	r3, [r3, r1]
 8005fc0:	4313      	orrs	r3, r2
 8005fc2:	b21a      	sxth	r2, r3
 8005fc4:	2308      	movs	r3, #8
 8005fc6:	18fb      	adds	r3, r7, r3
 8005fc8:	801a      	strh	r2, [r3, #0]
    *pdwVal++ = temp2;
 8005fca:	693b      	ldr	r3, [r7, #16]
 8005fcc:	1c9a      	adds	r2, r3, #2
 8005fce:	613a      	str	r2, [r7, #16]
 8005fd0:	2208      	movs	r2, #8
 8005fd2:	18ba      	adds	r2, r7, r2
 8005fd4:	8812      	ldrh	r2, [r2, #0]
 8005fd6:	801a      	strh	r2, [r3, #0]
    pbUsrBuf++;
 8005fd8:	687b      	ldr	r3, [r7, #4]
 8005fda:	3301      	adds	r3, #1
 8005fdc:	607b      	str	r3, [r7, #4]
  uint32_t i;
  uint16_t temp1, temp2;
  uint16_t *pdwVal;
  pdwVal = (uint16_t *)(wPMABufAddr + PMAAddr);
  
  for (i = n; i != 0; i--)
 8005fde:	697b      	ldr	r3, [r7, #20]
 8005fe0:	3b01      	subs	r3, #1
 8005fe2:	617b      	str	r3, [r7, #20]
 8005fe4:	697b      	ldr	r3, [r7, #20]
 8005fe6:	2b00      	cmp	r3, #0
 8005fe8:	d1da      	bne.n	8005fa0 <UserToPMABufferCopy+0x34>
    pbUsrBuf++;
    temp2 = temp1 | (uint16_t) * pbUsrBuf << 8;
    *pdwVal++ = temp2;
    pbUsrBuf++;
  }
}
 8005fea:	46c0      	nop			; (mov r8, r8)
 8005fec:	46bd      	mov	sp, r7
 8005fee:	b006      	add	sp, #24
 8005ff0:	bd80      	pop	{r7, pc}
 8005ff2:	46c0      	nop			; (mov r8, r8)
 8005ff4:	40006000 	.word	0x40006000

08005ff8 <PMAToUserBufferCopy>:
  * @param   wPMABufAddr: address into PMA.
  * @param   wNBytes: no. of bytes to be copied.
  * @retval None
  */
void PMAToUserBufferCopy(uint8_t *pbUsrBuf, uint16_t wPMABufAddr, uint16_t wNBytes)
{
 8005ff8:	b580      	push	{r7, lr}
 8005ffa:	b086      	sub	sp, #24
 8005ffc:	af00      	add	r7, sp, #0
 8005ffe:	6078      	str	r0, [r7, #4]
 8006000:	0008      	movs	r0, r1
 8006002:	0011      	movs	r1, r2
 8006004:	1cbb      	adds	r3, r7, #2
 8006006:	1c02      	adds	r2, r0, #0
 8006008:	801a      	strh	r2, [r3, #0]
 800600a:	003b      	movs	r3, r7
 800600c:	1c0a      	adds	r2, r1, #0
 800600e:	801a      	strh	r2, [r3, #0]
  uint32_t n = (wNBytes + 1) >> 1;
 8006010:	003b      	movs	r3, r7
 8006012:	881b      	ldrh	r3, [r3, #0]
 8006014:	3301      	adds	r3, #1
 8006016:	105b      	asrs	r3, r3, #1
 8006018:	60fb      	str	r3, [r7, #12]
  uint32_t i;
  uint16_t *pdwVal;
  pdwVal = (uint16_t *)(wPMABufAddr + PMAAddr);
 800601a:	1cbb      	adds	r3, r7, #2
 800601c:	881b      	ldrh	r3, [r3, #0]
 800601e:	4a0e      	ldr	r2, [pc, #56]	; (8006058 <PMAToUserBufferCopy+0x60>)
 8006020:	4694      	mov	ip, r2
 8006022:	4463      	add	r3, ip
 8006024:	613b      	str	r3, [r7, #16]
  for (i = n; i != 0; i--)
 8006026:	68fb      	ldr	r3, [r7, #12]
 8006028:	617b      	str	r3, [r7, #20]
 800602a:	e00d      	b.n	8006048 <PMAToUserBufferCopy+0x50>
  {
    *(uint16_t*)pbUsrBuf++ = *pdwVal++;
 800602c:	687b      	ldr	r3, [r7, #4]
 800602e:	1c5a      	adds	r2, r3, #1
 8006030:	607a      	str	r2, [r7, #4]
 8006032:	693a      	ldr	r2, [r7, #16]
 8006034:	1c91      	adds	r1, r2, #2
 8006036:	6139      	str	r1, [r7, #16]
 8006038:	8812      	ldrh	r2, [r2, #0]
 800603a:	801a      	strh	r2, [r3, #0]
    pbUsrBuf++;
 800603c:	687b      	ldr	r3, [r7, #4]
 800603e:	3301      	adds	r3, #1
 8006040:	607b      	str	r3, [r7, #4]
{
  uint32_t n = (wNBytes + 1) >> 1;
  uint32_t i;
  uint16_t *pdwVal;
  pdwVal = (uint16_t *)(wPMABufAddr + PMAAddr);
  for (i = n; i != 0; i--)
 8006042:	697b      	ldr	r3, [r7, #20]
 8006044:	3b01      	subs	r3, #1
 8006046:	617b      	str	r3, [r7, #20]
 8006048:	697b      	ldr	r3, [r7, #20]
 800604a:	2b00      	cmp	r3, #0
 800604c:	d1ee      	bne.n	800602c <PMAToUserBufferCopy+0x34>
  {
    *(uint16_t*)pbUsrBuf++ = *pdwVal++;
    pbUsrBuf++;
  }
}
 800604e:	46c0      	nop			; (mov r8, r8)
 8006050:	46bd      	mov	sp, r7
 8006052:	b006      	add	sp, #24
 8006054:	bd80      	pop	{r7, pc}
 8006056:	46c0      	nop			; (mov r8, r8)
 8006058:	40006000 	.word	0x40006000

0800605c <SPI_Init>:
  * @param  SPI_InitStruct: pointer to a SPI_InitTypeDef structure that
  *         contains the configuration information for the specified SPI peripheral.
  * @retval None
  */
void SPI_Init(SPI_TypeDef* SPIx, SPI_InitTypeDef* SPI_InitStruct)
{
 800605c:	b580      	push	{r7, lr}
 800605e:	b084      	sub	sp, #16
 8006060:	af00      	add	r7, sp, #0
 8006062:	6078      	str	r0, [r7, #4]
 8006064:	6039      	str	r1, [r7, #0]
  uint16_t tmpreg = 0;
 8006066:	230e      	movs	r3, #14
 8006068:	18fb      	adds	r3, r7, r3
 800606a:	2200      	movs	r2, #0
 800606c:	801a      	strh	r2, [r3, #0]
  assert_param(IS_SPI_FIRST_BIT(SPI_InitStruct->SPI_FirstBit));
  assert_param(IS_SPI_CRC_POLYNOMIAL(SPI_InitStruct->SPI_CRCPolynomial));

  /*---------------------------- SPIx CR1 Configuration ------------------------*/
  /* Get the SPIx CR1 value */
  tmpreg = SPIx->CR1;
 800606e:	230e      	movs	r3, #14
 8006070:	18fb      	adds	r3, r7, r3
 8006072:	687a      	ldr	r2, [r7, #4]
 8006074:	8812      	ldrh	r2, [r2, #0]
 8006076:	801a      	strh	r2, [r3, #0]
  /* Clear BIDIMode, BIDIOE, RxONLY, SSM, SSI, LSBFirst, BR, CPOL and CPHA bits */
  tmpreg &= CR1_CLEAR_MASK;
 8006078:	230e      	movs	r3, #14
 800607a:	18fb      	adds	r3, r7, r3
 800607c:	220e      	movs	r2, #14
 800607e:	18ba      	adds	r2, r7, r2
 8006080:	8811      	ldrh	r1, [r2, #0]
 8006082:	22c1      	movs	r2, #193	; 0xc1
 8006084:	0192      	lsls	r2, r2, #6
 8006086:	400a      	ands	r2, r1
 8006088:	801a      	strh	r2, [r3, #0]
  /* Set SSM, SSI bit according to SPI_NSS values */
  /* Set LSBFirst bit according to SPI_FirstBit value */
  /* Set BR bits according to SPI_BaudRatePrescaler value */
  /* Set CPOL bit according to SPI_CPOL value */
  /* Set CPHA bit according to SPI_CPHA value */
  tmpreg |= (uint16_t)((uint32_t)SPI_InitStruct->SPI_Direction | SPI_InitStruct->SPI_FirstBit |
 800608a:	683b      	ldr	r3, [r7, #0]
 800608c:	881a      	ldrh	r2, [r3, #0]
 800608e:	683b      	ldr	r3, [r7, #0]
 8006090:	89db      	ldrh	r3, [r3, #14]
 8006092:	4313      	orrs	r3, r2
 8006094:	b29a      	uxth	r2, r3
                      SPI_InitStruct->SPI_CPOL | SPI_InitStruct->SPI_CPHA |
 8006096:	683b      	ldr	r3, [r7, #0]
 8006098:	88db      	ldrh	r3, [r3, #6]
  /* Set SSM, SSI bit according to SPI_NSS values */
  /* Set LSBFirst bit according to SPI_FirstBit value */
  /* Set BR bits according to SPI_BaudRatePrescaler value */
  /* Set CPOL bit according to SPI_CPOL value */
  /* Set CPHA bit according to SPI_CPHA value */
  tmpreg |= (uint16_t)((uint32_t)SPI_InitStruct->SPI_Direction | SPI_InitStruct->SPI_FirstBit |
 800609a:	4313      	orrs	r3, r2
 800609c:	b29a      	uxth	r2, r3
                      SPI_InitStruct->SPI_CPOL | SPI_InitStruct->SPI_CPHA |
 800609e:	683b      	ldr	r3, [r7, #0]
 80060a0:	891b      	ldrh	r3, [r3, #8]
  /* Set SSM, SSI bit according to SPI_NSS values */
  /* Set LSBFirst bit according to SPI_FirstBit value */
  /* Set BR bits according to SPI_BaudRatePrescaler value */
  /* Set CPOL bit according to SPI_CPOL value */
  /* Set CPHA bit according to SPI_CPHA value */
  tmpreg |= (uint16_t)((uint32_t)SPI_InitStruct->SPI_Direction | SPI_InitStruct->SPI_FirstBit |
 80060a2:	4313      	orrs	r3, r2
 80060a4:	b29a      	uxth	r2, r3
                      SPI_InitStruct->SPI_CPOL | SPI_InitStruct->SPI_CPHA |
                      SPI_InitStruct->SPI_NSS | SPI_InitStruct->SPI_BaudRatePrescaler);  
 80060a6:	683b      	ldr	r3, [r7, #0]
 80060a8:	895b      	ldrh	r3, [r3, #10]
  /* Set SSM, SSI bit according to SPI_NSS values */
  /* Set LSBFirst bit according to SPI_FirstBit value */
  /* Set BR bits according to SPI_BaudRatePrescaler value */
  /* Set CPOL bit according to SPI_CPOL value */
  /* Set CPHA bit according to SPI_CPHA value */
  tmpreg |= (uint16_t)((uint32_t)SPI_InitStruct->SPI_Direction | SPI_InitStruct->SPI_FirstBit |
 80060aa:	4313      	orrs	r3, r2
 80060ac:	b29a      	uxth	r2, r3
                      SPI_InitStruct->SPI_CPOL | SPI_InitStruct->SPI_CPHA |
                      SPI_InitStruct->SPI_NSS | SPI_InitStruct->SPI_BaudRatePrescaler);  
 80060ae:	683b      	ldr	r3, [r7, #0]
 80060b0:	899b      	ldrh	r3, [r3, #12]
  /* Set SSM, SSI bit according to SPI_NSS values */
  /* Set LSBFirst bit according to SPI_FirstBit value */
  /* Set BR bits according to SPI_BaudRatePrescaler value */
  /* Set CPOL bit according to SPI_CPOL value */
  /* Set CPHA bit according to SPI_CPHA value */
  tmpreg |= (uint16_t)((uint32_t)SPI_InitStruct->SPI_Direction | SPI_InitStruct->SPI_FirstBit |
 80060b2:	4313      	orrs	r3, r2
 80060b4:	b299      	uxth	r1, r3
 80060b6:	230e      	movs	r3, #14
 80060b8:	18fb      	adds	r3, r7, r3
 80060ba:	220e      	movs	r2, #14
 80060bc:	18ba      	adds	r2, r7, r2
 80060be:	8812      	ldrh	r2, [r2, #0]
 80060c0:	430a      	orrs	r2, r1
 80060c2:	801a      	strh	r2, [r3, #0]
                      SPI_InitStruct->SPI_CPOL | SPI_InitStruct->SPI_CPHA |
                      SPI_InitStruct->SPI_NSS | SPI_InitStruct->SPI_BaudRatePrescaler);  
  /* Write to SPIx CR1 */
  SPIx->CR1 = tmpreg;
 80060c4:	687b      	ldr	r3, [r7, #4]
 80060c6:	220e      	movs	r2, #14
 80060c8:	18ba      	adds	r2, r7, r2
 80060ca:	8812      	ldrh	r2, [r2, #0]
 80060cc:	801a      	strh	r2, [r3, #0]
  /*-------------------------Data Size Configuration -----------------------*/
  /* Get the SPIx CR2 value */
  tmpreg = SPIx->CR2;
 80060ce:	230e      	movs	r3, #14
 80060d0:	18fb      	adds	r3, r7, r3
 80060d2:	687a      	ldr	r2, [r7, #4]
 80060d4:	8892      	ldrh	r2, [r2, #4]
 80060d6:	801a      	strh	r2, [r3, #0]
  /* Clear DS[3:0] bits */
  tmpreg &=(uint16_t)~SPI_CR2_DS;
 80060d8:	230e      	movs	r3, #14
 80060da:	18fb      	adds	r3, r7, r3
 80060dc:	220e      	movs	r2, #14
 80060de:	18ba      	adds	r2, r7, r2
 80060e0:	8812      	ldrh	r2, [r2, #0]
 80060e2:	491e      	ldr	r1, [pc, #120]	; (800615c <SPI_Init+0x100>)
 80060e4:	400a      	ands	r2, r1
 80060e6:	801a      	strh	r2, [r3, #0]
  /* Configure SPIx: Data Size */
  tmpreg |= (uint16_t)(SPI_InitStruct->SPI_DataSize);
 80060e8:	683b      	ldr	r3, [r7, #0]
 80060ea:	8899      	ldrh	r1, [r3, #4]
 80060ec:	230e      	movs	r3, #14
 80060ee:	18fb      	adds	r3, r7, r3
 80060f0:	220e      	movs	r2, #14
 80060f2:	18ba      	adds	r2, r7, r2
 80060f4:	8812      	ldrh	r2, [r2, #0]
 80060f6:	430a      	orrs	r2, r1
 80060f8:	801a      	strh	r2, [r3, #0]
  /* Write to SPIx CR2 */
  SPIx->CR2 = tmpreg;
 80060fa:	687b      	ldr	r3, [r7, #4]
 80060fc:	220e      	movs	r2, #14
 80060fe:	18ba      	adds	r2, r7, r2
 8006100:	8812      	ldrh	r2, [r2, #0]
 8006102:	809a      	strh	r2, [r3, #4]
  
  /*---------------------------- SPIx CRCPOLY Configuration --------------------*/
  /* Write to SPIx CRCPOLY */
  SPIx->CRCPR = SPI_InitStruct->SPI_CRCPolynomial;
 8006104:	683b      	ldr	r3, [r7, #0]
 8006106:	8a1a      	ldrh	r2, [r3, #16]
 8006108:	687b      	ldr	r3, [r7, #4]
 800610a:	821a      	strh	r2, [r3, #16]
  
  /*---------------------------- SPIx CR1 Configuration ------------------------*/
  /* Get the SPIx CR1 value */
  tmpreg = SPIx->CR1;
 800610c:	230e      	movs	r3, #14
 800610e:	18fb      	adds	r3, r7, r3
 8006110:	687a      	ldr	r2, [r7, #4]
 8006112:	8812      	ldrh	r2, [r2, #0]
 8006114:	801a      	strh	r2, [r3, #0]
  /* Clear MSTR bit */
  tmpreg &= CR1_CLEAR_MASK2;
 8006116:	230e      	movs	r3, #14
 8006118:	18fb      	adds	r3, r7, r3
 800611a:	220e      	movs	r2, #14
 800611c:	18ba      	adds	r2, r7, r2
 800611e:	8812      	ldrh	r2, [r2, #0]
 8006120:	2104      	movs	r1, #4
 8006122:	438a      	bics	r2, r1
 8006124:	801a      	strh	r2, [r3, #0]
  /* Configure SPIx: master/slave mode */  
  /* Set MSTR bit according to SPI_Mode */
  tmpreg |= (uint16_t)((uint32_t)SPI_InitStruct->SPI_Mode);  
 8006126:	683b      	ldr	r3, [r7, #0]
 8006128:	8859      	ldrh	r1, [r3, #2]
 800612a:	230e      	movs	r3, #14
 800612c:	18fb      	adds	r3, r7, r3
 800612e:	220e      	movs	r2, #14
 8006130:	18ba      	adds	r2, r7, r2
 8006132:	8812      	ldrh	r2, [r2, #0]
 8006134:	430a      	orrs	r2, r1
 8006136:	801a      	strh	r2, [r3, #0]
  /* Write to SPIx CR1 */
  SPIx->CR1 = tmpreg;  
 8006138:	687b      	ldr	r3, [r7, #4]
 800613a:	220e      	movs	r2, #14
 800613c:	18ba      	adds	r2, r7, r2
 800613e:	8812      	ldrh	r2, [r2, #0]
 8006140:	801a      	strh	r2, [r3, #0]
  
  /* Activate the SPI mode (Reset I2SMOD bit in I2SCFGR register) */
  SPIx->I2SCFGR &= (uint16_t)~((uint16_t)SPI_I2SCFGR_I2SMOD);
 8006142:	687b      	ldr	r3, [r7, #4]
 8006144:	8b9b      	ldrh	r3, [r3, #28]
 8006146:	b29b      	uxth	r3, r3
 8006148:	4a05      	ldr	r2, [pc, #20]	; (8006160 <SPI_Init+0x104>)
 800614a:	4013      	ands	r3, r2
 800614c:	b29a      	uxth	r2, r3
 800614e:	687b      	ldr	r3, [r7, #4]
 8006150:	839a      	strh	r2, [r3, #28]
}
 8006152:	46c0      	nop			; (mov r8, r8)
 8006154:	46bd      	mov	sp, r7
 8006156:	b004      	add	sp, #16
 8006158:	bd80      	pop	{r7, pc}
 800615a:	46c0      	nop			; (mov r8, r8)
 800615c:	fffff0ff 	.word	0xfffff0ff
 8006160:	fffff7ff 	.word	0xfffff7ff

08006164 <SPI_Cmd>:
  * @param  NewState: new state of the SPIx peripheral. 
  *          This parameter can be: ENABLE or DISABLE.
  * @retval None
  */
void SPI_Cmd(SPI_TypeDef* SPIx, FunctionalState NewState)
{
 8006164:	b580      	push	{r7, lr}
 8006166:	b082      	sub	sp, #8
 8006168:	af00      	add	r7, sp, #0
 800616a:	6078      	str	r0, [r7, #4]
 800616c:	000a      	movs	r2, r1
 800616e:	1cfb      	adds	r3, r7, #3
 8006170:	701a      	strb	r2, [r3, #0]
  /* Check the parameters */
  assert_param(IS_SPI_ALL_PERIPH(SPIx));
  assert_param(IS_FUNCTIONAL_STATE(NewState));

  if (NewState != DISABLE)
 8006172:	1cfb      	adds	r3, r7, #3
 8006174:	781b      	ldrb	r3, [r3, #0]
 8006176:	2b00      	cmp	r3, #0
 8006178:	d008      	beq.n	800618c <SPI_Cmd+0x28>
  {
    /* Enable the selected SPI peripheral */
    SPIx->CR1 |= SPI_CR1_SPE;
 800617a:	687b      	ldr	r3, [r7, #4]
 800617c:	881b      	ldrh	r3, [r3, #0]
 800617e:	b29b      	uxth	r3, r3
 8006180:	2240      	movs	r2, #64	; 0x40
 8006182:	4313      	orrs	r3, r2
 8006184:	b29a      	uxth	r2, r3
 8006186:	687b      	ldr	r3, [r7, #4]
 8006188:	801a      	strh	r2, [r3, #0]
  else
  {
    /* Disable the selected SPI peripheral */
    SPIx->CR1 &= (uint16_t)~((uint16_t)SPI_CR1_SPE);
  }
}
 800618a:	e007      	b.n	800619c <SPI_Cmd+0x38>
    SPIx->CR1 |= SPI_CR1_SPE;
  }
  else
  {
    /* Disable the selected SPI peripheral */
    SPIx->CR1 &= (uint16_t)~((uint16_t)SPI_CR1_SPE);
 800618c:	687b      	ldr	r3, [r7, #4]
 800618e:	881b      	ldrh	r3, [r3, #0]
 8006190:	b29b      	uxth	r3, r3
 8006192:	2240      	movs	r2, #64	; 0x40
 8006194:	4393      	bics	r3, r2
 8006196:	b29a      	uxth	r2, r3
 8006198:	687b      	ldr	r3, [r7, #4]
 800619a:	801a      	strh	r2, [r3, #0]
  }
}
 800619c:	46c0      	nop			; (mov r8, r8)
 800619e:	46bd      	mov	sp, r7
 80061a0:	b002      	add	sp, #8
 80061a2:	bd80      	pop	{r7, pc}

080061a4 <SPI_I2S_DMACmd>:
  * @param  NewState: new state of the selected SPI DMA transfer request.
  *          This parameter can be: ENABLE or DISABLE.
  * @retval None
  */
void SPI_I2S_DMACmd(SPI_TypeDef* SPIx, uint16_t SPI_I2S_DMAReq, FunctionalState NewState)
{
 80061a4:	b580      	push	{r7, lr}
 80061a6:	b082      	sub	sp, #8
 80061a8:	af00      	add	r7, sp, #0
 80061aa:	6078      	str	r0, [r7, #4]
 80061ac:	0008      	movs	r0, r1
 80061ae:	0011      	movs	r1, r2
 80061b0:	1cbb      	adds	r3, r7, #2
 80061b2:	1c02      	adds	r2, r0, #0
 80061b4:	801a      	strh	r2, [r3, #0]
 80061b6:	1c7b      	adds	r3, r7, #1
 80061b8:	1c0a      	adds	r2, r1, #0
 80061ba:	701a      	strb	r2, [r3, #0]
  /* Check the parameters */
  assert_param(IS_SPI_ALL_PERIPH(SPIx));
  assert_param(IS_FUNCTIONAL_STATE(NewState));
  assert_param(IS_SPI_I2S_DMA_REQ(SPI_I2S_DMAReq));

  if (NewState != DISABLE)
 80061bc:	1c7b      	adds	r3, r7, #1
 80061be:	781b      	ldrb	r3, [r3, #0]
 80061c0:	2b00      	cmp	r3, #0
 80061c2:	d009      	beq.n	80061d8 <SPI_I2S_DMACmd+0x34>
  {
    /* Enable the selected SPI DMA requests */
    SPIx->CR2 |= SPI_I2S_DMAReq;
 80061c4:	687b      	ldr	r3, [r7, #4]
 80061c6:	889b      	ldrh	r3, [r3, #4]
 80061c8:	b29a      	uxth	r2, r3
 80061ca:	1cbb      	adds	r3, r7, #2
 80061cc:	881b      	ldrh	r3, [r3, #0]
 80061ce:	4313      	orrs	r3, r2
 80061d0:	b29a      	uxth	r2, r3
 80061d2:	687b      	ldr	r3, [r7, #4]
 80061d4:	809a      	strh	r2, [r3, #4]
  else
  {
    /* Disable the selected SPI DMA requests */
    SPIx->CR2 &= (uint16_t)~SPI_I2S_DMAReq;
  }
}
 80061d6:	e00a      	b.n	80061ee <SPI_I2S_DMACmd+0x4a>
    SPIx->CR2 |= SPI_I2S_DMAReq;
  }
  else
  {
    /* Disable the selected SPI DMA requests */
    SPIx->CR2 &= (uint16_t)~SPI_I2S_DMAReq;
 80061d8:	687b      	ldr	r3, [r7, #4]
 80061da:	889b      	ldrh	r3, [r3, #4]
 80061dc:	b29b      	uxth	r3, r3
 80061de:	1cba      	adds	r2, r7, #2
 80061e0:	8812      	ldrh	r2, [r2, #0]
 80061e2:	43d2      	mvns	r2, r2
 80061e4:	b292      	uxth	r2, r2
 80061e6:	4013      	ands	r3, r2
 80061e8:	b29a      	uxth	r2, r3
 80061ea:	687b      	ldr	r3, [r7, #4]
 80061ec:	809a      	strh	r2, [r3, #4]
  }
}
 80061ee:	46c0      	nop			; (mov r8, r8)
 80061f0:	46bd      	mov	sp, r7
 80061f2:	b002      	add	sp, #8
 80061f4:	bd80      	pop	{r7, pc}
 80061f6:	46c0      	nop			; (mov r8, r8)

080061f8 <RCC_USBCLKConfig>:
  *             @arg RCC_USBCLK_HSI48: USB clock = HSI48
  *             @arg RCC_USBCLK_PLLCLK: USB clock = PLL clock
  * @retval None
  */
void RCC_USBCLKConfig(uint32_t RCC_USBCLK)
{ 
 80061f8:	b580      	push	{r7, lr}
 80061fa:	b082      	sub	sp, #8
 80061fc:	af00      	add	r7, sp, #0
 80061fe:	6078      	str	r0, [r7, #4]
  /* Check the parameters */
  assert_param(IS_RCC_USBCLK(RCC_USBCLK));

  /* Clear USBSW bit */
  RCC->CFGR3 &= ~RCC_CFGR3_USBSW;
 8006200:	4b07      	ldr	r3, [pc, #28]	; (8006220 <RCC_USBCLKConfig+0x28>)
 8006202:	4a07      	ldr	r2, [pc, #28]	; (8006220 <RCC_USBCLKConfig+0x28>)
 8006204:	6b12      	ldr	r2, [r2, #48]	; 0x30
 8006206:	2180      	movs	r1, #128	; 0x80
 8006208:	438a      	bics	r2, r1
 800620a:	631a      	str	r2, [r3, #48]	; 0x30
  /* Set USBSW bits according to RCC_USBCLK value */
  RCC->CFGR3 |= RCC_USBCLK;
 800620c:	4b04      	ldr	r3, [pc, #16]	; (8006220 <RCC_USBCLKConfig+0x28>)
 800620e:	4a04      	ldr	r2, [pc, #16]	; (8006220 <RCC_USBCLKConfig+0x28>)
 8006210:	6b11      	ldr	r1, [r2, #48]	; 0x30
 8006212:	687a      	ldr	r2, [r7, #4]
 8006214:	430a      	orrs	r2, r1
 8006216:	631a      	str	r2, [r3, #48]	; 0x30
}
 8006218:	46c0      	nop			; (mov r8, r8)
 800621a:	46bd      	mov	sp, r7
 800621c:	b002      	add	sp, #8
 800621e:	bd80      	pop	{r7, pc}
 8006220:	40021000 	.word	0x40021000

08006224 <RCC_AHBPeriphClockCmd>:
  * @param  NewState: new state of the specified peripheral clock.
  *          This parameter can be: ENABLE or DISABLE.
  * @retval None
  */
void RCC_AHBPeriphClockCmd(uint32_t RCC_AHBPeriph, FunctionalState NewState)
{
 8006224:	b580      	push	{r7, lr}
 8006226:	b082      	sub	sp, #8
 8006228:	af00      	add	r7, sp, #0
 800622a:	6078      	str	r0, [r7, #4]
 800622c:	000a      	movs	r2, r1
 800622e:	1cfb      	adds	r3, r7, #3
 8006230:	701a      	strb	r2, [r3, #0]
  /* Check the parameters */
  assert_param(IS_RCC_AHB_PERIPH(RCC_AHBPeriph));
  assert_param(IS_FUNCTIONAL_STATE(NewState));
  
  if (NewState != DISABLE)
 8006232:	1cfb      	adds	r3, r7, #3
 8006234:	781b      	ldrb	r3, [r3, #0]
 8006236:	2b00      	cmp	r3, #0
 8006238:	d006      	beq.n	8006248 <RCC_AHBPeriphClockCmd+0x24>
  {
    RCC->AHBENR |= RCC_AHBPeriph;
 800623a:	4b09      	ldr	r3, [pc, #36]	; (8006260 <RCC_AHBPeriphClockCmd+0x3c>)
 800623c:	4a08      	ldr	r2, [pc, #32]	; (8006260 <RCC_AHBPeriphClockCmd+0x3c>)
 800623e:	6951      	ldr	r1, [r2, #20]
 8006240:	687a      	ldr	r2, [r7, #4]
 8006242:	430a      	orrs	r2, r1
 8006244:	615a      	str	r2, [r3, #20]
  }
  else
  {
    RCC->AHBENR &= ~RCC_AHBPeriph;
  }
}
 8006246:	e006      	b.n	8006256 <RCC_AHBPeriphClockCmd+0x32>
  {
    RCC->AHBENR |= RCC_AHBPeriph;
  }
  else
  {
    RCC->AHBENR &= ~RCC_AHBPeriph;
 8006248:	4b05      	ldr	r3, [pc, #20]	; (8006260 <RCC_AHBPeriphClockCmd+0x3c>)
 800624a:	4a05      	ldr	r2, [pc, #20]	; (8006260 <RCC_AHBPeriphClockCmd+0x3c>)
 800624c:	6952      	ldr	r2, [r2, #20]
 800624e:	6879      	ldr	r1, [r7, #4]
 8006250:	43c9      	mvns	r1, r1
 8006252:	400a      	ands	r2, r1
 8006254:	615a      	str	r2, [r3, #20]
  }
}
 8006256:	46c0      	nop			; (mov r8, r8)
 8006258:	46bd      	mov	sp, r7
 800625a:	b002      	add	sp, #8
 800625c:	bd80      	pop	{r7, pc}
 800625e:	46c0      	nop			; (mov r8, r8)
 8006260:	40021000 	.word	0x40021000

08006264 <RCC_APB2PeriphClockCmd>:
  * @param  NewState: new state of the specified peripheral clock.
  *          This parameter can be: ENABLE or DISABLE.
  * @retval None
  */
void RCC_APB2PeriphClockCmd(uint32_t RCC_APB2Periph, FunctionalState NewState)
{
 8006264:	b580      	push	{r7, lr}
 8006266:	b082      	sub	sp, #8
 8006268:	af00      	add	r7, sp, #0
 800626a:	6078      	str	r0, [r7, #4]
 800626c:	000a      	movs	r2, r1
 800626e:	1cfb      	adds	r3, r7, #3
 8006270:	701a      	strb	r2, [r3, #0]
  /* Check the parameters */
  assert_param(IS_RCC_APB2_PERIPH(RCC_APB2Periph));
  assert_param(IS_FUNCTIONAL_STATE(NewState));

  if (NewState != DISABLE)
 8006272:	1cfb      	adds	r3, r7, #3
 8006274:	781b      	ldrb	r3, [r3, #0]
 8006276:	2b00      	cmp	r3, #0
 8006278:	d006      	beq.n	8006288 <RCC_APB2PeriphClockCmd+0x24>
  {
    RCC->APB2ENR |= RCC_APB2Periph;
 800627a:	4b09      	ldr	r3, [pc, #36]	; (80062a0 <RCC_APB2PeriphClockCmd+0x3c>)
 800627c:	4a08      	ldr	r2, [pc, #32]	; (80062a0 <RCC_APB2PeriphClockCmd+0x3c>)
 800627e:	6991      	ldr	r1, [r2, #24]
 8006280:	687a      	ldr	r2, [r7, #4]
 8006282:	430a      	orrs	r2, r1
 8006284:	619a      	str	r2, [r3, #24]
  }
  else
  {
    RCC->APB2ENR &= ~RCC_APB2Periph;
  }
}
 8006286:	e006      	b.n	8006296 <RCC_APB2PeriphClockCmd+0x32>
  {
    RCC->APB2ENR |= RCC_APB2Periph;
  }
  else
  {
    RCC->APB2ENR &= ~RCC_APB2Periph;
 8006288:	4b05      	ldr	r3, [pc, #20]	; (80062a0 <RCC_APB2PeriphClockCmd+0x3c>)
 800628a:	4a05      	ldr	r2, [pc, #20]	; (80062a0 <RCC_APB2PeriphClockCmd+0x3c>)
 800628c:	6992      	ldr	r2, [r2, #24]
 800628e:	6879      	ldr	r1, [r7, #4]
 8006290:	43c9      	mvns	r1, r1
 8006292:	400a      	ands	r2, r1
 8006294:	619a      	str	r2, [r3, #24]
  }
}
 8006296:	46c0      	nop			; (mov r8, r8)
 8006298:	46bd      	mov	sp, r7
 800629a:	b002      	add	sp, #8
 800629c:	bd80      	pop	{r7, pc}
 800629e:	46c0      	nop			; (mov r8, r8)
 80062a0:	40021000 	.word	0x40021000

080062a4 <RCC_APB1PeriphClockCmd>:
  * @param  NewState: new state of the specified peripheral clock.
  *          This parameter can be: ENABLE or DISABLE.
  * @retval None
  */
void RCC_APB1PeriphClockCmd(uint32_t RCC_APB1Periph, FunctionalState NewState)
{
 80062a4:	b580      	push	{r7, lr}
 80062a6:	b082      	sub	sp, #8
 80062a8:	af00      	add	r7, sp, #0
 80062aa:	6078      	str	r0, [r7, #4]
 80062ac:	000a      	movs	r2, r1
 80062ae:	1cfb      	adds	r3, r7, #3
 80062b0:	701a      	strb	r2, [r3, #0]
  /* Check the parameters */
  assert_param(IS_RCC_APB1_PERIPH(RCC_APB1Periph));
  assert_param(IS_FUNCTIONAL_STATE(NewState));

  if (NewState != DISABLE)
 80062b2:	1cfb      	adds	r3, r7, #3
 80062b4:	781b      	ldrb	r3, [r3, #0]
 80062b6:	2b00      	cmp	r3, #0
 80062b8:	d006      	beq.n	80062c8 <RCC_APB1PeriphClockCmd+0x24>
  {
    RCC->APB1ENR |= RCC_APB1Periph;
 80062ba:	4b09      	ldr	r3, [pc, #36]	; (80062e0 <RCC_APB1PeriphClockCmd+0x3c>)
 80062bc:	4a08      	ldr	r2, [pc, #32]	; (80062e0 <RCC_APB1PeriphClockCmd+0x3c>)
 80062be:	69d1      	ldr	r1, [r2, #28]
 80062c0:	687a      	ldr	r2, [r7, #4]
 80062c2:	430a      	orrs	r2, r1
 80062c4:	61da      	str	r2, [r3, #28]
  }
  else
  {
    RCC->APB1ENR &= ~RCC_APB1Periph;
  }
}
 80062c6:	e006      	b.n	80062d6 <RCC_APB1PeriphClockCmd+0x32>
  {
    RCC->APB1ENR |= RCC_APB1Periph;
  }
  else
  {
    RCC->APB1ENR &= ~RCC_APB1Periph;
 80062c8:	4b05      	ldr	r3, [pc, #20]	; (80062e0 <RCC_APB1PeriphClockCmd+0x3c>)
 80062ca:	4a05      	ldr	r2, [pc, #20]	; (80062e0 <RCC_APB1PeriphClockCmd+0x3c>)
 80062cc:	69d2      	ldr	r2, [r2, #28]
 80062ce:	6879      	ldr	r1, [r7, #4]
 80062d0:	43c9      	mvns	r1, r1
 80062d2:	400a      	ands	r2, r1
 80062d4:	61da      	str	r2, [r3, #28]
  }
}
 80062d6:	46c0      	nop			; (mov r8, r8)
 80062d8:	46bd      	mov	sp, r7
 80062da:	b002      	add	sp, #8
 80062dc:	bd80      	pop	{r7, pc}
 80062de:	46c0      	nop			; (mov r8, r8)
 80062e0:	40021000 	.word	0x40021000

080062e4 <NVIC_Init>:
  * @param  NVIC_InitStruct: pointer to a NVIC_InitTypeDef structure that contains
  *         the configuration information for the specified NVIC peripheral.
  * @retval None
  */
void NVIC_Init(NVIC_InitTypeDef* NVIC_InitStruct)
{
 80062e4:	b580      	push	{r7, lr}
 80062e6:	b084      	sub	sp, #16
 80062e8:	af00      	add	r7, sp, #0
 80062ea:	6078      	str	r0, [r7, #4]
  uint32_t tmppriority = 0x00;
 80062ec:	2300      	movs	r3, #0
 80062ee:	60fb      	str	r3, [r7, #12]
  
  /* Check the parameters */
  assert_param(IS_FUNCTIONAL_STATE(NVIC_InitStruct->NVIC_IRQChannelCmd));
  assert_param(IS_NVIC_PRIORITY(NVIC_InitStruct->NVIC_IRQChannelPriority));  
    
  if (NVIC_InitStruct->NVIC_IRQChannelCmd != DISABLE)
 80062f0:	687b      	ldr	r3, [r7, #4]
 80062f2:	789b      	ldrb	r3, [r3, #2]
 80062f4:	2b00      	cmp	r3, #0
 80062f6:	d039      	beq.n	800636c <NVIC_Init+0x88>
  {
    /* Compute the Corresponding IRQ Priority --------------------------------*/    
    tmppriority = NVIC->IP[NVIC_InitStruct->NVIC_IRQChannel >> 0x02];
 80062f8:	4a24      	ldr	r2, [pc, #144]	; (800638c <NVIC_Init+0xa8>)
 80062fa:	687b      	ldr	r3, [r7, #4]
 80062fc:	781b      	ldrb	r3, [r3, #0]
 80062fe:	089b      	lsrs	r3, r3, #2
 8006300:	b2db      	uxtb	r3, r3
 8006302:	33c0      	adds	r3, #192	; 0xc0
 8006304:	009b      	lsls	r3, r3, #2
 8006306:	589b      	ldr	r3, [r3, r2]
 8006308:	60fb      	str	r3, [r7, #12]
    tmppriority &= (uint32_t)(~(((uint32_t)0xFF) << ((NVIC_InitStruct->NVIC_IRQChannel & 0x03) * 8)));
 800630a:	687b      	ldr	r3, [r7, #4]
 800630c:	781b      	ldrb	r3, [r3, #0]
 800630e:	001a      	movs	r2, r3
 8006310:	2303      	movs	r3, #3
 8006312:	4013      	ands	r3, r2
 8006314:	00db      	lsls	r3, r3, #3
 8006316:	22ff      	movs	r2, #255	; 0xff
 8006318:	409a      	lsls	r2, r3
 800631a:	0013      	movs	r3, r2
 800631c:	43da      	mvns	r2, r3
 800631e:	68fb      	ldr	r3, [r7, #12]
 8006320:	4013      	ands	r3, r2
 8006322:	60fb      	str	r3, [r7, #12]
    tmppriority |= (uint32_t)((((uint32_t)NVIC_InitStruct->NVIC_IRQChannelPriority << 6) & 0xFF) << ((NVIC_InitStruct->NVIC_IRQChannel & 0x03) * 8));    
 8006324:	687b      	ldr	r3, [r7, #4]
 8006326:	785b      	ldrb	r3, [r3, #1]
 8006328:	019b      	lsls	r3, r3, #6
 800632a:	22ff      	movs	r2, #255	; 0xff
 800632c:	401a      	ands	r2, r3
 800632e:	687b      	ldr	r3, [r7, #4]
 8006330:	781b      	ldrb	r3, [r3, #0]
 8006332:	0019      	movs	r1, r3
 8006334:	2303      	movs	r3, #3
 8006336:	400b      	ands	r3, r1
 8006338:	00db      	lsls	r3, r3, #3
 800633a:	409a      	lsls	r2, r3
 800633c:	0013      	movs	r3, r2
 800633e:	68fa      	ldr	r2, [r7, #12]
 8006340:	4313      	orrs	r3, r2
 8006342:	60fb      	str	r3, [r7, #12]
    
    NVIC->IP[NVIC_InitStruct->NVIC_IRQChannel >> 0x02] = tmppriority;
 8006344:	4911      	ldr	r1, [pc, #68]	; (800638c <NVIC_Init+0xa8>)
 8006346:	687b      	ldr	r3, [r7, #4]
 8006348:	781b      	ldrb	r3, [r3, #0]
 800634a:	089b      	lsrs	r3, r3, #2
 800634c:	b2db      	uxtb	r3, r3
 800634e:	33c0      	adds	r3, #192	; 0xc0
 8006350:	009b      	lsls	r3, r3, #2
 8006352:	68fa      	ldr	r2, [r7, #12]
 8006354:	505a      	str	r2, [r3, r1]
    
    /* Enable the Selected IRQ Channels --------------------------------------*/
    NVIC->ISER[0] = (uint32_t)0x01 << (NVIC_InitStruct->NVIC_IRQChannel & (uint8_t)0x1F);
 8006356:	4b0d      	ldr	r3, [pc, #52]	; (800638c <NVIC_Init+0xa8>)
 8006358:	687a      	ldr	r2, [r7, #4]
 800635a:	7812      	ldrb	r2, [r2, #0]
 800635c:	0011      	movs	r1, r2
 800635e:	221f      	movs	r2, #31
 8006360:	400a      	ands	r2, r1
 8006362:	2101      	movs	r1, #1
 8006364:	4091      	lsls	r1, r2
 8006366:	000a      	movs	r2, r1
 8006368:	601a      	str	r2, [r3, #0]
  else
  {
    /* Disable the Selected IRQ Channels -------------------------------------*/
    NVIC->ICER[0] = (uint32_t)0x01 << (NVIC_InitStruct->NVIC_IRQChannel & (uint8_t)0x1F);
  }
}
 800636a:	e00a      	b.n	8006382 <NVIC_Init+0x9e>
    NVIC->ISER[0] = (uint32_t)0x01 << (NVIC_InitStruct->NVIC_IRQChannel & (uint8_t)0x1F);
  }
  else
  {
    /* Disable the Selected IRQ Channels -------------------------------------*/
    NVIC->ICER[0] = (uint32_t)0x01 << (NVIC_InitStruct->NVIC_IRQChannel & (uint8_t)0x1F);
 800636c:	4907      	ldr	r1, [pc, #28]	; (800638c <NVIC_Init+0xa8>)
 800636e:	687b      	ldr	r3, [r7, #4]
 8006370:	781b      	ldrb	r3, [r3, #0]
 8006372:	001a      	movs	r2, r3
 8006374:	231f      	movs	r3, #31
 8006376:	4013      	ands	r3, r2
 8006378:	2201      	movs	r2, #1
 800637a:	409a      	lsls	r2, r3
 800637c:	0013      	movs	r3, r2
 800637e:	2280      	movs	r2, #128	; 0x80
 8006380:	508b      	str	r3, [r1, r2]
  }
}
 8006382:	46c0      	nop			; (mov r8, r8)
 8006384:	46bd      	mov	sp, r7
 8006386:	b004      	add	sp, #16
 8006388:	bd80      	pop	{r7, pc}
 800638a:	46c0      	nop			; (mov r8, r8)
 800638c:	e000e100 	.word	0xe000e100

08006390 <SysTick_CLKSourceConfig>:
  *            @arg SysTick_CLKSource_HCLK_Div8: AHB clock divided by 8 selected as SysTick clock source.
  *            @arg SysTick_CLKSource_HCLK: AHB clock selected as SysTick clock source.
  * @retval None
  */
void SysTick_CLKSourceConfig(uint32_t SysTick_CLKSource)
{
 8006390:	b580      	push	{r7, lr}
 8006392:	b082      	sub	sp, #8
 8006394:	af00      	add	r7, sp, #0
 8006396:	6078      	str	r0, [r7, #4]
  /* Check the parameters */
  assert_param(IS_SYSTICK_CLK_SOURCE(SysTick_CLKSource));
  
  if (SysTick_CLKSource == SysTick_CLKSource_HCLK)
 8006398:	687b      	ldr	r3, [r7, #4]
 800639a:	2b04      	cmp	r3, #4
 800639c:	d106      	bne.n	80063ac <SysTick_CLKSourceConfig+0x1c>
  {
    SysTick->CTRL |= SysTick_CLKSource_HCLK;
 800639e:	4b08      	ldr	r3, [pc, #32]	; (80063c0 <SysTick_CLKSourceConfig+0x30>)
 80063a0:	4a07      	ldr	r2, [pc, #28]	; (80063c0 <SysTick_CLKSourceConfig+0x30>)
 80063a2:	6812      	ldr	r2, [r2, #0]
 80063a4:	2104      	movs	r1, #4
 80063a6:	430a      	orrs	r2, r1
 80063a8:	601a      	str	r2, [r3, #0]
  }
  else
  {
    SysTick->CTRL &= SysTick_CLKSource_HCLK_Div8;
  }
}
 80063aa:	e005      	b.n	80063b8 <SysTick_CLKSourceConfig+0x28>
  {
    SysTick->CTRL |= SysTick_CLKSource_HCLK;
  }
  else
  {
    SysTick->CTRL &= SysTick_CLKSource_HCLK_Div8;
 80063ac:	4b04      	ldr	r3, [pc, #16]	; (80063c0 <SysTick_CLKSourceConfig+0x30>)
 80063ae:	4a04      	ldr	r2, [pc, #16]	; (80063c0 <SysTick_CLKSourceConfig+0x30>)
 80063b0:	6812      	ldr	r2, [r2, #0]
 80063b2:	2104      	movs	r1, #4
 80063b4:	438a      	bics	r2, r1
 80063b6:	601a      	str	r2, [r3, #0]
  }
}
 80063b8:	46c0      	nop			; (mov r8, r8)
 80063ba:	46bd      	mov	sp, r7
 80063bc:	b002      	add	sp, #8
 80063be:	bd80      	pop	{r7, pc}
 80063c0:	e000e010 	.word	0xe000e010

080063c4 <I2C_Init>:
  * @param  I2C_InitStruct: pointer to a I2C_InitTypeDef structure that
  *         contains the configuration information for the specified I2C peripheral.
  * @retval None
  */
void I2C_Init(I2C_TypeDef* I2Cx, I2C_InitTypeDef* I2C_InitStruct)
{
 80063c4:	b580      	push	{r7, lr}
 80063c6:	b084      	sub	sp, #16
 80063c8:	af00      	add	r7, sp, #0
 80063ca:	6078      	str	r0, [r7, #4]
 80063cc:	6039      	str	r1, [r7, #0]
  uint32_t tmpreg = 0;
 80063ce:	2300      	movs	r3, #0
 80063d0:	60fb      	str	r3, [r7, #12]
  assert_param(IS_I2C_OWN_ADDRESS1(I2C_InitStruct->I2C_OwnAddress1));
  assert_param(IS_I2C_ACK(I2C_InitStruct->I2C_Ack));
  assert_param(IS_I2C_ACKNOWLEDGE_ADDRESS(I2C_InitStruct->I2C_AcknowledgedAddress));

  /* Disable I2Cx Peripheral */
  I2Cx->CR1 &= (uint32_t)~((uint32_t)I2C_CR1_PE);
 80063d2:	687b      	ldr	r3, [r7, #4]
 80063d4:	681b      	ldr	r3, [r3, #0]
 80063d6:	2201      	movs	r2, #1
 80063d8:	4393      	bics	r3, r2
 80063da:	001a      	movs	r2, r3
 80063dc:	687b      	ldr	r3, [r7, #4]
 80063de:	601a      	str	r2, [r3, #0]

  /*---------------------------- I2Cx FILTERS Configuration ------------------*/
  /* Get the I2Cx CR1 value */
  tmpreg = I2Cx->CR1;
 80063e0:	687b      	ldr	r3, [r7, #4]
 80063e2:	681b      	ldr	r3, [r3, #0]
 80063e4:	60fb      	str	r3, [r7, #12]
  /* Clear I2Cx CR1 register */
  tmpreg &= CR1_CLEAR_MASK;
 80063e6:	68fb      	ldr	r3, [r7, #12]
 80063e8:	4a27      	ldr	r2, [pc, #156]	; (8006488 <I2C_Init+0xc4>)
 80063ea:	4013      	ands	r3, r2
 80063ec:	60fb      	str	r3, [r7, #12]
  /* Configure I2Cx: analog and digital filter */
  /* Set ANFOFF bit according to I2C_AnalogFilter value */
  /* Set DFN bits according to I2C_DigitalFilter value */
  tmpreg |= (uint32_t)I2C_InitStruct->I2C_AnalogFilter |(I2C_InitStruct->I2C_DigitalFilter << 8);
 80063ee:	683b      	ldr	r3, [r7, #0]
 80063f0:	685a      	ldr	r2, [r3, #4]
 80063f2:	683b      	ldr	r3, [r7, #0]
 80063f4:	689b      	ldr	r3, [r3, #8]
 80063f6:	021b      	lsls	r3, r3, #8
 80063f8:	4313      	orrs	r3, r2
 80063fa:	68fa      	ldr	r2, [r7, #12]
 80063fc:	4313      	orrs	r3, r2
 80063fe:	60fb      	str	r3, [r7, #12]

  /* Write to I2Cx CR1 */
  I2Cx->CR1 = tmpreg;
 8006400:	687b      	ldr	r3, [r7, #4]
 8006402:	68fa      	ldr	r2, [r7, #12]
 8006404:	601a      	str	r2, [r3, #0]

  /*---------------------------- I2Cx TIMING Configuration -------------------*/
  /* Configure I2Cx: Timing */
  /* Set TIMINGR bits according to I2C_Timing */
  /* Write to I2Cx TIMING */
  I2Cx->TIMINGR = I2C_InitStruct->I2C_Timing & TIMING_CLEAR_MASK;
 8006406:	683b      	ldr	r3, [r7, #0]
 8006408:	681b      	ldr	r3, [r3, #0]
 800640a:	4a20      	ldr	r2, [pc, #128]	; (800648c <I2C_Init+0xc8>)
 800640c:	401a      	ands	r2, r3
 800640e:	687b      	ldr	r3, [r7, #4]
 8006410:	611a      	str	r2, [r3, #16]

  /* Enable I2Cx Peripheral */
  I2Cx->CR1 |= I2C_CR1_PE;
 8006412:	687b      	ldr	r3, [r7, #4]
 8006414:	681b      	ldr	r3, [r3, #0]
 8006416:	2201      	movs	r2, #1
 8006418:	431a      	orrs	r2, r3
 800641a:	687b      	ldr	r3, [r7, #4]
 800641c:	601a      	str	r2, [r3, #0]

  /*---------------------------- I2Cx OAR1 Configuration ---------------------*/
  /* Clear tmpreg local variable */
  tmpreg = 0;
 800641e:	2300      	movs	r3, #0
 8006420:	60fb      	str	r3, [r7, #12]
  /* Clear OAR1 register */
  I2Cx->OAR1 = (uint32_t)tmpreg;
 8006422:	687b      	ldr	r3, [r7, #4]
 8006424:	68fa      	ldr	r2, [r7, #12]
 8006426:	609a      	str	r2, [r3, #8]
  /* Clear OAR2 register */
  I2Cx->OAR2 = (uint32_t)tmpreg;
 8006428:	687b      	ldr	r3, [r7, #4]
 800642a:	68fa      	ldr	r2, [r7, #12]
 800642c:	60da      	str	r2, [r3, #12]
  /* Configure I2Cx: Own Address1 and acknowledged address */
  /* Set OA1MODE bit according to I2C_AcknowledgedAddress value */
  /* Set OA1 bits according to I2C_OwnAddress1 value */
  tmpreg = (uint32_t)((uint32_t)I2C_InitStruct->I2C_AcknowledgedAddress | \
 800642e:	683b      	ldr	r3, [r7, #0]
 8006430:	699a      	ldr	r2, [r3, #24]
                      (uint32_t)I2C_InitStruct->I2C_OwnAddress1);
 8006432:	683b      	ldr	r3, [r7, #0]
 8006434:	691b      	ldr	r3, [r3, #16]
  /* Clear OAR2 register */
  I2Cx->OAR2 = (uint32_t)tmpreg;
  /* Configure I2Cx: Own Address1 and acknowledged address */
  /* Set OA1MODE bit according to I2C_AcknowledgedAddress value */
  /* Set OA1 bits according to I2C_OwnAddress1 value */
  tmpreg = (uint32_t)((uint32_t)I2C_InitStruct->I2C_AcknowledgedAddress | \
 8006436:	4313      	orrs	r3, r2
 8006438:	60fb      	str	r3, [r7, #12]
                      (uint32_t)I2C_InitStruct->I2C_OwnAddress1);
  /* Write to I2Cx OAR1 */
  I2Cx->OAR1 = tmpreg;
 800643a:	687b      	ldr	r3, [r7, #4]
 800643c:	68fa      	ldr	r2, [r7, #12]
 800643e:	609a      	str	r2, [r3, #8]
  /* Enable Own Address1 acknowledgement */
  I2Cx->OAR1 |= I2C_OAR1_OA1EN;
 8006440:	687b      	ldr	r3, [r7, #4]
 8006442:	689b      	ldr	r3, [r3, #8]
 8006444:	2280      	movs	r2, #128	; 0x80
 8006446:	0212      	lsls	r2, r2, #8
 8006448:	431a      	orrs	r2, r3
 800644a:	687b      	ldr	r3, [r7, #4]
 800644c:	609a      	str	r2, [r3, #8]

  /*---------------------------- I2Cx MODE Configuration ---------------------*/
  /* Configure I2Cx: mode */
  /* Set SMBDEN and SMBHEN bits according to I2C_Mode value */
  tmpreg = I2C_InitStruct->I2C_Mode;
 800644e:	683b      	ldr	r3, [r7, #0]
 8006450:	68db      	ldr	r3, [r3, #12]
 8006452:	60fb      	str	r3, [r7, #12]
  /* Write to I2Cx CR1 */
  I2Cx->CR1 |= tmpreg;
 8006454:	687b      	ldr	r3, [r7, #4]
 8006456:	681a      	ldr	r2, [r3, #0]
 8006458:	68fb      	ldr	r3, [r7, #12]
 800645a:	431a      	orrs	r2, r3
 800645c:	687b      	ldr	r3, [r7, #4]
 800645e:	601a      	str	r2, [r3, #0]

  /*---------------------------- I2Cx ACK Configuration ----------------------*/
  /* Get the I2Cx CR2 value */
  tmpreg = I2Cx->CR2;
 8006460:	687b      	ldr	r3, [r7, #4]
 8006462:	685b      	ldr	r3, [r3, #4]
 8006464:	60fb      	str	r3, [r7, #12]
  /* Clear I2Cx CR2 register */
  tmpreg &= CR2_CLEAR_MASK;
 8006466:	68fb      	ldr	r3, [r7, #12]
 8006468:	4a09      	ldr	r2, [pc, #36]	; (8006490 <I2C_Init+0xcc>)
 800646a:	4013      	ands	r3, r2
 800646c:	60fb      	str	r3, [r7, #12]
  /* Configure I2Cx: acknowledgement */
  /* Set NACK bit according to I2C_Ack value */
  tmpreg |= I2C_InitStruct->I2C_Ack;
 800646e:	683b      	ldr	r3, [r7, #0]
 8006470:	695b      	ldr	r3, [r3, #20]
 8006472:	68fa      	ldr	r2, [r7, #12]
 8006474:	4313      	orrs	r3, r2
 8006476:	60fb      	str	r3, [r7, #12]
  /* Write to I2Cx CR2 */
  I2Cx->CR2 = tmpreg;
 8006478:	687b      	ldr	r3, [r7, #4]
 800647a:	68fa      	ldr	r2, [r7, #12]
 800647c:	605a      	str	r2, [r3, #4]
}
 800647e:	46c0      	nop			; (mov r8, r8)
 8006480:	46bd      	mov	sp, r7
 8006482:	b004      	add	sp, #16
 8006484:	bd80      	pop	{r7, pc}
 8006486:	46c0      	nop			; (mov r8, r8)
 8006488:	00cfe0ff 	.word	0x00cfe0ff
 800648c:	f0ffffff 	.word	0xf0ffffff
 8006490:	07ff7fff 	.word	0x07ff7fff

08006494 <I2C_Cmd>:
  * @param  NewState: new state of the I2Cx peripheral. 
  *          This parameter can be: ENABLE or DISABLE.
  * @retval None
  */
void I2C_Cmd(I2C_TypeDef* I2Cx, FunctionalState NewState)
{
 8006494:	b580      	push	{r7, lr}
 8006496:	b082      	sub	sp, #8
 8006498:	af00      	add	r7, sp, #0
 800649a:	6078      	str	r0, [r7, #4]
 800649c:	000a      	movs	r2, r1
 800649e:	1cfb      	adds	r3, r7, #3
 80064a0:	701a      	strb	r2, [r3, #0]
  /* Check the parameters */
  assert_param(IS_I2C_ALL_PERIPH(I2Cx));
  assert_param(IS_FUNCTIONAL_STATE(NewState));
  if (NewState != DISABLE)
 80064a2:	1cfb      	adds	r3, r7, #3
 80064a4:	781b      	ldrb	r3, [r3, #0]
 80064a6:	2b00      	cmp	r3, #0
 80064a8:	d006      	beq.n	80064b8 <I2C_Cmd+0x24>
  {
    /* Enable the selected I2C peripheral */
    I2Cx->CR1 |= I2C_CR1_PE;
 80064aa:	687b      	ldr	r3, [r7, #4]
 80064ac:	681b      	ldr	r3, [r3, #0]
 80064ae:	2201      	movs	r2, #1
 80064b0:	431a      	orrs	r2, r3
 80064b2:	687b      	ldr	r3, [r7, #4]
 80064b4:	601a      	str	r2, [r3, #0]
  else
  {
    /* Disable the selected I2C peripheral */
    I2Cx->CR1 &= (uint32_t)~((uint32_t)I2C_CR1_PE);
  }
}
 80064b6:	e006      	b.n	80064c6 <I2C_Cmd+0x32>
    I2Cx->CR1 |= I2C_CR1_PE;
  }
  else
  {
    /* Disable the selected I2C peripheral */
    I2Cx->CR1 &= (uint32_t)~((uint32_t)I2C_CR1_PE);
 80064b8:	687b      	ldr	r3, [r7, #4]
 80064ba:	681b      	ldr	r3, [r3, #0]
 80064bc:	2201      	movs	r2, #1
 80064be:	4393      	bics	r3, r2
 80064c0:	001a      	movs	r2, r3
 80064c2:	687b      	ldr	r3, [r7, #4]
 80064c4:	601a      	str	r2, [r3, #0]
  }
}
 80064c6:	46c0      	nop			; (mov r8, r8)
 80064c8:	46bd      	mov	sp, r7
 80064ca:	b002      	add	sp, #8
 80064cc:	bd80      	pop	{r7, pc}
 80064ce:	46c0      	nop			; (mov r8, r8)

080064d0 <I2C_TransferHandling>:
  *            @arg I2C_Generate_Start_Read: Generate Restart for read request.
  *            @arg I2C_Generate_Start_Write: Generate Restart for write request.
  * @retval None
  */
void I2C_TransferHandling(I2C_TypeDef* I2Cx, uint16_t Address, uint8_t Number_Bytes, uint32_t ReloadEndMode, uint32_t StartStopMode)
{
 80064d0:	b580      	push	{r7, lr}
 80064d2:	b086      	sub	sp, #24
 80064d4:	af00      	add	r7, sp, #0
 80064d6:	60f8      	str	r0, [r7, #12]
 80064d8:	0008      	movs	r0, r1
 80064da:	0011      	movs	r1, r2
 80064dc:	607b      	str	r3, [r7, #4]
 80064de:	230a      	movs	r3, #10
 80064e0:	18fb      	adds	r3, r7, r3
 80064e2:	1c02      	adds	r2, r0, #0
 80064e4:	801a      	strh	r2, [r3, #0]
 80064e6:	2309      	movs	r3, #9
 80064e8:	18fb      	adds	r3, r7, r3
 80064ea:	1c0a      	adds	r2, r1, #0
 80064ec:	701a      	strb	r2, [r3, #0]
  uint32_t tmpreg = 0;
 80064ee:	2300      	movs	r3, #0
 80064f0:	617b      	str	r3, [r7, #20]
  assert_param(IS_I2C_SLAVE_ADDRESS(Address));  
  assert_param(IS_RELOAD_END_MODE(ReloadEndMode));
  assert_param(IS_START_STOP_MODE(StartStopMode));
    
  /* Get the CR2 register value */
  tmpreg = I2Cx->CR2;
 80064f2:	68fb      	ldr	r3, [r7, #12]
 80064f4:	685b      	ldr	r3, [r3, #4]
 80064f6:	617b      	str	r3, [r7, #20]
  
  /* clear tmpreg specific bits */
  tmpreg &= (uint32_t)~((uint32_t)(I2C_CR2_SADD | I2C_CR2_NBYTES | I2C_CR2_RELOAD | I2C_CR2_AUTOEND | I2C_CR2_RD_WRN | I2C_CR2_START | I2C_CR2_STOP));
 80064f8:	697b      	ldr	r3, [r7, #20]
 80064fa:	4a0f      	ldr	r2, [pc, #60]	; (8006538 <I2C_TransferHandling+0x68>)
 80064fc:	4013      	ands	r3, r2
 80064fe:	617b      	str	r3, [r7, #20]
  
  /* update tmpreg */
  tmpreg |= (uint32_t)(((uint32_t)Address & I2C_CR2_SADD) | (((uint32_t)Number_Bytes << 16 ) & I2C_CR2_NBYTES) | \
 8006500:	230a      	movs	r3, #10
 8006502:	18fb      	adds	r3, r7, r3
 8006504:	881b      	ldrh	r3, [r3, #0]
 8006506:	059b      	lsls	r3, r3, #22
 8006508:	0d9a      	lsrs	r2, r3, #22
 800650a:	2309      	movs	r3, #9
 800650c:	18fb      	adds	r3, r7, r3
 800650e:	781b      	ldrb	r3, [r3, #0]
 8006510:	0419      	lsls	r1, r3, #16
 8006512:	23ff      	movs	r3, #255	; 0xff
 8006514:	041b      	lsls	r3, r3, #16
 8006516:	400b      	ands	r3, r1
 8006518:	431a      	orrs	r2, r3
 800651a:	687b      	ldr	r3, [r7, #4]
 800651c:	431a      	orrs	r2, r3
 800651e:	6a3b      	ldr	r3, [r7, #32]
 8006520:	4313      	orrs	r3, r2
 8006522:	697a      	ldr	r2, [r7, #20]
 8006524:	4313      	orrs	r3, r2
 8006526:	617b      	str	r3, [r7, #20]
            (uint32_t)ReloadEndMode | (uint32_t)StartStopMode);
  
  /* update CR2 register */
  I2Cx->CR2 = tmpreg;  
 8006528:	68fb      	ldr	r3, [r7, #12]
 800652a:	697a      	ldr	r2, [r7, #20]
 800652c:	605a      	str	r2, [r3, #4]
}
 800652e:	46c0      	nop			; (mov r8, r8)
 8006530:	46bd      	mov	sp, r7
 8006532:	b006      	add	sp, #24
 8006534:	bd80      	pop	{r7, pc}
 8006536:	46c0      	nop			; (mov r8, r8)
 8006538:	fc009800 	.word	0xfc009800

0800653c <I2C_SendData>:
  * @param  I2Cx: where x can be 1 or 2 to select the I2C peripheral.
  * @param  Data: Byte to be transmitted..
  * @retval None
  */
void I2C_SendData(I2C_TypeDef* I2Cx, uint8_t Data)
{
 800653c:	b580      	push	{r7, lr}
 800653e:	b082      	sub	sp, #8
 8006540:	af00      	add	r7, sp, #0
 8006542:	6078      	str	r0, [r7, #4]
 8006544:	000a      	movs	r2, r1
 8006546:	1cfb      	adds	r3, r7, #3
 8006548:	701a      	strb	r2, [r3, #0]
  /* Check the parameters */
  assert_param(IS_I2C_ALL_PERIPH(I2Cx));
  
  /* Write in the DR register the data to be sent */
  I2Cx->TXDR = (uint8_t)Data;
 800654a:	1cfb      	adds	r3, r7, #3
 800654c:	781a      	ldrb	r2, [r3, #0]
 800654e:	687b      	ldr	r3, [r7, #4]
 8006550:	629a      	str	r2, [r3, #40]	; 0x28
}
 8006552:	46c0      	nop			; (mov r8, r8)
 8006554:	46bd      	mov	sp, r7
 8006556:	b002      	add	sp, #8
 8006558:	bd80      	pop	{r7, pc}
 800655a:	46c0      	nop			; (mov r8, r8)

0800655c <I2C_ReceiveData>:
  * @brief  Returns the most recent received data by the I2Cx peripheral.
  * @param  I2Cx: where x can be 1 or 2 to select the I2C peripheral.
  * @retval The value of the received data.
  */
uint8_t I2C_ReceiveData(I2C_TypeDef* I2Cx)
{
 800655c:	b580      	push	{r7, lr}
 800655e:	b082      	sub	sp, #8
 8006560:	af00      	add	r7, sp, #0
 8006562:	6078      	str	r0, [r7, #4]
  /* Check the parameters */
  assert_param(IS_I2C_ALL_PERIPH(I2Cx));
  
  /* Return the data in the DR register */
  return (uint8_t)I2Cx->RXDR;
 8006564:	687b      	ldr	r3, [r7, #4]
 8006566:	6a5b      	ldr	r3, [r3, #36]	; 0x24
 8006568:	b2db      	uxtb	r3, r3
}  
 800656a:	0018      	movs	r0, r3
 800656c:	46bd      	mov	sp, r7
 800656e:	b002      	add	sp, #8
 8006570:	bd80      	pop	{r7, pc}
 8006572:	46c0      	nop			; (mov r8, r8)

08006574 <I2C_GetFlagStatus>:
  *            @arg I2C_FLAG_ALERT: SMBus Alert
  *            @arg I2C_FLAG_BUSY: Bus busy
  * @retval The new state of I2C_FLAG (SET or RESET).
  */
FlagStatus I2C_GetFlagStatus(I2C_TypeDef* I2Cx, uint32_t I2C_FLAG)
{
 8006574:	b580      	push	{r7, lr}
 8006576:	b084      	sub	sp, #16
 8006578:	af00      	add	r7, sp, #0
 800657a:	6078      	str	r0, [r7, #4]
 800657c:	6039      	str	r1, [r7, #0]
  uint32_t tmpreg = 0;
 800657e:	2300      	movs	r3, #0
 8006580:	60bb      	str	r3, [r7, #8]
  FlagStatus bitstatus = RESET;
 8006582:	230f      	movs	r3, #15
 8006584:	18fb      	adds	r3, r7, r3
 8006586:	2200      	movs	r2, #0
 8006588:	701a      	strb	r2, [r3, #0]
  /* Check the parameters */
  assert_param(IS_I2C_ALL_PERIPH(I2Cx));
  assert_param(IS_I2C_GET_FLAG(I2C_FLAG));
  
  /* Get the ISR register value */
  tmpreg = I2Cx->ISR;
 800658a:	687b      	ldr	r3, [r7, #4]
 800658c:	699b      	ldr	r3, [r3, #24]
 800658e:	60bb      	str	r3, [r7, #8]
  
  /* Get flag status */
  tmpreg &= I2C_FLAG;
 8006590:	68bb      	ldr	r3, [r7, #8]
 8006592:	683a      	ldr	r2, [r7, #0]
 8006594:	4013      	ands	r3, r2
 8006596:	60bb      	str	r3, [r7, #8]
  
  if(tmpreg != 0)
 8006598:	68bb      	ldr	r3, [r7, #8]
 800659a:	2b00      	cmp	r3, #0
 800659c:	d004      	beq.n	80065a8 <I2C_GetFlagStatus+0x34>
  {
    /* I2C_FLAG is set */
    bitstatus = SET;
 800659e:	230f      	movs	r3, #15
 80065a0:	18fb      	adds	r3, r7, r3
 80065a2:	2201      	movs	r2, #1
 80065a4:	701a      	strb	r2, [r3, #0]
 80065a6:	e003      	b.n	80065b0 <I2C_GetFlagStatus+0x3c>
  }
  else
  {
    /* I2C_FLAG is reset */
    bitstatus = RESET;
 80065a8:	230f      	movs	r3, #15
 80065aa:	18fb      	adds	r3, r7, r3
 80065ac:	2200      	movs	r2, #0
 80065ae:	701a      	strb	r2, [r3, #0]
  }
  return bitstatus;
 80065b0:	230f      	movs	r3, #15
 80065b2:	18fb      	adds	r3, r7, r3
 80065b4:	781b      	ldrb	r3, [r3, #0]
} 
 80065b6:	0018      	movs	r0, r3
 80065b8:	46bd      	mov	sp, r7
 80065ba:	b004      	add	sp, #16
 80065bc:	bd80      	pop	{r7, pc}
 80065be:	46c0      	nop			; (mov r8, r8)

080065c0 <I2C_ClearFlag>:
  *            @arg I2C_FLAG_TIMEOUT: Timeout or Tlow detection flag
  *            @arg I2C_FLAG_ALERT: SMBus Alert
  * @retval The new state of I2C_FLAG (SET or RESET).
  */
void I2C_ClearFlag(I2C_TypeDef* I2Cx, uint32_t I2C_FLAG)
{ 
 80065c0:	b580      	push	{r7, lr}
 80065c2:	b082      	sub	sp, #8
 80065c4:	af00      	add	r7, sp, #0
 80065c6:	6078      	str	r0, [r7, #4]
 80065c8:	6039      	str	r1, [r7, #0]
  /* Check the parameters */
  assert_param(IS_I2C_ALL_PERIPH(I2Cx));
  assert_param(IS_I2C_CLEAR_FLAG(I2C_FLAG));

  /* Clear the selected flag */
  I2Cx->ICR = I2C_FLAG;
 80065ca:	687b      	ldr	r3, [r7, #4]
 80065cc:	683a      	ldr	r2, [r7, #0]
 80065ce:	61da      	str	r2, [r3, #28]
  }
 80065d0:	46c0      	nop			; (mov r8, r8)
 80065d2:	46bd      	mov	sp, r7
 80065d4:	b002      	add	sp, #8
 80065d6:	bd80      	pop	{r7, pc}

080065d8 <GPIO_Init>:
  * @param  GPIO_InitStruct: pointer to a GPIO_InitTypeDef structure that contains
  *         the configuration information for the specified GPIO peripheral.
  * @retval None
  */
void GPIO_Init(GPIO_TypeDef* GPIOx, GPIO_InitTypeDef* GPIO_InitStruct)
{
 80065d8:	b580      	push	{r7, lr}
 80065da:	b086      	sub	sp, #24
 80065dc:	af00      	add	r7, sp, #0
 80065de:	6078      	str	r0, [r7, #4]
 80065e0:	6039      	str	r1, [r7, #0]
  uint32_t pinpos = 0x00, pos = 0x00 , currentpin = 0x00;
 80065e2:	2300      	movs	r3, #0
 80065e4:	617b      	str	r3, [r7, #20]
 80065e6:	2300      	movs	r3, #0
 80065e8:	613b      	str	r3, [r7, #16]
 80065ea:	2300      	movs	r3, #0
 80065ec:	60fb      	str	r3, [r7, #12]
  assert_param(IS_GPIO_MODE(GPIO_InitStruct->GPIO_Mode));
  assert_param(IS_GPIO_PUPD(GPIO_InitStruct->GPIO_PuPd));

  /*-------------------------- Configure the port pins -----------------------*/
  /*-- GPIO Mode Configuration --*/
  for (pinpos = 0x00; pinpos < 0x10; pinpos++)
 80065ee:	2300      	movs	r3, #0
 80065f0:	617b      	str	r3, [r7, #20]
 80065f2:	e081      	b.n	80066f8 <GPIO_Init+0x120>
  {
    pos = ((uint32_t)0x01) << pinpos;
 80065f4:	2201      	movs	r2, #1
 80065f6:	697b      	ldr	r3, [r7, #20]
 80065f8:	409a      	lsls	r2, r3
 80065fa:	0013      	movs	r3, r2
 80065fc:	613b      	str	r3, [r7, #16]

    /* Get the port pins position */
    currentpin = (GPIO_InitStruct->GPIO_Pin) & pos;
 80065fe:	683b      	ldr	r3, [r7, #0]
 8006600:	681b      	ldr	r3, [r3, #0]
 8006602:	693a      	ldr	r2, [r7, #16]
 8006604:	4013      	ands	r3, r2
 8006606:	60fb      	str	r3, [r7, #12]

    if (currentpin == pos)
 8006608:	68fa      	ldr	r2, [r7, #12]
 800660a:	693b      	ldr	r3, [r7, #16]
 800660c:	429a      	cmp	r2, r3
 800660e:	d170      	bne.n	80066f2 <GPIO_Init+0x11a>
    {
      if ((GPIO_InitStruct->GPIO_Mode == GPIO_Mode_OUT) || (GPIO_InitStruct->GPIO_Mode == GPIO_Mode_AF))
 8006610:	683b      	ldr	r3, [r7, #0]
 8006612:	791b      	ldrb	r3, [r3, #4]
 8006614:	2b01      	cmp	r3, #1
 8006616:	d003      	beq.n	8006620 <GPIO_Init+0x48>
 8006618:	683b      	ldr	r3, [r7, #0]
 800661a:	791b      	ldrb	r3, [r3, #4]
 800661c:	2b02      	cmp	r3, #2
 800661e:	d138      	bne.n	8006692 <GPIO_Init+0xba>
      {
        /* Check Speed mode parameters */
        assert_param(IS_GPIO_SPEED(GPIO_InitStruct->GPIO_Speed));

        /* Speed mode configuration */
        GPIOx->OSPEEDR &= ~(GPIO_OSPEEDER_OSPEEDR0 << (pinpos * 2));
 8006620:	687b      	ldr	r3, [r7, #4]
 8006622:	689b      	ldr	r3, [r3, #8]
 8006624:	697a      	ldr	r2, [r7, #20]
 8006626:	0052      	lsls	r2, r2, #1
 8006628:	2103      	movs	r1, #3
 800662a:	4091      	lsls	r1, r2
 800662c:	000a      	movs	r2, r1
 800662e:	43d2      	mvns	r2, r2
 8006630:	401a      	ands	r2, r3
 8006632:	687b      	ldr	r3, [r7, #4]
 8006634:	609a      	str	r2, [r3, #8]
        GPIOx->OSPEEDR |= ((uint32_t)(GPIO_InitStruct->GPIO_Speed) << (pinpos * 2));
 8006636:	687b      	ldr	r3, [r7, #4]
 8006638:	689a      	ldr	r2, [r3, #8]
 800663a:	683b      	ldr	r3, [r7, #0]
 800663c:	795b      	ldrb	r3, [r3, #5]
 800663e:	0019      	movs	r1, r3
 8006640:	697b      	ldr	r3, [r7, #20]
 8006642:	005b      	lsls	r3, r3, #1
 8006644:	4099      	lsls	r1, r3
 8006646:	000b      	movs	r3, r1
 8006648:	431a      	orrs	r2, r3
 800664a:	687b      	ldr	r3, [r7, #4]
 800664c:	609a      	str	r2, [r3, #8]

        /* Check Output mode parameters */
        assert_param(IS_GPIO_OTYPE(GPIO_InitStruct->GPIO_OType));

        /* Output mode configuration */
        GPIOx->OTYPER &= ~((GPIO_OTYPER_OT_0) << ((uint16_t)pinpos));
 800664e:	687b      	ldr	r3, [r7, #4]
 8006650:	889b      	ldrh	r3, [r3, #4]
 8006652:	b29b      	uxth	r3, r3
 8006654:	697a      	ldr	r2, [r7, #20]
 8006656:	0412      	lsls	r2, r2, #16
 8006658:	0c12      	lsrs	r2, r2, #16
 800665a:	2101      	movs	r1, #1
 800665c:	4091      	lsls	r1, r2
 800665e:	000a      	movs	r2, r1
 8006660:	b292      	uxth	r2, r2
 8006662:	43d2      	mvns	r2, r2
 8006664:	b292      	uxth	r2, r2
 8006666:	4013      	ands	r3, r2
 8006668:	b29a      	uxth	r2, r3
 800666a:	687b      	ldr	r3, [r7, #4]
 800666c:	809a      	strh	r2, [r3, #4]
        GPIOx->OTYPER |= (uint16_t)(((uint16_t)GPIO_InitStruct->GPIO_OType) << ((uint16_t)pinpos));
 800666e:	687b      	ldr	r3, [r7, #4]
 8006670:	889b      	ldrh	r3, [r3, #4]
 8006672:	b29b      	uxth	r3, r3
 8006674:	b21a      	sxth	r2, r3
 8006676:	683b      	ldr	r3, [r7, #0]
 8006678:	799b      	ldrb	r3, [r3, #6]
 800667a:	0019      	movs	r1, r3
 800667c:	697b      	ldr	r3, [r7, #20]
 800667e:	041b      	lsls	r3, r3, #16
 8006680:	0c1b      	lsrs	r3, r3, #16
 8006682:	4099      	lsls	r1, r3
 8006684:	000b      	movs	r3, r1
 8006686:	b21b      	sxth	r3, r3
 8006688:	4313      	orrs	r3, r2
 800668a:	b21b      	sxth	r3, r3
 800668c:	b29a      	uxth	r2, r3
 800668e:	687b      	ldr	r3, [r7, #4]
 8006690:	809a      	strh	r2, [r3, #4]
      }

      GPIOx->MODER  &= ~(GPIO_MODER_MODER0 << (pinpos * 2));
 8006692:	687b      	ldr	r3, [r7, #4]
 8006694:	681b      	ldr	r3, [r3, #0]
 8006696:	697a      	ldr	r2, [r7, #20]
 8006698:	0052      	lsls	r2, r2, #1
 800669a:	2103      	movs	r1, #3
 800669c:	4091      	lsls	r1, r2
 800669e:	000a      	movs	r2, r1
 80066a0:	43d2      	mvns	r2, r2
 80066a2:	401a      	ands	r2, r3
 80066a4:	687b      	ldr	r3, [r7, #4]
 80066a6:	601a      	str	r2, [r3, #0]

      GPIOx->MODER |= (((uint32_t)GPIO_InitStruct->GPIO_Mode) << (pinpos * 2));
 80066a8:	687b      	ldr	r3, [r7, #4]
 80066aa:	681a      	ldr	r2, [r3, #0]
 80066ac:	683b      	ldr	r3, [r7, #0]
 80066ae:	791b      	ldrb	r3, [r3, #4]
 80066b0:	0019      	movs	r1, r3
 80066b2:	697b      	ldr	r3, [r7, #20]
 80066b4:	005b      	lsls	r3, r3, #1
 80066b6:	4099      	lsls	r1, r3
 80066b8:	000b      	movs	r3, r1
 80066ba:	431a      	orrs	r2, r3
 80066bc:	687b      	ldr	r3, [r7, #4]
 80066be:	601a      	str	r2, [r3, #0]

      /* Pull-up Pull down resistor configuration */
      GPIOx->PUPDR &= ~(GPIO_PUPDR_PUPDR0 << ((uint16_t)pinpos * 2));
 80066c0:	687b      	ldr	r3, [r7, #4]
 80066c2:	68db      	ldr	r3, [r3, #12]
 80066c4:	697a      	ldr	r2, [r7, #20]
 80066c6:	0412      	lsls	r2, r2, #16
 80066c8:	0c12      	lsrs	r2, r2, #16
 80066ca:	0052      	lsls	r2, r2, #1
 80066cc:	2103      	movs	r1, #3
 80066ce:	4091      	lsls	r1, r2
 80066d0:	000a      	movs	r2, r1
 80066d2:	43d2      	mvns	r2, r2
 80066d4:	401a      	ands	r2, r3
 80066d6:	687b      	ldr	r3, [r7, #4]
 80066d8:	60da      	str	r2, [r3, #12]
      GPIOx->PUPDR |= (((uint32_t)GPIO_InitStruct->GPIO_PuPd) << (pinpos * 2));
 80066da:	687b      	ldr	r3, [r7, #4]
 80066dc:	68da      	ldr	r2, [r3, #12]
 80066de:	683b      	ldr	r3, [r7, #0]
 80066e0:	79db      	ldrb	r3, [r3, #7]
 80066e2:	0019      	movs	r1, r3
 80066e4:	697b      	ldr	r3, [r7, #20]
 80066e6:	005b      	lsls	r3, r3, #1
 80066e8:	4099      	lsls	r1, r3
 80066ea:	000b      	movs	r3, r1
 80066ec:	431a      	orrs	r2, r3
 80066ee:	687b      	ldr	r3, [r7, #4]
 80066f0:	60da      	str	r2, [r3, #12]
  assert_param(IS_GPIO_MODE(GPIO_InitStruct->GPIO_Mode));
  assert_param(IS_GPIO_PUPD(GPIO_InitStruct->GPIO_PuPd));

  /*-------------------------- Configure the port pins -----------------------*/
  /*-- GPIO Mode Configuration --*/
  for (pinpos = 0x00; pinpos < 0x10; pinpos++)
 80066f2:	697b      	ldr	r3, [r7, #20]
 80066f4:	3301      	adds	r3, #1
 80066f6:	617b      	str	r3, [r7, #20]
 80066f8:	697b      	ldr	r3, [r7, #20]
 80066fa:	2b0f      	cmp	r3, #15
 80066fc:	d800      	bhi.n	8006700 <GPIO_Init+0x128>
 80066fe:	e779      	b.n	80065f4 <GPIO_Init+0x1c>
      /* Pull-up Pull down resistor configuration */
      GPIOx->PUPDR &= ~(GPIO_PUPDR_PUPDR0 << ((uint16_t)pinpos * 2));
      GPIOx->PUPDR |= (((uint32_t)GPIO_InitStruct->GPIO_PuPd) << (pinpos * 2));
    }
  }
}
 8006700:	46c0      	nop			; (mov r8, r8)
 8006702:	46bd      	mov	sp, r7
 8006704:	b006      	add	sp, #24
 8006706:	bd80      	pop	{r7, pc}

08006708 <GPIO_PinAFConfig>:
  *         for the detailed mapping of the system and peripherals'alternate 
  *         function I/O pins.
  * @retval None
  */
void GPIO_PinAFConfig(GPIO_TypeDef* GPIOx, uint16_t GPIO_PinSource, uint8_t GPIO_AF)
{
 8006708:	b580      	push	{r7, lr}
 800670a:	b084      	sub	sp, #16
 800670c:	af00      	add	r7, sp, #0
 800670e:	6078      	str	r0, [r7, #4]
 8006710:	0008      	movs	r0, r1
 8006712:	0011      	movs	r1, r2
 8006714:	1cbb      	adds	r3, r7, #2
 8006716:	1c02      	adds	r2, r0, #0
 8006718:	801a      	strh	r2, [r3, #0]
 800671a:	1c7b      	adds	r3, r7, #1
 800671c:	1c0a      	adds	r2, r1, #0
 800671e:	701a      	strb	r2, [r3, #0]
  uint32_t temp = 0x00;
 8006720:	2300      	movs	r3, #0
 8006722:	60fb      	str	r3, [r7, #12]
  uint32_t temp_2 = 0x00;
 8006724:	2300      	movs	r3, #0
 8006726:	60bb      	str	r3, [r7, #8]
  /* Check the parameters */
  assert_param(IS_GPIO_ALL_PERIPH(GPIOx));
  assert_param(IS_GPIO_PIN_SOURCE(GPIO_PinSource));
  assert_param(IS_GPIO_AF(GPIO_AF));

  temp = ((uint32_t)(GPIO_AF) << ((uint32_t)((uint32_t)GPIO_PinSource & (uint32_t)0x07) * 4));
 8006728:	1c7b      	adds	r3, r7, #1
 800672a:	781a      	ldrb	r2, [r3, #0]
 800672c:	1cbb      	adds	r3, r7, #2
 800672e:	881b      	ldrh	r3, [r3, #0]
 8006730:	2107      	movs	r1, #7
 8006732:	400b      	ands	r3, r1
 8006734:	009b      	lsls	r3, r3, #2
 8006736:	409a      	lsls	r2, r3
 8006738:	0013      	movs	r3, r2
 800673a:	60fb      	str	r3, [r7, #12]
  GPIOx->AFR[GPIO_PinSource >> 0x03] &= ~((uint32_t)0xF << ((uint32_t)((uint32_t)GPIO_PinSource & (uint32_t)0x07) * 4));
 800673c:	1cbb      	adds	r3, r7, #2
 800673e:	881b      	ldrh	r3, [r3, #0]
 8006740:	08db      	lsrs	r3, r3, #3
 8006742:	b29b      	uxth	r3, r3
 8006744:	0018      	movs	r0, r3
 8006746:	1cbb      	adds	r3, r7, #2
 8006748:	881b      	ldrh	r3, [r3, #0]
 800674a:	08db      	lsrs	r3, r3, #3
 800674c:	b29b      	uxth	r3, r3
 800674e:	001a      	movs	r2, r3
 8006750:	687b      	ldr	r3, [r7, #4]
 8006752:	3208      	adds	r2, #8
 8006754:	0092      	lsls	r2, r2, #2
 8006756:	58d3      	ldr	r3, [r2, r3]
 8006758:	1cba      	adds	r2, r7, #2
 800675a:	8812      	ldrh	r2, [r2, #0]
 800675c:	2107      	movs	r1, #7
 800675e:	400a      	ands	r2, r1
 8006760:	0092      	lsls	r2, r2, #2
 8006762:	210f      	movs	r1, #15
 8006764:	4091      	lsls	r1, r2
 8006766:	000a      	movs	r2, r1
 8006768:	43d2      	mvns	r2, r2
 800676a:	401a      	ands	r2, r3
 800676c:	0011      	movs	r1, r2
 800676e:	687b      	ldr	r3, [r7, #4]
 8006770:	0002      	movs	r2, r0
 8006772:	3208      	adds	r2, #8
 8006774:	0092      	lsls	r2, r2, #2
 8006776:	50d1      	str	r1, [r2, r3]
  temp_2 = GPIOx->AFR[GPIO_PinSource >> 0x03] | temp;
 8006778:	1cbb      	adds	r3, r7, #2
 800677a:	881b      	ldrh	r3, [r3, #0]
 800677c:	08db      	lsrs	r3, r3, #3
 800677e:	b29b      	uxth	r3, r3
 8006780:	001a      	movs	r2, r3
 8006782:	687b      	ldr	r3, [r7, #4]
 8006784:	3208      	adds	r2, #8
 8006786:	0092      	lsls	r2, r2, #2
 8006788:	58d2      	ldr	r2, [r2, r3]
 800678a:	68fb      	ldr	r3, [r7, #12]
 800678c:	4313      	orrs	r3, r2
 800678e:	60bb      	str	r3, [r7, #8]
  GPIOx->AFR[GPIO_PinSource >> 0x03] = temp_2;
 8006790:	1cbb      	adds	r3, r7, #2
 8006792:	881b      	ldrh	r3, [r3, #0]
 8006794:	08db      	lsrs	r3, r3, #3
 8006796:	b29b      	uxth	r3, r3
 8006798:	001a      	movs	r2, r3
 800679a:	687b      	ldr	r3, [r7, #4]
 800679c:	3208      	adds	r2, #8
 800679e:	0092      	lsls	r2, r2, #2
 80067a0:	68b9      	ldr	r1, [r7, #8]
 80067a2:	50d1      	str	r1, [r2, r3]
}
 80067a4:	46c0      	nop			; (mov r8, r8)
 80067a6:	46bd      	mov	sp, r7
 80067a8:	b004      	add	sp, #16
 80067aa:	bd80      	pop	{r7, pc}

080067ac <DMA_Init>:
  * @param  DMA_InitStruct: pointer to a DMA_InitTypeDef structure that contains
  *         the configuration information for the specified DMA Channel.
  * @retval None
  */
void DMA_Init(DMA_Channel_TypeDef* DMAy_Channelx, DMA_InitTypeDef* DMA_InitStruct)
{
 80067ac:	b580      	push	{r7, lr}
 80067ae:	b084      	sub	sp, #16
 80067b0:	af00      	add	r7, sp, #0
 80067b2:	6078      	str	r0, [r7, #4]
 80067b4:	6039      	str	r1, [r7, #0]
  uint32_t tmpreg = 0;
 80067b6:	2300      	movs	r3, #0
 80067b8:	60fb      	str	r3, [r7, #12]
  assert_param(IS_DMA_PRIORITY(DMA_InitStruct->DMA_Priority));
  assert_param(IS_DMA_M2M_STATE(DMA_InitStruct->DMA_M2M));

/*--------------------------- DMAy Channelx CCR Configuration ----------------*/
  /* Get the DMAy_Channelx CCR value */
  tmpreg = DMAy_Channelx->CCR;
 80067ba:	687b      	ldr	r3, [r7, #4]
 80067bc:	681b      	ldr	r3, [r3, #0]
 80067be:	60fb      	str	r3, [r7, #12]

  /* Clear MEM2MEM, PL, MSIZE, PSIZE, MINC, PINC, CIRC and DIR bits */
  tmpreg &= CCR_CLEAR_MASK;
 80067c0:	68fb      	ldr	r3, [r7, #12]
 80067c2:	4a18      	ldr	r2, [pc, #96]	; (8006824 <DMA_Init+0x78>)
 80067c4:	4013      	ands	r3, r2
 80067c6:	60fb      	str	r3, [r7, #12]
  /* Set MINC bit according to DMA_MemoryInc value */
  /* Set PSIZE bits according to DMA_PeripheralDataSize value */
  /* Set MSIZE bits according to DMA_MemoryDataSize value */
  /* Set PL bits according to DMA_Priority value */
  /* Set the MEM2MEM bit according to DMA_M2M value */
  tmpreg |= DMA_InitStruct->DMA_DIR | DMA_InitStruct->DMA_Mode |
 80067c8:	683b      	ldr	r3, [r7, #0]
 80067ca:	689a      	ldr	r2, [r3, #8]
 80067cc:	683b      	ldr	r3, [r7, #0]
 80067ce:	6a1b      	ldr	r3, [r3, #32]
 80067d0:	431a      	orrs	r2, r3
            DMA_InitStruct->DMA_PeripheralInc | DMA_InitStruct->DMA_MemoryInc |
 80067d2:	683b      	ldr	r3, [r7, #0]
 80067d4:	691b      	ldr	r3, [r3, #16]
  /* Set MINC bit according to DMA_MemoryInc value */
  /* Set PSIZE bits according to DMA_PeripheralDataSize value */
  /* Set MSIZE bits according to DMA_MemoryDataSize value */
  /* Set PL bits according to DMA_Priority value */
  /* Set the MEM2MEM bit according to DMA_M2M value */
  tmpreg |= DMA_InitStruct->DMA_DIR | DMA_InitStruct->DMA_Mode |
 80067d6:	431a      	orrs	r2, r3
            DMA_InitStruct->DMA_PeripheralInc | DMA_InitStruct->DMA_MemoryInc |
 80067d8:	683b      	ldr	r3, [r7, #0]
 80067da:	695b      	ldr	r3, [r3, #20]
 80067dc:	431a      	orrs	r2, r3
            DMA_InitStruct->DMA_PeripheralDataSize | DMA_InitStruct->DMA_MemoryDataSize |
 80067de:	683b      	ldr	r3, [r7, #0]
 80067e0:	699b      	ldr	r3, [r3, #24]
  /* Set PSIZE bits according to DMA_PeripheralDataSize value */
  /* Set MSIZE bits according to DMA_MemoryDataSize value */
  /* Set PL bits according to DMA_Priority value */
  /* Set the MEM2MEM bit according to DMA_M2M value */
  tmpreg |= DMA_InitStruct->DMA_DIR | DMA_InitStruct->DMA_Mode |
            DMA_InitStruct->DMA_PeripheralInc | DMA_InitStruct->DMA_MemoryInc |
 80067e2:	431a      	orrs	r2, r3
            DMA_InitStruct->DMA_PeripheralDataSize | DMA_InitStruct->DMA_MemoryDataSize |
 80067e4:	683b      	ldr	r3, [r7, #0]
 80067e6:	69db      	ldr	r3, [r3, #28]
 80067e8:	431a      	orrs	r2, r3
            DMA_InitStruct->DMA_Priority | DMA_InitStruct->DMA_M2M;
 80067ea:	683b      	ldr	r3, [r7, #0]
 80067ec:	6a5b      	ldr	r3, [r3, #36]	; 0x24
  /* Set MSIZE bits according to DMA_MemoryDataSize value */
  /* Set PL bits according to DMA_Priority value */
  /* Set the MEM2MEM bit according to DMA_M2M value */
  tmpreg |= DMA_InitStruct->DMA_DIR | DMA_InitStruct->DMA_Mode |
            DMA_InitStruct->DMA_PeripheralInc | DMA_InitStruct->DMA_MemoryInc |
            DMA_InitStruct->DMA_PeripheralDataSize | DMA_InitStruct->DMA_MemoryDataSize |
 80067ee:	431a      	orrs	r2, r3
            DMA_InitStruct->DMA_Priority | DMA_InitStruct->DMA_M2M;
 80067f0:	683b      	ldr	r3, [r7, #0]
 80067f2:	6a9b      	ldr	r3, [r3, #40]	; 0x28
 80067f4:	4313      	orrs	r3, r2
  /* Set MINC bit according to DMA_MemoryInc value */
  /* Set PSIZE bits according to DMA_PeripheralDataSize value */
  /* Set MSIZE bits according to DMA_MemoryDataSize value */
  /* Set PL bits according to DMA_Priority value */
  /* Set the MEM2MEM bit according to DMA_M2M value */
  tmpreg |= DMA_InitStruct->DMA_DIR | DMA_InitStruct->DMA_Mode |
 80067f6:	68fa      	ldr	r2, [r7, #12]
 80067f8:	4313      	orrs	r3, r2
 80067fa:	60fb      	str	r3, [r7, #12]
            DMA_InitStruct->DMA_PeripheralInc | DMA_InitStruct->DMA_MemoryInc |
            DMA_InitStruct->DMA_PeripheralDataSize | DMA_InitStruct->DMA_MemoryDataSize |
            DMA_InitStruct->DMA_Priority | DMA_InitStruct->DMA_M2M;

  /* Write to DMAy Channelx CCR */
  DMAy_Channelx->CCR = tmpreg;
 80067fc:	687b      	ldr	r3, [r7, #4]
 80067fe:	68fa      	ldr	r2, [r7, #12]
 8006800:	601a      	str	r2, [r3, #0]

/*--------------------------- DMAy Channelx CNDTR Configuration --------------*/
  /* Write to DMAy Channelx CNDTR */
  DMAy_Channelx->CNDTR = DMA_InitStruct->DMA_BufferSize;
 8006802:	683b      	ldr	r3, [r7, #0]
 8006804:	68da      	ldr	r2, [r3, #12]
 8006806:	687b      	ldr	r3, [r7, #4]
 8006808:	605a      	str	r2, [r3, #4]

/*--------------------------- DMAy Channelx CPAR Configuration ---------------*/
  /* Write to DMAy Channelx CPAR */
  DMAy_Channelx->CPAR = DMA_InitStruct->DMA_PeripheralBaseAddr;
 800680a:	683b      	ldr	r3, [r7, #0]
 800680c:	681a      	ldr	r2, [r3, #0]
 800680e:	687b      	ldr	r3, [r7, #4]
 8006810:	609a      	str	r2, [r3, #8]

/*--------------------------- DMAy Channelx CMAR Configuration ---------------*/
  /* Write to DMAy Channelx CMAR */
  DMAy_Channelx->CMAR = DMA_InitStruct->DMA_MemoryBaseAddr;
 8006812:	683b      	ldr	r3, [r7, #0]
 8006814:	685a      	ldr	r2, [r3, #4]
 8006816:	687b      	ldr	r3, [r7, #4]
 8006818:	60da      	str	r2, [r3, #12]
}
 800681a:	46c0      	nop			; (mov r8, r8)
 800681c:	46bd      	mov	sp, r7
 800681e:	b004      	add	sp, #16
 8006820:	bd80      	pop	{r7, pc}
 8006822:	46c0      	nop			; (mov r8, r8)
 8006824:	ffff800f 	.word	0xffff800f

08006828 <DMA_Cmd>:
  * @param  NewState: new state of the DMAy Channelx. 
  *         This parameter can be: ENABLE or DISABLE.
  * @retval None
  */
void DMA_Cmd(DMA_Channel_TypeDef* DMAy_Channelx, FunctionalState NewState)
{
 8006828:	b580      	push	{r7, lr}
 800682a:	b082      	sub	sp, #8
 800682c:	af00      	add	r7, sp, #0
 800682e:	6078      	str	r0, [r7, #4]
 8006830:	000a      	movs	r2, r1
 8006832:	1cfb      	adds	r3, r7, #3
 8006834:	701a      	strb	r2, [r3, #0]
  /* Check the parameters */
  assert_param(IS_DMA_ALL_PERIPH(DMAy_Channelx));
  assert_param(IS_FUNCTIONAL_STATE(NewState));

  if (NewState != DISABLE)
 8006836:	1cfb      	adds	r3, r7, #3
 8006838:	781b      	ldrb	r3, [r3, #0]
 800683a:	2b00      	cmp	r3, #0
 800683c:	d006      	beq.n	800684c <DMA_Cmd+0x24>
  {
    /* Enable the selected DMAy Channelx */
    DMAy_Channelx->CCR |= DMA_CCR_EN;
 800683e:	687b      	ldr	r3, [r7, #4]
 8006840:	681b      	ldr	r3, [r3, #0]
 8006842:	2201      	movs	r2, #1
 8006844:	431a      	orrs	r2, r3
 8006846:	687b      	ldr	r3, [r7, #4]
 8006848:	601a      	str	r2, [r3, #0]
  else
  {
    /* Disable the selected DMAy Channelx */
    DMAy_Channelx->CCR &= (uint16_t)(~DMA_CCR_EN);
  }
}
 800684a:	e005      	b.n	8006858 <DMA_Cmd+0x30>
    DMAy_Channelx->CCR |= DMA_CCR_EN;
  }
  else
  {
    /* Disable the selected DMAy Channelx */
    DMAy_Channelx->CCR &= (uint16_t)(~DMA_CCR_EN);
 800684c:	687b      	ldr	r3, [r7, #4]
 800684e:	681b      	ldr	r3, [r3, #0]
 8006850:	4a03      	ldr	r2, [pc, #12]	; (8006860 <DMA_Cmd+0x38>)
 8006852:	401a      	ands	r2, r3
 8006854:	687b      	ldr	r3, [r7, #4]
 8006856:	601a      	str	r2, [r3, #0]
  }
}
 8006858:	46c0      	nop			; (mov r8, r8)
 800685a:	46bd      	mov	sp, r7
 800685c:	b002      	add	sp, #8
 800685e:	bd80      	pop	{r7, pc}
 8006860:	0000fffe 	.word	0x0000fffe

08006864 <DMA_SetCurrDataCounter>:
  *         transfer.
  * @note   This function can only be used when the DMAy_Channelx is disabled.
  * @retval None.
  */
void DMA_SetCurrDataCounter(DMA_Channel_TypeDef* DMAy_Channelx, uint16_t DataNumber)
{
 8006864:	b580      	push	{r7, lr}
 8006866:	b082      	sub	sp, #8
 8006868:	af00      	add	r7, sp, #0
 800686a:	6078      	str	r0, [r7, #4]
 800686c:	000a      	movs	r2, r1
 800686e:	1cbb      	adds	r3, r7, #2
 8006870:	801a      	strh	r2, [r3, #0]
  /* Check the parameters */
  assert_param(IS_DMA_ALL_PERIPH(DMAy_Channelx));

/*--------------------------- DMAy Channelx CNDTR Configuration --------------*/
  /* Write to DMAy Channelx CNDTR */
  DMAy_Channelx->CNDTR = DataNumber;
 8006872:	1cbb      	adds	r3, r7, #2
 8006874:	881a      	ldrh	r2, [r3, #0]
 8006876:	687b      	ldr	r3, [r7, #4]
 8006878:	605a      	str	r2, [r3, #4]
}
 800687a:	46c0      	nop			; (mov r8, r8)
 800687c:	46bd      	mov	sp, r7
 800687e:	b002      	add	sp, #8
 8006880:	bd80      	pop	{r7, pc}
 8006882:	46c0      	nop			; (mov r8, r8)

08006884 <CRS_FrequencyErrorCounterCmd>:
  * @param  NewState: new state of the frequency error counter.
  *          This parameter can be: ENABLE or DISABLE.
  * @retval None
  */
void CRS_FrequencyErrorCounterCmd(FunctionalState NewState)
{
 8006884:	b580      	push	{r7, lr}
 8006886:	b082      	sub	sp, #8
 8006888:	af00      	add	r7, sp, #0
 800688a:	0002      	movs	r2, r0
 800688c:	1dfb      	adds	r3, r7, #7
 800688e:	701a      	strb	r2, [r3, #0]
  assert_param(IS_FUNCTIONAL_STATE(NewState));

  if (NewState != DISABLE)
 8006890:	1dfb      	adds	r3, r7, #7
 8006892:	781b      	ldrb	r3, [r3, #0]
 8006894:	2b00      	cmp	r3, #0
 8006896:	d006      	beq.n	80068a6 <CRS_FrequencyErrorCounterCmd+0x22>
  {
     CRS->CR |= CRS_CR_CEN;
 8006898:	4b08      	ldr	r3, [pc, #32]	; (80068bc <CRS_FrequencyErrorCounterCmd+0x38>)
 800689a:	4a08      	ldr	r2, [pc, #32]	; (80068bc <CRS_FrequencyErrorCounterCmd+0x38>)
 800689c:	6812      	ldr	r2, [r2, #0]
 800689e:	2120      	movs	r1, #32
 80068a0:	430a      	orrs	r2, r1
 80068a2:	601a      	str	r2, [r3, #0]
  }
  else
  {
    CRS->CR &= ~CRS_CR_CEN;
  }
}
 80068a4:	e005      	b.n	80068b2 <CRS_FrequencyErrorCounterCmd+0x2e>
  {
     CRS->CR |= CRS_CR_CEN;
  }
  else
  {
    CRS->CR &= ~CRS_CR_CEN;
 80068a6:	4b05      	ldr	r3, [pc, #20]	; (80068bc <CRS_FrequencyErrorCounterCmd+0x38>)
 80068a8:	4a04      	ldr	r2, [pc, #16]	; (80068bc <CRS_FrequencyErrorCounterCmd+0x38>)
 80068aa:	6812      	ldr	r2, [r2, #0]
 80068ac:	2120      	movs	r1, #32
 80068ae:	438a      	bics	r2, r1
 80068b0:	601a      	str	r2, [r3, #0]
  }
}
 80068b2:	46c0      	nop			; (mov r8, r8)
 80068b4:	46bd      	mov	sp, r7
 80068b6:	b002      	add	sp, #8
 80068b8:	bd80      	pop	{r7, pc}
 80068ba:	46c0      	nop			; (mov r8, r8)
 80068bc:	40006c00 	.word	0x40006c00

080068c0 <CRS_AutomaticCalibrationCmd>:
  * @param  NewState: new state of the automatic trimming.
  *          This parameter can be: ENABLE or DISABLE.
  * @retval None
  */
void CRS_AutomaticCalibrationCmd(FunctionalState NewState)
{
 80068c0:	b580      	push	{r7, lr}
 80068c2:	b082      	sub	sp, #8
 80068c4:	af00      	add	r7, sp, #0
 80068c6:	0002      	movs	r2, r0
 80068c8:	1dfb      	adds	r3, r7, #7
 80068ca:	701a      	strb	r2, [r3, #0]
  assert_param(IS_FUNCTIONAL_STATE(NewState));

  if (NewState != DISABLE)
 80068cc:	1dfb      	adds	r3, r7, #7
 80068ce:	781b      	ldrb	r3, [r3, #0]
 80068d0:	2b00      	cmp	r3, #0
 80068d2:	d006      	beq.n	80068e2 <CRS_AutomaticCalibrationCmd+0x22>
  {
    CRS->CR |= CRS_CR_AUTOTRIMEN;
 80068d4:	4b08      	ldr	r3, [pc, #32]	; (80068f8 <CRS_AutomaticCalibrationCmd+0x38>)
 80068d6:	4a08      	ldr	r2, [pc, #32]	; (80068f8 <CRS_AutomaticCalibrationCmd+0x38>)
 80068d8:	6812      	ldr	r2, [r2, #0]
 80068da:	2140      	movs	r1, #64	; 0x40
 80068dc:	430a      	orrs	r2, r1
 80068de:	601a      	str	r2, [r3, #0]
  }
else
  {
    CRS->CR &= ~CRS_CR_AUTOTRIMEN;
  }
}
 80068e0:	e005      	b.n	80068ee <CRS_AutomaticCalibrationCmd+0x2e>
  {
    CRS->CR |= CRS_CR_AUTOTRIMEN;
  }
else
  {
    CRS->CR &= ~CRS_CR_AUTOTRIMEN;
 80068e2:	4b05      	ldr	r3, [pc, #20]	; (80068f8 <CRS_AutomaticCalibrationCmd+0x38>)
 80068e4:	4a04      	ldr	r2, [pc, #16]	; (80068f8 <CRS_AutomaticCalibrationCmd+0x38>)
 80068e6:	6812      	ldr	r2, [r2, #0]
 80068e8:	2140      	movs	r1, #64	; 0x40
 80068ea:	438a      	bics	r2, r1
 80068ec:	601a      	str	r2, [r3, #0]
  }
}
 80068ee:	46c0      	nop			; (mov r8, r8)
 80068f0:	46bd      	mov	sp, r7
 80068f2:	b002      	add	sp, #8
 80068f4:	bd80      	pop	{r7, pc}
 80068f6:	46c0      	nop			; (mov r8, r8)
 80068f8:	40006c00 	.word	0x40006c00

080068fc <CRS_SynchronizationSourceConfig>:
  *            @arg CRS_SYNCSource_LSE:   
  *            @arg CRS_SYNCSource_USB:   
  * @retval None
  */
void CRS_SynchronizationSourceConfig(uint32_t CRS_Source)
{
 80068fc:	b580      	push	{r7, lr}
 80068fe:	b082      	sub	sp, #8
 8006900:	af00      	add	r7, sp, #0
 8006902:	6078      	str	r0, [r7, #4]
  /* Check the parameters */
  assert_param(IS_CRS_SYNC_SOURCE(CRS_Source));
  
  /* Clear SYNCSRC[1:0] bits */
  CRS->CFGR &= ~CRS_CFGR_SYNCSRC;
 8006904:	4b07      	ldr	r3, [pc, #28]	; (8006924 <CRS_SynchronizationSourceConfig+0x28>)
 8006906:	4a07      	ldr	r2, [pc, #28]	; (8006924 <CRS_SynchronizationSourceConfig+0x28>)
 8006908:	6852      	ldr	r2, [r2, #4]
 800690a:	4907      	ldr	r1, [pc, #28]	; (8006928 <CRS_SynchronizationSourceConfig+0x2c>)
 800690c:	400a      	ands	r2, r1
 800690e:	605a      	str	r2, [r3, #4]
  
  /* Set the SYNCSRC[1:0] bits according to CRS_Source value */
  CRS->CFGR |= CRS_Source;
 8006910:	4b04      	ldr	r3, [pc, #16]	; (8006924 <CRS_SynchronizationSourceConfig+0x28>)
 8006912:	4a04      	ldr	r2, [pc, #16]	; (8006924 <CRS_SynchronizationSourceConfig+0x28>)
 8006914:	6851      	ldr	r1, [r2, #4]
 8006916:	687a      	ldr	r2, [r7, #4]
 8006918:	430a      	orrs	r2, r1
 800691a:	605a      	str	r2, [r3, #4]
}
 800691c:	46c0      	nop			; (mov r8, r8)
 800691e:	46bd      	mov	sp, r7
 8006920:	b002      	add	sp, #8
 8006922:	bd80      	pop	{r7, pc}
 8006924:	40006c00 	.word	0x40006c00
 8006928:	cfffffff 	.word	0xcfffffff

0800692c <__libc_init_array>:
 800692c:	4b0e      	ldr	r3, [pc, #56]	; (8006968 <__libc_init_array+0x3c>)
 800692e:	b570      	push	{r4, r5, r6, lr}
 8006930:	2500      	movs	r5, #0
 8006932:	001e      	movs	r6, r3
 8006934:	4c0d      	ldr	r4, [pc, #52]	; (800696c <__libc_init_array+0x40>)
 8006936:	1ae4      	subs	r4, r4, r3
 8006938:	10a4      	asrs	r4, r4, #2
 800693a:	42a5      	cmp	r5, r4
 800693c:	d004      	beq.n	8006948 <__libc_init_array+0x1c>
 800693e:	00ab      	lsls	r3, r5, #2
 8006940:	58f3      	ldr	r3, [r6, r3]
 8006942:	4798      	blx	r3
 8006944:	3501      	adds	r5, #1
 8006946:	e7f8      	b.n	800693a <__libc_init_array+0xe>
 8006948:	f000 fd7a 	bl	8007440 <_init>
 800694c:	4b08      	ldr	r3, [pc, #32]	; (8006970 <__libc_init_array+0x44>)
 800694e:	2500      	movs	r5, #0
 8006950:	001e      	movs	r6, r3
 8006952:	4c08      	ldr	r4, [pc, #32]	; (8006974 <__libc_init_array+0x48>)
 8006954:	1ae4      	subs	r4, r4, r3
 8006956:	10a4      	asrs	r4, r4, #2
 8006958:	42a5      	cmp	r5, r4
 800695a:	d004      	beq.n	8006966 <__libc_init_array+0x3a>
 800695c:	00ab      	lsls	r3, r5, #2
 800695e:	58f3      	ldr	r3, [r6, r3]
 8006960:	4798      	blx	r3
 8006962:	3501      	adds	r5, #1
 8006964:	e7f8      	b.n	8006958 <__libc_init_array+0x2c>
 8006966:	bd70      	pop	{r4, r5, r6, pc}
 8006968:	08007678 	.word	0x08007678
 800696c:	08007678 	.word	0x08007678
 8006970:	08007678 	.word	0x08007678
 8006974:	0800767c 	.word	0x0800767c

08006978 <memcpy>:
 8006978:	2300      	movs	r3, #0
 800697a:	b510      	push	{r4, lr}
 800697c:	429a      	cmp	r2, r3
 800697e:	d003      	beq.n	8006988 <memcpy+0x10>
 8006980:	5ccc      	ldrb	r4, [r1, r3]
 8006982:	54c4      	strb	r4, [r0, r3]
 8006984:	3301      	adds	r3, #1
 8006986:	e7f9      	b.n	800697c <memcpy+0x4>
 8006988:	bd10      	pop	{r4, pc}
	...

0800698c <siprintf>:
 800698c:	b40e      	push	{r1, r2, r3}
 800698e:	b510      	push	{r4, lr}
 8006990:	b09d      	sub	sp, #116	; 0x74
 8006992:	a902      	add	r1, sp, #8
 8006994:	9002      	str	r0, [sp, #8]
 8006996:	6108      	str	r0, [r1, #16]
 8006998:	480b      	ldr	r0, [pc, #44]	; (80069c8 <siprintf+0x3c>)
 800699a:	2482      	movs	r4, #130	; 0x82
 800699c:	6088      	str	r0, [r1, #8]
 800699e:	6148      	str	r0, [r1, #20]
 80069a0:	2001      	movs	r0, #1
 80069a2:	4240      	negs	r0, r0
 80069a4:	ab1f      	add	r3, sp, #124	; 0x7c
 80069a6:	81c8      	strh	r0, [r1, #14]
 80069a8:	4808      	ldr	r0, [pc, #32]	; (80069cc <siprintf+0x40>)
 80069aa:	cb04      	ldmia	r3!, {r2}
 80069ac:	00a4      	lsls	r4, r4, #2
 80069ae:	6800      	ldr	r0, [r0, #0]
 80069b0:	9301      	str	r3, [sp, #4]
 80069b2:	818c      	strh	r4, [r1, #12]
 80069b4:	f000 f86e 	bl	8006a94 <_svfiprintf_r>
 80069b8:	2300      	movs	r3, #0
 80069ba:	9a02      	ldr	r2, [sp, #8]
 80069bc:	7013      	strb	r3, [r2, #0]
 80069be:	b01d      	add	sp, #116	; 0x74
 80069c0:	bc10      	pop	{r4}
 80069c2:	bc08      	pop	{r3}
 80069c4:	b003      	add	sp, #12
 80069c6:	4718      	bx	r3
 80069c8:	7fffffff 	.word	0x7fffffff
 80069cc:	2000011c 	.word	0x2000011c

080069d0 <__ssputs_r>:
 80069d0:	b5f0      	push	{r4, r5, r6, r7, lr}
 80069d2:	688e      	ldr	r6, [r1, #8]
 80069d4:	b085      	sub	sp, #20
 80069d6:	0007      	movs	r7, r0
 80069d8:	000c      	movs	r4, r1
 80069da:	9203      	str	r2, [sp, #12]
 80069dc:	9301      	str	r3, [sp, #4]
 80069de:	429e      	cmp	r6, r3
 80069e0:	d843      	bhi.n	8006a6a <__ssputs_r+0x9a>
 80069e2:	2390      	movs	r3, #144	; 0x90
 80069e4:	898a      	ldrh	r2, [r1, #12]
 80069e6:	00db      	lsls	r3, r3, #3
 80069e8:	421a      	tst	r2, r3
 80069ea:	d03e      	beq.n	8006a6a <__ssputs_r+0x9a>
 80069ec:	2503      	movs	r5, #3
 80069ee:	6909      	ldr	r1, [r1, #16]
 80069f0:	6823      	ldr	r3, [r4, #0]
 80069f2:	9801      	ldr	r0, [sp, #4]
 80069f4:	1a5b      	subs	r3, r3, r1
 80069f6:	9302      	str	r3, [sp, #8]
 80069f8:	6963      	ldr	r3, [r4, #20]
 80069fa:	435d      	muls	r5, r3
 80069fc:	0feb      	lsrs	r3, r5, #31
 80069fe:	195d      	adds	r5, r3, r5
 8006a00:	9b02      	ldr	r3, [sp, #8]
 8006a02:	106d      	asrs	r5, r5, #1
 8006a04:	3301      	adds	r3, #1
 8006a06:	181b      	adds	r3, r3, r0
 8006a08:	42ab      	cmp	r3, r5
 8006a0a:	d900      	bls.n	8006a0e <__ssputs_r+0x3e>
 8006a0c:	001d      	movs	r5, r3
 8006a0e:	0553      	lsls	r3, r2, #21
 8006a10:	d510      	bpl.n	8006a34 <__ssputs_r+0x64>
 8006a12:	0029      	movs	r1, r5
 8006a14:	0038      	movs	r0, r7
 8006a16:	f000 fb37 	bl	8007088 <_malloc_r>
 8006a1a:	1e06      	subs	r6, r0, #0
 8006a1c:	d014      	beq.n	8006a48 <__ssputs_r+0x78>
 8006a1e:	9a02      	ldr	r2, [sp, #8]
 8006a20:	6921      	ldr	r1, [r4, #16]
 8006a22:	f7ff ffa9 	bl	8006978 <memcpy>
 8006a26:	89a2      	ldrh	r2, [r4, #12]
 8006a28:	4b19      	ldr	r3, [pc, #100]	; (8006a90 <__ssputs_r+0xc0>)
 8006a2a:	4013      	ands	r3, r2
 8006a2c:	2280      	movs	r2, #128	; 0x80
 8006a2e:	4313      	orrs	r3, r2
 8006a30:	81a3      	strh	r3, [r4, #12]
 8006a32:	e012      	b.n	8006a5a <__ssputs_r+0x8a>
 8006a34:	002a      	movs	r2, r5
 8006a36:	0038      	movs	r0, r7
 8006a38:	f000 fb86 	bl	8007148 <_realloc_r>
 8006a3c:	1e06      	subs	r6, r0, #0
 8006a3e:	d10c      	bne.n	8006a5a <__ssputs_r+0x8a>
 8006a40:	6921      	ldr	r1, [r4, #16]
 8006a42:	0038      	movs	r0, r7
 8006a44:	f000 fad4 	bl	8006ff0 <_free_r>
 8006a48:	230c      	movs	r3, #12
 8006a4a:	2240      	movs	r2, #64	; 0x40
 8006a4c:	2001      	movs	r0, #1
 8006a4e:	603b      	str	r3, [r7, #0]
 8006a50:	89a3      	ldrh	r3, [r4, #12]
 8006a52:	4240      	negs	r0, r0
 8006a54:	4313      	orrs	r3, r2
 8006a56:	81a3      	strh	r3, [r4, #12]
 8006a58:	e017      	b.n	8006a8a <__ssputs_r+0xba>
 8006a5a:	9b02      	ldr	r3, [sp, #8]
 8006a5c:	6126      	str	r6, [r4, #16]
 8006a5e:	18f6      	adds	r6, r6, r3
 8006a60:	6026      	str	r6, [r4, #0]
 8006a62:	6165      	str	r5, [r4, #20]
 8006a64:	9e01      	ldr	r6, [sp, #4]
 8006a66:	1aed      	subs	r5, r5, r3
 8006a68:	60a5      	str	r5, [r4, #8]
 8006a6a:	9b01      	ldr	r3, [sp, #4]
 8006a6c:	42b3      	cmp	r3, r6
 8006a6e:	d200      	bcs.n	8006a72 <__ssputs_r+0xa2>
 8006a70:	001e      	movs	r6, r3
 8006a72:	0032      	movs	r2, r6
 8006a74:	9903      	ldr	r1, [sp, #12]
 8006a76:	6820      	ldr	r0, [r4, #0]
 8006a78:	f000 faa5 	bl	8006fc6 <memmove>
 8006a7c:	2000      	movs	r0, #0
 8006a7e:	68a3      	ldr	r3, [r4, #8]
 8006a80:	1b9b      	subs	r3, r3, r6
 8006a82:	60a3      	str	r3, [r4, #8]
 8006a84:	6823      	ldr	r3, [r4, #0]
 8006a86:	199e      	adds	r6, r3, r6
 8006a88:	6026      	str	r6, [r4, #0]
 8006a8a:	b005      	add	sp, #20
 8006a8c:	bdf0      	pop	{r4, r5, r6, r7, pc}
 8006a8e:	46c0      	nop			; (mov r8, r8)
 8006a90:	fffffb7f 	.word	0xfffffb7f

08006a94 <_svfiprintf_r>:
 8006a94:	b5f0      	push	{r4, r5, r6, r7, lr}
 8006a96:	b09f      	sub	sp, #124	; 0x7c
 8006a98:	9002      	str	r0, [sp, #8]
 8006a9a:	9305      	str	r3, [sp, #20]
 8006a9c:	898b      	ldrh	r3, [r1, #12]
 8006a9e:	000f      	movs	r7, r1
 8006aa0:	0016      	movs	r6, r2
 8006aa2:	061b      	lsls	r3, r3, #24
 8006aa4:	d510      	bpl.n	8006ac8 <_svfiprintf_r+0x34>
 8006aa6:	690b      	ldr	r3, [r1, #16]
 8006aa8:	2b00      	cmp	r3, #0
 8006aaa:	d10d      	bne.n	8006ac8 <_svfiprintf_r+0x34>
 8006aac:	2140      	movs	r1, #64	; 0x40
 8006aae:	f000 faeb 	bl	8007088 <_malloc_r>
 8006ab2:	6038      	str	r0, [r7, #0]
 8006ab4:	6138      	str	r0, [r7, #16]
 8006ab6:	2800      	cmp	r0, #0
 8006ab8:	d104      	bne.n	8006ac4 <_svfiprintf_r+0x30>
 8006aba:	230c      	movs	r3, #12
 8006abc:	9a02      	ldr	r2, [sp, #8]
 8006abe:	3801      	subs	r0, #1
 8006ac0:	6013      	str	r3, [r2, #0]
 8006ac2:	e0d8      	b.n	8006c76 <_svfiprintf_r+0x1e2>
 8006ac4:	2340      	movs	r3, #64	; 0x40
 8006ac6:	617b      	str	r3, [r7, #20]
 8006ac8:	2300      	movs	r3, #0
 8006aca:	ad06      	add	r5, sp, #24
 8006acc:	616b      	str	r3, [r5, #20]
 8006ace:	3320      	adds	r3, #32
 8006ad0:	766b      	strb	r3, [r5, #25]
 8006ad2:	3310      	adds	r3, #16
 8006ad4:	76ab      	strb	r3, [r5, #26]
 8006ad6:	0034      	movs	r4, r6
 8006ad8:	7823      	ldrb	r3, [r4, #0]
 8006ada:	2b00      	cmp	r3, #0
 8006adc:	d103      	bne.n	8006ae6 <_svfiprintf_r+0x52>
 8006ade:	1ba3      	subs	r3, r4, r6
 8006ae0:	9304      	str	r3, [sp, #16]
 8006ae2:	d012      	beq.n	8006b0a <_svfiprintf_r+0x76>
 8006ae4:	e003      	b.n	8006aee <_svfiprintf_r+0x5a>
 8006ae6:	2b25      	cmp	r3, #37	; 0x25
 8006ae8:	d0f9      	beq.n	8006ade <_svfiprintf_r+0x4a>
 8006aea:	3401      	adds	r4, #1
 8006aec:	e7f4      	b.n	8006ad8 <_svfiprintf_r+0x44>
 8006aee:	1ba3      	subs	r3, r4, r6
 8006af0:	0032      	movs	r2, r6
 8006af2:	0039      	movs	r1, r7
 8006af4:	9802      	ldr	r0, [sp, #8]
 8006af6:	f7ff ff6b 	bl	80069d0 <__ssputs_r>
 8006afa:	1c43      	adds	r3, r0, #1
 8006afc:	d100      	bne.n	8006b00 <_svfiprintf_r+0x6c>
 8006afe:	e0b4      	b.n	8006c6a <_svfiprintf_r+0x1d6>
 8006b00:	696a      	ldr	r2, [r5, #20]
 8006b02:	9b04      	ldr	r3, [sp, #16]
 8006b04:	4694      	mov	ip, r2
 8006b06:	4463      	add	r3, ip
 8006b08:	616b      	str	r3, [r5, #20]
 8006b0a:	7823      	ldrb	r3, [r4, #0]
 8006b0c:	2b00      	cmp	r3, #0
 8006b0e:	d100      	bne.n	8006b12 <_svfiprintf_r+0x7e>
 8006b10:	e0ab      	b.n	8006c6a <_svfiprintf_r+0x1d6>
 8006b12:	2201      	movs	r2, #1
 8006b14:	2300      	movs	r3, #0
 8006b16:	4252      	negs	r2, r2
 8006b18:	606a      	str	r2, [r5, #4]
 8006b1a:	a902      	add	r1, sp, #8
 8006b1c:	3254      	adds	r2, #84	; 0x54
 8006b1e:	1852      	adds	r2, r2, r1
 8006b20:	3401      	adds	r4, #1
 8006b22:	602b      	str	r3, [r5, #0]
 8006b24:	60eb      	str	r3, [r5, #12]
 8006b26:	60ab      	str	r3, [r5, #8]
 8006b28:	7013      	strb	r3, [r2, #0]
 8006b2a:	65ab      	str	r3, [r5, #88]	; 0x58
 8006b2c:	4e53      	ldr	r6, [pc, #332]	; (8006c7c <_svfiprintf_r+0x1e8>)
 8006b2e:	7821      	ldrb	r1, [r4, #0]
 8006b30:	2205      	movs	r2, #5
 8006b32:	0030      	movs	r0, r6
 8006b34:	f000 fa3c 	bl	8006fb0 <memchr>
 8006b38:	2800      	cmp	r0, #0
 8006b3a:	d007      	beq.n	8006b4c <_svfiprintf_r+0xb8>
 8006b3c:	2301      	movs	r3, #1
 8006b3e:	1b80      	subs	r0, r0, r6
 8006b40:	4083      	lsls	r3, r0
 8006b42:	682a      	ldr	r2, [r5, #0]
 8006b44:	3401      	adds	r4, #1
 8006b46:	4313      	orrs	r3, r2
 8006b48:	602b      	str	r3, [r5, #0]
 8006b4a:	e7ef      	b.n	8006b2c <_svfiprintf_r+0x98>
 8006b4c:	682b      	ldr	r3, [r5, #0]
 8006b4e:	06da      	lsls	r2, r3, #27
 8006b50:	d504      	bpl.n	8006b5c <_svfiprintf_r+0xc8>
 8006b52:	2253      	movs	r2, #83	; 0x53
 8006b54:	2120      	movs	r1, #32
 8006b56:	a802      	add	r0, sp, #8
 8006b58:	1812      	adds	r2, r2, r0
 8006b5a:	7011      	strb	r1, [r2, #0]
 8006b5c:	071a      	lsls	r2, r3, #28
 8006b5e:	d504      	bpl.n	8006b6a <_svfiprintf_r+0xd6>
 8006b60:	2253      	movs	r2, #83	; 0x53
 8006b62:	212b      	movs	r1, #43	; 0x2b
 8006b64:	a802      	add	r0, sp, #8
 8006b66:	1812      	adds	r2, r2, r0
 8006b68:	7011      	strb	r1, [r2, #0]
 8006b6a:	7822      	ldrb	r2, [r4, #0]
 8006b6c:	2a2a      	cmp	r2, #42	; 0x2a
 8006b6e:	d003      	beq.n	8006b78 <_svfiprintf_r+0xe4>
 8006b70:	9b09      	ldr	r3, [sp, #36]	; 0x24
 8006b72:	2000      	movs	r0, #0
 8006b74:	210a      	movs	r1, #10
 8006b76:	e00e      	b.n	8006b96 <_svfiprintf_r+0x102>
 8006b78:	9a05      	ldr	r2, [sp, #20]
 8006b7a:	1d11      	adds	r1, r2, #4
 8006b7c:	6812      	ldr	r2, [r2, #0]
 8006b7e:	9105      	str	r1, [sp, #20]
 8006b80:	2a00      	cmp	r2, #0
 8006b82:	db01      	blt.n	8006b88 <_svfiprintf_r+0xf4>
 8006b84:	9209      	str	r2, [sp, #36]	; 0x24
 8006b86:	e004      	b.n	8006b92 <_svfiprintf_r+0xfe>
 8006b88:	4252      	negs	r2, r2
 8006b8a:	60ea      	str	r2, [r5, #12]
 8006b8c:	2202      	movs	r2, #2
 8006b8e:	4313      	orrs	r3, r2
 8006b90:	602b      	str	r3, [r5, #0]
 8006b92:	3401      	adds	r4, #1
 8006b94:	e00b      	b.n	8006bae <_svfiprintf_r+0x11a>
 8006b96:	7822      	ldrb	r2, [r4, #0]
 8006b98:	3a30      	subs	r2, #48	; 0x30
 8006b9a:	2a09      	cmp	r2, #9
 8006b9c:	d804      	bhi.n	8006ba8 <_svfiprintf_r+0x114>
 8006b9e:	434b      	muls	r3, r1
 8006ba0:	3401      	adds	r4, #1
 8006ba2:	189b      	adds	r3, r3, r2
 8006ba4:	2001      	movs	r0, #1
 8006ba6:	e7f6      	b.n	8006b96 <_svfiprintf_r+0x102>
 8006ba8:	2800      	cmp	r0, #0
 8006baa:	d000      	beq.n	8006bae <_svfiprintf_r+0x11a>
 8006bac:	9309      	str	r3, [sp, #36]	; 0x24
 8006bae:	7823      	ldrb	r3, [r4, #0]
 8006bb0:	2b2e      	cmp	r3, #46	; 0x2e
 8006bb2:	d11e      	bne.n	8006bf2 <_svfiprintf_r+0x15e>
 8006bb4:	7863      	ldrb	r3, [r4, #1]
 8006bb6:	2b2a      	cmp	r3, #42	; 0x2a
 8006bb8:	d10a      	bne.n	8006bd0 <_svfiprintf_r+0x13c>
 8006bba:	9b05      	ldr	r3, [sp, #20]
 8006bbc:	3402      	adds	r4, #2
 8006bbe:	1d1a      	adds	r2, r3, #4
 8006bc0:	681b      	ldr	r3, [r3, #0]
 8006bc2:	9205      	str	r2, [sp, #20]
 8006bc4:	2b00      	cmp	r3, #0
 8006bc6:	da01      	bge.n	8006bcc <_svfiprintf_r+0x138>
 8006bc8:	2301      	movs	r3, #1
 8006bca:	425b      	negs	r3, r3
 8006bcc:	9307      	str	r3, [sp, #28]
 8006bce:	e010      	b.n	8006bf2 <_svfiprintf_r+0x15e>
 8006bd0:	2300      	movs	r3, #0
 8006bd2:	200a      	movs	r0, #10
 8006bd4:	001a      	movs	r2, r3
 8006bd6:	3401      	adds	r4, #1
 8006bd8:	606b      	str	r3, [r5, #4]
 8006bda:	7821      	ldrb	r1, [r4, #0]
 8006bdc:	3930      	subs	r1, #48	; 0x30
 8006bde:	2909      	cmp	r1, #9
 8006be0:	d804      	bhi.n	8006bec <_svfiprintf_r+0x158>
 8006be2:	4342      	muls	r2, r0
 8006be4:	3401      	adds	r4, #1
 8006be6:	1852      	adds	r2, r2, r1
 8006be8:	2301      	movs	r3, #1
 8006bea:	e7f6      	b.n	8006bda <_svfiprintf_r+0x146>
 8006bec:	2b00      	cmp	r3, #0
 8006bee:	d000      	beq.n	8006bf2 <_svfiprintf_r+0x15e>
 8006bf0:	9207      	str	r2, [sp, #28]
 8006bf2:	4e23      	ldr	r6, [pc, #140]	; (8006c80 <_svfiprintf_r+0x1ec>)
 8006bf4:	7821      	ldrb	r1, [r4, #0]
 8006bf6:	2203      	movs	r2, #3
 8006bf8:	0030      	movs	r0, r6
 8006bfa:	f000 f9d9 	bl	8006fb0 <memchr>
 8006bfe:	2800      	cmp	r0, #0
 8006c00:	d006      	beq.n	8006c10 <_svfiprintf_r+0x17c>
 8006c02:	2340      	movs	r3, #64	; 0x40
 8006c04:	1b80      	subs	r0, r0, r6
 8006c06:	4083      	lsls	r3, r0
 8006c08:	682a      	ldr	r2, [r5, #0]
 8006c0a:	3401      	adds	r4, #1
 8006c0c:	4313      	orrs	r3, r2
 8006c0e:	602b      	str	r3, [r5, #0]
 8006c10:	7821      	ldrb	r1, [r4, #0]
 8006c12:	2206      	movs	r2, #6
 8006c14:	481b      	ldr	r0, [pc, #108]	; (8006c84 <_svfiprintf_r+0x1f0>)
 8006c16:	1c66      	adds	r6, r4, #1
 8006c18:	7629      	strb	r1, [r5, #24]
 8006c1a:	f000 f9c9 	bl	8006fb0 <memchr>
 8006c1e:	2800      	cmp	r0, #0
 8006c20:	d012      	beq.n	8006c48 <_svfiprintf_r+0x1b4>
 8006c22:	4b19      	ldr	r3, [pc, #100]	; (8006c88 <_svfiprintf_r+0x1f4>)
 8006c24:	2b00      	cmp	r3, #0
 8006c26:	d106      	bne.n	8006c36 <_svfiprintf_r+0x1a2>
 8006c28:	2207      	movs	r2, #7
 8006c2a:	9b05      	ldr	r3, [sp, #20]
 8006c2c:	3307      	adds	r3, #7
 8006c2e:	4393      	bics	r3, r2
 8006c30:	3308      	adds	r3, #8
 8006c32:	9305      	str	r3, [sp, #20]
 8006c34:	e014      	b.n	8006c60 <_svfiprintf_r+0x1cc>
 8006c36:	ab05      	add	r3, sp, #20
 8006c38:	9300      	str	r3, [sp, #0]
 8006c3a:	003a      	movs	r2, r7
 8006c3c:	4b13      	ldr	r3, [pc, #76]	; (8006c8c <_svfiprintf_r+0x1f8>)
 8006c3e:	0029      	movs	r1, r5
 8006c40:	9802      	ldr	r0, [sp, #8]
 8006c42:	e000      	b.n	8006c46 <_svfiprintf_r+0x1b2>
 8006c44:	bf00      	nop
 8006c46:	e007      	b.n	8006c58 <_svfiprintf_r+0x1c4>
 8006c48:	ab05      	add	r3, sp, #20
 8006c4a:	9300      	str	r3, [sp, #0]
 8006c4c:	003a      	movs	r2, r7
 8006c4e:	4b0f      	ldr	r3, [pc, #60]	; (8006c8c <_svfiprintf_r+0x1f8>)
 8006c50:	0029      	movs	r1, r5
 8006c52:	9802      	ldr	r0, [sp, #8]
 8006c54:	f000 f88a 	bl	8006d6c <_printf_i>
 8006c58:	9003      	str	r0, [sp, #12]
 8006c5a:	9b03      	ldr	r3, [sp, #12]
 8006c5c:	3301      	adds	r3, #1
 8006c5e:	d004      	beq.n	8006c6a <_svfiprintf_r+0x1d6>
 8006c60:	696b      	ldr	r3, [r5, #20]
 8006c62:	9a03      	ldr	r2, [sp, #12]
 8006c64:	189b      	adds	r3, r3, r2
 8006c66:	616b      	str	r3, [r5, #20]
 8006c68:	e735      	b.n	8006ad6 <_svfiprintf_r+0x42>
 8006c6a:	89bb      	ldrh	r3, [r7, #12]
 8006c6c:	980b      	ldr	r0, [sp, #44]	; 0x2c
 8006c6e:	065b      	lsls	r3, r3, #25
 8006c70:	d501      	bpl.n	8006c76 <_svfiprintf_r+0x1e2>
 8006c72:	2001      	movs	r0, #1
 8006c74:	4240      	negs	r0, r0
 8006c76:	b01f      	add	sp, #124	; 0x7c
 8006c78:	bdf0      	pop	{r4, r5, r6, r7, pc}
 8006c7a:	46c0      	nop			; (mov r8, r8)
 8006c7c:	0800763d 	.word	0x0800763d
 8006c80:	08007643 	.word	0x08007643
 8006c84:	08007647 	.word	0x08007647
 8006c88:	00000000 	.word	0x00000000
 8006c8c:	080069d1 	.word	0x080069d1

08006c90 <_printf_common>:
 8006c90:	b5f7      	push	{r0, r1, r2, r4, r5, r6, r7, lr}
 8006c92:	0017      	movs	r7, r2
 8006c94:	9301      	str	r3, [sp, #4]
 8006c96:	688a      	ldr	r2, [r1, #8]
 8006c98:	690b      	ldr	r3, [r1, #16]
 8006c9a:	9000      	str	r0, [sp, #0]
 8006c9c:	000c      	movs	r4, r1
 8006c9e:	4293      	cmp	r3, r2
 8006ca0:	da00      	bge.n	8006ca4 <_printf_common+0x14>
 8006ca2:	0013      	movs	r3, r2
 8006ca4:	0022      	movs	r2, r4
 8006ca6:	603b      	str	r3, [r7, #0]
 8006ca8:	3243      	adds	r2, #67	; 0x43
 8006caa:	7812      	ldrb	r2, [r2, #0]
 8006cac:	2a00      	cmp	r2, #0
 8006cae:	d001      	beq.n	8006cb4 <_printf_common+0x24>
 8006cb0:	3301      	adds	r3, #1
 8006cb2:	603b      	str	r3, [r7, #0]
 8006cb4:	6823      	ldr	r3, [r4, #0]
 8006cb6:	069b      	lsls	r3, r3, #26
 8006cb8:	d502      	bpl.n	8006cc0 <_printf_common+0x30>
 8006cba:	683b      	ldr	r3, [r7, #0]
 8006cbc:	3302      	adds	r3, #2
 8006cbe:	603b      	str	r3, [r7, #0]
 8006cc0:	2506      	movs	r5, #6
 8006cc2:	6823      	ldr	r3, [r4, #0]
 8006cc4:	401d      	ands	r5, r3
 8006cc6:	d01e      	beq.n	8006d06 <_printf_common+0x76>
 8006cc8:	0023      	movs	r3, r4
 8006cca:	3343      	adds	r3, #67	; 0x43
 8006ccc:	781b      	ldrb	r3, [r3, #0]
 8006cce:	1e5a      	subs	r2, r3, #1
 8006cd0:	4193      	sbcs	r3, r2
 8006cd2:	6822      	ldr	r2, [r4, #0]
 8006cd4:	0692      	lsls	r2, r2, #26
 8006cd6:	d51c      	bpl.n	8006d12 <_printf_common+0x82>
 8006cd8:	2030      	movs	r0, #48	; 0x30
 8006cda:	18e1      	adds	r1, r4, r3
 8006cdc:	3143      	adds	r1, #67	; 0x43
 8006cde:	7008      	strb	r0, [r1, #0]
 8006ce0:	0021      	movs	r1, r4
 8006ce2:	1c5a      	adds	r2, r3, #1
 8006ce4:	3145      	adds	r1, #69	; 0x45
 8006ce6:	7809      	ldrb	r1, [r1, #0]
 8006ce8:	18a2      	adds	r2, r4, r2
 8006cea:	3243      	adds	r2, #67	; 0x43
 8006cec:	3302      	adds	r3, #2
 8006cee:	7011      	strb	r1, [r2, #0]
 8006cf0:	e00f      	b.n	8006d12 <_printf_common+0x82>
 8006cf2:	0022      	movs	r2, r4
 8006cf4:	2301      	movs	r3, #1
 8006cf6:	3219      	adds	r2, #25
 8006cf8:	9901      	ldr	r1, [sp, #4]
 8006cfa:	9800      	ldr	r0, [sp, #0]
 8006cfc:	9e08      	ldr	r6, [sp, #32]
 8006cfe:	47b0      	blx	r6
 8006d00:	1c43      	adds	r3, r0, #1
 8006d02:	d00e      	beq.n	8006d22 <_printf_common+0x92>
 8006d04:	3501      	adds	r5, #1
 8006d06:	68e3      	ldr	r3, [r4, #12]
 8006d08:	683a      	ldr	r2, [r7, #0]
 8006d0a:	1a9b      	subs	r3, r3, r2
 8006d0c:	429d      	cmp	r5, r3
 8006d0e:	dbf0      	blt.n	8006cf2 <_printf_common+0x62>
 8006d10:	e7da      	b.n	8006cc8 <_printf_common+0x38>
 8006d12:	0022      	movs	r2, r4
 8006d14:	9901      	ldr	r1, [sp, #4]
 8006d16:	3243      	adds	r2, #67	; 0x43
 8006d18:	9800      	ldr	r0, [sp, #0]
 8006d1a:	9d08      	ldr	r5, [sp, #32]
 8006d1c:	47a8      	blx	r5
 8006d1e:	1c43      	adds	r3, r0, #1
 8006d20:	d102      	bne.n	8006d28 <_printf_common+0x98>
 8006d22:	2001      	movs	r0, #1
 8006d24:	4240      	negs	r0, r0
 8006d26:	e020      	b.n	8006d6a <_printf_common+0xda>
 8006d28:	2306      	movs	r3, #6
 8006d2a:	6820      	ldr	r0, [r4, #0]
 8006d2c:	68e1      	ldr	r1, [r4, #12]
 8006d2e:	683a      	ldr	r2, [r7, #0]
 8006d30:	4003      	ands	r3, r0
 8006d32:	2500      	movs	r5, #0
 8006d34:	2b04      	cmp	r3, #4
 8006d36:	d103      	bne.n	8006d40 <_printf_common+0xb0>
 8006d38:	1a8d      	subs	r5, r1, r2
 8006d3a:	43eb      	mvns	r3, r5
 8006d3c:	17db      	asrs	r3, r3, #31
 8006d3e:	401d      	ands	r5, r3
 8006d40:	68a3      	ldr	r3, [r4, #8]
 8006d42:	6922      	ldr	r2, [r4, #16]
 8006d44:	4293      	cmp	r3, r2
 8006d46:	dd01      	ble.n	8006d4c <_printf_common+0xbc>
 8006d48:	1a9b      	subs	r3, r3, r2
 8006d4a:	18ed      	adds	r5, r5, r3
 8006d4c:	2700      	movs	r7, #0
 8006d4e:	42bd      	cmp	r5, r7
 8006d50:	d00a      	beq.n	8006d68 <_printf_common+0xd8>
 8006d52:	0022      	movs	r2, r4
 8006d54:	2301      	movs	r3, #1
 8006d56:	321a      	adds	r2, #26
 8006d58:	9901      	ldr	r1, [sp, #4]
 8006d5a:	9800      	ldr	r0, [sp, #0]
 8006d5c:	9e08      	ldr	r6, [sp, #32]
 8006d5e:	47b0      	blx	r6
 8006d60:	1c43      	adds	r3, r0, #1
 8006d62:	d0de      	beq.n	8006d22 <_printf_common+0x92>
 8006d64:	3701      	adds	r7, #1
 8006d66:	e7f2      	b.n	8006d4e <_printf_common+0xbe>
 8006d68:	2000      	movs	r0, #0
 8006d6a:	bdfe      	pop	{r1, r2, r3, r4, r5, r6, r7, pc}

08006d6c <_printf_i>:
 8006d6c:	b5f0      	push	{r4, r5, r6, r7, lr}
 8006d6e:	b08b      	sub	sp, #44	; 0x2c
 8006d70:	9206      	str	r2, [sp, #24]
 8006d72:	000a      	movs	r2, r1
 8006d74:	3243      	adds	r2, #67	; 0x43
 8006d76:	9307      	str	r3, [sp, #28]
 8006d78:	9005      	str	r0, [sp, #20]
 8006d7a:	9204      	str	r2, [sp, #16]
 8006d7c:	7e0a      	ldrb	r2, [r1, #24]
 8006d7e:	000c      	movs	r4, r1
 8006d80:	9b10      	ldr	r3, [sp, #64]	; 0x40
 8006d82:	2a6e      	cmp	r2, #110	; 0x6e
 8006d84:	d100      	bne.n	8006d88 <_printf_i+0x1c>
 8006d86:	e0ab      	b.n	8006ee0 <_printf_i+0x174>
 8006d88:	d811      	bhi.n	8006dae <_printf_i+0x42>
 8006d8a:	2a63      	cmp	r2, #99	; 0x63
 8006d8c:	d022      	beq.n	8006dd4 <_printf_i+0x68>
 8006d8e:	d809      	bhi.n	8006da4 <_printf_i+0x38>
 8006d90:	2a00      	cmp	r2, #0
 8006d92:	d100      	bne.n	8006d96 <_printf_i+0x2a>
 8006d94:	e0b5      	b.n	8006f02 <_printf_i+0x196>
 8006d96:	2a58      	cmp	r2, #88	; 0x58
 8006d98:	d000      	beq.n	8006d9c <_printf_i+0x30>
 8006d9a:	e0c5      	b.n	8006f28 <_printf_i+0x1bc>
 8006d9c:	3145      	adds	r1, #69	; 0x45
 8006d9e:	700a      	strb	r2, [r1, #0]
 8006da0:	4a81      	ldr	r2, [pc, #516]	; (8006fa8 <_printf_i+0x23c>)
 8006da2:	e04f      	b.n	8006e44 <_printf_i+0xd8>
 8006da4:	2a64      	cmp	r2, #100	; 0x64
 8006da6:	d01d      	beq.n	8006de4 <_printf_i+0x78>
 8006da8:	2a69      	cmp	r2, #105	; 0x69
 8006daa:	d01b      	beq.n	8006de4 <_printf_i+0x78>
 8006dac:	e0bc      	b.n	8006f28 <_printf_i+0x1bc>
 8006dae:	2a73      	cmp	r2, #115	; 0x73
 8006db0:	d100      	bne.n	8006db4 <_printf_i+0x48>
 8006db2:	e0aa      	b.n	8006f0a <_printf_i+0x19e>
 8006db4:	d809      	bhi.n	8006dca <_printf_i+0x5e>
 8006db6:	2a6f      	cmp	r2, #111	; 0x6f
 8006db8:	d029      	beq.n	8006e0e <_printf_i+0xa2>
 8006dba:	2a70      	cmp	r2, #112	; 0x70
 8006dbc:	d000      	beq.n	8006dc0 <_printf_i+0x54>
 8006dbe:	e0b3      	b.n	8006f28 <_printf_i+0x1bc>
 8006dc0:	2220      	movs	r2, #32
 8006dc2:	6809      	ldr	r1, [r1, #0]
 8006dc4:	430a      	orrs	r2, r1
 8006dc6:	6022      	str	r2, [r4, #0]
 8006dc8:	e037      	b.n	8006e3a <_printf_i+0xce>
 8006dca:	2a75      	cmp	r2, #117	; 0x75
 8006dcc:	d01f      	beq.n	8006e0e <_printf_i+0xa2>
 8006dce:	2a78      	cmp	r2, #120	; 0x78
 8006dd0:	d033      	beq.n	8006e3a <_printf_i+0xce>
 8006dd2:	e0a9      	b.n	8006f28 <_printf_i+0x1bc>
 8006dd4:	000e      	movs	r6, r1
 8006dd6:	681a      	ldr	r2, [r3, #0]
 8006dd8:	3642      	adds	r6, #66	; 0x42
 8006dda:	1d11      	adds	r1, r2, #4
 8006ddc:	6019      	str	r1, [r3, #0]
 8006dde:	6813      	ldr	r3, [r2, #0]
 8006de0:	7033      	strb	r3, [r6, #0]
 8006de2:	e0a4      	b.n	8006f2e <_printf_i+0x1c2>
 8006de4:	6821      	ldr	r1, [r4, #0]
 8006de6:	681a      	ldr	r2, [r3, #0]
 8006de8:	0608      	lsls	r0, r1, #24
 8006dea:	d406      	bmi.n	8006dfa <_printf_i+0x8e>
 8006dec:	0649      	lsls	r1, r1, #25
 8006dee:	d504      	bpl.n	8006dfa <_printf_i+0x8e>
 8006df0:	1d11      	adds	r1, r2, #4
 8006df2:	6019      	str	r1, [r3, #0]
 8006df4:	2300      	movs	r3, #0
 8006df6:	5ed5      	ldrsh	r5, [r2, r3]
 8006df8:	e002      	b.n	8006e00 <_printf_i+0x94>
 8006dfa:	1d11      	adds	r1, r2, #4
 8006dfc:	6019      	str	r1, [r3, #0]
 8006dfe:	6815      	ldr	r5, [r2, #0]
 8006e00:	2d00      	cmp	r5, #0
 8006e02:	da3b      	bge.n	8006e7c <_printf_i+0x110>
 8006e04:	232d      	movs	r3, #45	; 0x2d
 8006e06:	9a04      	ldr	r2, [sp, #16]
 8006e08:	426d      	negs	r5, r5
 8006e0a:	7013      	strb	r3, [r2, #0]
 8006e0c:	e036      	b.n	8006e7c <_printf_i+0x110>
 8006e0e:	6821      	ldr	r1, [r4, #0]
 8006e10:	681a      	ldr	r2, [r3, #0]
 8006e12:	0608      	lsls	r0, r1, #24
 8006e14:	d406      	bmi.n	8006e24 <_printf_i+0xb8>
 8006e16:	0649      	lsls	r1, r1, #25
 8006e18:	d504      	bpl.n	8006e24 <_printf_i+0xb8>
 8006e1a:	6815      	ldr	r5, [r2, #0]
 8006e1c:	1d11      	adds	r1, r2, #4
 8006e1e:	6019      	str	r1, [r3, #0]
 8006e20:	b2ad      	uxth	r5, r5
 8006e22:	e002      	b.n	8006e2a <_printf_i+0xbe>
 8006e24:	1d11      	adds	r1, r2, #4
 8006e26:	6019      	str	r1, [r3, #0]
 8006e28:	6815      	ldr	r5, [r2, #0]
 8006e2a:	4b5f      	ldr	r3, [pc, #380]	; (8006fa8 <_printf_i+0x23c>)
 8006e2c:	7e22      	ldrb	r2, [r4, #24]
 8006e2e:	9303      	str	r3, [sp, #12]
 8006e30:	2708      	movs	r7, #8
 8006e32:	2a6f      	cmp	r2, #111	; 0x6f
 8006e34:	d01d      	beq.n	8006e72 <_printf_i+0x106>
 8006e36:	270a      	movs	r7, #10
 8006e38:	e01b      	b.n	8006e72 <_printf_i+0x106>
 8006e3a:	0022      	movs	r2, r4
 8006e3c:	2178      	movs	r1, #120	; 0x78
 8006e3e:	3245      	adds	r2, #69	; 0x45
 8006e40:	7011      	strb	r1, [r2, #0]
 8006e42:	4a5a      	ldr	r2, [pc, #360]	; (8006fac <_printf_i+0x240>)
 8006e44:	6819      	ldr	r1, [r3, #0]
 8006e46:	9203      	str	r2, [sp, #12]
 8006e48:	1d08      	adds	r0, r1, #4
 8006e4a:	6822      	ldr	r2, [r4, #0]
 8006e4c:	6018      	str	r0, [r3, #0]
 8006e4e:	680d      	ldr	r5, [r1, #0]
 8006e50:	0610      	lsls	r0, r2, #24
 8006e52:	d402      	bmi.n	8006e5a <_printf_i+0xee>
 8006e54:	0650      	lsls	r0, r2, #25
 8006e56:	d500      	bpl.n	8006e5a <_printf_i+0xee>
 8006e58:	b2ad      	uxth	r5, r5
 8006e5a:	07d3      	lsls	r3, r2, #31
 8006e5c:	d502      	bpl.n	8006e64 <_printf_i+0xf8>
 8006e5e:	2320      	movs	r3, #32
 8006e60:	431a      	orrs	r2, r3
 8006e62:	6022      	str	r2, [r4, #0]
 8006e64:	2710      	movs	r7, #16
 8006e66:	2d00      	cmp	r5, #0
 8006e68:	d103      	bne.n	8006e72 <_printf_i+0x106>
 8006e6a:	2320      	movs	r3, #32
 8006e6c:	6822      	ldr	r2, [r4, #0]
 8006e6e:	439a      	bics	r2, r3
 8006e70:	6022      	str	r2, [r4, #0]
 8006e72:	0023      	movs	r3, r4
 8006e74:	2200      	movs	r2, #0
 8006e76:	3343      	adds	r3, #67	; 0x43
 8006e78:	701a      	strb	r2, [r3, #0]
 8006e7a:	e002      	b.n	8006e82 <_printf_i+0x116>
 8006e7c:	270a      	movs	r7, #10
 8006e7e:	4b4a      	ldr	r3, [pc, #296]	; (8006fa8 <_printf_i+0x23c>)
 8006e80:	9303      	str	r3, [sp, #12]
 8006e82:	6863      	ldr	r3, [r4, #4]
 8006e84:	60a3      	str	r3, [r4, #8]
 8006e86:	2b00      	cmp	r3, #0
 8006e88:	db09      	blt.n	8006e9e <_printf_i+0x132>
 8006e8a:	2204      	movs	r2, #4
 8006e8c:	6821      	ldr	r1, [r4, #0]
 8006e8e:	4391      	bics	r1, r2
 8006e90:	6021      	str	r1, [r4, #0]
 8006e92:	2d00      	cmp	r5, #0
 8006e94:	d105      	bne.n	8006ea2 <_printf_i+0x136>
 8006e96:	9e04      	ldr	r6, [sp, #16]
 8006e98:	2b00      	cmp	r3, #0
 8006e9a:	d011      	beq.n	8006ec0 <_printf_i+0x154>
 8006e9c:	e07b      	b.n	8006f96 <_printf_i+0x22a>
 8006e9e:	2d00      	cmp	r5, #0
 8006ea0:	d079      	beq.n	8006f96 <_printf_i+0x22a>
 8006ea2:	9e04      	ldr	r6, [sp, #16]
 8006ea4:	0028      	movs	r0, r5
 8006ea6:	0039      	movs	r1, r7
 8006ea8:	f7f9 f9b4 	bl	8000214 <__aeabi_uidivmod>
 8006eac:	9b03      	ldr	r3, [sp, #12]
 8006eae:	3e01      	subs	r6, #1
 8006eb0:	5c5b      	ldrb	r3, [r3, r1]
 8006eb2:	0028      	movs	r0, r5
 8006eb4:	7033      	strb	r3, [r6, #0]
 8006eb6:	0039      	movs	r1, r7
 8006eb8:	f7f9 f926 	bl	8000108 <__aeabi_uidiv>
 8006ebc:	1e05      	subs	r5, r0, #0
 8006ebe:	d1f1      	bne.n	8006ea4 <_printf_i+0x138>
 8006ec0:	2f08      	cmp	r7, #8
 8006ec2:	d109      	bne.n	8006ed8 <_printf_i+0x16c>
 8006ec4:	6823      	ldr	r3, [r4, #0]
 8006ec6:	07db      	lsls	r3, r3, #31
 8006ec8:	d506      	bpl.n	8006ed8 <_printf_i+0x16c>
 8006eca:	6863      	ldr	r3, [r4, #4]
 8006ecc:	6922      	ldr	r2, [r4, #16]
 8006ece:	4293      	cmp	r3, r2
 8006ed0:	dc02      	bgt.n	8006ed8 <_printf_i+0x16c>
 8006ed2:	2330      	movs	r3, #48	; 0x30
 8006ed4:	3e01      	subs	r6, #1
 8006ed6:	7033      	strb	r3, [r6, #0]
 8006ed8:	9b04      	ldr	r3, [sp, #16]
 8006eda:	1b9b      	subs	r3, r3, r6
 8006edc:	6123      	str	r3, [r4, #16]
 8006ede:	e02b      	b.n	8006f38 <_printf_i+0x1cc>
 8006ee0:	6809      	ldr	r1, [r1, #0]
 8006ee2:	681a      	ldr	r2, [r3, #0]
 8006ee4:	0608      	lsls	r0, r1, #24
 8006ee6:	d407      	bmi.n	8006ef8 <_printf_i+0x18c>
 8006ee8:	0649      	lsls	r1, r1, #25
 8006eea:	d505      	bpl.n	8006ef8 <_printf_i+0x18c>
 8006eec:	1d11      	adds	r1, r2, #4
 8006eee:	6019      	str	r1, [r3, #0]
 8006ef0:	6813      	ldr	r3, [r2, #0]
 8006ef2:	8aa2      	ldrh	r2, [r4, #20]
 8006ef4:	801a      	strh	r2, [r3, #0]
 8006ef6:	e004      	b.n	8006f02 <_printf_i+0x196>
 8006ef8:	1d11      	adds	r1, r2, #4
 8006efa:	6019      	str	r1, [r3, #0]
 8006efc:	6813      	ldr	r3, [r2, #0]
 8006efe:	6962      	ldr	r2, [r4, #20]
 8006f00:	601a      	str	r2, [r3, #0]
 8006f02:	2300      	movs	r3, #0
 8006f04:	9e04      	ldr	r6, [sp, #16]
 8006f06:	6123      	str	r3, [r4, #16]
 8006f08:	e016      	b.n	8006f38 <_printf_i+0x1cc>
 8006f0a:	681a      	ldr	r2, [r3, #0]
 8006f0c:	1d11      	adds	r1, r2, #4
 8006f0e:	6019      	str	r1, [r3, #0]
 8006f10:	6816      	ldr	r6, [r2, #0]
 8006f12:	2100      	movs	r1, #0
 8006f14:	6862      	ldr	r2, [r4, #4]
 8006f16:	0030      	movs	r0, r6
 8006f18:	f000 f84a 	bl	8006fb0 <memchr>
 8006f1c:	2800      	cmp	r0, #0
 8006f1e:	d001      	beq.n	8006f24 <_printf_i+0x1b8>
 8006f20:	1b80      	subs	r0, r0, r6
 8006f22:	6060      	str	r0, [r4, #4]
 8006f24:	6863      	ldr	r3, [r4, #4]
 8006f26:	e003      	b.n	8006f30 <_printf_i+0x1c4>
 8006f28:	0026      	movs	r6, r4
 8006f2a:	3642      	adds	r6, #66	; 0x42
 8006f2c:	7032      	strb	r2, [r6, #0]
 8006f2e:	2301      	movs	r3, #1
 8006f30:	6123      	str	r3, [r4, #16]
 8006f32:	2300      	movs	r3, #0
 8006f34:	9a04      	ldr	r2, [sp, #16]
 8006f36:	7013      	strb	r3, [r2, #0]
 8006f38:	9b07      	ldr	r3, [sp, #28]
 8006f3a:	aa09      	add	r2, sp, #36	; 0x24
 8006f3c:	9300      	str	r3, [sp, #0]
 8006f3e:	0021      	movs	r1, r4
 8006f40:	9b06      	ldr	r3, [sp, #24]
 8006f42:	9805      	ldr	r0, [sp, #20]
 8006f44:	f7ff fea4 	bl	8006c90 <_printf_common>
 8006f48:	1c43      	adds	r3, r0, #1
 8006f4a:	d102      	bne.n	8006f52 <_printf_i+0x1e6>
 8006f4c:	2001      	movs	r0, #1
 8006f4e:	4240      	negs	r0, r0
 8006f50:	e027      	b.n	8006fa2 <_printf_i+0x236>
 8006f52:	6923      	ldr	r3, [r4, #16]
 8006f54:	0032      	movs	r2, r6
 8006f56:	9906      	ldr	r1, [sp, #24]
 8006f58:	9805      	ldr	r0, [sp, #20]
 8006f5a:	9d07      	ldr	r5, [sp, #28]
 8006f5c:	47a8      	blx	r5
 8006f5e:	1c43      	adds	r3, r0, #1
 8006f60:	d0f4      	beq.n	8006f4c <_printf_i+0x1e0>
 8006f62:	6823      	ldr	r3, [r4, #0]
 8006f64:	2500      	movs	r5, #0
 8006f66:	079b      	lsls	r3, r3, #30
 8006f68:	d40f      	bmi.n	8006f8a <_printf_i+0x21e>
 8006f6a:	9b09      	ldr	r3, [sp, #36]	; 0x24
 8006f6c:	68e0      	ldr	r0, [r4, #12]
 8006f6e:	4298      	cmp	r0, r3
 8006f70:	da17      	bge.n	8006fa2 <_printf_i+0x236>
 8006f72:	0018      	movs	r0, r3
 8006f74:	e015      	b.n	8006fa2 <_printf_i+0x236>
 8006f76:	0022      	movs	r2, r4
 8006f78:	2301      	movs	r3, #1
 8006f7a:	3219      	adds	r2, #25
 8006f7c:	9906      	ldr	r1, [sp, #24]
 8006f7e:	9805      	ldr	r0, [sp, #20]
 8006f80:	9e07      	ldr	r6, [sp, #28]
 8006f82:	47b0      	blx	r6
 8006f84:	1c43      	adds	r3, r0, #1
 8006f86:	d0e1      	beq.n	8006f4c <_printf_i+0x1e0>
 8006f88:	3501      	adds	r5, #1
 8006f8a:	68e3      	ldr	r3, [r4, #12]
 8006f8c:	9a09      	ldr	r2, [sp, #36]	; 0x24
 8006f8e:	1a9b      	subs	r3, r3, r2
 8006f90:	429d      	cmp	r5, r3
 8006f92:	dbf0      	blt.n	8006f76 <_printf_i+0x20a>
 8006f94:	e7e9      	b.n	8006f6a <_printf_i+0x1fe>
 8006f96:	0026      	movs	r6, r4
 8006f98:	9b03      	ldr	r3, [sp, #12]
 8006f9a:	3642      	adds	r6, #66	; 0x42
 8006f9c:	781b      	ldrb	r3, [r3, #0]
 8006f9e:	7033      	strb	r3, [r6, #0]
 8006fa0:	e78e      	b.n	8006ec0 <_printf_i+0x154>
 8006fa2:	b00b      	add	sp, #44	; 0x2c
 8006fa4:	bdf0      	pop	{r4, r5, r6, r7, pc}
 8006fa6:	46c0      	nop			; (mov r8, r8)
 8006fa8:	0800764e 	.word	0x0800764e
 8006fac:	0800765f 	.word	0x0800765f

08006fb0 <memchr>:
 8006fb0:	b2c9      	uxtb	r1, r1
 8006fb2:	1882      	adds	r2, r0, r2
 8006fb4:	4290      	cmp	r0, r2
 8006fb6:	d004      	beq.n	8006fc2 <memchr+0x12>
 8006fb8:	7803      	ldrb	r3, [r0, #0]
 8006fba:	428b      	cmp	r3, r1
 8006fbc:	d002      	beq.n	8006fc4 <memchr+0x14>
 8006fbe:	3001      	adds	r0, #1
 8006fc0:	e7f8      	b.n	8006fb4 <memchr+0x4>
 8006fc2:	2000      	movs	r0, #0
 8006fc4:	4770      	bx	lr

08006fc6 <memmove>:
 8006fc6:	b510      	push	{r4, lr}
 8006fc8:	4288      	cmp	r0, r1
 8006fca:	d902      	bls.n	8006fd2 <memmove+0xc>
 8006fcc:	188b      	adds	r3, r1, r2
 8006fce:	4298      	cmp	r0, r3
 8006fd0:	d301      	bcc.n	8006fd6 <memmove+0x10>
 8006fd2:	2300      	movs	r3, #0
 8006fd4:	e005      	b.n	8006fe2 <memmove+0x1c>
 8006fd6:	1a9b      	subs	r3, r3, r2
 8006fd8:	3a01      	subs	r2, #1
 8006fda:	d308      	bcc.n	8006fee <memmove+0x28>
 8006fdc:	5c99      	ldrb	r1, [r3, r2]
 8006fde:	5481      	strb	r1, [r0, r2]
 8006fe0:	e7fa      	b.n	8006fd8 <memmove+0x12>
 8006fe2:	4293      	cmp	r3, r2
 8006fe4:	d003      	beq.n	8006fee <memmove+0x28>
 8006fe6:	5ccc      	ldrb	r4, [r1, r3]
 8006fe8:	54c4      	strb	r4, [r0, r3]
 8006fea:	3301      	adds	r3, #1
 8006fec:	e7f9      	b.n	8006fe2 <memmove+0x1c>
 8006fee:	bd10      	pop	{r4, pc}

08006ff0 <_free_r>:
 8006ff0:	b570      	push	{r4, r5, r6, lr}
 8006ff2:	0005      	movs	r5, r0
 8006ff4:	2900      	cmp	r1, #0
 8006ff6:	d044      	beq.n	8007082 <_free_r+0x92>
 8006ff8:	1f0c      	subs	r4, r1, #4
 8006ffa:	6823      	ldr	r3, [r4, #0]
 8006ffc:	2b00      	cmp	r3, #0
 8006ffe:	da00      	bge.n	8007002 <_free_r+0x12>
 8007000:	18e4      	adds	r4, r4, r3
 8007002:	0028      	movs	r0, r5
 8007004:	f000 f8d8 	bl	80071b8 <__malloc_lock>
 8007008:	4a1e      	ldr	r2, [pc, #120]	; (8007084 <_free_r+0x94>)
 800700a:	6813      	ldr	r3, [r2, #0]
 800700c:	0011      	movs	r1, r2
 800700e:	2b00      	cmp	r3, #0
 8007010:	d102      	bne.n	8007018 <_free_r+0x28>
 8007012:	6063      	str	r3, [r4, #4]
 8007014:	6014      	str	r4, [r2, #0]
 8007016:	e031      	b.n	800707c <_free_r+0x8c>
 8007018:	42a3      	cmp	r3, r4
 800701a:	d90d      	bls.n	8007038 <_free_r+0x48>
 800701c:	6822      	ldr	r2, [r4, #0]
 800701e:	18a0      	adds	r0, r4, r2
 8007020:	4283      	cmp	r3, r0
 8007022:	d103      	bne.n	800702c <_free_r+0x3c>
 8007024:	6818      	ldr	r0, [r3, #0]
 8007026:	685b      	ldr	r3, [r3, #4]
 8007028:	1882      	adds	r2, r0, r2
 800702a:	6022      	str	r2, [r4, #0]
 800702c:	6063      	str	r3, [r4, #4]
 800702e:	600c      	str	r4, [r1, #0]
 8007030:	e024      	b.n	800707c <_free_r+0x8c>
 8007032:	42a2      	cmp	r2, r4
 8007034:	d803      	bhi.n	800703e <_free_r+0x4e>
 8007036:	0013      	movs	r3, r2
 8007038:	685a      	ldr	r2, [r3, #4]
 800703a:	2a00      	cmp	r2, #0
 800703c:	d1f9      	bne.n	8007032 <_free_r+0x42>
 800703e:	681e      	ldr	r6, [r3, #0]
 8007040:	1998      	adds	r0, r3, r6
 8007042:	42a0      	cmp	r0, r4
 8007044:	d10b      	bne.n	800705e <_free_r+0x6e>
 8007046:	6821      	ldr	r1, [r4, #0]
 8007048:	1871      	adds	r1, r6, r1
 800704a:	1858      	adds	r0, r3, r1
 800704c:	6019      	str	r1, [r3, #0]
 800704e:	4282      	cmp	r2, r0
 8007050:	d114      	bne.n	800707c <_free_r+0x8c>
 8007052:	6810      	ldr	r0, [r2, #0]
 8007054:	6852      	ldr	r2, [r2, #4]
 8007056:	1841      	adds	r1, r0, r1
 8007058:	6019      	str	r1, [r3, #0]
 800705a:	605a      	str	r2, [r3, #4]
 800705c:	e00e      	b.n	800707c <_free_r+0x8c>
 800705e:	42a0      	cmp	r0, r4
 8007060:	d902      	bls.n	8007068 <_free_r+0x78>
 8007062:	230c      	movs	r3, #12
 8007064:	602b      	str	r3, [r5, #0]
 8007066:	e009      	b.n	800707c <_free_r+0x8c>
 8007068:	6821      	ldr	r1, [r4, #0]
 800706a:	1860      	adds	r0, r4, r1
 800706c:	4282      	cmp	r2, r0
 800706e:	d103      	bne.n	8007078 <_free_r+0x88>
 8007070:	6810      	ldr	r0, [r2, #0]
 8007072:	6852      	ldr	r2, [r2, #4]
 8007074:	1841      	adds	r1, r0, r1
 8007076:	6021      	str	r1, [r4, #0]
 8007078:	6062      	str	r2, [r4, #4]
 800707a:	605c      	str	r4, [r3, #4]
 800707c:	0028      	movs	r0, r5
 800707e:	f000 f89c 	bl	80071ba <__malloc_unlock>
 8007082:	bd70      	pop	{r4, r5, r6, pc}
 8007084:	2000017c 	.word	0x2000017c

08007088 <_malloc_r>:
 8007088:	2303      	movs	r3, #3
 800708a:	b570      	push	{r4, r5, r6, lr}
 800708c:	1ccd      	adds	r5, r1, #3
 800708e:	439d      	bics	r5, r3
 8007090:	3508      	adds	r5, #8
 8007092:	0006      	movs	r6, r0
 8007094:	2d0c      	cmp	r5, #12
 8007096:	d201      	bcs.n	800709c <_malloc_r+0x14>
 8007098:	250c      	movs	r5, #12
 800709a:	e001      	b.n	80070a0 <_malloc_r+0x18>
 800709c:	2d00      	cmp	r5, #0
 800709e:	db01      	blt.n	80070a4 <_malloc_r+0x1c>
 80070a0:	42a9      	cmp	r1, r5
 80070a2:	d902      	bls.n	80070aa <_malloc_r+0x22>
 80070a4:	230c      	movs	r3, #12
 80070a6:	6033      	str	r3, [r6, #0]
 80070a8:	e048      	b.n	800713c <_malloc_r+0xb4>
 80070aa:	0030      	movs	r0, r6
 80070ac:	f000 f884 	bl	80071b8 <__malloc_lock>
 80070b0:	4b23      	ldr	r3, [pc, #140]	; (8007140 <_malloc_r+0xb8>)
 80070b2:	681c      	ldr	r4, [r3, #0]
 80070b4:	001a      	movs	r2, r3
 80070b6:	0021      	movs	r1, r4
 80070b8:	2900      	cmp	r1, #0
 80070ba:	d013      	beq.n	80070e4 <_malloc_r+0x5c>
 80070bc:	680b      	ldr	r3, [r1, #0]
 80070be:	1b5b      	subs	r3, r3, r5
 80070c0:	d40d      	bmi.n	80070de <_malloc_r+0x56>
 80070c2:	2b0b      	cmp	r3, #11
 80070c4:	d902      	bls.n	80070cc <_malloc_r+0x44>
 80070c6:	600b      	str	r3, [r1, #0]
 80070c8:	18cc      	adds	r4, r1, r3
 80070ca:	e01e      	b.n	800710a <_malloc_r+0x82>
 80070cc:	428c      	cmp	r4, r1
 80070ce:	d102      	bne.n	80070d6 <_malloc_r+0x4e>
 80070d0:	6863      	ldr	r3, [r4, #4]
 80070d2:	6013      	str	r3, [r2, #0]
 80070d4:	e01a      	b.n	800710c <_malloc_r+0x84>
 80070d6:	684b      	ldr	r3, [r1, #4]
 80070d8:	6063      	str	r3, [r4, #4]
 80070da:	000c      	movs	r4, r1
 80070dc:	e016      	b.n	800710c <_malloc_r+0x84>
 80070de:	000c      	movs	r4, r1
 80070e0:	6849      	ldr	r1, [r1, #4]
 80070e2:	e7e9      	b.n	80070b8 <_malloc_r+0x30>
 80070e4:	4c17      	ldr	r4, [pc, #92]	; (8007144 <_malloc_r+0xbc>)
 80070e6:	6823      	ldr	r3, [r4, #0]
 80070e8:	2b00      	cmp	r3, #0
 80070ea:	d103      	bne.n	80070f4 <_malloc_r+0x6c>
 80070ec:	0030      	movs	r0, r6
 80070ee:	f000 f851 	bl	8007194 <_sbrk_r>
 80070f2:	6020      	str	r0, [r4, #0]
 80070f4:	0029      	movs	r1, r5
 80070f6:	0030      	movs	r0, r6
 80070f8:	f000 f84c 	bl	8007194 <_sbrk_r>
 80070fc:	1c43      	adds	r3, r0, #1
 80070fe:	d018      	beq.n	8007132 <_malloc_r+0xaa>
 8007100:	2303      	movs	r3, #3
 8007102:	1cc4      	adds	r4, r0, #3
 8007104:	439c      	bics	r4, r3
 8007106:	42a0      	cmp	r0, r4
 8007108:	d10d      	bne.n	8007126 <_malloc_r+0x9e>
 800710a:	6025      	str	r5, [r4, #0]
 800710c:	0030      	movs	r0, r6
 800710e:	f000 f854 	bl	80071ba <__malloc_unlock>
 8007112:	0020      	movs	r0, r4
 8007114:	2207      	movs	r2, #7
 8007116:	300b      	adds	r0, #11
 8007118:	1d23      	adds	r3, r4, #4
 800711a:	4390      	bics	r0, r2
 800711c:	1ac3      	subs	r3, r0, r3
 800711e:	d00e      	beq.n	800713e <_malloc_r+0xb6>
 8007120:	425a      	negs	r2, r3
 8007122:	50e2      	str	r2, [r4, r3]
 8007124:	e00b      	b.n	800713e <_malloc_r+0xb6>
 8007126:	1a21      	subs	r1, r4, r0
 8007128:	0030      	movs	r0, r6
 800712a:	f000 f833 	bl	8007194 <_sbrk_r>
 800712e:	1c43      	adds	r3, r0, #1
 8007130:	d1eb      	bne.n	800710a <_malloc_r+0x82>
 8007132:	230c      	movs	r3, #12
 8007134:	0030      	movs	r0, r6
 8007136:	6033      	str	r3, [r6, #0]
 8007138:	f000 f83f 	bl	80071ba <__malloc_unlock>
 800713c:	2000      	movs	r0, #0
 800713e:	bd70      	pop	{r4, r5, r6, pc}
 8007140:	2000017c 	.word	0x2000017c
 8007144:	20000178 	.word	0x20000178

08007148 <_realloc_r>:
 8007148:	b5f8      	push	{r3, r4, r5, r6, r7, lr}
 800714a:	0006      	movs	r6, r0
 800714c:	000c      	movs	r4, r1
 800714e:	0015      	movs	r5, r2
 8007150:	2900      	cmp	r1, #0
 8007152:	d104      	bne.n	800715e <_realloc_r+0x16>
 8007154:	0011      	movs	r1, r2
 8007156:	f7ff ff97 	bl	8007088 <_malloc_r>
 800715a:	0004      	movs	r4, r0
 800715c:	e018      	b.n	8007190 <_realloc_r+0x48>
 800715e:	2a00      	cmp	r2, #0
 8007160:	d103      	bne.n	800716a <_realloc_r+0x22>
 8007162:	f7ff ff45 	bl	8006ff0 <_free_r>
 8007166:	002c      	movs	r4, r5
 8007168:	e012      	b.n	8007190 <_realloc_r+0x48>
 800716a:	f000 f827 	bl	80071bc <_malloc_usable_size_r>
 800716e:	4285      	cmp	r5, r0
 8007170:	d90e      	bls.n	8007190 <_realloc_r+0x48>
 8007172:	0029      	movs	r1, r5
 8007174:	0030      	movs	r0, r6
 8007176:	f7ff ff87 	bl	8007088 <_malloc_r>
 800717a:	1e07      	subs	r7, r0, #0
 800717c:	d007      	beq.n	800718e <_realloc_r+0x46>
 800717e:	0021      	movs	r1, r4
 8007180:	002a      	movs	r2, r5
 8007182:	f7ff fbf9 	bl	8006978 <memcpy>
 8007186:	0021      	movs	r1, r4
 8007188:	0030      	movs	r0, r6
 800718a:	f7ff ff31 	bl	8006ff0 <_free_r>
 800718e:	003c      	movs	r4, r7
 8007190:	0020      	movs	r0, r4
 8007192:	bdf8      	pop	{r3, r4, r5, r6, r7, pc}

08007194 <_sbrk_r>:
 8007194:	2300      	movs	r3, #0
 8007196:	b570      	push	{r4, r5, r6, lr}
 8007198:	4c06      	ldr	r4, [pc, #24]	; (80071b4 <_sbrk_r+0x20>)
 800719a:	0005      	movs	r5, r0
 800719c:	0008      	movs	r0, r1
 800719e:	6023      	str	r3, [r4, #0]
 80071a0:	f000 f93e 	bl	8007420 <_sbrk>
 80071a4:	1c43      	adds	r3, r0, #1
 80071a6:	d103      	bne.n	80071b0 <_sbrk_r+0x1c>
 80071a8:	6823      	ldr	r3, [r4, #0]
 80071aa:	2b00      	cmp	r3, #0
 80071ac:	d000      	beq.n	80071b0 <_sbrk_r+0x1c>
 80071ae:	602b      	str	r3, [r5, #0]
 80071b0:	bd70      	pop	{r4, r5, r6, pc}
 80071b2:	46c0      	nop			; (mov r8, r8)
 80071b4:	20000db4 	.word	0x20000db4

080071b8 <__malloc_lock>:
 80071b8:	4770      	bx	lr

080071ba <__malloc_unlock>:
 80071ba:	4770      	bx	lr

080071bc <_malloc_usable_size_r>:
 80071bc:	1f0b      	subs	r3, r1, #4
 80071be:	681a      	ldr	r2, [r3, #0]
 80071c0:	1f10      	subs	r0, r2, #4
 80071c2:	2a00      	cmp	r2, #0
 80071c4:	da04      	bge.n	80071d0 <_malloc_usable_size_r+0x14>
 80071c6:	1889      	adds	r1, r1, r2
 80071c8:	3904      	subs	r1, #4
 80071ca:	680b      	ldr	r3, [r1, #0]
 80071cc:	18d0      	adds	r0, r2, r3
 80071ce:	3804      	subs	r0, #4
 80071d0:	4770      	bx	lr
	...

080071d4 <sqrt>:
 80071d4:	b5f0      	push	{r4, r5, r6, r7, lr}
 80071d6:	b08f      	sub	sp, #60	; 0x3c
 80071d8:	0004      	movs	r4, r0
 80071da:	000d      	movs	r5, r1
 80071dc:	f000 f856 	bl	800728c <__ieee754_sqrt>
 80071e0:	4b28      	ldr	r3, [pc, #160]	; (8007284 <sqrt+0xb0>)
 80071e2:	9000      	str	r0, [sp, #0]
 80071e4:	9101      	str	r1, [sp, #4]
 80071e6:	781b      	ldrb	r3, [r3, #0]
 80071e8:	b25b      	sxtb	r3, r3
 80071ea:	9302      	str	r3, [sp, #8]
 80071ec:	3301      	adds	r3, #1
 80071ee:	d047      	beq.n	8007280 <sqrt+0xac>
 80071f0:	002b      	movs	r3, r5
 80071f2:	0029      	movs	r1, r5
 80071f4:	0022      	movs	r2, r4
 80071f6:	0020      	movs	r0, r4
 80071f8:	f7fa fd8c 	bl	8001d14 <__aeabi_dcmpun>
 80071fc:	9003      	str	r0, [sp, #12]
 80071fe:	9b03      	ldr	r3, [sp, #12]
 8007200:	9800      	ldr	r0, [sp, #0]
 8007202:	9901      	ldr	r1, [sp, #4]
 8007204:	2b00      	cmp	r3, #0
 8007206:	d13b      	bne.n	8007280 <sqrt+0xac>
 8007208:	2600      	movs	r6, #0
 800720a:	2700      	movs	r7, #0
 800720c:	0032      	movs	r2, r6
 800720e:	003b      	movs	r3, r7
 8007210:	0020      	movs	r0, r4
 8007212:	0029      	movs	r1, r5
 8007214:	f7f9 f81a 	bl	800024c <__aeabi_dcmplt>
 8007218:	2800      	cmp	r0, #0
 800721a:	d02f      	beq.n	800727c <sqrt+0xa8>
 800721c:	2301      	movs	r3, #1
 800721e:	9304      	str	r3, [sp, #16]
 8007220:	4b19      	ldr	r3, [pc, #100]	; (8007288 <sqrt+0xb4>)
 8007222:	9408      	str	r4, [sp, #32]
 8007224:	9509      	str	r5, [sp, #36]	; 0x24
 8007226:	9305      	str	r3, [sp, #20]
 8007228:	9b03      	ldr	r3, [sp, #12]
 800722a:	9406      	str	r4, [sp, #24]
 800722c:	9507      	str	r5, [sp, #28]
 800722e:	930c      	str	r3, [sp, #48]	; 0x30
 8007230:	9b02      	ldr	r3, [sp, #8]
 8007232:	2b00      	cmp	r3, #0
 8007234:	d102      	bne.n	800723c <sqrt+0x68>
 8007236:	960a      	str	r6, [sp, #40]	; 0x28
 8007238:	970b      	str	r7, [sp, #44]	; 0x2c
 800723a:	e00a      	b.n	8007252 <sqrt+0x7e>
 800723c:	003b      	movs	r3, r7
 800723e:	0032      	movs	r2, r6
 8007240:	0030      	movs	r0, r6
 8007242:	0039      	movs	r1, r7
 8007244:	f7f9 fb74 	bl	8000930 <__aeabi_ddiv>
 8007248:	9b02      	ldr	r3, [sp, #8]
 800724a:	900a      	str	r0, [sp, #40]	; 0x28
 800724c:	910b      	str	r1, [sp, #44]	; 0x2c
 800724e:	2b02      	cmp	r3, #2
 8007250:	d004      	beq.n	800725c <sqrt+0x88>
 8007252:	a804      	add	r0, sp, #16
 8007254:	f000 f8dc 	bl	8007410 <matherr>
 8007258:	2800      	cmp	r0, #0
 800725a:	d103      	bne.n	8007264 <sqrt+0x90>
 800725c:	f000 f8da 	bl	8007414 <__errno>
 8007260:	2321      	movs	r3, #33	; 0x21
 8007262:	6003      	str	r3, [r0, #0]
 8007264:	9b0c      	ldr	r3, [sp, #48]	; 0x30
 8007266:	9300      	str	r3, [sp, #0]
 8007268:	2b00      	cmp	r3, #0
 800726a:	d004      	beq.n	8007276 <sqrt+0xa2>
 800726c:	f000 f8d2 	bl	8007414 <__errno>
 8007270:	9b0c      	ldr	r3, [sp, #48]	; 0x30
 8007272:	9300      	str	r3, [sp, #0]
 8007274:	6003      	str	r3, [r0, #0]
 8007276:	980a      	ldr	r0, [sp, #40]	; 0x28
 8007278:	990b      	ldr	r1, [sp, #44]	; 0x2c
 800727a:	e001      	b.n	8007280 <sqrt+0xac>
 800727c:	9800      	ldr	r0, [sp, #0]
 800727e:	9901      	ldr	r1, [sp, #4]
 8007280:	b00f      	add	sp, #60	; 0x3c
 8007282:	bdf0      	pop	{r4, r5, r6, r7, pc}
 8007284:	20000120 	.word	0x20000120
 8007288:	08007670 	.word	0x08007670

0800728c <__ieee754_sqrt>:
 800728c:	4b5d      	ldr	r3, [pc, #372]	; (8007404 <__ieee754_sqrt+0x178>)
 800728e:	b5f0      	push	{r4, r5, r6, r7, lr}
 8007290:	000d      	movs	r5, r1
 8007292:	000f      	movs	r7, r1
 8007294:	000c      	movs	r4, r1
 8007296:	0019      	movs	r1, r3
 8007298:	b085      	sub	sp, #20
 800729a:	0006      	movs	r6, r0
 800729c:	0002      	movs	r2, r0
 800729e:	4029      	ands	r1, r5
 80072a0:	4299      	cmp	r1, r3
 80072a2:	d10a      	bne.n	80072ba <__ieee754_sqrt+0x2e>
 80072a4:	0002      	movs	r2, r0
 80072a6:	002b      	movs	r3, r5
 80072a8:	0030      	movs	r0, r6
 80072aa:	0029      	movs	r1, r5
 80072ac:	f7f9 ff64 	bl	8001178 <__aeabi_dmul>
 80072b0:	0032      	movs	r2, r6
 80072b2:	002b      	movs	r3, r5
 80072b4:	f7f9 f810 	bl	80002d8 <__aeabi_dadd>
 80072b8:	e0a1      	b.n	80073fe <__ieee754_sqrt+0x172>
 80072ba:	2d00      	cmp	r5, #0
 80072bc:	dc12      	bgt.n	80072e4 <__ieee754_sqrt+0x58>
 80072be:	006b      	lsls	r3, r5, #1
 80072c0:	085b      	lsrs	r3, r3, #1
 80072c2:	4303      	orrs	r3, r0
 80072c4:	0029      	movs	r1, r5
 80072c6:	2b00      	cmp	r3, #0
 80072c8:	d100      	bne.n	80072cc <__ieee754_sqrt+0x40>
 80072ca:	e098      	b.n	80073fe <__ieee754_sqrt+0x172>
 80072cc:	2d00      	cmp	r5, #0
 80072ce:	d009      	beq.n	80072e4 <__ieee754_sqrt+0x58>
 80072d0:	002b      	movs	r3, r5
 80072d2:	0002      	movs	r2, r0
 80072d4:	0039      	movs	r1, r7
 80072d6:	f7fa f9c9 	bl	800166c <__aeabi_dsub>
 80072da:	0002      	movs	r2, r0
 80072dc:	000b      	movs	r3, r1
 80072de:	f7f9 fb27 	bl	8000930 <__aeabi_ddiv>
 80072e2:	e08c      	b.n	80073fe <__ieee754_sqrt+0x172>
 80072e4:	152d      	asrs	r5, r5, #20
 80072e6:	d115      	bne.n	8007314 <__ieee754_sqrt+0x88>
 80072e8:	2c00      	cmp	r4, #0
 80072ea:	d103      	bne.n	80072f4 <__ieee754_sqrt+0x68>
 80072ec:	0ad4      	lsrs	r4, r2, #11
 80072ee:	3d15      	subs	r5, #21
 80072f0:	0552      	lsls	r2, r2, #21
 80072f2:	e7f9      	b.n	80072e8 <__ieee754_sqrt+0x5c>
 80072f4:	2180      	movs	r1, #128	; 0x80
 80072f6:	2300      	movs	r3, #0
 80072f8:	0349      	lsls	r1, r1, #13
 80072fa:	420c      	tst	r4, r1
 80072fc:	d102      	bne.n	8007304 <__ieee754_sqrt+0x78>
 80072fe:	0064      	lsls	r4, r4, #1
 8007300:	3301      	adds	r3, #1
 8007302:	e7fa      	b.n	80072fa <__ieee754_sqrt+0x6e>
 8007304:	1e59      	subs	r1, r3, #1
 8007306:	1a6d      	subs	r5, r5, r1
 8007308:	2120      	movs	r1, #32
 800730a:	0010      	movs	r0, r2
 800730c:	1ac9      	subs	r1, r1, r3
 800730e:	40c8      	lsrs	r0, r1
 8007310:	409a      	lsls	r2, r3
 8007312:	4304      	orrs	r4, r0
 8007314:	4b3c      	ldr	r3, [pc, #240]	; (8007408 <__ieee754_sqrt+0x17c>)
 8007316:	0324      	lsls	r4, r4, #12
 8007318:	18ed      	adds	r5, r5, r3
 800731a:	2380      	movs	r3, #128	; 0x80
 800731c:	0b24      	lsrs	r4, r4, #12
 800731e:	035b      	lsls	r3, r3, #13
 8007320:	431c      	orrs	r4, r3
 8007322:	07eb      	lsls	r3, r5, #31
 8007324:	d503      	bpl.n	800732e <__ieee754_sqrt+0xa2>
 8007326:	0fd1      	lsrs	r1, r2, #31
 8007328:	0063      	lsls	r3, r4, #1
 800732a:	18cc      	adds	r4, r1, r3
 800732c:	0052      	lsls	r2, r2, #1
 800732e:	106b      	asrs	r3, r5, #1
 8007330:	9303      	str	r3, [sp, #12]
 8007332:	0fd3      	lsrs	r3, r2, #31
 8007334:	191b      	adds	r3, r3, r4
 8007336:	191b      	adds	r3, r3, r4
 8007338:	2400      	movs	r4, #0
 800733a:	2580      	movs	r5, #128	; 0x80
 800733c:	2116      	movs	r1, #22
 800733e:	0020      	movs	r0, r4
 8007340:	0052      	lsls	r2, r2, #1
 8007342:	03ad      	lsls	r5, r5, #14
 8007344:	1946      	adds	r6, r0, r5
 8007346:	429e      	cmp	r6, r3
 8007348:	dc02      	bgt.n	8007350 <__ieee754_sqrt+0xc4>
 800734a:	1970      	adds	r0, r6, r5
 800734c:	1b9b      	subs	r3, r3, r6
 800734e:	1964      	adds	r4, r4, r5
 8007350:	0fd6      	lsrs	r6, r2, #31
 8007352:	005b      	lsls	r3, r3, #1
 8007354:	3901      	subs	r1, #1
 8007356:	18f3      	adds	r3, r6, r3
 8007358:	0052      	lsls	r2, r2, #1
 800735a:	086d      	lsrs	r5, r5, #1
 800735c:	2900      	cmp	r1, #0
 800735e:	d1f1      	bne.n	8007344 <__ieee754_sqrt+0xb8>
 8007360:	2520      	movs	r5, #32
 8007362:	46ac      	mov	ip, r5
 8007364:	2580      	movs	r5, #128	; 0x80
 8007366:	062d      	lsls	r5, r5, #24
 8007368:	9101      	str	r1, [sp, #4]
 800736a:	9500      	str	r5, [sp, #0]
 800736c:	9e01      	ldr	r6, [sp, #4]
 800736e:	9d00      	ldr	r5, [sp, #0]
 8007370:	19ae      	adds	r6, r5, r6
 8007372:	4298      	cmp	r0, r3
 8007374:	db02      	blt.n	800737c <__ieee754_sqrt+0xf0>
 8007376:	d11d      	bne.n	80073b4 <__ieee754_sqrt+0x128>
 8007378:	4296      	cmp	r6, r2
 800737a:	d81a      	bhi.n	80073b2 <__ieee754_sqrt+0x126>
 800737c:	9d00      	ldr	r5, [sp, #0]
 800737e:	9002      	str	r0, [sp, #8]
 8007380:	1977      	adds	r7, r6, r5
 8007382:	2580      	movs	r5, #128	; 0x80
 8007384:	9701      	str	r7, [sp, #4]
 8007386:	0ff7      	lsrs	r7, r6, #31
 8007388:	07ff      	lsls	r7, r7, #31
 800738a:	062d      	lsls	r5, r5, #24
 800738c:	42af      	cmp	r7, r5
 800738e:	d106      	bne.n	800739e <__ieee754_sqrt+0x112>
 8007390:	9d01      	ldr	r5, [sp, #4]
 8007392:	0fef      	lsrs	r7, r5, #31
 8007394:	07ff      	lsls	r7, r7, #31
 8007396:	427d      	negs	r5, r7
 8007398:	417d      	adcs	r5, r7
 800739a:	1945      	adds	r5, r0, r5
 800739c:	9502      	str	r5, [sp, #8]
 800739e:	1a1b      	subs	r3, r3, r0
 80073a0:	42b2      	cmp	r2, r6
 80073a2:	4180      	sbcs	r0, r0
 80073a4:	4240      	negs	r0, r0
 80073a6:	1a1b      	subs	r3, r3, r0
 80073a8:	9800      	ldr	r0, [sp, #0]
 80073aa:	1b92      	subs	r2, r2, r6
 80073ac:	1809      	adds	r1, r1, r0
 80073ae:	9802      	ldr	r0, [sp, #8]
 80073b0:	e000      	b.n	80073b4 <__ieee754_sqrt+0x128>
 80073b2:	0003      	movs	r3, r0
 80073b4:	9d00      	ldr	r5, [sp, #0]
 80073b6:	0fd6      	lsrs	r6, r2, #31
 80073b8:	086d      	lsrs	r5, r5, #1
 80073ba:	9500      	str	r5, [sp, #0]
 80073bc:	2501      	movs	r5, #1
 80073be:	426d      	negs	r5, r5
 80073c0:	44ac      	add	ip, r5
 80073c2:	4665      	mov	r5, ip
 80073c4:	18f6      	adds	r6, r6, r3
 80073c6:	18f3      	adds	r3, r6, r3
 80073c8:	0052      	lsls	r2, r2, #1
 80073ca:	2d00      	cmp	r5, #0
 80073cc:	d1ce      	bne.n	800736c <__ieee754_sqrt+0xe0>
 80073ce:	4313      	orrs	r3, r2
 80073d0:	d007      	beq.n	80073e2 <__ieee754_sqrt+0x156>
 80073d2:	1c4b      	adds	r3, r1, #1
 80073d4:	d102      	bne.n	80073dc <__ieee754_sqrt+0x150>
 80073d6:	3401      	adds	r4, #1
 80073d8:	4661      	mov	r1, ip
 80073da:	e002      	b.n	80073e2 <__ieee754_sqrt+0x156>
 80073dc:	2301      	movs	r3, #1
 80073de:	400b      	ands	r3, r1
 80073e0:	18c9      	adds	r1, r1, r3
 80073e2:	4b0a      	ldr	r3, [pc, #40]	; (800740c <__ieee754_sqrt+0x180>)
 80073e4:	1060      	asrs	r0, r4, #1
 80073e6:	18c0      	adds	r0, r0, r3
 80073e8:	0849      	lsrs	r1, r1, #1
 80073ea:	07e3      	lsls	r3, r4, #31
 80073ec:	d502      	bpl.n	80073f4 <__ieee754_sqrt+0x168>
 80073ee:	2380      	movs	r3, #128	; 0x80
 80073f0:	061b      	lsls	r3, r3, #24
 80073f2:	4319      	orrs	r1, r3
 80073f4:	9b03      	ldr	r3, [sp, #12]
 80073f6:	051c      	lsls	r4, r3, #20
 80073f8:	1823      	adds	r3, r4, r0
 80073fa:	0008      	movs	r0, r1
 80073fc:	0019      	movs	r1, r3
 80073fe:	b005      	add	sp, #20
 8007400:	bdf0      	pop	{r4, r5, r6, r7, pc}
 8007402:	46c0      	nop			; (mov r8, r8)
 8007404:	7ff00000 	.word	0x7ff00000
 8007408:	fffffc01 	.word	0xfffffc01
 800740c:	3fe00000 	.word	0x3fe00000

08007410 <matherr>:
 8007410:	2000      	movs	r0, #0
 8007412:	4770      	bx	lr

08007414 <__errno>:
 8007414:	4b01      	ldr	r3, [pc, #4]	; (800741c <__errno+0x8>)
 8007416:	6818      	ldr	r0, [r3, #0]
 8007418:	4770      	bx	lr
 800741a:	46c0      	nop			; (mov r8, r8)
 800741c:	2000011c 	.word	0x2000011c

08007420 <_sbrk>:
 8007420:	4b05      	ldr	r3, [pc, #20]	; (8007438 <_sbrk+0x18>)
 8007422:	0002      	movs	r2, r0
 8007424:	6819      	ldr	r1, [r3, #0]
 8007426:	2900      	cmp	r1, #0
 8007428:	d101      	bne.n	800742e <_sbrk+0xe>
 800742a:	4904      	ldr	r1, [pc, #16]	; (800743c <_sbrk+0x1c>)
 800742c:	6019      	str	r1, [r3, #0]
 800742e:	6818      	ldr	r0, [r3, #0]
 8007430:	1882      	adds	r2, r0, r2
 8007432:	601a      	str	r2, [r3, #0]
 8007434:	4770      	bx	lr
 8007436:	46c0      	nop			; (mov r8, r8)
 8007438:	20000180 	.word	0x20000180
 800743c:	20000db8 	.word	0x20000db8

08007440 <_init>:
 8007440:	b5f8      	push	{r3, r4, r5, r6, r7, lr}
 8007442:	46c0      	nop			; (mov r8, r8)
 8007444:	bcf8      	pop	{r3, r4, r5, r6, r7}
 8007446:	bc08      	pop	{r3}
 8007448:	469e      	mov	lr, r3
 800744a:	4770      	bx	lr

0800744c <_fini>:
 800744c:	b5f8      	push	{r3, r4, r5, r6, r7, lr}
 800744e:	46c0      	nop			; (mov r8, r8)
 8007450:	bcf8      	pop	{r3, r4, r5, r6, r7}
 8007452:	bc08      	pop	{r3}
 8007454:	469e      	mov	lr, r3
 8007456:	4770      	bx	lr
