
POV_Display.elf:     file format elf32-littlearm

Sections:
Idx Name          Size      VMA       LMA       File off  Algn
  0 .isr_vector   000000c0  08000000  08000000  00008000  2**0
                  CONTENTS, ALLOC, LOAD, READONLY, DATA
  1 .text         00007100  080000c0  080000c0  000080c0  2**2
                  CONTENTS, ALLOC, LOAD, READONLY, CODE
  2 .rodata       000003ec  080071c0  080071c0  0000f1c0  2**2
                  CONTENTS, ALLOC, LOAD, READONLY, DATA
  3 .init_array   00000004  080075ac  080075ac  0000f5ac  2**2
                  CONTENTS, ALLOC, LOAD, DATA
  4 .fini_array   00000004  080075b0  080075b0  0000f5b0  2**2
                  CONTENTS, ALLOC, LOAD, DATA
  5 .data         00000120  20000000  080075b4  00010000  2**2
                  CONTENTS, ALLOC, LOAD, DATA
  6 .bss          00000dc8  20000120  080076d4  00010120  2**2
                  ALLOC
  7 ._user_heap_stack 00000080  20000ee8  080076d4  00010ee8  2**0
                  ALLOC
  8 .ARM.attributes 00000028  00000000  00000000  00010120  2**0
                  CONTENTS, READONLY
  9 .debug_info   0000bf91  00000000  00000000  00010148  2**0
                  CONTENTS, READONLY, DEBUGGING
 10 .debug_abbrev 00002dad  00000000  00000000  0001c0d9  2**0
                  CONTENTS, READONLY, DEBUGGING
 11 .debug_aranges 00000fd0  00000000  00000000  0001ee88  2**3
                  CONTENTS, READONLY, DEBUGGING
 12 .debug_ranges 00000dd8  00000000  00000000  0001fe58  2**3
                  CONTENTS, READONLY, DEBUGGING
 13 .debug_line   000066b6  00000000  00000000  00020c30  2**0
                  CONTENTS, READONLY, DEBUGGING
 14 .debug_str    00003e9e  00000000  00000000  000272e6  2**0
                  CONTENTS, READONLY, DEBUGGING
 15 .comment      00000082  00000000  00000000  0002b184  2**0
                  CONTENTS, READONLY
 16 .debug_frame  00003884  00000000  00000000  0002b208  2**2
                  CONTENTS, READONLY, DEBUGGING

Disassembly of section .text:

080000c0 <__do_global_dtors_aux>:
 80000c0:	b510      	push	{r4, lr}
 80000c2:	4c06      	ldr	r4, [pc, #24]	; (80000dc <__do_global_dtors_aux+0x1c>)
 80000c4:	7823      	ldrb	r3, [r4, #0]
 80000c6:	2b00      	cmp	r3, #0
 80000c8:	d107      	bne.n	80000da <__do_global_dtors_aux+0x1a>
 80000ca:	4b05      	ldr	r3, [pc, #20]	; (80000e0 <__do_global_dtors_aux+0x20>)
 80000cc:	2b00      	cmp	r3, #0
 80000ce:	d002      	beq.n	80000d6 <__do_global_dtors_aux+0x16>
 80000d0:	4804      	ldr	r0, [pc, #16]	; (80000e4 <__do_global_dtors_aux+0x24>)
 80000d2:	e000      	b.n	80000d6 <__do_global_dtors_aux+0x16>
 80000d4:	bf00      	nop
 80000d6:	2301      	movs	r3, #1
 80000d8:	7023      	strb	r3, [r4, #0]
 80000da:	bd10      	pop	{r4, pc}
 80000dc:	20000120 	.word	0x20000120
 80000e0:	00000000 	.word	0x00000000
 80000e4:	080071a8 	.word	0x080071a8

080000e8 <frame_dummy>:
 80000e8:	b508      	push	{r3, lr}
 80000ea:	4b04      	ldr	r3, [pc, #16]	; (80000fc <frame_dummy+0x14>)
 80000ec:	2b00      	cmp	r3, #0
 80000ee:	d003      	beq.n	80000f8 <frame_dummy+0x10>
 80000f0:	4803      	ldr	r0, [pc, #12]	; (8000100 <frame_dummy+0x18>)
 80000f2:	4904      	ldr	r1, [pc, #16]	; (8000104 <frame_dummy+0x1c>)
 80000f4:	e000      	b.n	80000f8 <frame_dummy+0x10>
 80000f6:	bf00      	nop
 80000f8:	bd08      	pop	{r3, pc}
 80000fa:	46c0      	nop			; (mov r8, r8)
 80000fc:	00000000 	.word	0x00000000
 8000100:	080071a8 	.word	0x080071a8
 8000104:	20000124 	.word	0x20000124

08000108 <__aeabi_uidiv>:
 8000108:	2900      	cmp	r1, #0
 800010a:	d034      	beq.n	8000176 <.udivsi3_skip_div0_test+0x6a>

0800010c <.udivsi3_skip_div0_test>:
 800010c:	2301      	movs	r3, #1
 800010e:	2200      	movs	r2, #0
 8000110:	b410      	push	{r4}
 8000112:	4288      	cmp	r0, r1
 8000114:	d32c      	bcc.n	8000170 <.udivsi3_skip_div0_test+0x64>
 8000116:	2401      	movs	r4, #1
 8000118:	0724      	lsls	r4, r4, #28
 800011a:	42a1      	cmp	r1, r4
 800011c:	d204      	bcs.n	8000128 <.udivsi3_skip_div0_test+0x1c>
 800011e:	4281      	cmp	r1, r0
 8000120:	d202      	bcs.n	8000128 <.udivsi3_skip_div0_test+0x1c>
 8000122:	0109      	lsls	r1, r1, #4
 8000124:	011b      	lsls	r3, r3, #4
 8000126:	e7f8      	b.n	800011a <.udivsi3_skip_div0_test+0xe>
 8000128:	00e4      	lsls	r4, r4, #3
 800012a:	42a1      	cmp	r1, r4
 800012c:	d204      	bcs.n	8000138 <.udivsi3_skip_div0_test+0x2c>
 800012e:	4281      	cmp	r1, r0
 8000130:	d202      	bcs.n	8000138 <.udivsi3_skip_div0_test+0x2c>
 8000132:	0049      	lsls	r1, r1, #1
 8000134:	005b      	lsls	r3, r3, #1
 8000136:	e7f8      	b.n	800012a <.udivsi3_skip_div0_test+0x1e>
 8000138:	4288      	cmp	r0, r1
 800013a:	d301      	bcc.n	8000140 <.udivsi3_skip_div0_test+0x34>
 800013c:	1a40      	subs	r0, r0, r1
 800013e:	431a      	orrs	r2, r3
 8000140:	084c      	lsrs	r4, r1, #1
 8000142:	42a0      	cmp	r0, r4
 8000144:	d302      	bcc.n	800014c <.udivsi3_skip_div0_test+0x40>
 8000146:	1b00      	subs	r0, r0, r4
 8000148:	085c      	lsrs	r4, r3, #1
 800014a:	4322      	orrs	r2, r4
 800014c:	088c      	lsrs	r4, r1, #2
 800014e:	42a0      	cmp	r0, r4
 8000150:	d302      	bcc.n	8000158 <.udivsi3_skip_div0_test+0x4c>
 8000152:	1b00      	subs	r0, r0, r4
 8000154:	089c      	lsrs	r4, r3, #2
 8000156:	4322      	orrs	r2, r4
 8000158:	08cc      	lsrs	r4, r1, #3
 800015a:	42a0      	cmp	r0, r4
 800015c:	d302      	bcc.n	8000164 <.udivsi3_skip_div0_test+0x58>
 800015e:	1b00      	subs	r0, r0, r4
 8000160:	08dc      	lsrs	r4, r3, #3
 8000162:	4322      	orrs	r2, r4
 8000164:	2800      	cmp	r0, #0
 8000166:	d003      	beq.n	8000170 <.udivsi3_skip_div0_test+0x64>
 8000168:	091b      	lsrs	r3, r3, #4
 800016a:	d001      	beq.n	8000170 <.udivsi3_skip_div0_test+0x64>
 800016c:	0909      	lsrs	r1, r1, #4
 800016e:	e7e3      	b.n	8000138 <.udivsi3_skip_div0_test+0x2c>
 8000170:	1c10      	adds	r0, r2, #0
 8000172:	bc10      	pop	{r4}
 8000174:	4770      	bx	lr
 8000176:	2800      	cmp	r0, #0
 8000178:	d001      	beq.n	800017e <.udivsi3_skip_div0_test+0x72>
 800017a:	2000      	movs	r0, #0
 800017c:	43c0      	mvns	r0, r0
 800017e:	b407      	push	{r0, r1, r2}
 8000180:	4802      	ldr	r0, [pc, #8]	; (800018c <.udivsi3_skip_div0_test+0x80>)
 8000182:	a102      	add	r1, pc, #8	; (adr r1, 800018c <.udivsi3_skip_div0_test+0x80>)
 8000184:	1840      	adds	r0, r0, r1
 8000186:	9002      	str	r0, [sp, #8]
 8000188:	bd03      	pop	{r0, r1, pc}
 800018a:	46c0      	nop			; (mov r8, r8)
 800018c:	00000019 	.word	0x00000019

08000190 <__aeabi_uidivmod>:
 8000190:	2900      	cmp	r1, #0
 8000192:	d0f0      	beq.n	8000176 <.udivsi3_skip_div0_test+0x6a>
 8000194:	b503      	push	{r0, r1, lr}
 8000196:	f7ff ffb9 	bl	800010c <.udivsi3_skip_div0_test>
 800019a:	bc0e      	pop	{r1, r2, r3}
 800019c:	4342      	muls	r2, r0
 800019e:	1a89      	subs	r1, r1, r2
 80001a0:	4718      	bx	r3
 80001a2:	46c0      	nop			; (mov r8, r8)

080001a4 <__aeabi_idiv0>:
 80001a4:	4770      	bx	lr
 80001a6:	46c0      	nop			; (mov r8, r8)

080001a8 <SystemInit>:
  *         SystemCoreClock variable.
  * @param  None
  * @retval None
  */
void SystemInit (void)
{    
 80001a8:	b580      	push	{r7, lr}
 80001aa:	af00      	add	r7, sp, #0
  /* Set HSION bit */
  RCC->CR |= (uint32_t)0x00000001;
 80001ac:	4b1b      	ldr	r3, [pc, #108]	; (800021c <SystemInit+0x74>)
 80001ae:	4a1b      	ldr	r2, [pc, #108]	; (800021c <SystemInit+0x74>)
 80001b0:	6812      	ldr	r2, [r2, #0]
 80001b2:	2101      	movs	r1, #1
 80001b4:	430a      	orrs	r2, r1
 80001b6:	601a      	str	r2, [r3, #0]

  /* Reset SW[1:0], HPRE[3:0], PPRE[2:0], ADCPRE and MCOSEL[3:0] bits MCOPRE[2:0] */
  RCC->CFGR &= (uint32_t)0x80FFB80C;
 80001b8:	4b18      	ldr	r3, [pc, #96]	; (800021c <SystemInit+0x74>)
 80001ba:	4a18      	ldr	r2, [pc, #96]	; (800021c <SystemInit+0x74>)
 80001bc:	6851      	ldr	r1, [r2, #4]
 80001be:	4a18      	ldr	r2, [pc, #96]	; (8000220 <SystemInit+0x78>)
 80001c0:	400a      	ands	r2, r1
 80001c2:	605a      	str	r2, [r3, #4]
  
  /* Reset HSEON, CSSON and PLLON bits */
  RCC->CR &= (uint32_t)0xFEF6FFFF;
 80001c4:	4b15      	ldr	r3, [pc, #84]	; (800021c <SystemInit+0x74>)
 80001c6:	4a15      	ldr	r2, [pc, #84]	; (800021c <SystemInit+0x74>)
 80001c8:	6811      	ldr	r1, [r2, #0]
 80001ca:	4a16      	ldr	r2, [pc, #88]	; (8000224 <SystemInit+0x7c>)
 80001cc:	400a      	ands	r2, r1
 80001ce:	601a      	str	r2, [r3, #0]

  /* Reset HSEBYP bit */
  RCC->CR &= (uint32_t)0xFFFBFFFF;
 80001d0:	4b12      	ldr	r3, [pc, #72]	; (800021c <SystemInit+0x74>)
 80001d2:	4a12      	ldr	r2, [pc, #72]	; (800021c <SystemInit+0x74>)
 80001d4:	6811      	ldr	r1, [r2, #0]
 80001d6:	4a14      	ldr	r2, [pc, #80]	; (8000228 <SystemInit+0x80>)
 80001d8:	400a      	ands	r2, r1
 80001da:	601a      	str	r2, [r3, #0]

  /* Reset PLLSRC, PLLXTPRE and PLLMUL[3:0] bits */
  RCC->CFGR &= (uint32_t)0xFFC07FFF;
 80001dc:	4b0f      	ldr	r3, [pc, #60]	; (800021c <SystemInit+0x74>)
 80001de:	4a0f      	ldr	r2, [pc, #60]	; (800021c <SystemInit+0x74>)
 80001e0:	6851      	ldr	r1, [r2, #4]
 80001e2:	4a12      	ldr	r2, [pc, #72]	; (800022c <SystemInit+0x84>)
 80001e4:	400a      	ands	r2, r1
 80001e6:	605a      	str	r2, [r3, #4]

  /* Reset PREDIV1[3:0] bits */
  RCC->CFGR2 &= (uint32_t)0xFFFFFFF0;
 80001e8:	4b0c      	ldr	r3, [pc, #48]	; (800021c <SystemInit+0x74>)
 80001ea:	4a0c      	ldr	r2, [pc, #48]	; (800021c <SystemInit+0x74>)
 80001ec:	6ad2      	ldr	r2, [r2, #44]	; 0x2c
 80001ee:	210f      	movs	r1, #15
 80001f0:	438a      	bics	r2, r1
 80001f2:	62da      	str	r2, [r3, #44]	; 0x2c

  /* Reset USARTSW[1:0], I2CSW, CECSW and ADCSW bits */
  RCC->CFGR3 &= (uint32_t)0xFFFFFEAC;
 80001f4:	4b09      	ldr	r3, [pc, #36]	; (800021c <SystemInit+0x74>)
 80001f6:	4a09      	ldr	r2, [pc, #36]	; (800021c <SystemInit+0x74>)
 80001f8:	6b11      	ldr	r1, [r2, #48]	; 0x30
 80001fa:	4a0d      	ldr	r2, [pc, #52]	; (8000230 <SystemInit+0x88>)
 80001fc:	400a      	ands	r2, r1
 80001fe:	631a      	str	r2, [r3, #48]	; 0x30

  /* Reset HSI14 & HSI48 bit */
  RCC->CR2 &= (uint32_t)0xFFFEFFFE;
 8000200:	4b06      	ldr	r3, [pc, #24]	; (800021c <SystemInit+0x74>)
 8000202:	4a06      	ldr	r2, [pc, #24]	; (800021c <SystemInit+0x74>)
 8000204:	6b51      	ldr	r1, [r2, #52]	; 0x34
 8000206:	4a0b      	ldr	r2, [pc, #44]	; (8000234 <SystemInit+0x8c>)
 8000208:	400a      	ands	r2, r1
 800020a:	635a      	str	r2, [r3, #52]	; 0x34

  /* Disable all interrupts */
  RCC->CIR = 0x00000000;
 800020c:	4b03      	ldr	r3, [pc, #12]	; (800021c <SystemInit+0x74>)
 800020e:	2200      	movs	r2, #0
 8000210:	609a      	str	r2, [r3, #8]

  /* Configure the System clock frequency, AHB/APBx prescalers and Flash settings */
  SetSysClock();
 8000212:	f000 f885 	bl	8000320 <SetSysClock>
}
 8000216:	46bd      	mov	sp, r7
 8000218:	bd80      	pop	{r7, pc}
 800021a:	46c0      	nop			; (mov r8, r8)
 800021c:	40021000 	.word	0x40021000
 8000220:	80ffb80c 	.word	0x80ffb80c
 8000224:	fef6ffff 	.word	0xfef6ffff
 8000228:	fffbffff 	.word	0xfffbffff
 800022c:	ffc07fff 	.word	0xffc07fff
 8000230:	fffffeac 	.word	0xfffffeac
 8000234:	fffefffe 	.word	0xfffefffe

08000238 <SystemCoreClockUpdate>:
  *           value for HSE crystal.
  * @param  None
  * @retval None
  */
void SystemCoreClockUpdate (void)
{
 8000238:	b580      	push	{r7, lr}
 800023a:	b084      	sub	sp, #16
 800023c:	af00      	add	r7, sp, #0
  uint32_t tmp = 0, pllmull = 0, pllsource = 0, prediv1factor = 0;
 800023e:	2300      	movs	r3, #0
 8000240:	60fb      	str	r3, [r7, #12]
 8000242:	2300      	movs	r3, #0
 8000244:	60bb      	str	r3, [r7, #8]
 8000246:	2300      	movs	r3, #0
 8000248:	607b      	str	r3, [r7, #4]
 800024a:	2300      	movs	r3, #0
 800024c:	603b      	str	r3, [r7, #0]

  /* Get SYSCLK source -------------------------------------------------------*/
  tmp = RCC->CFGR & RCC_CFGR_SWS;
 800024e:	4b2e      	ldr	r3, [pc, #184]	; (8000308 <SystemCoreClockUpdate+0xd0>)
 8000250:	685a      	ldr	r2, [r3, #4]
 8000252:	230c      	movs	r3, #12
 8000254:	4013      	ands	r3, r2
 8000256:	60fb      	str	r3, [r7, #12]
  
  switch (tmp)
 8000258:	68fb      	ldr	r3, [r7, #12]
 800025a:	2b04      	cmp	r3, #4
 800025c:	d00c      	beq.n	8000278 <SystemCoreClockUpdate+0x40>
 800025e:	d802      	bhi.n	8000266 <SystemCoreClockUpdate+0x2e>
 8000260:	2b00      	cmp	r3, #0
 8000262:	d005      	beq.n	8000270 <SystemCoreClockUpdate+0x38>
 8000264:	e039      	b.n	80002da <SystemCoreClockUpdate+0xa2>
 8000266:	2b08      	cmp	r3, #8
 8000268:	d00a      	beq.n	8000280 <SystemCoreClockUpdate+0x48>
 800026a:	2b0c      	cmp	r3, #12
 800026c:	d031      	beq.n	80002d2 <SystemCoreClockUpdate+0x9a>
 800026e:	e034      	b.n	80002da <SystemCoreClockUpdate+0xa2>
  {
  case 0x00:  /* HSI used as system clock */
    SystemCoreClock = HSI_VALUE;
 8000270:	4b26      	ldr	r3, [pc, #152]	; (800030c <SystemCoreClockUpdate+0xd4>)
 8000272:	4a27      	ldr	r2, [pc, #156]	; (8000310 <SystemCoreClockUpdate+0xd8>)
 8000274:	601a      	str	r2, [r3, #0]
    break;
 8000276:	e034      	b.n	80002e2 <SystemCoreClockUpdate+0xaa>
  case 0x04:  /* HSE used as system clock */
    SystemCoreClock = HSE_VALUE;
 8000278:	4b24      	ldr	r3, [pc, #144]	; (800030c <SystemCoreClockUpdate+0xd4>)
 800027a:	4a25      	ldr	r2, [pc, #148]	; (8000310 <SystemCoreClockUpdate+0xd8>)
 800027c:	601a      	str	r2, [r3, #0]
    break;
 800027e:	e030      	b.n	80002e2 <SystemCoreClockUpdate+0xaa>
  case 0x08:  /* PLL used as system clock */
    /* Get PLL clock source and multiplication factor ----------------------*/
    pllmull = RCC->CFGR & RCC_CFGR_PLLMULL;
 8000280:	4b21      	ldr	r3, [pc, #132]	; (8000308 <SystemCoreClockUpdate+0xd0>)
 8000282:	685a      	ldr	r2, [r3, #4]
 8000284:	23f0      	movs	r3, #240	; 0xf0
 8000286:	039b      	lsls	r3, r3, #14
 8000288:	4013      	ands	r3, r2
 800028a:	60bb      	str	r3, [r7, #8]
    pllsource = RCC->CFGR & RCC_CFGR_PLLSRC;
 800028c:	4b1e      	ldr	r3, [pc, #120]	; (8000308 <SystemCoreClockUpdate+0xd0>)
 800028e:	685a      	ldr	r2, [r3, #4]
 8000290:	23c0      	movs	r3, #192	; 0xc0
 8000292:	025b      	lsls	r3, r3, #9
 8000294:	4013      	ands	r3, r2
 8000296:	607b      	str	r3, [r7, #4]
    pllmull = ( pllmull >> 18) + 2;
 8000298:	68bb      	ldr	r3, [r7, #8]
 800029a:	0c9b      	lsrs	r3, r3, #18
 800029c:	3302      	adds	r3, #2
 800029e:	60bb      	str	r3, [r7, #8]

    if (pllsource == 0x00)
 80002a0:	687b      	ldr	r3, [r7, #4]
 80002a2:	2b00      	cmp	r3, #0
 80002a4:	d105      	bne.n	80002b2 <SystemCoreClockUpdate+0x7a>
    {
      /* HSI oscillator clock divided by 2 selected as PLL clock entry */
      SystemCoreClock = (HSI_VALUE >> 1) * pllmull;
 80002a6:	68bb      	ldr	r3, [r7, #8]
 80002a8:	4a1a      	ldr	r2, [pc, #104]	; (8000314 <SystemCoreClockUpdate+0xdc>)
 80002aa:	435a      	muls	r2, r3
 80002ac:	4b17      	ldr	r3, [pc, #92]	; (800030c <SystemCoreClockUpdate+0xd4>)
 80002ae:	601a      	str	r2, [r3, #0]
    {
      prediv1factor = (RCC->CFGR2 & RCC_CFGR2_PREDIV1) + 1;
      /* HSE oscillator clock selected as PREDIV1 clock entry */
      SystemCoreClock = (HSE_VALUE / prediv1factor) * pllmull;
    }
    break;
 80002b0:	e017      	b.n	80002e2 <SystemCoreClockUpdate+0xaa>
      /* HSI oscillator clock divided by 2 selected as PLL clock entry */
      SystemCoreClock = (HSI_VALUE >> 1) * pllmull;
    }
    else
    {
      prediv1factor = (RCC->CFGR2 & RCC_CFGR2_PREDIV1) + 1;
 80002b2:	4b15      	ldr	r3, [pc, #84]	; (8000308 <SystemCoreClockUpdate+0xd0>)
 80002b4:	6ada      	ldr	r2, [r3, #44]	; 0x2c
 80002b6:	230f      	movs	r3, #15
 80002b8:	4013      	ands	r3, r2
 80002ba:	3301      	adds	r3, #1
 80002bc:	603b      	str	r3, [r7, #0]
      /* HSE oscillator clock selected as PREDIV1 clock entry */
      SystemCoreClock = (HSE_VALUE / prediv1factor) * pllmull;
 80002be:	4814      	ldr	r0, [pc, #80]	; (8000310 <SystemCoreClockUpdate+0xd8>)
 80002c0:	6839      	ldr	r1, [r7, #0]
 80002c2:	f7ff ff21 	bl	8000108 <__aeabi_uidiv>
 80002c6:	1c03      	adds	r3, r0, #0
 80002c8:	68ba      	ldr	r2, [r7, #8]
 80002ca:	435a      	muls	r2, r3
 80002cc:	4b0f      	ldr	r3, [pc, #60]	; (800030c <SystemCoreClockUpdate+0xd4>)
 80002ce:	601a      	str	r2, [r3, #0]
    }
    break;
 80002d0:	e007      	b.n	80002e2 <SystemCoreClockUpdate+0xaa>
  case 0x0C:  /* HSI48 used as system clock */
    SystemCoreClock = HSI48_VALUE;
 80002d2:	4b0e      	ldr	r3, [pc, #56]	; (800030c <SystemCoreClockUpdate+0xd4>)
 80002d4:	4a10      	ldr	r2, [pc, #64]	; (8000318 <SystemCoreClockUpdate+0xe0>)
 80002d6:	601a      	str	r2, [r3, #0]
    break;
 80002d8:	e003      	b.n	80002e2 <SystemCoreClockUpdate+0xaa>
  default: /* HSI used as system clock */
    SystemCoreClock = HSI_VALUE;
 80002da:	4b0c      	ldr	r3, [pc, #48]	; (800030c <SystemCoreClockUpdate+0xd4>)
 80002dc:	4a0c      	ldr	r2, [pc, #48]	; (8000310 <SystemCoreClockUpdate+0xd8>)
 80002de:	601a      	str	r2, [r3, #0]
    break;
 80002e0:	46c0      	nop			; (mov r8, r8)

  }
  /* Compute HCLK clock frequency ----------------*/
  /* Get HCLK prescaler */
  tmp = AHBPrescTable[((RCC->CFGR & RCC_CFGR_HPRE) >> 4)];
 80002e2:	4b09      	ldr	r3, [pc, #36]	; (8000308 <SystemCoreClockUpdate+0xd0>)
 80002e4:	685a      	ldr	r2, [r3, #4]
 80002e6:	23f0      	movs	r3, #240	; 0xf0
 80002e8:	4013      	ands	r3, r2
 80002ea:	091b      	lsrs	r3, r3, #4
 80002ec:	4a0b      	ldr	r2, [pc, #44]	; (800031c <SystemCoreClockUpdate+0xe4>)
 80002ee:	5cd3      	ldrb	r3, [r2, r3]
 80002f0:	b2db      	uxtb	r3, r3
 80002f2:	60fb      	str	r3, [r7, #12]
  /* HCLK clock frequency */
  SystemCoreClock >>= tmp;  
 80002f4:	4b05      	ldr	r3, [pc, #20]	; (800030c <SystemCoreClockUpdate+0xd4>)
 80002f6:	681a      	ldr	r2, [r3, #0]
 80002f8:	68fb      	ldr	r3, [r7, #12]
 80002fa:	40da      	lsrs	r2, r3
 80002fc:	4b03      	ldr	r3, [pc, #12]	; (800030c <SystemCoreClockUpdate+0xd4>)
 80002fe:	601a      	str	r2, [r3, #0]
}
 8000300:	46bd      	mov	sp, r7
 8000302:	b004      	add	sp, #16
 8000304:	bd80      	pop	{r7, pc}
 8000306:	46c0      	nop			; (mov r8, r8)
 8000308:	40021000 	.word	0x40021000
 800030c:	20000000 	.word	0x20000000
 8000310:	007a1200 	.word	0x007a1200
 8000314:	003d0900 	.word	0x003d0900
 8000318:	02dc6c00 	.word	0x02dc6c00
 800031c:	20000004 	.word	0x20000004

08000320 <SetSysClock>:
  *         is reset to the default reset state (done in SystemInit() function).
  * @param  None
  * @retval None
  */
static void SetSysClock(void)
{
 8000320:	b580      	push	{r7, lr}
 8000322:	af00      	add	r7, sp, #0
   /* SYSCLK, HCLK, PCLK configuration ----------------------------------------*/
    /* At this stage the HSI is already enabled */
 
    /* Enable Prefetch Buffer and set Flash Latency */
    FLASH->ACR = FLASH_ACR_PRFTBE | FLASH_ACR_LATENCY;
 8000324:	4b13      	ldr	r3, [pc, #76]	; (8000374 <SetSysClock+0x54>)
 8000326:	2211      	movs	r2, #17
 8000328:	601a      	str	r2, [r3, #0]
 
    /* HCLK = SYSCLK */
    RCC->CFGR |= (uint32_t)RCC_CFGR_HPRE_DIV1;
 800032a:	4b13      	ldr	r3, [pc, #76]	; (8000378 <SetSysClock+0x58>)
 800032c:	4a12      	ldr	r2, [pc, #72]	; (8000378 <SetSysClock+0x58>)
 800032e:	6852      	ldr	r2, [r2, #4]
 8000330:	605a      	str	r2, [r3, #4]

    /* PCLK = HCLK */
    RCC->CFGR |= (uint32_t)RCC_CFGR_PPRE_DIV1;
 8000332:	4b11      	ldr	r3, [pc, #68]	; (8000378 <SetSysClock+0x58>)
 8000334:	4a10      	ldr	r2, [pc, #64]	; (8000378 <SetSysClock+0x58>)
 8000336:	6852      	ldr	r2, [r2, #4]
 8000338:	605a      	str	r2, [r3, #4]

   /* Enable HSI48 */
    RCC->CR2 |= RCC_CR2_HSI48ON;
 800033a:	4b0f      	ldr	r3, [pc, #60]	; (8000378 <SetSysClock+0x58>)
 800033c:	4a0e      	ldr	r2, [pc, #56]	; (8000378 <SetSysClock+0x58>)
 800033e:	6b52      	ldr	r2, [r2, #52]	; 0x34
 8000340:	2180      	movs	r1, #128	; 0x80
 8000342:	0249      	lsls	r1, r1, #9
 8000344:	430a      	orrs	r2, r1
 8000346:	635a      	str	r2, [r3, #52]	; 0x34
  /* Wait till HSI48RDY is set */
    while((RCC->CR2 & RCC_CR2_HSI48RDY) == 0)
 8000348:	46c0      	nop			; (mov r8, r8)
 800034a:	4b0b      	ldr	r3, [pc, #44]	; (8000378 <SetSysClock+0x58>)
 800034c:	6b5a      	ldr	r2, [r3, #52]	; 0x34
 800034e:	2380      	movs	r3, #128	; 0x80
 8000350:	029b      	lsls	r3, r3, #10
 8000352:	4013      	ands	r3, r2
 8000354:	d0f9      	beq.n	800034a <SetSysClock+0x2a>
    { }
  /* Select HSI48 as system clock source */
    RCC->CFGR &= (uint32_t)((uint32_t)~(RCC_CFGR_SW));
 8000356:	4b08      	ldr	r3, [pc, #32]	; (8000378 <SetSysClock+0x58>)
 8000358:	4a07      	ldr	r2, [pc, #28]	; (8000378 <SetSysClock+0x58>)
 800035a:	6852      	ldr	r2, [r2, #4]
 800035c:	2103      	movs	r1, #3
 800035e:	438a      	bics	r2, r1
 8000360:	605a      	str	r2, [r3, #4]
    RCC->CFGR |= (uint32_t)RCC_CFGR_SW_HSI48;
 8000362:	4b05      	ldr	r3, [pc, #20]	; (8000378 <SetSysClock+0x58>)
 8000364:	4a04      	ldr	r2, [pc, #16]	; (8000378 <SetSysClock+0x58>)
 8000366:	6852      	ldr	r2, [r2, #4]
 8000368:	2103      	movs	r1, #3
 800036a:	430a      	orrs	r2, r1
 800036c:	605a      	str	r2, [r3, #4]

}
 800036e:	46bd      	mov	sp, r7
 8000370:	bd80      	pop	{r7, pc}
 8000372:	46c0      	nop			; (mov r8, r8)
 8000374:	40022000 	.word	0x40022000
 8000378:	40021000 	.word	0x40021000

0800037c <NMI_Handler>:
  * @brief  This function handles NMI exception.
  * @param  None
  * @retval None
  */
void NMI_Handler(void)
{
 800037c:	b580      	push	{r7, lr}
 800037e:	af00      	add	r7, sp, #0
}
 8000380:	46bd      	mov	sp, r7
 8000382:	bd80      	pop	{r7, pc}

08000384 <HardFault_Handler>:
  * @param  None
  * @retval None
  */

void HardFault_Handler(void)
{
 8000384:	b580      	push	{r7, lr}
 8000386:	af00      	add	r7, sp, #0
  /* Go to infinite loop when Hard Fault exception occurs */
  while (1)
  {
  }
 8000388:	e7fe      	b.n	8000388 <HardFault_Handler+0x4>
 800038a:	46c0      	nop			; (mov r8, r8)

0800038c <SVC_Handler>:
  * @brief  This function handles SVCall exception.
  * @param  None
  * @retval None
  */
void SVC_Handler(void)
{
 800038c:	b580      	push	{r7, lr}
 800038e:	af00      	add	r7, sp, #0
}
 8000390:	46bd      	mov	sp, r7
 8000392:	bd80      	pop	{r7, pc}

08000394 <PendSV_Handler>:
  * @brief  This function handles PendSVC exception.
  * @param  None
  * @retval None
  */
void PendSV_Handler(void)
{
 8000394:	b580      	push	{r7, lr}
 8000396:	af00      	add	r7, sp, #0
}
 8000398:	46bd      	mov	sp, r7
 800039a:	bd80      	pop	{r7, pc}

0800039c <USB_IRQHandler>:
  * @brief  This function handles USB FS Handler.
  * @param  None
  * @retval None
  */
void USB_IRQHandler(void)
{
 800039c:	b580      	push	{r7, lr}
 800039e:	af00      	add	r7, sp, #0
	USB_Istr();
 80003a0:	f004 fb7c 	bl	8004a9c <USB_Istr>
}
 80003a4:	46bd      	mov	sp, r7
 80003a6:	bd80      	pop	{r7, pc}

080003a8 <EXTI2_3_IRQHandler>:

void EXTI2_3_IRQHandler(void)
{
 80003a8:	b580      	push	{r7, lr}
 80003aa:	af00      	add	r7, sp, #0
	displayFindReturnPoint();
 80003ac:	f001 fd0e 	bl	8001dcc <displayFindReturnPoint>
}
 80003b0:	46bd      	mov	sp, r7
 80003b2:	bd80      	pop	{r7, pc}

080003b4 <TIM2_IRQHandler>:

void TIM2_IRQHandler(void)
{
 80003b4:	b580      	push	{r7, lr}
 80003b6:	af00      	add	r7, sp, #0
	displayEndOfLocktime();
 80003b8:	f001 fc9c 	bl	8001cf4 <displayEndOfLocktime>
}
 80003bc:	46bd      	mov	sp, r7
 80003be:	bd80      	pop	{r7, pc}

080003c0 <TIM3_IRQHandler>:

void TIM3_IRQHandler(void)
{
 80003c0:	b580      	push	{r7, lr}
 80003c2:	af00      	add	r7, sp, #0
	displaySendLine();
 80003c4:	f001 fc2c 	bl	8001c20 <displaySendLine>
}
 80003c8:	46bd      	mov	sp, r7
 80003ca:	bd80      	pop	{r7, pc}

080003cc <Reset_Handler>:

  .section .text.Reset_Handler
  .weak Reset_Handler
  .type Reset_Handler, %function
Reset_Handler:
  ldr   r0, =_estack
 80003cc:	480d      	ldr	r0, [pc, #52]	; (8000404 <LoopForever+0x2>)
  mov   sp, r0          /* set stack pointer */
 80003ce:	4685      	mov	sp, r0

/* Copy the data segment initializers from flash to SRAM */
  movs r1, #0
 80003d0:	2100      	movs	r1, #0
  b LoopCopyDataInit
 80003d2:	e003      	b.n	80003dc <LoopCopyDataInit>

080003d4 <CopyDataInit>:

CopyDataInit:
  ldr r3, =_sidata
 80003d4:	4b0c      	ldr	r3, [pc, #48]	; (8000408 <LoopForever+0x6>)
  ldr r3, [r3, r1]
 80003d6:	585b      	ldr	r3, [r3, r1]
  str r3, [r0, r1]
 80003d8:	5043      	str	r3, [r0, r1]
  adds r1, r1, #4
 80003da:	3104      	adds	r1, #4

080003dc <LoopCopyDataInit>:

LoopCopyDataInit:
  ldr r0, =_sdata
 80003dc:	480b      	ldr	r0, [pc, #44]	; (800040c <LoopForever+0xa>)
  ldr r3, =_edata
 80003de:	4b0c      	ldr	r3, [pc, #48]	; (8000410 <LoopForever+0xe>)
  adds r2, r0, r1
 80003e0:	1842      	adds	r2, r0, r1
  cmp r2, r3
 80003e2:	429a      	cmp	r2, r3
  bcc CopyDataInit
 80003e4:	d3f6      	bcc.n	80003d4 <CopyDataInit>
  ldr r2, =_sbss
 80003e6:	4a0b      	ldr	r2, [pc, #44]	; (8000414 <LoopForever+0x12>)
  b LoopFillZerobss
 80003e8:	e002      	b.n	80003f0 <LoopFillZerobss>

080003ea <FillZerobss>:
/* Zero fill the bss segment. */
FillZerobss:
  movs r3, #0
 80003ea:	2300      	movs	r3, #0
  str  r3, [r2]
 80003ec:	6013      	str	r3, [r2, #0]
  adds r2, r2, #4
 80003ee:	3204      	adds	r2, #4

080003f0 <LoopFillZerobss>:


LoopFillZerobss:
  ldr r3, = _ebss
 80003f0:	4b09      	ldr	r3, [pc, #36]	; (8000418 <LoopForever+0x16>)
  cmp r2, r3
 80003f2:	429a      	cmp	r2, r3
  bcc FillZerobss
 80003f4:	d3f9      	bcc.n	80003ea <FillZerobss>

/* Call the clock system intitialization function.*/
    bl  SystemInit
 80003f6:	f7ff fed7 	bl	80001a8 <SystemInit>
/* Call static constructors */
    bl __libc_init_array
 80003fa:	f006 fa85 	bl	8006908 <__libc_init_array>
/* Call the application's entry point.*/
  bl main
 80003fe:	f002 f87b 	bl	80024f8 <main>

08000402 <LoopForever>:
  
LoopForever:
    b LoopForever
 8000402:	e7fe      	b.n	8000402 <LoopForever>

  .section .text.Reset_Handler
  .weak Reset_Handler
  .type Reset_Handler, %function
Reset_Handler:
  ldr   r0, =_estack
 8000404:	20001800 	.word	0x20001800
/* Copy the data segment initializers from flash to SRAM */
  movs r1, #0
  b LoopCopyDataInit

CopyDataInit:
  ldr r3, =_sidata
 8000408:	080075b4 	.word	0x080075b4
  ldr r3, [r3, r1]
  str r3, [r0, r1]
  adds r1, r1, #4

LoopCopyDataInit:
  ldr r0, =_sdata
 800040c:	20000000 	.word	0x20000000
  ldr r3, =_edata
 8000410:	20000120 	.word	0x20000120
  adds r2, r0, r1
  cmp r2, r3
  bcc CopyDataInit
  ldr r2, =_sbss
 8000414:	20000120 	.word	0x20000120
  str  r3, [r2]
  adds r2, r2, #4


LoopFillZerobss:
  ldr r3, = _ebss
 8000418:	20000ee8 	.word	0x20000ee8

0800041c <ADC1_COMP_IRQHandler>:
 * @retval : None
*/
    .section .text.Default_Handler,"ax",%progbits
Default_Handler:
Infinite_Loop:
  b Infinite_Loop
 800041c:	e7fe      	b.n	800041c <ADC1_COMP_IRQHandler>
	...

08000420 <FifoIn>:
// Returns:
//     FIFO_FAIL       der Ringbuffer ist voll. Es kann kein weiteres Byte gespeichert werden
//     FIFO_SUCCESS    das Byte wurde gespeichert
//
uint8_t FifoIn(FifoBuffer *buf, uint8_t byte)
{
 8000420:	b580      	push	{r7, lr}
 8000422:	b084      	sub	sp, #16
 8000424:	af00      	add	r7, sp, #0
 8000426:	6078      	str	r0, [r7, #4]
 8000428:	1c0a      	adds	r2, r1, #0
 800042a:	1cfb      	adds	r3, r7, #3
 800042c:	701a      	strb	r2, [r3, #0]
  uint32_t next = ((buf->write + 1) & FIFO_MASK);
 800042e:	687a      	ldr	r2, [r7, #4]
 8000430:	2384      	movs	r3, #132	; 0x84
 8000432:	58d3      	ldr	r3, [r2, r3]
 8000434:	1c5a      	adds	r2, r3, #1
 8000436:	237f      	movs	r3, #127	; 0x7f
 8000438:	4013      	ands	r3, r2
 800043a:	60fb      	str	r3, [r7, #12]

  if (buf->read == next)
 800043c:	687a      	ldr	r2, [r7, #4]
 800043e:	2380      	movs	r3, #128	; 0x80
 8000440:	58d2      	ldr	r2, [r2, r3]
 8000442:	68fb      	ldr	r3, [r7, #12]
 8000444:	429a      	cmp	r2, r3
 8000446:	d101      	bne.n	800044c <FifoIn+0x2c>
    return FIFO_FAIL; // voll
 8000448:	2301      	movs	r3, #1
 800044a:	e00b      	b.n	8000464 <FifoIn+0x44>

  buf->data[buf->write] = byte;
 800044c:	687a      	ldr	r2, [r7, #4]
 800044e:	2384      	movs	r3, #132	; 0x84
 8000450:	58d3      	ldr	r3, [r2, r3]
 8000452:	687a      	ldr	r2, [r7, #4]
 8000454:	1cf9      	adds	r1, r7, #3
 8000456:	7809      	ldrb	r1, [r1, #0]
 8000458:	54d1      	strb	r1, [r2, r3]
  // buffer.data[buffer.write & BUFFER_MASK] = byte; // absolut Sicher
  buf->write = next;
 800045a:	687a      	ldr	r2, [r7, #4]
 800045c:	2384      	movs	r3, #132	; 0x84
 800045e:	68f9      	ldr	r1, [r7, #12]
 8000460:	50d1      	str	r1, [r2, r3]

  return FIFO_SUCCESS;
 8000462:	2300      	movs	r3, #0
}
 8000464:	1c18      	adds	r0, r3, #0
 8000466:	46bd      	mov	sp, r7
 8000468:	b004      	add	sp, #16
 800046a:	bd80      	pop	{r7, pc}

0800046c <FifoOut>:
// Returns:
//     FIFO_FAIL       der Ringbuffer ist leer. Es kann kein Byte geliefert werden.
//     FIFO_SUCCESS    1 Byte wurde geliefert
//
uint8_t FifoOut(FifoBuffer *buf, uint8_t *pByte)
{
 800046c:	b580      	push	{r7, lr}
 800046e:	b082      	sub	sp, #8
 8000470:	af00      	add	r7, sp, #0
 8000472:	6078      	str	r0, [r7, #4]
 8000474:	6039      	str	r1, [r7, #0]
  if (buf->read == buf->write)
 8000476:	687a      	ldr	r2, [r7, #4]
 8000478:	2380      	movs	r3, #128	; 0x80
 800047a:	58d2      	ldr	r2, [r2, r3]
 800047c:	6879      	ldr	r1, [r7, #4]
 800047e:	2384      	movs	r3, #132	; 0x84
 8000480:	58cb      	ldr	r3, [r1, r3]
 8000482:	429a      	cmp	r2, r3
 8000484:	d101      	bne.n	800048a <FifoOut+0x1e>
    return FIFO_FAIL;
 8000486:	2301      	movs	r3, #1
 8000488:	e011      	b.n	80004ae <FifoOut+0x42>

  *pByte = buf->data[buf->read];
 800048a:	687a      	ldr	r2, [r7, #4]
 800048c:	2380      	movs	r3, #128	; 0x80
 800048e:	58d3      	ldr	r3, [r2, r3]
 8000490:	687a      	ldr	r2, [r7, #4]
 8000492:	5cd2      	ldrb	r2, [r2, r3]
 8000494:	683b      	ldr	r3, [r7, #0]
 8000496:	701a      	strb	r2, [r3, #0]

  buf->read = (buf->read+1) & FIFO_MASK;
 8000498:	687a      	ldr	r2, [r7, #4]
 800049a:	2380      	movs	r3, #128	; 0x80
 800049c:	58d3      	ldr	r3, [r2, r3]
 800049e:	1c5a      	adds	r2, r3, #1
 80004a0:	237f      	movs	r3, #127	; 0x7f
 80004a2:	1c11      	adds	r1, r2, #0
 80004a4:	4019      	ands	r1, r3
 80004a6:	687a      	ldr	r2, [r7, #4]
 80004a8:	2380      	movs	r3, #128	; 0x80
 80004aa:	50d1      	str	r1, [r2, r3]

  return FIFO_SUCCESS;
 80004ac:	2300      	movs	r3, #0
}
 80004ae:	1c18      	adds	r0, r3, #0
 80004b0:	46bd      	mov	sp, r7
 80004b2:	b002      	add	sp, #8
 80004b4:	bd80      	pop	{r7, pc}
 80004b6:	46c0      	nop			; (mov r8, r8)

080004b8 <FifoCount>:

uint32_t FifoCount(FifoBuffer *buf)
{
 80004b8:	b580      	push	{r7, lr}
 80004ba:	b082      	sub	sp, #8
 80004bc:	af00      	add	r7, sp, #0
 80004be:	6078      	str	r0, [r7, #4]
	if(buf->write >= buf->read)
 80004c0:	687a      	ldr	r2, [r7, #4]
 80004c2:	2384      	movs	r3, #132	; 0x84
 80004c4:	58d2      	ldr	r2, [r2, r3]
 80004c6:	6879      	ldr	r1, [r7, #4]
 80004c8:	2380      	movs	r3, #128	; 0x80
 80004ca:	58cb      	ldr	r3, [r1, r3]
 80004cc:	429a      	cmp	r2, r3
 80004ce:	d307      	bcc.n	80004e0 <FifoCount+0x28>
	{
		return buf->write - buf->read;
 80004d0:	687a      	ldr	r2, [r7, #4]
 80004d2:	2384      	movs	r3, #132	; 0x84
 80004d4:	58d2      	ldr	r2, [r2, r3]
 80004d6:	6879      	ldr	r1, [r7, #4]
 80004d8:	2380      	movs	r3, #128	; 0x80
 80004da:	58cb      	ldr	r3, [r1, r3]
 80004dc:	1ad3      	subs	r3, r2, r3
 80004de:	e007      	b.n	80004f0 <FifoCount+0x38>
	}
	else
	{
		return FIFO_SIZE - buf->read + buf->write;
 80004e0:	687a      	ldr	r2, [r7, #4]
 80004e2:	2384      	movs	r3, #132	; 0x84
 80004e4:	58d2      	ldr	r2, [r2, r3]
 80004e6:	6879      	ldr	r1, [r7, #4]
 80004e8:	2380      	movs	r3, #128	; 0x80
 80004ea:	58cb      	ldr	r3, [r1, r3]
 80004ec:	1ad3      	subs	r3, r2, r3
 80004ee:	3380      	adds	r3, #128	; 0x80
	}
}
 80004f0:	1c18      	adds	r0, r3, #0
 80004f2:	46bd      	mov	sp, r7
 80004f4:	b002      	add	sp, #8
 80004f6:	bd80      	pop	{r7, pc}

080004f8 <USBD_USR_Init>:
  * @brief  Device lib initialization
  * @param  None
  * @retval None
  */
void USBD_USR_Init(void)
{   
 80004f8:	b580      	push	{r7, lr}
 80004fa:	af00      	add	r7, sp, #0
}
 80004fc:	46bd      	mov	sp, r7
 80004fe:	bd80      	pop	{r7, pc}

08000500 <USBD_USR_DeviceReset>:
  * @brief  Reset Event
  * @param  speed : device speed
  * @retval None
  */
void USBD_USR_DeviceReset(uint8_t speed )
{
 8000500:	b580      	push	{r7, lr}
 8000502:	b082      	sub	sp, #8
 8000504:	af00      	add	r7, sp, #0
 8000506:	1c02      	adds	r2, r0, #0
 8000508:	1dfb      	adds	r3, r7, #7
 800050a:	701a      	strb	r2, [r3, #0]

}
 800050c:	46bd      	mov	sp, r7
 800050e:	b002      	add	sp, #8
 8000510:	bd80      	pop	{r7, pc}
 8000512:	46c0      	nop			; (mov r8, r8)

08000514 <USBD_USR_DeviceConfigured>:
  * @brief  Configuration Event
  * @param  None
  * @retval Status
*/
void USBD_USR_DeviceConfigured (void)
{
 8000514:	b580      	push	{r7, lr}
 8000516:	af00      	add	r7, sp, #0

}
 8000518:	46bd      	mov	sp, r7
 800051a:	bd80      	pop	{r7, pc}

0800051c <USBD_USR_DeviceSuspended>:
  * @brief  Device suspend Event
  * @param  None
  * @retval None
  */
void USBD_USR_DeviceSuspended(void)
{
 800051c:	b580      	push	{r7, lr}
 800051e:	af00      	add	r7, sp, #0
}
 8000520:	46bd      	mov	sp, r7
 8000522:	bd80      	pop	{r7, pc}

08000524 <USBD_USR_DeviceResumed>:
  * @brief  Device resume Event
  * @param  None
  * @retval None
  */
void USBD_USR_DeviceResumed(void)
{
 8000524:	b580      	push	{r7, lr}
 8000526:	af00      	add	r7, sp, #0
}
 8000528:	46bd      	mov	sp, r7
 800052a:	bd80      	pop	{r7, pc}

0800052c <Suspend>:
  * @brief  Sets suspend mode operating conditions
  * @param  None
  * @retval USB_SUCCESS
  */
void Suspend(void)
{
 800052c:	b580      	push	{r7, lr}
 800052e:	b082      	sub	sp, #8
 8000530:	af00      	add	r7, sp, #0
  uint16_t wCNTR;

  /*Store CNTR value */
  wCNTR = _GetCNTR();   
 8000532:	4b0f      	ldr	r3, [pc, #60]	; (8000570 <Suspend+0x44>)
 8000534:	681a      	ldr	r2, [r3, #0]
 8000536:	1dbb      	adds	r3, r7, #6
 8000538:	801a      	strh	r2, [r3, #0]
  /* Set FSUSP bit in USB_CNTR register*/
  wCNTR |= CNTR_FSUSP;
 800053a:	1dbb      	adds	r3, r7, #6
 800053c:	1dba      	adds	r2, r7, #6
 800053e:	8812      	ldrh	r2, [r2, #0]
 8000540:	2108      	movs	r1, #8
 8000542:	430a      	orrs	r2, r1
 8000544:	801a      	strh	r2, [r3, #0]
  _SetCNTR(wCNTR);
 8000546:	4b0a      	ldr	r3, [pc, #40]	; (8000570 <Suspend+0x44>)
 8000548:	1dba      	adds	r2, r7, #6
 800054a:	8812      	ldrh	r2, [r2, #0]
 800054c:	601a      	str	r2, [r3, #0]
  
  /* force low-power mode in the macrocell */
  wCNTR = _GetCNTR();
 800054e:	4b08      	ldr	r3, [pc, #32]	; (8000570 <Suspend+0x44>)
 8000550:	681a      	ldr	r2, [r3, #0]
 8000552:	1dbb      	adds	r3, r7, #6
 8000554:	801a      	strh	r2, [r3, #0]
  wCNTR |= CNTR_LPMODE;
 8000556:	1dbb      	adds	r3, r7, #6
 8000558:	1dba      	adds	r2, r7, #6
 800055a:	8812      	ldrh	r2, [r2, #0]
 800055c:	2104      	movs	r1, #4
 800055e:	430a      	orrs	r2, r1
 8000560:	801a      	strh	r2, [r3, #0]
  _SetCNTR(wCNTR);
 8000562:	4b03      	ldr	r3, [pc, #12]	; (8000570 <Suspend+0x44>)
 8000564:	1dba      	adds	r2, r7, #6
 8000566:	8812      	ldrh	r2, [r2, #0]
 8000568:	601a      	str	r2, [r3, #0]
    wCNTR = _GetCNTR();
    wCNTR&=~CNTR_FSUSP;
    _SetCNTR(wCNTR);
  }
#endif
}
 800056a:	46bd      	mov	sp, r7
 800056c:	b002      	add	sp, #8
 800056e:	bd80      	pop	{r7, pc}
 8000570:	40005c40 	.word	0x40005c40

08000574 <Resume_Init>:
  * @brief  Handles wake-up restoring normal operations
  * @param  None
  * @retval USB_SUCCESS
  */
void Resume_Init(void)
{
 8000574:	b580      	push	{r7, lr}
 8000576:	b082      	sub	sp, #8
 8000578:	af00      	add	r7, sp, #0
  /* ------------------ ONLY WITH BUS-POWERED DEVICES ---------------------- */
  /* restart the clocks */
  /* ...  */

  /* CNTR_LPMODE = 0 */
  wCNTR = _GetCNTR();
 800057a:	4b0a      	ldr	r3, [pc, #40]	; (80005a4 <Resume_Init+0x30>)
 800057c:	681a      	ldr	r2, [r3, #0]
 800057e:	1dbb      	adds	r3, r7, #6
 8000580:	801a      	strh	r2, [r3, #0]
  wCNTR &= (~CNTR_LPMODE);
 8000582:	1dbb      	adds	r3, r7, #6
 8000584:	1dba      	adds	r2, r7, #6
 8000586:	8812      	ldrh	r2, [r2, #0]
 8000588:	2104      	movs	r1, #4
 800058a:	438a      	bics	r2, r1
 800058c:	801a      	strh	r2, [r3, #0]
  _SetCNTR(wCNTR);    
 800058e:	4b05      	ldr	r3, [pc, #20]	; (80005a4 <Resume_Init+0x30>)
 8000590:	1dba      	adds	r2, r7, #6
 8000592:	8812      	ldrh	r2, [r2, #0]
 8000594:	601a      	str	r2, [r3, #0]
  /* restore full power */
  /* ... on connected devices */
  Leave_LowPowerMode();
#endif
  /* reset FSUSP bit */
  _SetCNTR(IMR_MSK);
 8000596:	4b03      	ldr	r3, [pc, #12]	; (80005a4 <Resume_Init+0x30>)
 8000598:	22bf      	movs	r2, #191	; 0xbf
 800059a:	0212      	lsls	r2, r2, #8
 800059c:	601a      	str	r2, [r3, #0]

}
 800059e:	46bd      	mov	sp, r7
 80005a0:	b002      	add	sp, #8
 80005a2:	bd80      	pop	{r7, pc}
 80005a4:	40005c40 	.word	0x40005c40

080005a8 <Resume>:
  *         RESUME_ESOF doesn't change ResumeS.eState allowing
  *         decrementing of the ESOF counter in different states.
  * @retval Status
  */
void Resume(RESUME_STATE eResumeSetVal)
{
 80005a8:	b580      	push	{r7, lr}
 80005aa:	b084      	sub	sp, #16
 80005ac:	af00      	add	r7, sp, #0
 80005ae:	1c02      	adds	r2, r0, #0
 80005b0:	1dfb      	adds	r3, r7, #7
 80005b2:	701a      	strb	r2, [r3, #0]
 uint16_t wCNTR;

  if (eResumeSetVal != RESUME_ESOF)
 80005b4:	1dfb      	adds	r3, r7, #7
 80005b6:	781b      	ldrb	r3, [r3, #0]
 80005b8:	2b07      	cmp	r3, #7
 80005ba:	d003      	beq.n	80005c4 <Resume+0x1c>
    ResumeS.eState = eResumeSetVal;
 80005bc:	4b41      	ldr	r3, [pc, #260]	; (80006c4 <Resume+0x11c>)
 80005be:	1dfa      	adds	r2, r7, #7
 80005c0:	7812      	ldrb	r2, [r2, #0]
 80005c2:	701a      	strb	r2, [r3, #0]
  switch (ResumeS.eState)
 80005c4:	4b3f      	ldr	r3, [pc, #252]	; (80006c4 <Resume+0x11c>)
 80005c6:	781b      	ldrb	r3, [r3, #0]
 80005c8:	b2db      	uxtb	r3, r3
 80005ca:	2b05      	cmp	r3, #5
 80005cc:	d900      	bls.n	80005d0 <Resume+0x28>
 80005ce:	e072      	b.n	80006b6 <Resume+0x10e>
 80005d0:	009a      	lsls	r2, r3, #2
 80005d2:	4b3d      	ldr	r3, [pc, #244]	; (80006c8 <Resume+0x120>)
 80005d4:	18d3      	adds	r3, r2, r3
 80005d6:	681b      	ldr	r3, [r3, #0]
 80005d8:	469f      	mov	pc, r3
  {
    case RESUME_EXTERNAL:
      
if (remotewakeupon ==0)
 80005da:	4b3c      	ldr	r3, [pc, #240]	; (80006cc <Resume+0x124>)
 80005dc:	681b      	ldr	r3, [r3, #0]
 80005de:	2b00      	cmp	r3, #0
 80005e0:	d105      	bne.n	80005ee <Resume+0x46>
      {
        Resume_Init();
 80005e2:	f7ff ffc7 	bl	8000574 <Resume_Init>
        ResumeS.eState = RESUME_OFF;
 80005e6:	4b37      	ldr	r3, [pc, #220]	; (80006c4 <Resume+0x11c>)
 80005e8:	2206      	movs	r2, #6
 80005ea:	701a      	strb	r2, [r3, #0]
      }
      else /* RESUME detected during the RemoteWAkeup signalling => keep RemoteWakeup handling*/
      {
        ResumeS.eState = RESUME_ON;
      }
      break;
 80005ec:	e067      	b.n	80006be <Resume+0x116>
        Resume_Init();
        ResumeS.eState = RESUME_OFF;
      }
      else /* RESUME detected during the RemoteWAkeup signalling => keep RemoteWakeup handling*/
      {
        ResumeS.eState = RESUME_ON;
 80005ee:	4b35      	ldr	r3, [pc, #212]	; (80006c4 <Resume+0x11c>)
 80005f0:	2205      	movs	r2, #5
 80005f2:	701a      	strb	r2, [r3, #0]
      }
      break;
 80005f4:	e063      	b.n	80006be <Resume+0x116>
    case RESUME_INTERNAL:
      Resume_Init();
 80005f6:	f7ff ffbd 	bl	8000574 <Resume_Init>
      ResumeS.eState = RESUME_START;
 80005fa:	4b32      	ldr	r3, [pc, #200]	; (80006c4 <Resume+0x11c>)
 80005fc:	2204      	movs	r2, #4
 80005fe:	701a      	strb	r2, [r3, #0]
      remotewakeupon = 1;
 8000600:	4b32      	ldr	r3, [pc, #200]	; (80006cc <Resume+0x124>)
 8000602:	2201      	movs	r2, #1
 8000604:	601a      	str	r2, [r3, #0]
      break;
 8000606:	e05a      	b.n	80006be <Resume+0x116>
    case RESUME_LATER:
      ResumeS.bESOFcnt = 2;
 8000608:	4b2e      	ldr	r3, [pc, #184]	; (80006c4 <Resume+0x11c>)
 800060a:	2202      	movs	r2, #2
 800060c:	705a      	strb	r2, [r3, #1]
      ResumeS.eState = RESUME_WAIT;
 800060e:	4b2d      	ldr	r3, [pc, #180]	; (80006c4 <Resume+0x11c>)
 8000610:	2203      	movs	r2, #3
 8000612:	701a      	strb	r2, [r3, #0]
      break;
 8000614:	e053      	b.n	80006be <Resume+0x116>
    case RESUME_WAIT:
      ResumeS.bESOFcnt--;
 8000616:	4b2b      	ldr	r3, [pc, #172]	; (80006c4 <Resume+0x11c>)
 8000618:	785b      	ldrb	r3, [r3, #1]
 800061a:	b2db      	uxtb	r3, r3
 800061c:	3b01      	subs	r3, #1
 800061e:	b2da      	uxtb	r2, r3
 8000620:	4b28      	ldr	r3, [pc, #160]	; (80006c4 <Resume+0x11c>)
 8000622:	705a      	strb	r2, [r3, #1]
      if (ResumeS.bESOFcnt == 0)
 8000624:	4b27      	ldr	r3, [pc, #156]	; (80006c4 <Resume+0x11c>)
 8000626:	785b      	ldrb	r3, [r3, #1]
 8000628:	b2db      	uxtb	r3, r3
 800062a:	2b00      	cmp	r3, #0
 800062c:	d103      	bne.n	8000636 <Resume+0x8e>
        ResumeS.eState = RESUME_START;
 800062e:	4b25      	ldr	r3, [pc, #148]	; (80006c4 <Resume+0x11c>)
 8000630:	2204      	movs	r2, #4
 8000632:	701a      	strb	r2, [r3, #0]
      break;
 8000634:	e043      	b.n	80006be <Resume+0x116>
 8000636:	e042      	b.n	80006be <Resume+0x116>
    case RESUME_START:
      wCNTR = _GetCNTR();
 8000638:	4b25      	ldr	r3, [pc, #148]	; (80006d0 <Resume+0x128>)
 800063a:	681a      	ldr	r2, [r3, #0]
 800063c:	1c3b      	adds	r3, r7, #0
 800063e:	330e      	adds	r3, #14
 8000640:	801a      	strh	r2, [r3, #0]
      wCNTR |= CNTR_RESUME;
 8000642:	1c3b      	adds	r3, r7, #0
 8000644:	330e      	adds	r3, #14
 8000646:	1c3a      	adds	r2, r7, #0
 8000648:	320e      	adds	r2, #14
 800064a:	8812      	ldrh	r2, [r2, #0]
 800064c:	2110      	movs	r1, #16
 800064e:	430a      	orrs	r2, r1
 8000650:	801a      	strh	r2, [r3, #0]
      _SetCNTR(wCNTR);
 8000652:	4b1f      	ldr	r3, [pc, #124]	; (80006d0 <Resume+0x128>)
 8000654:	1c3a      	adds	r2, r7, #0
 8000656:	320e      	adds	r2, #14
 8000658:	8812      	ldrh	r2, [r2, #0]
 800065a:	601a      	str	r2, [r3, #0]
      ResumeS.eState = RESUME_ON;
 800065c:	4b19      	ldr	r3, [pc, #100]	; (80006c4 <Resume+0x11c>)
 800065e:	2205      	movs	r2, #5
 8000660:	701a      	strb	r2, [r3, #0]
      ResumeS.bESOFcnt = 10;
 8000662:	4b18      	ldr	r3, [pc, #96]	; (80006c4 <Resume+0x11c>)
 8000664:	220a      	movs	r2, #10
 8000666:	705a      	strb	r2, [r3, #1]
      break;
 8000668:	e029      	b.n	80006be <Resume+0x116>
    case RESUME_ON:    
      ResumeS.bESOFcnt--;
 800066a:	4b16      	ldr	r3, [pc, #88]	; (80006c4 <Resume+0x11c>)
 800066c:	785b      	ldrb	r3, [r3, #1]
 800066e:	b2db      	uxtb	r3, r3
 8000670:	3b01      	subs	r3, #1
 8000672:	b2da      	uxtb	r2, r3
 8000674:	4b13      	ldr	r3, [pc, #76]	; (80006c4 <Resume+0x11c>)
 8000676:	705a      	strb	r2, [r3, #1]
      if (ResumeS.bESOFcnt == 0)
 8000678:	4b12      	ldr	r3, [pc, #72]	; (80006c4 <Resume+0x11c>)
 800067a:	785b      	ldrb	r3, [r3, #1]
 800067c:	b2db      	uxtb	r3, r3
 800067e:	2b00      	cmp	r3, #0
 8000680:	d118      	bne.n	80006b4 <Resume+0x10c>
      {
        wCNTR = _GetCNTR();
 8000682:	4b13      	ldr	r3, [pc, #76]	; (80006d0 <Resume+0x128>)
 8000684:	681a      	ldr	r2, [r3, #0]
 8000686:	1c3b      	adds	r3, r7, #0
 8000688:	330e      	adds	r3, #14
 800068a:	801a      	strh	r2, [r3, #0]
        wCNTR &= (~CNTR_RESUME);
 800068c:	1c3b      	adds	r3, r7, #0
 800068e:	330e      	adds	r3, #14
 8000690:	1c3a      	adds	r2, r7, #0
 8000692:	320e      	adds	r2, #14
 8000694:	8812      	ldrh	r2, [r2, #0]
 8000696:	2110      	movs	r1, #16
 8000698:	438a      	bics	r2, r1
 800069a:	801a      	strh	r2, [r3, #0]
        _SetCNTR(wCNTR);
 800069c:	4b0c      	ldr	r3, [pc, #48]	; (80006d0 <Resume+0x128>)
 800069e:	1c3a      	adds	r2, r7, #0
 80006a0:	320e      	adds	r2, #14
 80006a2:	8812      	ldrh	r2, [r2, #0]
 80006a4:	601a      	str	r2, [r3, #0]
        ResumeS.eState = RESUME_OFF;
 80006a6:	4b07      	ldr	r3, [pc, #28]	; (80006c4 <Resume+0x11c>)
 80006a8:	2206      	movs	r2, #6
 80006aa:	701a      	strb	r2, [r3, #0]
        remotewakeupon = 0;
 80006ac:	4b07      	ldr	r3, [pc, #28]	; (80006cc <Resume+0x124>)
 80006ae:	2200      	movs	r2, #0
 80006b0:	601a      	str	r2, [r3, #0]
      }
      break;
 80006b2:	e004      	b.n	80006be <Resume+0x116>
 80006b4:	e003      	b.n	80006be <Resume+0x116>
    case RESUME_OFF:
    case RESUME_ESOF:
    default:
      ResumeS.eState = RESUME_OFF;
 80006b6:	4b03      	ldr	r3, [pc, #12]	; (80006c4 <Resume+0x11c>)
 80006b8:	2206      	movs	r2, #6
 80006ba:	701a      	strb	r2, [r3, #0]
      break;
 80006bc:	46c0      	nop			; (mov r8, r8)
  }
}
 80006be:	46bd      	mov	sp, r7
 80006c0:	b004      	add	sp, #16
 80006c2:	bd80      	pop	{r7, pc}
 80006c4:	200001d0 	.word	0x200001d0
 80006c8:	08007478 	.word	0x08007478
 80006cc:	2000013c 	.word	0x2000013c
 80006d0:	40005c40 	.word	0x40005c40

080006d4 <USBD_USR_DeviceDescriptor>:
  * @param  speed : current device speed
  * @param  length : pointer to data length variable
  * @retval pointer to descriptor buffer
  */
uint8_t *  USBD_USR_DeviceDescriptor( uint8_t speed , uint16_t *length)
{
 80006d4:	b580      	push	{r7, lr}
 80006d6:	b082      	sub	sp, #8
 80006d8:	af00      	add	r7, sp, #0
 80006da:	1c02      	adds	r2, r0, #0
 80006dc:	6039      	str	r1, [r7, #0]
 80006de:	1dfb      	adds	r3, r7, #7
 80006e0:	701a      	strb	r2, [r3, #0]
  *length = sizeof(USBD_DeviceDesc);
 80006e2:	683b      	ldr	r3, [r7, #0]
 80006e4:	2212      	movs	r2, #18
 80006e6:	801a      	strh	r2, [r3, #0]
  return (uint8_t*)USBD_DeviceDesc;
 80006e8:	4b02      	ldr	r3, [pc, #8]	; (80006f4 <USBD_USR_DeviceDescriptor+0x20>)
}
 80006ea:	1c18      	adds	r0, r3, #0
 80006ec:	46bd      	mov	sp, r7
 80006ee:	b002      	add	sp, #8
 80006f0:	bd80      	pop	{r7, pc}
 80006f2:	46c0      	nop			; (mov r8, r8)
 80006f4:	08007490 	.word	0x08007490

080006f8 <USBD_USR_LangIDStrDescriptor>:
  * @param  speed : current device speed
  * @param  length : pointer to data length variable
  * @retval pointer to descriptor buffer
  */
uint8_t *  USBD_USR_LangIDStrDescriptor( uint8_t speed , uint16_t *length)
{
 80006f8:	b580      	push	{r7, lr}
 80006fa:	b082      	sub	sp, #8
 80006fc:	af00      	add	r7, sp, #0
 80006fe:	1c02      	adds	r2, r0, #0
 8000700:	6039      	str	r1, [r7, #0]
 8000702:	1dfb      	adds	r3, r7, #7
 8000704:	701a      	strb	r2, [r3, #0]
  *length =  sizeof(USBD_LangIDDesc);  
 8000706:	683b      	ldr	r3, [r7, #0]
 8000708:	2204      	movs	r2, #4
 800070a:	801a      	strh	r2, [r3, #0]
  return (uint8_t*)USBD_LangIDDesc;
 800070c:	4b02      	ldr	r3, [pc, #8]	; (8000718 <USBD_USR_LangIDStrDescriptor+0x20>)
}
 800070e:	1c18      	adds	r0, r3, #0
 8000710:	46bd      	mov	sp, r7
 8000712:	b002      	add	sp, #8
 8000714:	bd80      	pop	{r7, pc}
 8000716:	46c0      	nop			; (mov r8, r8)
 8000718:	080074a4 	.word	0x080074a4

0800071c <USBD_USR_ProductStrDescriptor>:
  * @param  speed : current device speed
  * @param  length : pointer to data length variable
  * @retval pointer to descriptor buffer
  */
uint8_t *  USBD_USR_ProductStrDescriptor( uint8_t speed , uint16_t *length)
{
 800071c:	b580      	push	{r7, lr}
 800071e:	b082      	sub	sp, #8
 8000720:	af00      	add	r7, sp, #0
 8000722:	1c02      	adds	r2, r0, #0
 8000724:	6039      	str	r1, [r7, #0]
 8000726:	1dfb      	adds	r3, r7, #7
 8000728:	701a      	strb	r2, [r3, #0]
  USBD_GetString ( (uint8_t*)USBD_PRODUCT_FS_STRING, USBD_StrDesc, length);    
 800072a:	4906      	ldr	r1, [pc, #24]	; (8000744 <USBD_USR_ProductStrDescriptor+0x28>)
 800072c:	4a06      	ldr	r2, [pc, #24]	; (8000748 <USBD_USR_ProductStrDescriptor+0x2c>)
 800072e:	683b      	ldr	r3, [r7, #0]
 8000730:	1c08      	adds	r0, r1, #0
 8000732:	1c11      	adds	r1, r2, #0
 8000734:	1c1a      	adds	r2, r3, #0
 8000736:	f003 f92f 	bl	8003998 <USBD_GetString>
  return USBD_StrDesc;
 800073a:	4b03      	ldr	r3, [pc, #12]	; (8000748 <USBD_USR_ProductStrDescriptor+0x2c>)
}
 800073c:	1c18      	adds	r0, r3, #0
 800073e:	46bd      	mov	sp, r7
 8000740:	b002      	add	sp, #8
 8000742:	bd80      	pop	{r7, pc}
 8000744:	080071c0 	.word	0x080071c0
 8000748:	20000558 	.word	0x20000558

0800074c <USBD_USR_ManufacturerStrDescriptor>:
  * @param  speed : current device speed
  * @param  length : pointer to data length variable
  * @retval pointer to descriptor buffer
  */
uint8_t *  USBD_USR_ManufacturerStrDescriptor( uint8_t speed , uint16_t *length)
{
 800074c:	b580      	push	{r7, lr}
 800074e:	b082      	sub	sp, #8
 8000750:	af00      	add	r7, sp, #0
 8000752:	1c02      	adds	r2, r0, #0
 8000754:	6039      	str	r1, [r7, #0]
 8000756:	1dfb      	adds	r3, r7, #7
 8000758:	701a      	strb	r2, [r3, #0]
  USBD_GetString ( (uint8_t*)USBD_MANUFACTURER_STRING, USBD_StrDesc, length);
 800075a:	4906      	ldr	r1, [pc, #24]	; (8000774 <USBD_USR_ManufacturerStrDescriptor+0x28>)
 800075c:	4a06      	ldr	r2, [pc, #24]	; (8000778 <USBD_USR_ManufacturerStrDescriptor+0x2c>)
 800075e:	683b      	ldr	r3, [r7, #0]
 8000760:	1c08      	adds	r0, r1, #0
 8000762:	1c11      	adds	r1, r2, #0
 8000764:	1c1a      	adds	r2, r3, #0
 8000766:	f003 f917 	bl	8003998 <USBD_GetString>
  return USBD_StrDesc;
 800076a:	4b03      	ldr	r3, [pc, #12]	; (8000778 <USBD_USR_ManufacturerStrDescriptor+0x2c>)
}
 800076c:	1c18      	adds	r0, r3, #0
 800076e:	46bd      	mov	sp, r7
 8000770:	b002      	add	sp, #8
 8000772:	bd80      	pop	{r7, pc}
 8000774:	080071e4 	.word	0x080071e4
 8000778:	20000558 	.word	0x20000558

0800077c <USBD_USR_SerialStrDescriptor>:
  * @param  speed : current device speed
  * @param  length : pointer to data length variable
  * @retval pointer to descriptor buffer
  */
uint8_t *  USBD_USR_SerialStrDescriptor( uint8_t speed , uint16_t *length)
{
 800077c:	b580      	push	{r7, lr}
 800077e:	b082      	sub	sp, #8
 8000780:	af00      	add	r7, sp, #0
 8000782:	1c02      	adds	r2, r0, #0
 8000784:	6039      	str	r1, [r7, #0]
 8000786:	1dfb      	adds	r3, r7, #7
 8000788:	701a      	strb	r2, [r3, #0]
  *length = USB_SIZ_STRING_SERIAL; 
 800078a:	683b      	ldr	r3, [r7, #0]
 800078c:	221a      	movs	r2, #26
 800078e:	801a      	strh	r2, [r3, #0]
  return USBD_StringSerial;
 8000790:	4b02      	ldr	r3, [pc, #8]	; (800079c <USBD_USR_SerialStrDescriptor+0x20>)
}
 8000792:	1c18      	adds	r0, r3, #0
 8000794:	46bd      	mov	sp, r7
 8000796:	b002      	add	sp, #8
 8000798:	bd80      	pop	{r7, pc}
 800079a:	46c0      	nop			; (mov r8, r8)
 800079c:	20000044 	.word	0x20000044

080007a0 <USBD_USR_ConfigStrDescriptor>:
  * @param  speed : current device speed
  * @param  length : pointer to data length variable
  * @retval pointer to descriptor buffer
  */
uint8_t *  USBD_USR_ConfigStrDescriptor( uint8_t speed , uint16_t *length)
{
 80007a0:	b580      	push	{r7, lr}
 80007a2:	b082      	sub	sp, #8
 80007a4:	af00      	add	r7, sp, #0
 80007a6:	1c02      	adds	r2, r0, #0
 80007a8:	6039      	str	r1, [r7, #0]
 80007aa:	1dfb      	adds	r3, r7, #7
 80007ac:	701a      	strb	r2, [r3, #0]
  USBD_GetString ( (uint8_t*)USBD_CONFIGURATION_FS_STRING, USBD_StrDesc, length); 
 80007ae:	4906      	ldr	r1, [pc, #24]	; (80007c8 <USBD_USR_ConfigStrDescriptor+0x28>)
 80007b0:	4a06      	ldr	r2, [pc, #24]	; (80007cc <USBD_USR_ConfigStrDescriptor+0x2c>)
 80007b2:	683b      	ldr	r3, [r7, #0]
 80007b4:	1c08      	adds	r0, r1, #0
 80007b6:	1c11      	adds	r1, r2, #0
 80007b8:	1c1a      	adds	r2, r3, #0
 80007ba:	f003 f8ed 	bl	8003998 <USBD_GetString>
  return USBD_StrDesc;  
 80007be:	4b03      	ldr	r3, [pc, #12]	; (80007cc <USBD_USR_ConfigStrDescriptor+0x2c>)
}
 80007c0:	1c18      	adds	r0, r3, #0
 80007c2:	46bd      	mov	sp, r7
 80007c4:	b002      	add	sp, #8
 80007c6:	bd80      	pop	{r7, pc}
 80007c8:	080071f8 	.word	0x080071f8
 80007cc:	20000558 	.word	0x20000558

080007d0 <USBD_USR_InterfaceStrDescriptor>:
  * @param  speed : current device speed
  * @param  length : pointer to data length variable
  * @retval pointer to descriptor buffer
  */
uint8_t *  USBD_USR_InterfaceStrDescriptor( uint8_t speed , uint16_t *length)
{
 80007d0:	b580      	push	{r7, lr}
 80007d2:	b082      	sub	sp, #8
 80007d4:	af00      	add	r7, sp, #0
 80007d6:	1c02      	adds	r2, r0, #0
 80007d8:	6039      	str	r1, [r7, #0]
 80007da:	1dfb      	adds	r3, r7, #7
 80007dc:	701a      	strb	r2, [r3, #0]
  USBD_GetString ( (uint8_t*)USBD_INTERFACE_FS_STRING, USBD_StrDesc, length);
 80007de:	4906      	ldr	r1, [pc, #24]	; (80007f8 <USBD_USR_InterfaceStrDescriptor+0x28>)
 80007e0:	4a06      	ldr	r2, [pc, #24]	; (80007fc <USBD_USR_InterfaceStrDescriptor+0x2c>)
 80007e2:	683b      	ldr	r3, [r7, #0]
 80007e4:	1c08      	adds	r0, r1, #0
 80007e6:	1c11      	adds	r1, r2, #0
 80007e8:	1c1a      	adds	r2, r3, #0
 80007ea:	f003 f8d5 	bl	8003998 <USBD_GetString>
  return USBD_StrDesc;  
 80007ee:	4b03      	ldr	r3, [pc, #12]	; (80007fc <USBD_USR_InterfaceStrDescriptor+0x2c>)
}
 80007f0:	1c18      	adds	r0, r3, #0
 80007f2:	46bd      	mov	sp, r7
 80007f4:	b002      	add	sp, #8
 80007f6:	bd80      	pop	{r7, pc}
 80007f8:	08007204 	.word	0x08007204
 80007fc:	20000558 	.word	0x20000558

08000800 <Get_SerialNum>:
  * @brief  Create the serial number string descriptor 
  * @param  None 
  * @retval None
  */
void Get_SerialNum(void)
{
 8000800:	b580      	push	{r7, lr}
 8000802:	b084      	sub	sp, #16
 8000804:	af00      	add	r7, sp, #0
  uint32_t Device_Serial0, Device_Serial1, Device_Serial2;
  
  Device_Serial0 = *(uint32_t*)Device1_Identifier;
 8000806:	4b10      	ldr	r3, [pc, #64]	; (8000848 <Get_SerialNum+0x48>)
 8000808:	681b      	ldr	r3, [r3, #0]
 800080a:	60fb      	str	r3, [r7, #12]
  Device_Serial1 = *(uint32_t*)Device2_Identifier;
 800080c:	4b0f      	ldr	r3, [pc, #60]	; (800084c <Get_SerialNum+0x4c>)
 800080e:	681b      	ldr	r3, [r3, #0]
 8000810:	60bb      	str	r3, [r7, #8]
  Device_Serial2 = *(uint32_t*)Device3_Identifier;
 8000812:	4b0f      	ldr	r3, [pc, #60]	; (8000850 <Get_SerialNum+0x50>)
 8000814:	681b      	ldr	r3, [r3, #0]
 8000816:	607b      	str	r3, [r7, #4]
  
  Device_Serial0 += Device_Serial2;
 8000818:	68fa      	ldr	r2, [r7, #12]
 800081a:	687b      	ldr	r3, [r7, #4]
 800081c:	18d3      	adds	r3, r2, r3
 800081e:	60fb      	str	r3, [r7, #12]
  
  if (Device_Serial0 != 0)
 8000820:	68fb      	ldr	r3, [r7, #12]
 8000822:	2b00      	cmp	r3, #0
 8000824:	d00d      	beq.n	8000842 <Get_SerialNum+0x42>
  {
    IntToUnicode (Device_Serial0, &USBD_StringSerial[2] ,8);
 8000826:	68fa      	ldr	r2, [r7, #12]
 8000828:	4b0a      	ldr	r3, [pc, #40]	; (8000854 <Get_SerialNum+0x54>)
 800082a:	1c10      	adds	r0, r2, #0
 800082c:	1c19      	adds	r1, r3, #0
 800082e:	2208      	movs	r2, #8
 8000830:	f000 f814 	bl	800085c <IntToUnicode>
    IntToUnicode (Device_Serial1, &USBD_StringSerial[18] ,4);
 8000834:	68ba      	ldr	r2, [r7, #8]
 8000836:	4b08      	ldr	r3, [pc, #32]	; (8000858 <Get_SerialNum+0x58>)
 8000838:	1c10      	adds	r0, r2, #0
 800083a:	1c19      	adds	r1, r3, #0
 800083c:	2204      	movs	r2, #4
 800083e:	f000 f80d 	bl	800085c <IntToUnicode>
  }
}
 8000842:	46bd      	mov	sp, r7
 8000844:	b004      	add	sp, #16
 8000846:	bd80      	pop	{r7, pc}
 8000848:	1ffff7ac 	.word	0x1ffff7ac
 800084c:	1ffff7b0 	.word	0x1ffff7b0
 8000850:	1ffff7b4 	.word	0x1ffff7b4
 8000854:	20000046 	.word	0x20000046
 8000858:	20000056 	.word	0x20000056

0800085c <IntToUnicode>:
  * @param  pbuf: pointer to the buffer 
  * @param  len: buffer length
  * @retval None
  */
static void IntToUnicode (uint32_t value , uint8_t *pbuf , uint8_t len)
{
 800085c:	b580      	push	{r7, lr}
 800085e:	b086      	sub	sp, #24
 8000860:	af00      	add	r7, sp, #0
 8000862:	60f8      	str	r0, [r7, #12]
 8000864:	60b9      	str	r1, [r7, #8]
 8000866:	1dfb      	adds	r3, r7, #7
 8000868:	701a      	strb	r2, [r3, #0]
  uint8_t idx = 0;
 800086a:	1c3b      	adds	r3, r7, #0
 800086c:	3317      	adds	r3, #23
 800086e:	2200      	movs	r2, #0
 8000870:	701a      	strb	r2, [r3, #0]
  
  for( idx = 0 ; idx < len ; idx ++)
 8000872:	1c3b      	adds	r3, r7, #0
 8000874:	3317      	adds	r3, #23
 8000876:	2200      	movs	r2, #0
 8000878:	701a      	strb	r2, [r3, #0]
 800087a:	e02f      	b.n	80008dc <IntToUnicode+0x80>
  {
    if( ((value >> 28)) < 0xA )
 800087c:	68fb      	ldr	r3, [r7, #12]
 800087e:	0f1b      	lsrs	r3, r3, #28
 8000880:	2b09      	cmp	r3, #9
 8000882:	d80c      	bhi.n	800089e <IntToUnicode+0x42>
    {
      pbuf[ 2* idx] = (value >> 28) + '0';
 8000884:	1c3b      	adds	r3, r7, #0
 8000886:	3317      	adds	r3, #23
 8000888:	781b      	ldrb	r3, [r3, #0]
 800088a:	005b      	lsls	r3, r3, #1
 800088c:	68ba      	ldr	r2, [r7, #8]
 800088e:	18d3      	adds	r3, r2, r3
 8000890:	68fa      	ldr	r2, [r7, #12]
 8000892:	0f12      	lsrs	r2, r2, #28
 8000894:	b2d2      	uxtb	r2, r2
 8000896:	3230      	adds	r2, #48	; 0x30
 8000898:	b2d2      	uxtb	r2, r2
 800089a:	701a      	strb	r2, [r3, #0]
 800089c:	e00b      	b.n	80008b6 <IntToUnicode+0x5a>
    }
    else
    {
      pbuf[2* idx] = (value >> 28) + 'A' - 10; 
 800089e:	1c3b      	adds	r3, r7, #0
 80008a0:	3317      	adds	r3, #23
 80008a2:	781b      	ldrb	r3, [r3, #0]
 80008a4:	005b      	lsls	r3, r3, #1
 80008a6:	68ba      	ldr	r2, [r7, #8]
 80008a8:	18d3      	adds	r3, r2, r3
 80008aa:	68fa      	ldr	r2, [r7, #12]
 80008ac:	0f12      	lsrs	r2, r2, #28
 80008ae:	b2d2      	uxtb	r2, r2
 80008b0:	3237      	adds	r2, #55	; 0x37
 80008b2:	b2d2      	uxtb	r2, r2
 80008b4:	701a      	strb	r2, [r3, #0]
    }
    
    value = value << 4;
 80008b6:	68fb      	ldr	r3, [r7, #12]
 80008b8:	011b      	lsls	r3, r3, #4
 80008ba:	60fb      	str	r3, [r7, #12]
    
    pbuf[ 2* idx + 1] = 0;
 80008bc:	1c3b      	adds	r3, r7, #0
 80008be:	3317      	adds	r3, #23
 80008c0:	781b      	ldrb	r3, [r3, #0]
 80008c2:	005b      	lsls	r3, r3, #1
 80008c4:	3301      	adds	r3, #1
 80008c6:	68ba      	ldr	r2, [r7, #8]
 80008c8:	18d3      	adds	r3, r2, r3
 80008ca:	2200      	movs	r2, #0
 80008cc:	701a      	strb	r2, [r3, #0]
  */
static void IntToUnicode (uint32_t value , uint8_t *pbuf , uint8_t len)
{
  uint8_t idx = 0;
  
  for( idx = 0 ; idx < len ; idx ++)
 80008ce:	1c3b      	adds	r3, r7, #0
 80008d0:	3317      	adds	r3, #23
 80008d2:	781a      	ldrb	r2, [r3, #0]
 80008d4:	1c3b      	adds	r3, r7, #0
 80008d6:	3317      	adds	r3, #23
 80008d8:	3201      	adds	r2, #1
 80008da:	701a      	strb	r2, [r3, #0]
 80008dc:	1c3a      	adds	r2, r7, #0
 80008de:	3217      	adds	r2, #23
 80008e0:	1dfb      	adds	r3, r7, #7
 80008e2:	7812      	ldrb	r2, [r2, #0]
 80008e4:	781b      	ldrb	r3, [r3, #0]
 80008e6:	429a      	cmp	r2, r3
 80008e8:	d3c8      	bcc.n	800087c <IntToUnicode+0x20>
    
    value = value << 4;
    
    pbuf[ 2* idx + 1] = 0;
  }
}
 80008ea:	46bd      	mov	sp, r7
 80008ec:	b006      	add	sp, #24
 80008ee:	bd80      	pop	{r7, pc}

080008f0 <USB_BSP_Init>:
  * @param  None
  * @retval None
  */

void USB_BSP_Init(USB_CORE_HANDLE *pdev)
{
 80008f0:	b580      	push	{r7, lr}
 80008f2:	b082      	sub	sp, #8
 80008f4:	af00      	add	r7, sp, #0
 80008f6:	6078      	str	r0, [r7, #4]
#ifdef USB_DEVICE_LOW_PWR_MGMT_SUPPORT 
  EXTI_InitTypeDef EXTI_InitStructure;
#endif /*USB_DEVICE_LOW_PWR_MGMT_SUPPORT */  

  /* Enable USB clock */
  RCC_APB1PeriphClockCmd(RCC_APB1Periph_USB, ENABLE);
 80008f8:	2380      	movs	r3, #128	; 0x80
 80008fa:	041b      	lsls	r3, r3, #16
 80008fc:	1c18      	adds	r0, r3, #0
 80008fe:	2101      	movs	r1, #1
 8000900:	f005 fb6e 	bl	8005fe0 <RCC_APB1PeriphClockCmd>
  - Set AUTOTRIMEN
  - Set CEN
  */
  
  /* Select HSI48 as USB clock */
  RCC_USBCLKConfig(RCC_USBCLK_HSI48);
 8000904:	2000      	movs	r0, #0
 8000906:	f005 fb19 	bl	8005f3c <RCC_USBCLKConfig>
  
  /* Configure the Clock Recovery System */
  CRS_Config();  
 800090a:	f000 f81b 	bl	8000944 <CRS_Config>
  EXTI_InitStructure.EXTI_Mode = EXTI_Mode_Interrupt;
  EXTI_InitStructure.EXTI_LineCmd = ENABLE;
  EXTI_Init(&EXTI_InitStructure);
#endif /*USB_DEVICE_LOW_PWR_MGMT_SUPPORT */
  
}
 800090e:	46bd      	mov	sp, r7
 8000910:	b002      	add	sp, #8
 8000912:	bd80      	pop	{r7, pc}

08000914 <USB_BSP_EnableInterrupt>:
  * @brief  Enable USB Global interrupt
  * @param  None
  * @retval None
  */
void USB_BSP_EnableInterrupt(USB_CORE_HANDLE *pdev)
{
 8000914:	b580      	push	{r7, lr}
 8000916:	b084      	sub	sp, #16
 8000918:	af00      	add	r7, sp, #0
 800091a:	6078      	str	r0, [r7, #4]
  NVIC_InitTypeDef NVIC_InitStructure;
  
  /* Enable the USB interrupt */
  NVIC_InitStructure.NVIC_IRQChannel = USB_IRQn;
 800091c:	1c3b      	adds	r3, r7, #0
 800091e:	330c      	adds	r3, #12
 8000920:	221f      	movs	r2, #31
 8000922:	701a      	strb	r2, [r3, #0]
  NVIC_InitStructure.NVIC_IRQChannelPriority = USB_IT_PRIO;
 8000924:	1c3b      	adds	r3, r7, #0
 8000926:	330c      	adds	r3, #12
 8000928:	2201      	movs	r2, #1
 800092a:	705a      	strb	r2, [r3, #1]
  NVIC_InitStructure.NVIC_IRQChannelCmd = ENABLE;
 800092c:	1c3b      	adds	r3, r7, #0
 800092e:	330c      	adds	r3, #12
 8000930:	2201      	movs	r2, #1
 8000932:	709a      	strb	r2, [r3, #2]
  NVIC_Init(&NVIC_InitStructure);
 8000934:	1c3b      	adds	r3, r7, #0
 8000936:	330c      	adds	r3, #12
 8000938:	1c18      	adds	r0, r3, #0
 800093a:	f005 fb6f 	bl	800601c <NVIC_Init>
}
 800093e:	46bd      	mov	sp, r7
 8000940:	b004      	add	sp, #16
 8000942:	bd80      	pop	{r7, pc}

08000944 <CRS_Config>:
  *         oscillator according to USB SOF
  * @param  None
  * @retval None
  */
static void CRS_Config(void)
{
 8000944:	b580      	push	{r7, lr}
 8000946:	af00      	add	r7, sp, #0
  /*Enable CRS Clock*/
  RCC_APB1PeriphClockCmd(RCC_APB1Periph_CRS, ENABLE);
 8000948:	2380      	movs	r3, #128	; 0x80
 800094a:	051b      	lsls	r3, r3, #20
 800094c:	1c18      	adds	r0, r3, #0
 800094e:	2101      	movs	r1, #1
 8000950:	f005 fb46 	bl	8005fe0 <RCC_APB1PeriphClockCmd>
  
  /* Select USB SOF as synchronization source */
  CRS_SynchronizationSourceConfig(CRS_SYNCSource_USB);
 8000954:	2380      	movs	r3, #128	; 0x80
 8000956:	059b      	lsls	r3, r3, #22
 8000958:	1c18      	adds	r0, r3, #0
 800095a:	f005 ffbd 	bl	80068d8 <CRS_SynchronizationSourceConfig>
  
  /*Enables the automatic hardware adjustment of TRIM bits: AUTOTRIMEN:*/
  CRS_AutomaticCalibrationCmd(ENABLE);
 800095e:	2001      	movs	r0, #1
 8000960:	f005 ff9e 	bl	80068a0 <CRS_AutomaticCalibrationCmd>
  
  /*Enables the oscillator clock for frequency error counter CEN*/
  CRS_FrequencyErrorCounterCmd(ENABLE);
 8000964:	2001      	movs	r0, #1
 8000966:	f005 ff7f 	bl	8006868 <CRS_FrequencyErrorCounterCmd>
}
 800096a:	46bd      	mov	sp, r7
 800096c:	bd80      	pop	{r7, pc}
 800096e:	46c0      	nop			; (mov r8, r8)

08000970 <EE_Init>:
  * @param  None.
  * @retval - Flash error code: on write Flash error
  *         - FLASH_COMPLETE: on success
  */
uint16_t EE_Init(void)
{
 8000970:	b590      	push	{r4, r7, lr}
 8000972:	b085      	sub	sp, #20
 8000974:	af00      	add	r7, sp, #0
  uint16_t PageStatus0 = 6, PageStatus1 = 6;
 8000976:	1c3b      	adds	r3, r7, #0
 8000978:	330a      	adds	r3, #10
 800097a:	2206      	movs	r2, #6
 800097c:	801a      	strh	r2, [r3, #0]
 800097e:	1c3b      	adds	r3, r7, #0
 8000980:	3308      	adds	r3, #8
 8000982:	2206      	movs	r2, #6
 8000984:	801a      	strh	r2, [r3, #0]
  uint16_t VarIdx = 0;
 8000986:	1c3b      	adds	r3, r7, #0
 8000988:	330e      	adds	r3, #14
 800098a:	2200      	movs	r2, #0
 800098c:	801a      	strh	r2, [r3, #0]
  uint16_t EepromStatus = 0, ReadStatus = 0;
 800098e:	1dbb      	adds	r3, r7, #6
 8000990:	2200      	movs	r2, #0
 8000992:	801a      	strh	r2, [r3, #0]
 8000994:	1d3b      	adds	r3, r7, #4
 8000996:	2200      	movs	r2, #0
 8000998:	801a      	strh	r2, [r3, #0]
  int16_t x = -1;
 800099a:	1c3b      	adds	r3, r7, #0
 800099c:	330c      	adds	r3, #12
 800099e:	2201      	movs	r2, #1
 80009a0:	4252      	negs	r2, r2
 80009a2:	801a      	strh	r2, [r3, #0]
  uint16_t  FlashStatus;

  /* Get Page0 status */
  PageStatus0 = (*(__IO uint16_t*)PAGE0_BASE_ADDRESS);
 80009a4:	4abc      	ldr	r2, [pc, #752]	; (8000c98 <EE_Init+0x328>)
 80009a6:	1c3b      	adds	r3, r7, #0
 80009a8:	330a      	adds	r3, #10
 80009aa:	8812      	ldrh	r2, [r2, #0]
 80009ac:	801a      	strh	r2, [r3, #0]
  /* Get Page1 status */
  PageStatus1 = (*(__IO uint16_t*)PAGE1_BASE_ADDRESS);
 80009ae:	4abb      	ldr	r2, [pc, #748]	; (8000c9c <EE_Init+0x32c>)
 80009b0:	1c3b      	adds	r3, r7, #0
 80009b2:	3308      	adds	r3, #8
 80009b4:	8812      	ldrh	r2, [r2, #0]
 80009b6:	801a      	strh	r2, [r3, #0]

  /* Check for invalid header states and repair if necessary */
  switch (PageStatus0)
 80009b8:	1c3b      	adds	r3, r7, #0
 80009ba:	330a      	adds	r3, #10
 80009bc:	881b      	ldrh	r3, [r3, #0]
 80009be:	4ab8      	ldr	r2, [pc, #736]	; (8000ca0 <EE_Init+0x330>)
 80009c0:	4293      	cmp	r3, r2
 80009c2:	d04d      	beq.n	8000a60 <EE_Init+0xf0>
 80009c4:	4ab7      	ldr	r2, [pc, #732]	; (8000ca4 <EE_Init+0x334>)
 80009c6:	4293      	cmp	r3, r2
 80009c8:	d003      	beq.n	80009d2 <EE_Init+0x62>
 80009ca:	2b00      	cmp	r3, #0
 80009cc:	d100      	bne.n	80009d0 <EE_Init+0x60>
 80009ce:	e0f2      	b.n	8000bb6 <EE_Init+0x246>
 80009d0:	e19e      	b.n	8000d10 <EE_Init+0x3a0>
  {
    case ERASED:
      if (PageStatus1 == VALID_PAGE) /* Page0 erased, Page1 valid */
 80009d2:	1c3b      	adds	r3, r7, #0
 80009d4:	3308      	adds	r3, #8
 80009d6:	881b      	ldrh	r3, [r3, #0]
 80009d8:	2b00      	cmp	r3, #0
 80009da:	d10e      	bne.n	80009fa <EE_Init+0x8a>
      {
        /* Erase Page0 */
        FlashStatus = FLASH_ErasePage(PAGE0_BASE_ADDRESS);
 80009dc:	4bae      	ldr	r3, [pc, #696]	; (8000c98 <EE_Init+0x328>)
 80009de:	1c18      	adds	r0, r3, #0
 80009e0:	f005 fd8e 	bl	8006500 <FLASH_ErasePage>
 80009e4:	1c03      	adds	r3, r0, #0
 80009e6:	1c1a      	adds	r2, r3, #0
 80009e8:	1cbb      	adds	r3, r7, #2
 80009ea:	801a      	strh	r2, [r3, #0]
        /* If erase operation was failed, a Flash error code is returned */
        if (FlashStatus != FLASH_COMPLETE)
 80009ec:	1cbb      	adds	r3, r7, #2
 80009ee:	881b      	ldrh	r3, [r3, #0]
 80009f0:	2b04      	cmp	r3, #4
 80009f2:	d034      	beq.n	8000a5e <EE_Init+0xee>
        {
          return FlashStatus;
 80009f4:	1cbb      	adds	r3, r7, #2
 80009f6:	881b      	ldrh	r3, [r3, #0]
 80009f8:	e199      	b.n	8000d2e <EE_Init+0x3be>
        }
      }
      else if (PageStatus1 == RECEIVE_DATA) /* Page0 erased, Page1 receive */
 80009fa:	1c3b      	adds	r3, r7, #0
 80009fc:	3308      	adds	r3, #8
 80009fe:	881a      	ldrh	r2, [r3, #0]
 8000a00:	4ba7      	ldr	r3, [pc, #668]	; (8000ca0 <EE_Init+0x330>)
 8000a02:	429a      	cmp	r2, r3
 8000a04:	d11e      	bne.n	8000a44 <EE_Init+0xd4>
      {
        /* Erase Page0 */
        FlashStatus = FLASH_ErasePage(PAGE0_BASE_ADDRESS);
 8000a06:	4ba4      	ldr	r3, [pc, #656]	; (8000c98 <EE_Init+0x328>)
 8000a08:	1c18      	adds	r0, r3, #0
 8000a0a:	f005 fd79 	bl	8006500 <FLASH_ErasePage>
 8000a0e:	1c03      	adds	r3, r0, #0
 8000a10:	1c1a      	adds	r2, r3, #0
 8000a12:	1cbb      	adds	r3, r7, #2
 8000a14:	801a      	strh	r2, [r3, #0]
        /* If erase operation was failed, a Flash error code is returned */
        if (FlashStatus != FLASH_COMPLETE)
 8000a16:	1cbb      	adds	r3, r7, #2
 8000a18:	881b      	ldrh	r3, [r3, #0]
 8000a1a:	2b04      	cmp	r3, #4
 8000a1c:	d002      	beq.n	8000a24 <EE_Init+0xb4>
        {
          return FlashStatus;
 8000a1e:	1cbb      	adds	r3, r7, #2
 8000a20:	881b      	ldrh	r3, [r3, #0]
 8000a22:	e184      	b.n	8000d2e <EE_Init+0x3be>
        }
        /* Mark Page1 as valid */
        FlashStatus = FLASH_ProgramHalfWord(PAGE1_BASE_ADDRESS, VALID_PAGE);
 8000a24:	4b9d      	ldr	r3, [pc, #628]	; (8000c9c <EE_Init+0x32c>)
 8000a26:	1c18      	adds	r0, r3, #0
 8000a28:	2100      	movs	r1, #0
 8000a2a:	f005 fda7 	bl	800657c <FLASH_ProgramHalfWord>
 8000a2e:	1c03      	adds	r3, r0, #0
 8000a30:	1c1a      	adds	r2, r3, #0
 8000a32:	1cbb      	adds	r3, r7, #2
 8000a34:	801a      	strh	r2, [r3, #0]
        /* If program operation was failed, a Flash error code is returned */
        if (FlashStatus != FLASH_COMPLETE)
 8000a36:	1cbb      	adds	r3, r7, #2
 8000a38:	881b      	ldrh	r3, [r3, #0]
 8000a3a:	2b04      	cmp	r3, #4
 8000a3c:	d00f      	beq.n	8000a5e <EE_Init+0xee>
        {
          return FlashStatus;
 8000a3e:	1cbb      	adds	r3, r7, #2
 8000a40:	881b      	ldrh	r3, [r3, #0]
 8000a42:	e174      	b.n	8000d2e <EE_Init+0x3be>
        }
      }
      else /* First EEPROM access (Page0&1 are erased) or invalid state -> format EEPROM */
      {
        /* Erase both Page0 and Page1 and set Page0 as valid page */
        FlashStatus = EE_Format();
 8000a44:	f000 fa12 	bl	8000e6c <EE_Format>
 8000a48:	1c03      	adds	r3, r0, #0
 8000a4a:	1c1a      	adds	r2, r3, #0
 8000a4c:	1cbb      	adds	r3, r7, #2
 8000a4e:	801a      	strh	r2, [r3, #0]
        /* If erase/program operation was failed, a Flash error code is returned */
        if (FlashStatus != FLASH_COMPLETE)
 8000a50:	1cbb      	adds	r3, r7, #2
 8000a52:	881b      	ldrh	r3, [r3, #0]
 8000a54:	2b04      	cmp	r3, #4
 8000a56:	d002      	beq.n	8000a5e <EE_Init+0xee>
        {
          return FlashStatus;
 8000a58:	1cbb      	adds	r3, r7, #2
 8000a5a:	881b      	ldrh	r3, [r3, #0]
 8000a5c:	e167      	b.n	8000d2e <EE_Init+0x3be>
        }
      }
      break;
 8000a5e:	e165      	b.n	8000d2c <EE_Init+0x3bc>

    case RECEIVE_DATA:
      if (PageStatus1 == VALID_PAGE) /* Page0 receive, Page1 valid */
 8000a60:	1c3b      	adds	r3, r7, #0
 8000a62:	3308      	adds	r3, #8
 8000a64:	881b      	ldrh	r3, [r3, #0]
 8000a66:	2b00      	cmp	r3, #0
 8000a68:	d000      	beq.n	8000a6c <EE_Init+0xfc>
 8000a6a:	e071      	b.n	8000b50 <EE_Init+0x1e0>
      {
        /* Transfer data from Page1 to Page0 */
        for (VarIdx = 0; VarIdx < NB_OF_VAR; VarIdx++)
 8000a6c:	1c3b      	adds	r3, r7, #0
 8000a6e:	330e      	adds	r3, #14
 8000a70:	2200      	movs	r2, #0
 8000a72:	801a      	strh	r2, [r3, #0]
 8000a74:	e048      	b.n	8000b08 <EE_Init+0x198>
        {
          if (( *(__IO uint16_t*)(PAGE0_BASE_ADDRESS + 6)) == VirtAddVarTab[VarIdx])
 8000a76:	4b8c      	ldr	r3, [pc, #560]	; (8000ca8 <EE_Init+0x338>)
 8000a78:	881b      	ldrh	r3, [r3, #0]
 8000a7a:	b29a      	uxth	r2, r3
 8000a7c:	1c3b      	adds	r3, r7, #0
 8000a7e:	330e      	adds	r3, #14
 8000a80:	8819      	ldrh	r1, [r3, #0]
 8000a82:	4b8a      	ldr	r3, [pc, #552]	; (8000cac <EE_Init+0x33c>)
 8000a84:	0049      	lsls	r1, r1, #1
 8000a86:	5acb      	ldrh	r3, [r1, r3]
 8000a88:	429a      	cmp	r2, r3
 8000a8a:	d105      	bne.n	8000a98 <EE_Init+0x128>
          {
            x = VarIdx;
 8000a8c:	1c3b      	adds	r3, r7, #0
 8000a8e:	330c      	adds	r3, #12
 8000a90:	1c3a      	adds	r2, r7, #0
 8000a92:	320e      	adds	r2, #14
 8000a94:	8812      	ldrh	r2, [r2, #0]
 8000a96:	801a      	strh	r2, [r3, #0]
          }
          if (VarIdx != x)
 8000a98:	1c3b      	adds	r3, r7, #0
 8000a9a:	330e      	adds	r3, #14
 8000a9c:	881a      	ldrh	r2, [r3, #0]
 8000a9e:	1c3b      	adds	r3, r7, #0
 8000aa0:	330c      	adds	r3, #12
 8000aa2:	2100      	movs	r1, #0
 8000aa4:	5e5b      	ldrsh	r3, [r3, r1]
 8000aa6:	429a      	cmp	r2, r3
 8000aa8:	d027      	beq.n	8000afa <EE_Init+0x18a>
          {
            /* Read the last variables' updates */
            ReadStatus = EE_ReadVariable(VirtAddVarTab[VarIdx], &DataVar);
 8000aaa:	1c3b      	adds	r3, r7, #0
 8000aac:	330e      	adds	r3, #14
 8000aae:	881a      	ldrh	r2, [r3, #0]
 8000ab0:	4b7e      	ldr	r3, [pc, #504]	; (8000cac <EE_Init+0x33c>)
 8000ab2:	0052      	lsls	r2, r2, #1
 8000ab4:	5ad2      	ldrh	r2, [r2, r3]
 8000ab6:	1d3c      	adds	r4, r7, #4
 8000ab8:	4b7d      	ldr	r3, [pc, #500]	; (8000cb0 <EE_Init+0x340>)
 8000aba:	1c10      	adds	r0, r2, #0
 8000abc:	1c19      	adds	r1, r3, #0
 8000abe:	f000 f93f 	bl	8000d40 <EE_ReadVariable>
 8000ac2:	1c03      	adds	r3, r0, #0
 8000ac4:	8023      	strh	r3, [r4, #0]
            /* In case variable corresponding to the virtual address was found */
            if (ReadStatus != 0x1)
 8000ac6:	1d3b      	adds	r3, r7, #4
 8000ac8:	881b      	ldrh	r3, [r3, #0]
 8000aca:	2b01      	cmp	r3, #1
 8000acc:	d015      	beq.n	8000afa <EE_Init+0x18a>
            {
              /* Transfer the variable to the Page0 */
              EepromStatus = EE_VerifyPageFullWriteVariable(VirtAddVarTab[VarIdx], DataVar);
 8000ace:	1c3b      	adds	r3, r7, #0
 8000ad0:	330e      	adds	r3, #14
 8000ad2:	881a      	ldrh	r2, [r3, #0]
 8000ad4:	4b75      	ldr	r3, [pc, #468]	; (8000cac <EE_Init+0x33c>)
 8000ad6:	0052      	lsls	r2, r2, #1
 8000ad8:	5ad2      	ldrh	r2, [r2, r3]
 8000ada:	4b75      	ldr	r3, [pc, #468]	; (8000cb0 <EE_Init+0x340>)
 8000adc:	881b      	ldrh	r3, [r3, #0]
 8000ade:	1dbc      	adds	r4, r7, #6
 8000ae0:	1c10      	adds	r0, r2, #0
 8000ae2:	1c19      	adds	r1, r3, #0
 8000ae4:	f000 fa50 	bl	8000f88 <EE_VerifyPageFullWriteVariable>
 8000ae8:	1c03      	adds	r3, r0, #0
 8000aea:	8023      	strh	r3, [r4, #0]
              /* If program operation was failed, a Flash error code is returned */
              if (EepromStatus != FLASH_COMPLETE)
 8000aec:	1dbb      	adds	r3, r7, #6
 8000aee:	881b      	ldrh	r3, [r3, #0]
 8000af0:	2b04      	cmp	r3, #4
 8000af2:	d002      	beq.n	8000afa <EE_Init+0x18a>
              {
                return EepromStatus;
 8000af4:	1dbb      	adds	r3, r7, #6
 8000af6:	881b      	ldrh	r3, [r3, #0]
 8000af8:	e119      	b.n	8000d2e <EE_Init+0x3be>

    case RECEIVE_DATA:
      if (PageStatus1 == VALID_PAGE) /* Page0 receive, Page1 valid */
      {
        /* Transfer data from Page1 to Page0 */
        for (VarIdx = 0; VarIdx < NB_OF_VAR; VarIdx++)
 8000afa:	1c3b      	adds	r3, r7, #0
 8000afc:	330e      	adds	r3, #14
 8000afe:	881a      	ldrh	r2, [r3, #0]
 8000b00:	1c3b      	adds	r3, r7, #0
 8000b02:	330e      	adds	r3, #14
 8000b04:	3201      	adds	r2, #1
 8000b06:	801a      	strh	r2, [r3, #0]
 8000b08:	1c3b      	adds	r3, r7, #0
 8000b0a:	330e      	adds	r3, #14
 8000b0c:	881b      	ldrh	r3, [r3, #0]
 8000b0e:	2b24      	cmp	r3, #36	; 0x24
 8000b10:	d9b1      	bls.n	8000a76 <EE_Init+0x106>
              }
            }
          }
        }
        /* Mark Page0 as valid */
        FlashStatus = FLASH_ProgramHalfWord(PAGE0_BASE_ADDRESS, VALID_PAGE);
 8000b12:	4b61      	ldr	r3, [pc, #388]	; (8000c98 <EE_Init+0x328>)
 8000b14:	1c18      	adds	r0, r3, #0
 8000b16:	2100      	movs	r1, #0
 8000b18:	f005 fd30 	bl	800657c <FLASH_ProgramHalfWord>
 8000b1c:	1c03      	adds	r3, r0, #0
 8000b1e:	1c1a      	adds	r2, r3, #0
 8000b20:	1cbb      	adds	r3, r7, #2
 8000b22:	801a      	strh	r2, [r3, #0]
        /* If program operation was failed, a Flash error code is returned */
        if (FlashStatus != FLASH_COMPLETE)
 8000b24:	1cbb      	adds	r3, r7, #2
 8000b26:	881b      	ldrh	r3, [r3, #0]
 8000b28:	2b04      	cmp	r3, #4
 8000b2a:	d002      	beq.n	8000b32 <EE_Init+0x1c2>
        {
          return FlashStatus;
 8000b2c:	1cbb      	adds	r3, r7, #2
 8000b2e:	881b      	ldrh	r3, [r3, #0]
 8000b30:	e0fd      	b.n	8000d2e <EE_Init+0x3be>
        }
        /* Erase Page1 */
        FlashStatus = FLASH_ErasePage(PAGE1_BASE_ADDRESS);
 8000b32:	4b5a      	ldr	r3, [pc, #360]	; (8000c9c <EE_Init+0x32c>)
 8000b34:	1c18      	adds	r0, r3, #0
 8000b36:	f005 fce3 	bl	8006500 <FLASH_ErasePage>
 8000b3a:	1c03      	adds	r3, r0, #0
 8000b3c:	1c1a      	adds	r2, r3, #0
 8000b3e:	1cbb      	adds	r3, r7, #2
 8000b40:	801a      	strh	r2, [r3, #0]
        /* If erase operation was failed, a Flash error code is returned */
        if (FlashStatus != FLASH_COMPLETE)
 8000b42:	1cbb      	adds	r3, r7, #2
 8000b44:	881b      	ldrh	r3, [r3, #0]
 8000b46:	2b04      	cmp	r3, #4
 8000b48:	d034      	beq.n	8000bb4 <EE_Init+0x244>
        {
          return FlashStatus;
 8000b4a:	1cbb      	adds	r3, r7, #2
 8000b4c:	881b      	ldrh	r3, [r3, #0]
 8000b4e:	e0ee      	b.n	8000d2e <EE_Init+0x3be>
        }
      }
      else if (PageStatus1 == ERASED) /* Page0 receive, Page1 erased */
 8000b50:	1c3b      	adds	r3, r7, #0
 8000b52:	3308      	adds	r3, #8
 8000b54:	881a      	ldrh	r2, [r3, #0]
 8000b56:	4b53      	ldr	r3, [pc, #332]	; (8000ca4 <EE_Init+0x334>)
 8000b58:	429a      	cmp	r2, r3
 8000b5a:	d11e      	bne.n	8000b9a <EE_Init+0x22a>
      {
        /* Erase Page1 */
        FlashStatus = FLASH_ErasePage(PAGE1_BASE_ADDRESS);
 8000b5c:	4b4f      	ldr	r3, [pc, #316]	; (8000c9c <EE_Init+0x32c>)
 8000b5e:	1c18      	adds	r0, r3, #0
 8000b60:	f005 fcce 	bl	8006500 <FLASH_ErasePage>
 8000b64:	1c03      	adds	r3, r0, #0
 8000b66:	1c1a      	adds	r2, r3, #0
 8000b68:	1cbb      	adds	r3, r7, #2
 8000b6a:	801a      	strh	r2, [r3, #0]
        /* If erase operation was failed, a Flash error code is returned */
        if (FlashStatus != FLASH_COMPLETE)
 8000b6c:	1cbb      	adds	r3, r7, #2
 8000b6e:	881b      	ldrh	r3, [r3, #0]
 8000b70:	2b04      	cmp	r3, #4
 8000b72:	d002      	beq.n	8000b7a <EE_Init+0x20a>
        {
          return FlashStatus;
 8000b74:	1cbb      	adds	r3, r7, #2
 8000b76:	881b      	ldrh	r3, [r3, #0]
 8000b78:	e0d9      	b.n	8000d2e <EE_Init+0x3be>
        }
        /* Mark Page0 as valid */
        FlashStatus = FLASH_ProgramHalfWord(PAGE0_BASE_ADDRESS, VALID_PAGE);
 8000b7a:	4b47      	ldr	r3, [pc, #284]	; (8000c98 <EE_Init+0x328>)
 8000b7c:	1c18      	adds	r0, r3, #0
 8000b7e:	2100      	movs	r1, #0
 8000b80:	f005 fcfc 	bl	800657c <FLASH_ProgramHalfWord>
 8000b84:	1c03      	adds	r3, r0, #0
 8000b86:	1c1a      	adds	r2, r3, #0
 8000b88:	1cbb      	adds	r3, r7, #2
 8000b8a:	801a      	strh	r2, [r3, #0]
        /* If program operation was failed, a Flash error code is returned */
        if (FlashStatus != FLASH_COMPLETE)
 8000b8c:	1cbb      	adds	r3, r7, #2
 8000b8e:	881b      	ldrh	r3, [r3, #0]
 8000b90:	2b04      	cmp	r3, #4
 8000b92:	d00f      	beq.n	8000bb4 <EE_Init+0x244>
        {
          return FlashStatus;
 8000b94:	1cbb      	adds	r3, r7, #2
 8000b96:	881b      	ldrh	r3, [r3, #0]
 8000b98:	e0c9      	b.n	8000d2e <EE_Init+0x3be>
        }
      }
      else /* Invalid state -> format eeprom */
      {
        /* Erase both Page0 and Page1 and set Page0 as valid page */
        FlashStatus = EE_Format();
 8000b9a:	f000 f967 	bl	8000e6c <EE_Format>
 8000b9e:	1c03      	adds	r3, r0, #0
 8000ba0:	1c1a      	adds	r2, r3, #0
 8000ba2:	1cbb      	adds	r3, r7, #2
 8000ba4:	801a      	strh	r2, [r3, #0]
        /* If erase/program operation was failed, a Flash error code is returned */
        if (FlashStatus != FLASH_COMPLETE)
 8000ba6:	1cbb      	adds	r3, r7, #2
 8000ba8:	881b      	ldrh	r3, [r3, #0]
 8000baa:	2b04      	cmp	r3, #4
 8000bac:	d002      	beq.n	8000bb4 <EE_Init+0x244>
        {
          return FlashStatus;
 8000bae:	1cbb      	adds	r3, r7, #2
 8000bb0:	881b      	ldrh	r3, [r3, #0]
 8000bb2:	e0bc      	b.n	8000d2e <EE_Init+0x3be>
        }
      }
      break;
 8000bb4:	e0ba      	b.n	8000d2c <EE_Init+0x3bc>

    case VALID_PAGE:
      if (PageStatus1 == VALID_PAGE) /* Invalid state -> format eeprom */
 8000bb6:	1c3b      	adds	r3, r7, #0
 8000bb8:	3308      	adds	r3, #8
 8000bba:	881b      	ldrh	r3, [r3, #0]
 8000bbc:	2b00      	cmp	r3, #0
 8000bbe:	d10d      	bne.n	8000bdc <EE_Init+0x26c>
      {
        /* Erase both Page0 and Page1 and set Page0 as valid page */
        FlashStatus = EE_Format();
 8000bc0:	f000 f954 	bl	8000e6c <EE_Format>
 8000bc4:	1c03      	adds	r3, r0, #0
 8000bc6:	1c1a      	adds	r2, r3, #0
 8000bc8:	1cbb      	adds	r3, r7, #2
 8000bca:	801a      	strh	r2, [r3, #0]
        /* If erase/program operation was failed, a Flash error code is returned */
        if (FlashStatus != FLASH_COMPLETE)
 8000bcc:	1cbb      	adds	r3, r7, #2
 8000bce:	881b      	ldrh	r3, [r3, #0]
 8000bd0:	2b04      	cmp	r3, #4
 8000bd2:	d100      	bne.n	8000bd6 <EE_Init+0x266>
 8000bd4:	e09b      	b.n	8000d0e <EE_Init+0x39e>
        {
          return FlashStatus;
 8000bd6:	1cbb      	adds	r3, r7, #2
 8000bd8:	881b      	ldrh	r3, [r3, #0]
 8000bda:	e0a8      	b.n	8000d2e <EE_Init+0x3be>
        }
      }
      else if (PageStatus1 == ERASED) /* Page0 valid, Page1 erased */
 8000bdc:	1c3b      	adds	r3, r7, #0
 8000bde:	3308      	adds	r3, #8
 8000be0:	881a      	ldrh	r2, [r3, #0]
 8000be2:	4b30      	ldr	r3, [pc, #192]	; (8000ca4 <EE_Init+0x334>)
 8000be4:	429a      	cmp	r2, r3
 8000be6:	d10f      	bne.n	8000c08 <EE_Init+0x298>
      {
        /* Erase Page1 */
        FlashStatus = FLASH_ErasePage(PAGE1_BASE_ADDRESS);
 8000be8:	4b2c      	ldr	r3, [pc, #176]	; (8000c9c <EE_Init+0x32c>)
 8000bea:	1c18      	adds	r0, r3, #0
 8000bec:	f005 fc88 	bl	8006500 <FLASH_ErasePage>
 8000bf0:	1c03      	adds	r3, r0, #0
 8000bf2:	1c1a      	adds	r2, r3, #0
 8000bf4:	1cbb      	adds	r3, r7, #2
 8000bf6:	801a      	strh	r2, [r3, #0]
        /* If erase operation was failed, a Flash error code is returned */
        if (FlashStatus != FLASH_COMPLETE)
 8000bf8:	1cbb      	adds	r3, r7, #2
 8000bfa:	881b      	ldrh	r3, [r3, #0]
 8000bfc:	2b04      	cmp	r3, #4
 8000bfe:	d100      	bne.n	8000c02 <EE_Init+0x292>
 8000c00:	e085      	b.n	8000d0e <EE_Init+0x39e>
        {
          return FlashStatus;
 8000c02:	1cbb      	adds	r3, r7, #2
 8000c04:	881b      	ldrh	r3, [r3, #0]
 8000c06:	e092      	b.n	8000d2e <EE_Init+0x3be>
        }
      }
      else /* Page0 valid, Page1 receive */
      {
        /* Transfer data from Page0 to Page1 */
        for (VarIdx = 0; VarIdx < NB_OF_VAR; VarIdx++)
 8000c08:	1c3b      	adds	r3, r7, #0
 8000c0a:	330e      	adds	r3, #14
 8000c0c:	2200      	movs	r2, #0
 8000c0e:	801a      	strh	r2, [r3, #0]
 8000c10:	e059      	b.n	8000cc6 <EE_Init+0x356>
        {
          if ((*(__IO uint16_t*)(PAGE1_BASE_ADDRESS + 6)) == VirtAddVarTab[VarIdx])
 8000c12:	4b28      	ldr	r3, [pc, #160]	; (8000cb4 <EE_Init+0x344>)
 8000c14:	881b      	ldrh	r3, [r3, #0]
 8000c16:	b29a      	uxth	r2, r3
 8000c18:	1c3b      	adds	r3, r7, #0
 8000c1a:	330e      	adds	r3, #14
 8000c1c:	8819      	ldrh	r1, [r3, #0]
 8000c1e:	4b23      	ldr	r3, [pc, #140]	; (8000cac <EE_Init+0x33c>)
 8000c20:	0049      	lsls	r1, r1, #1
 8000c22:	5acb      	ldrh	r3, [r1, r3]
 8000c24:	429a      	cmp	r2, r3
 8000c26:	d105      	bne.n	8000c34 <EE_Init+0x2c4>
          {
            x = VarIdx;
 8000c28:	1c3b      	adds	r3, r7, #0
 8000c2a:	330c      	adds	r3, #12
 8000c2c:	1c3a      	adds	r2, r7, #0
 8000c2e:	320e      	adds	r2, #14
 8000c30:	8812      	ldrh	r2, [r2, #0]
 8000c32:	801a      	strh	r2, [r3, #0]
          }
          if (VarIdx != x)
 8000c34:	1c3b      	adds	r3, r7, #0
 8000c36:	330e      	adds	r3, #14
 8000c38:	881a      	ldrh	r2, [r3, #0]
 8000c3a:	1c3b      	adds	r3, r7, #0
 8000c3c:	330c      	adds	r3, #12
 8000c3e:	2100      	movs	r1, #0
 8000c40:	5e5b      	ldrsh	r3, [r3, r1]
 8000c42:	429a      	cmp	r2, r3
 8000c44:	d038      	beq.n	8000cb8 <EE_Init+0x348>
          {
            /* Read the last variables' updates */
            ReadStatus = EE_ReadVariable(VirtAddVarTab[VarIdx], &DataVar);
 8000c46:	1c3b      	adds	r3, r7, #0
 8000c48:	330e      	adds	r3, #14
 8000c4a:	881a      	ldrh	r2, [r3, #0]
 8000c4c:	4b17      	ldr	r3, [pc, #92]	; (8000cac <EE_Init+0x33c>)
 8000c4e:	0052      	lsls	r2, r2, #1
 8000c50:	5ad2      	ldrh	r2, [r2, r3]
 8000c52:	1d3c      	adds	r4, r7, #4
 8000c54:	4b16      	ldr	r3, [pc, #88]	; (8000cb0 <EE_Init+0x340>)
 8000c56:	1c10      	adds	r0, r2, #0
 8000c58:	1c19      	adds	r1, r3, #0
 8000c5a:	f000 f871 	bl	8000d40 <EE_ReadVariable>
 8000c5e:	1c03      	adds	r3, r0, #0
 8000c60:	8023      	strh	r3, [r4, #0]
            /* In case variable corresponding to the virtual address was found */
            if (ReadStatus != 0x1)
 8000c62:	1d3b      	adds	r3, r7, #4
 8000c64:	881b      	ldrh	r3, [r3, #0]
 8000c66:	2b01      	cmp	r3, #1
 8000c68:	d026      	beq.n	8000cb8 <EE_Init+0x348>
            {
              /* Transfer the variable to the Page1 */
              EepromStatus = EE_VerifyPageFullWriteVariable(VirtAddVarTab[VarIdx], DataVar);
 8000c6a:	1c3b      	adds	r3, r7, #0
 8000c6c:	330e      	adds	r3, #14
 8000c6e:	881a      	ldrh	r2, [r3, #0]
 8000c70:	4b0e      	ldr	r3, [pc, #56]	; (8000cac <EE_Init+0x33c>)
 8000c72:	0052      	lsls	r2, r2, #1
 8000c74:	5ad2      	ldrh	r2, [r2, r3]
 8000c76:	4b0e      	ldr	r3, [pc, #56]	; (8000cb0 <EE_Init+0x340>)
 8000c78:	881b      	ldrh	r3, [r3, #0]
 8000c7a:	1dbc      	adds	r4, r7, #6
 8000c7c:	1c10      	adds	r0, r2, #0
 8000c7e:	1c19      	adds	r1, r3, #0
 8000c80:	f000 f982 	bl	8000f88 <EE_VerifyPageFullWriteVariable>
 8000c84:	1c03      	adds	r3, r0, #0
 8000c86:	8023      	strh	r3, [r4, #0]
              /* If program operation was failed, a Flash error code is returned */
              if (EepromStatus != FLASH_COMPLETE)
 8000c88:	1dbb      	adds	r3, r7, #6
 8000c8a:	881b      	ldrh	r3, [r3, #0]
 8000c8c:	2b04      	cmp	r3, #4
 8000c8e:	d013      	beq.n	8000cb8 <EE_Init+0x348>
              {
                return EepromStatus;
 8000c90:	1dbb      	adds	r3, r7, #6
 8000c92:	881b      	ldrh	r3, [r3, #0]
 8000c94:	e04b      	b.n	8000d2e <EE_Init+0x3be>
 8000c96:	46c0      	nop			; (mov r8, r8)
 8000c98:	08007800 	.word	0x08007800
 8000c9c:	08007c00 	.word	0x08007c00
 8000ca0:	0000eeee 	.word	0x0000eeee
 8000ca4:	0000ffff 	.word	0x0000ffff
 8000ca8:	08007806 	.word	0x08007806
 8000cac:	20000480 	.word	0x20000480
 8000cb0:	20000140 	.word	0x20000140
 8000cb4:	08007c06 	.word	0x08007c06
        }
      }
      else /* Page0 valid, Page1 receive */
      {
        /* Transfer data from Page0 to Page1 */
        for (VarIdx = 0; VarIdx < NB_OF_VAR; VarIdx++)
 8000cb8:	1c3b      	adds	r3, r7, #0
 8000cba:	330e      	adds	r3, #14
 8000cbc:	881a      	ldrh	r2, [r3, #0]
 8000cbe:	1c3b      	adds	r3, r7, #0
 8000cc0:	330e      	adds	r3, #14
 8000cc2:	3201      	adds	r2, #1
 8000cc4:	801a      	strh	r2, [r3, #0]
 8000cc6:	1c3b      	adds	r3, r7, #0
 8000cc8:	330e      	adds	r3, #14
 8000cca:	881b      	ldrh	r3, [r3, #0]
 8000ccc:	2b24      	cmp	r3, #36	; 0x24
 8000cce:	d9a0      	bls.n	8000c12 <EE_Init+0x2a2>
              }
            }
          }
        }
        /* Mark Page1 as valid */
        FlashStatus = FLASH_ProgramHalfWord(PAGE1_BASE_ADDRESS, VALID_PAGE);
 8000cd0:	4b19      	ldr	r3, [pc, #100]	; (8000d38 <EE_Init+0x3c8>)
 8000cd2:	1c18      	adds	r0, r3, #0
 8000cd4:	2100      	movs	r1, #0
 8000cd6:	f005 fc51 	bl	800657c <FLASH_ProgramHalfWord>
 8000cda:	1c03      	adds	r3, r0, #0
 8000cdc:	1c1a      	adds	r2, r3, #0
 8000cde:	1cbb      	adds	r3, r7, #2
 8000ce0:	801a      	strh	r2, [r3, #0]
        /* If program operation was failed, a Flash error code is returned */
        if (FlashStatus != FLASH_COMPLETE)
 8000ce2:	1cbb      	adds	r3, r7, #2
 8000ce4:	881b      	ldrh	r3, [r3, #0]
 8000ce6:	2b04      	cmp	r3, #4
 8000ce8:	d002      	beq.n	8000cf0 <EE_Init+0x380>
        {
          return FlashStatus;
 8000cea:	1cbb      	adds	r3, r7, #2
 8000cec:	881b      	ldrh	r3, [r3, #0]
 8000cee:	e01e      	b.n	8000d2e <EE_Init+0x3be>
        }
        /* Erase Page0 */
        FlashStatus = FLASH_ErasePage(PAGE0_BASE_ADDRESS);
 8000cf0:	4b12      	ldr	r3, [pc, #72]	; (8000d3c <EE_Init+0x3cc>)
 8000cf2:	1c18      	adds	r0, r3, #0
 8000cf4:	f005 fc04 	bl	8006500 <FLASH_ErasePage>
 8000cf8:	1c03      	adds	r3, r0, #0
 8000cfa:	1c1a      	adds	r2, r3, #0
 8000cfc:	1cbb      	adds	r3, r7, #2
 8000cfe:	801a      	strh	r2, [r3, #0]
        /* If erase operation was failed, a Flash error code is returned */
        if (FlashStatus != FLASH_COMPLETE)
 8000d00:	1cbb      	adds	r3, r7, #2
 8000d02:	881b      	ldrh	r3, [r3, #0]
 8000d04:	2b04      	cmp	r3, #4
 8000d06:	d002      	beq.n	8000d0e <EE_Init+0x39e>
        {
          return FlashStatus;
 8000d08:	1cbb      	adds	r3, r7, #2
 8000d0a:	881b      	ldrh	r3, [r3, #0]
 8000d0c:	e00f      	b.n	8000d2e <EE_Init+0x3be>
        }
      }
      break;
 8000d0e:	e00d      	b.n	8000d2c <EE_Init+0x3bc>

    default:  /* Any other state -> format eeprom */
      /* Erase both Page0 and Page1 and set Page0 as valid page */
      FlashStatus = EE_Format();
 8000d10:	f000 f8ac 	bl	8000e6c <EE_Format>
 8000d14:	1c03      	adds	r3, r0, #0
 8000d16:	1c1a      	adds	r2, r3, #0
 8000d18:	1cbb      	adds	r3, r7, #2
 8000d1a:	801a      	strh	r2, [r3, #0]
      /* If erase/program operation was failed, a Flash error code is returned */
      if (FlashStatus != FLASH_COMPLETE)
 8000d1c:	1cbb      	adds	r3, r7, #2
 8000d1e:	881b      	ldrh	r3, [r3, #0]
 8000d20:	2b04      	cmp	r3, #4
 8000d22:	d002      	beq.n	8000d2a <EE_Init+0x3ba>
      {
        return FlashStatus;
 8000d24:	1cbb      	adds	r3, r7, #2
 8000d26:	881b      	ldrh	r3, [r3, #0]
 8000d28:	e001      	b.n	8000d2e <EE_Init+0x3be>
      }
      break;
 8000d2a:	46c0      	nop			; (mov r8, r8)
  }

  return FLASH_COMPLETE;
 8000d2c:	2304      	movs	r3, #4
}
 8000d2e:	1c18      	adds	r0, r3, #0
 8000d30:	46bd      	mov	sp, r7
 8000d32:	b005      	add	sp, #20
 8000d34:	bd90      	pop	{r4, r7, pc}
 8000d36:	46c0      	nop			; (mov r8, r8)
 8000d38:	08007c00 	.word	0x08007c00
 8000d3c:	08007800 	.word	0x08007800

08000d40 <EE_ReadVariable>:
  *           - 0: if variable was found
  *           - 1: if the variable was not found
  *           - NO_VALID_PAGE: if no valid page was found.
  */
uint16_t EE_ReadVariable(uint16_t VirtAddress, uint16_t* Data)
{
 8000d40:	b590      	push	{r4, r7, lr}
 8000d42:	b087      	sub	sp, #28
 8000d44:	af00      	add	r7, sp, #0
 8000d46:	1c02      	adds	r2, r0, #0
 8000d48:	6039      	str	r1, [r7, #0]
 8000d4a:	1dbb      	adds	r3, r7, #6
 8000d4c:	801a      	strh	r2, [r3, #0]
  uint16_t ValidPage = PAGE0;
 8000d4e:	1c3b      	adds	r3, r7, #0
 8000d50:	330e      	adds	r3, #14
 8000d52:	2200      	movs	r2, #0
 8000d54:	801a      	strh	r2, [r3, #0]
  uint16_t AddressValue = 0x5555, ReadStatus = 1;
 8000d56:	1c3b      	adds	r3, r7, #0
 8000d58:	330c      	adds	r3, #12
 8000d5a:	4a27      	ldr	r2, [pc, #156]	; (8000df8 <EE_ReadVariable+0xb8>)
 8000d5c:	801a      	strh	r2, [r3, #0]
 8000d5e:	1c3b      	adds	r3, r7, #0
 8000d60:	3316      	adds	r3, #22
 8000d62:	2201      	movs	r2, #1
 8000d64:	801a      	strh	r2, [r3, #0]
  uint32_t Address = 0x08010000, PageStartAddress = 0x08010000;
 8000d66:	4b25      	ldr	r3, [pc, #148]	; (8000dfc <EE_ReadVariable+0xbc>)
 8000d68:	613b      	str	r3, [r7, #16]
 8000d6a:	4b24      	ldr	r3, [pc, #144]	; (8000dfc <EE_ReadVariable+0xbc>)
 8000d6c:	60bb      	str	r3, [r7, #8]

  /* Get active Page for read operation */
  ValidPage = EE_FindValidPage(READ_FROM_VALID_PAGE);
 8000d6e:	1c3c      	adds	r4, r7, #0
 8000d70:	340e      	adds	r4, #14
 8000d72:	2000      	movs	r0, #0
 8000d74:	f000 f8ae 	bl	8000ed4 <EE_FindValidPage>
 8000d78:	1c03      	adds	r3, r0, #0
 8000d7a:	8023      	strh	r3, [r4, #0]

  /* Check if there is no valid page */
  if (ValidPage == NO_VALID_PAGE)
 8000d7c:	1c3b      	adds	r3, r7, #0
 8000d7e:	330e      	adds	r3, #14
 8000d80:	881b      	ldrh	r3, [r3, #0]
 8000d82:	2bab      	cmp	r3, #171	; 0xab
 8000d84:	d101      	bne.n	8000d8a <EE_ReadVariable+0x4a>
  {
    return  NO_VALID_PAGE;
 8000d86:	23ab      	movs	r3, #171	; 0xab
 8000d88:	e031      	b.n	8000dee <EE_ReadVariable+0xae>
  }

  /* Get the valid Page start Address */
  PageStartAddress = (uint32_t)(EEPROM_START_ADDRESS + (uint32_t)(ValidPage * PAGE_SIZE));
 8000d8a:	1c3b      	adds	r3, r7, #0
 8000d8c:	330e      	adds	r3, #14
 8000d8e:	881b      	ldrh	r3, [r3, #0]
 8000d90:	4a1b      	ldr	r2, [pc, #108]	; (8000e00 <EE_ReadVariable+0xc0>)
 8000d92:	189b      	adds	r3, r3, r2
 8000d94:	029b      	lsls	r3, r3, #10
 8000d96:	60bb      	str	r3, [r7, #8]

  /* Get the valid Page end Address */
  Address = (uint32_t)((EEPROM_START_ADDRESS - 2) + (uint32_t)((1 + ValidPage) * PAGE_SIZE));
 8000d98:	1c3b      	adds	r3, r7, #0
 8000d9a:	330e      	adds	r3, #14
 8000d9c:	881b      	ldrh	r3, [r3, #0]
 8000d9e:	3301      	adds	r3, #1
 8000da0:	029b      	lsls	r3, r3, #10
 8000da2:	4a18      	ldr	r2, [pc, #96]	; (8000e04 <EE_ReadVariable+0xc4>)
 8000da4:	189b      	adds	r3, r3, r2
 8000da6:	613b      	str	r3, [r7, #16]

  /* Check each active page address starting from end */
  while (Address > (PageStartAddress + 2))
 8000da8:	e019      	b.n	8000dde <EE_ReadVariable+0x9e>
  {
    /* Get the current location content to be compared with virtual address */
    AddressValue = (*(__IO uint16_t*)Address);
 8000daa:	693a      	ldr	r2, [r7, #16]
 8000dac:	1c3b      	adds	r3, r7, #0
 8000dae:	330c      	adds	r3, #12
 8000db0:	8812      	ldrh	r2, [r2, #0]
 8000db2:	801a      	strh	r2, [r3, #0]

    /* Compare the read address with the virtual address */
    if (AddressValue == VirtAddress)
 8000db4:	1c3a      	adds	r2, r7, #0
 8000db6:	320c      	adds	r2, #12
 8000db8:	1dbb      	adds	r3, r7, #6
 8000dba:	8812      	ldrh	r2, [r2, #0]
 8000dbc:	881b      	ldrh	r3, [r3, #0]
 8000dbe:	429a      	cmp	r2, r3
 8000dc0:	d10a      	bne.n	8000dd8 <EE_ReadVariable+0x98>
    {
      /* Get content of Address-2 which is variable value */
      *Data = (*(__IO uint16_t*)(Address - 2));
 8000dc2:	693b      	ldr	r3, [r7, #16]
 8000dc4:	3b02      	subs	r3, #2
 8000dc6:	881b      	ldrh	r3, [r3, #0]
 8000dc8:	b29a      	uxth	r2, r3
 8000dca:	683b      	ldr	r3, [r7, #0]
 8000dcc:	801a      	strh	r2, [r3, #0]

      /* In case variable value is read, reset ReadStatus flag */
      ReadStatus = 0;
 8000dce:	1c3b      	adds	r3, r7, #0
 8000dd0:	3316      	adds	r3, #22
 8000dd2:	2200      	movs	r2, #0
 8000dd4:	801a      	strh	r2, [r3, #0]

      break;
 8000dd6:	e007      	b.n	8000de8 <EE_ReadVariable+0xa8>
    }
    else
    {
      /* Next address location */
      Address = Address - 4;
 8000dd8:	693b      	ldr	r3, [r7, #16]
 8000dda:	3b04      	subs	r3, #4
 8000ddc:	613b      	str	r3, [r7, #16]

  /* Get the valid Page end Address */
  Address = (uint32_t)((EEPROM_START_ADDRESS - 2) + (uint32_t)((1 + ValidPage) * PAGE_SIZE));

  /* Check each active page address starting from end */
  while (Address > (PageStartAddress + 2))
 8000dde:	68bb      	ldr	r3, [r7, #8]
 8000de0:	1c9a      	adds	r2, r3, #2
 8000de2:	693b      	ldr	r3, [r7, #16]
 8000de4:	429a      	cmp	r2, r3
 8000de6:	d3e0      	bcc.n	8000daa <EE_ReadVariable+0x6a>
      Address = Address - 4;
    }
  }

  /* Return ReadStatus value: (0: variable exist, 1: variable doesn't exist) */
  return ReadStatus;
 8000de8:	1c3b      	adds	r3, r7, #0
 8000dea:	3316      	adds	r3, #22
 8000dec:	881b      	ldrh	r3, [r3, #0]
}
 8000dee:	1c18      	adds	r0, r3, #0
 8000df0:	46bd      	mov	sp, r7
 8000df2:	b007      	add	sp, #28
 8000df4:	bd90      	pop	{r4, r7, pc}
 8000df6:	46c0      	nop			; (mov r8, r8)
 8000df8:	00005555 	.word	0x00005555
 8000dfc:	08010000 	.word	0x08010000
 8000e00:	0002001e 	.word	0x0002001e
 8000e04:	080077fe 	.word	0x080077fe

08000e08 <EE_WriteVariable>:
  *           - PAGE_FULL: if valid page is full
  *           - NO_VALID_PAGE: if no valid page was found
  *           - Flash error code: on write Flash error
  */
uint16_t EE_WriteVariable(uint16_t VirtAddress, uint16_t Data)
{
 8000e08:	b590      	push	{r4, r7, lr}
 8000e0a:	b085      	sub	sp, #20
 8000e0c:	af00      	add	r7, sp, #0
 8000e0e:	1c0a      	adds	r2, r1, #0
 8000e10:	1dbb      	adds	r3, r7, #6
 8000e12:	1c01      	adds	r1, r0, #0
 8000e14:	8019      	strh	r1, [r3, #0]
 8000e16:	1d3b      	adds	r3, r7, #4
 8000e18:	801a      	strh	r2, [r3, #0]
  uint16_t Status = 0;
 8000e1a:	1c3b      	adds	r3, r7, #0
 8000e1c:	330e      	adds	r3, #14
 8000e1e:	2200      	movs	r2, #0
 8000e20:	801a      	strh	r2, [r3, #0]

  /* Write the variable virtual address and value in the EEPROM */
  Status = EE_VerifyPageFullWriteVariable(VirtAddress, Data);
 8000e22:	1c3c      	adds	r4, r7, #0
 8000e24:	340e      	adds	r4, #14
 8000e26:	1dbb      	adds	r3, r7, #6
 8000e28:	881a      	ldrh	r2, [r3, #0]
 8000e2a:	1d3b      	adds	r3, r7, #4
 8000e2c:	881b      	ldrh	r3, [r3, #0]
 8000e2e:	1c10      	adds	r0, r2, #0
 8000e30:	1c19      	adds	r1, r3, #0
 8000e32:	f000 f8a9 	bl	8000f88 <EE_VerifyPageFullWriteVariable>
 8000e36:	1c03      	adds	r3, r0, #0
 8000e38:	8023      	strh	r3, [r4, #0]

  /* In case the EEPROM active page is full */
  if (Status == PAGE_FULL)
 8000e3a:	1c3b      	adds	r3, r7, #0
 8000e3c:	330e      	adds	r3, #14
 8000e3e:	881b      	ldrh	r3, [r3, #0]
 8000e40:	2b80      	cmp	r3, #128	; 0x80
 8000e42:	d10b      	bne.n	8000e5c <EE_WriteVariable+0x54>
  {
    /* Perform Page transfer */
    Status = EE_PageTransfer(VirtAddress, Data);
 8000e44:	1c3c      	adds	r4, r7, #0
 8000e46:	340e      	adds	r4, #14
 8000e48:	1dbb      	adds	r3, r7, #6
 8000e4a:	881a      	ldrh	r2, [r3, #0]
 8000e4c:	1d3b      	adds	r3, r7, #4
 8000e4e:	881b      	ldrh	r3, [r3, #0]
 8000e50:	1c10      	adds	r0, r2, #0
 8000e52:	1c19      	adds	r1, r3, #0
 8000e54:	f000 f90a 	bl	800106c <EE_PageTransfer>
 8000e58:	1c03      	adds	r3, r0, #0
 8000e5a:	8023      	strh	r3, [r4, #0]
  }

  /* Return last operation status */
  return Status;
 8000e5c:	1c3b      	adds	r3, r7, #0
 8000e5e:	330e      	adds	r3, #14
 8000e60:	881b      	ldrh	r3, [r3, #0]
}
 8000e62:	1c18      	adds	r0, r3, #0
 8000e64:	46bd      	mov	sp, r7
 8000e66:	b005      	add	sp, #20
 8000e68:	bd90      	pop	{r4, r7, pc}
 8000e6a:	46c0      	nop			; (mov r8, r8)

08000e6c <EE_Format>:
  * @param  None
  * @retval Status of the last operation (Flash write or erase) done during
  *         EEPROM formating
  */
static FLASH_Status EE_Format(void)
{
 8000e6c:	b590      	push	{r4, r7, lr}
 8000e6e:	b083      	sub	sp, #12
 8000e70:	af00      	add	r7, sp, #0
  FLASH_Status FlashStatus = FLASH_COMPLETE;
 8000e72:	1dfb      	adds	r3, r7, #7
 8000e74:	2204      	movs	r2, #4
 8000e76:	701a      	strb	r2, [r3, #0]

  /* Erase Page0 */
  FlashStatus = FLASH_ErasePage(PAGE0_BASE_ADDRESS);
 8000e78:	1dfc      	adds	r4, r7, #7
 8000e7a:	4b14      	ldr	r3, [pc, #80]	; (8000ecc <EE_Format+0x60>)
 8000e7c:	1c18      	adds	r0, r3, #0
 8000e7e:	f005 fb3f 	bl	8006500 <FLASH_ErasePage>
 8000e82:	1c03      	adds	r3, r0, #0
 8000e84:	7023      	strb	r3, [r4, #0]

  /* If erase operation was failed, a Flash error code is returned */
  if (FlashStatus != FLASH_COMPLETE)
 8000e86:	1dfb      	adds	r3, r7, #7
 8000e88:	781b      	ldrb	r3, [r3, #0]
 8000e8a:	2b04      	cmp	r3, #4
 8000e8c:	d002      	beq.n	8000e94 <EE_Format+0x28>
  {
    return FlashStatus;
 8000e8e:	1dfb      	adds	r3, r7, #7
 8000e90:	781b      	ldrb	r3, [r3, #0]
 8000e92:	e017      	b.n	8000ec4 <EE_Format+0x58>
  }

  /* Set Page0 as valid page: Write VALID_PAGE at Page0 base address */
  FlashStatus = FLASH_ProgramHalfWord(PAGE0_BASE_ADDRESS, VALID_PAGE);
 8000e94:	1dfc      	adds	r4, r7, #7
 8000e96:	4b0d      	ldr	r3, [pc, #52]	; (8000ecc <EE_Format+0x60>)
 8000e98:	1c18      	adds	r0, r3, #0
 8000e9a:	2100      	movs	r1, #0
 8000e9c:	f005 fb6e 	bl	800657c <FLASH_ProgramHalfWord>
 8000ea0:	1c03      	adds	r3, r0, #0
 8000ea2:	7023      	strb	r3, [r4, #0]

  /* If program operation was failed, a Flash error code is returned */
  if (FlashStatus != FLASH_COMPLETE)
 8000ea4:	1dfb      	adds	r3, r7, #7
 8000ea6:	781b      	ldrb	r3, [r3, #0]
 8000ea8:	2b04      	cmp	r3, #4
 8000eaa:	d002      	beq.n	8000eb2 <EE_Format+0x46>
  {
    return FlashStatus;
 8000eac:	1dfb      	adds	r3, r7, #7
 8000eae:	781b      	ldrb	r3, [r3, #0]
 8000eb0:	e008      	b.n	8000ec4 <EE_Format+0x58>
  }

  /* Erase Page1 */
  FlashStatus = FLASH_ErasePage(PAGE1_BASE_ADDRESS);
 8000eb2:	1dfc      	adds	r4, r7, #7
 8000eb4:	4b06      	ldr	r3, [pc, #24]	; (8000ed0 <EE_Format+0x64>)
 8000eb6:	1c18      	adds	r0, r3, #0
 8000eb8:	f005 fb22 	bl	8006500 <FLASH_ErasePage>
 8000ebc:	1c03      	adds	r3, r0, #0
 8000ebe:	7023      	strb	r3, [r4, #0]

  /* Return Page1 erase operation status */
  return FlashStatus;
 8000ec0:	1dfb      	adds	r3, r7, #7
 8000ec2:	781b      	ldrb	r3, [r3, #0]
}
 8000ec4:	1c18      	adds	r0, r3, #0
 8000ec6:	46bd      	mov	sp, r7
 8000ec8:	b003      	add	sp, #12
 8000eca:	bd90      	pop	{r4, r7, pc}
 8000ecc:	08007800 	.word	0x08007800
 8000ed0:	08007c00 	.word	0x08007c00

08000ed4 <EE_FindValidPage>:
  *     @arg WRITE_IN_VALID_PAGE: write operation from valid page
  * @retval Valid page number (PAGE0 or PAGE1) or NO_VALID_PAGE in case
  *   of no valid page was found
  */
static uint16_t EE_FindValidPage(uint8_t Operation)
{
 8000ed4:	b580      	push	{r7, lr}
 8000ed6:	b084      	sub	sp, #16
 8000ed8:	af00      	add	r7, sp, #0
 8000eda:	1c02      	adds	r2, r0, #0
 8000edc:	1dfb      	adds	r3, r7, #7
 8000ede:	701a      	strb	r2, [r3, #0]
  uint16_t PageStatus0 = 6, PageStatus1 = 6;
 8000ee0:	1c3b      	adds	r3, r7, #0
 8000ee2:	330e      	adds	r3, #14
 8000ee4:	2206      	movs	r2, #6
 8000ee6:	801a      	strh	r2, [r3, #0]
 8000ee8:	1c3b      	adds	r3, r7, #0
 8000eea:	330c      	adds	r3, #12
 8000eec:	2206      	movs	r2, #6
 8000eee:	801a      	strh	r2, [r3, #0]

  /* Get Page0 actual status */
  PageStatus0 = (*(__IO uint16_t*)PAGE0_BASE_ADDRESS);
 8000ef0:	4a22      	ldr	r2, [pc, #136]	; (8000f7c <EE_FindValidPage+0xa8>)
 8000ef2:	1c3b      	adds	r3, r7, #0
 8000ef4:	330e      	adds	r3, #14
 8000ef6:	8812      	ldrh	r2, [r2, #0]
 8000ef8:	801a      	strh	r2, [r3, #0]

  /* Get Page1 actual status */
  PageStatus1 = (*(__IO uint16_t*)PAGE1_BASE_ADDRESS);
 8000efa:	4a21      	ldr	r2, [pc, #132]	; (8000f80 <EE_FindValidPage+0xac>)
 8000efc:	1c3b      	adds	r3, r7, #0
 8000efe:	330c      	adds	r3, #12
 8000f00:	8812      	ldrh	r2, [r2, #0]
 8000f02:	801a      	strh	r2, [r3, #0]

  /* Write or read operation */
  switch (Operation)
 8000f04:	1dfb      	adds	r3, r7, #7
 8000f06:	781b      	ldrb	r3, [r3, #0]
 8000f08:	2b00      	cmp	r3, #0
 8000f0a:	d021      	beq.n	8000f50 <EE_FindValidPage+0x7c>
 8000f0c:	2b01      	cmp	r3, #1
 8000f0e:	d12f      	bne.n	8000f70 <EE_FindValidPage+0x9c>
  {
    case WRITE_IN_VALID_PAGE:   /* ---- Write operation ---- */
      if (PageStatus1 == VALID_PAGE)
 8000f10:	1c3b      	adds	r3, r7, #0
 8000f12:	330c      	adds	r3, #12
 8000f14:	881b      	ldrh	r3, [r3, #0]
 8000f16:	2b00      	cmp	r3, #0
 8000f18:	d109      	bne.n	8000f2e <EE_FindValidPage+0x5a>
      {
        /* Page0 receiving data */
        if (PageStatus0 == RECEIVE_DATA)
 8000f1a:	1c3b      	adds	r3, r7, #0
 8000f1c:	330e      	adds	r3, #14
 8000f1e:	881a      	ldrh	r2, [r3, #0]
 8000f20:	4b18      	ldr	r3, [pc, #96]	; (8000f84 <EE_FindValidPage+0xb0>)
 8000f22:	429a      	cmp	r2, r3
 8000f24:	d101      	bne.n	8000f2a <EE_FindValidPage+0x56>
        {
          return PAGE0;         /* Page0 valid */
 8000f26:	2300      	movs	r3, #0
 8000f28:	e023      	b.n	8000f72 <EE_FindValidPage+0x9e>
        }
        else
        {
          return PAGE1;         /* Page1 valid */
 8000f2a:	2301      	movs	r3, #1
 8000f2c:	e021      	b.n	8000f72 <EE_FindValidPage+0x9e>
        }
      }
      else if (PageStatus0 == VALID_PAGE)
 8000f2e:	1c3b      	adds	r3, r7, #0
 8000f30:	330e      	adds	r3, #14
 8000f32:	881b      	ldrh	r3, [r3, #0]
 8000f34:	2b00      	cmp	r3, #0
 8000f36:	d109      	bne.n	8000f4c <EE_FindValidPage+0x78>
      {
        /* Page1 receiving data */
        if (PageStatus1 == RECEIVE_DATA)
 8000f38:	1c3b      	adds	r3, r7, #0
 8000f3a:	330c      	adds	r3, #12
 8000f3c:	881a      	ldrh	r2, [r3, #0]
 8000f3e:	4b11      	ldr	r3, [pc, #68]	; (8000f84 <EE_FindValidPage+0xb0>)
 8000f40:	429a      	cmp	r2, r3
 8000f42:	d101      	bne.n	8000f48 <EE_FindValidPage+0x74>
        {
          return PAGE1;         /* Page1 valid */
 8000f44:	2301      	movs	r3, #1
 8000f46:	e014      	b.n	8000f72 <EE_FindValidPage+0x9e>
        }
        else
        {
          return PAGE0;         /* Page0 valid */
 8000f48:	2300      	movs	r3, #0
 8000f4a:	e012      	b.n	8000f72 <EE_FindValidPage+0x9e>
        }
      }
      else
      {
        return NO_VALID_PAGE;   /* No valid Page */
 8000f4c:	23ab      	movs	r3, #171	; 0xab
 8000f4e:	e010      	b.n	8000f72 <EE_FindValidPage+0x9e>
      }

    case READ_FROM_VALID_PAGE:  /* ---- Read operation ---- */
      if (PageStatus0 == VALID_PAGE)
 8000f50:	1c3b      	adds	r3, r7, #0
 8000f52:	330e      	adds	r3, #14
 8000f54:	881b      	ldrh	r3, [r3, #0]
 8000f56:	2b00      	cmp	r3, #0
 8000f58:	d101      	bne.n	8000f5e <EE_FindValidPage+0x8a>
      {
        return PAGE0;           /* Page0 valid */
 8000f5a:	2300      	movs	r3, #0
 8000f5c:	e009      	b.n	8000f72 <EE_FindValidPage+0x9e>
      }
      else if (PageStatus1 == VALID_PAGE)
 8000f5e:	1c3b      	adds	r3, r7, #0
 8000f60:	330c      	adds	r3, #12
 8000f62:	881b      	ldrh	r3, [r3, #0]
 8000f64:	2b00      	cmp	r3, #0
 8000f66:	d101      	bne.n	8000f6c <EE_FindValidPage+0x98>
      {
        return PAGE1;           /* Page1 valid */
 8000f68:	2301      	movs	r3, #1
 8000f6a:	e002      	b.n	8000f72 <EE_FindValidPage+0x9e>
      }
      else
      {
        return NO_VALID_PAGE ;  /* No valid Page */
 8000f6c:	23ab      	movs	r3, #171	; 0xab
 8000f6e:	e000      	b.n	8000f72 <EE_FindValidPage+0x9e>
      }

    default:
      return PAGE0;             /* Page0 valid */
 8000f70:	2300      	movs	r3, #0
  }
}
 8000f72:	1c18      	adds	r0, r3, #0
 8000f74:	46bd      	mov	sp, r7
 8000f76:	b004      	add	sp, #16
 8000f78:	bd80      	pop	{r7, pc}
 8000f7a:	46c0      	nop			; (mov r8, r8)
 8000f7c:	08007800 	.word	0x08007800
 8000f80:	08007c00 	.word	0x08007c00
 8000f84:	0000eeee 	.word	0x0000eeee

08000f88 <EE_VerifyPageFullWriteVariable>:
  *           - PAGE_FULL: if valid page is full
  *           - NO_VALID_PAGE: if no valid page was found
  *           - Flash error code: on write Flash error
  */
static uint16_t EE_VerifyPageFullWriteVariable(uint16_t VirtAddress, uint16_t Data)
{
 8000f88:	b590      	push	{r4, r7, lr}
 8000f8a:	b087      	sub	sp, #28
 8000f8c:	af00      	add	r7, sp, #0
 8000f8e:	1c0a      	adds	r2, r1, #0
 8000f90:	1dbb      	adds	r3, r7, #6
 8000f92:	1c01      	adds	r1, r0, #0
 8000f94:	8019      	strh	r1, [r3, #0]
 8000f96:	1d3b      	adds	r3, r7, #4
 8000f98:	801a      	strh	r2, [r3, #0]
  FLASH_Status FlashStatus = FLASH_COMPLETE;
 8000f9a:	1c3b      	adds	r3, r7, #0
 8000f9c:	3313      	adds	r3, #19
 8000f9e:	2204      	movs	r2, #4
 8000fa0:	701a      	strb	r2, [r3, #0]
  uint16_t ValidPage = PAGE0;
 8000fa2:	1c3b      	adds	r3, r7, #0
 8000fa4:	3310      	adds	r3, #16
 8000fa6:	2200      	movs	r2, #0
 8000fa8:	801a      	strh	r2, [r3, #0]
  uint32_t Address = 0x08010000, PageEndAddress = 0x080107FF;
 8000faa:	4b2c      	ldr	r3, [pc, #176]	; (800105c <EE_VerifyPageFullWriteVariable+0xd4>)
 8000fac:	617b      	str	r3, [r7, #20]
 8000fae:	4b2c      	ldr	r3, [pc, #176]	; (8001060 <EE_VerifyPageFullWriteVariable+0xd8>)
 8000fb0:	60fb      	str	r3, [r7, #12]

  /* Get valid Page for write operation */
  ValidPage = EE_FindValidPage(WRITE_IN_VALID_PAGE);
 8000fb2:	1c3c      	adds	r4, r7, #0
 8000fb4:	3410      	adds	r4, #16
 8000fb6:	2001      	movs	r0, #1
 8000fb8:	f7ff ff8c 	bl	8000ed4 <EE_FindValidPage>
 8000fbc:	1c03      	adds	r3, r0, #0
 8000fbe:	8023      	strh	r3, [r4, #0]

  /* Check if there is no valid page */
  if (ValidPage == NO_VALID_PAGE)
 8000fc0:	1c3b      	adds	r3, r7, #0
 8000fc2:	3310      	adds	r3, #16
 8000fc4:	881b      	ldrh	r3, [r3, #0]
 8000fc6:	2bab      	cmp	r3, #171	; 0xab
 8000fc8:	d101      	bne.n	8000fce <EE_VerifyPageFullWriteVariable+0x46>
  {
    return  NO_VALID_PAGE;
 8000fca:	23ab      	movs	r3, #171	; 0xab
 8000fcc:	e041      	b.n	8001052 <EE_VerifyPageFullWriteVariable+0xca>
  }

  /* Get the valid Page start Address */
  Address = (uint32_t)(EEPROM_START_ADDRESS + (uint32_t)(ValidPage * PAGE_SIZE));
 8000fce:	1c3b      	adds	r3, r7, #0
 8000fd0:	3310      	adds	r3, #16
 8000fd2:	881b      	ldrh	r3, [r3, #0]
 8000fd4:	4a23      	ldr	r2, [pc, #140]	; (8001064 <EE_VerifyPageFullWriteVariable+0xdc>)
 8000fd6:	189b      	adds	r3, r3, r2
 8000fd8:	029b      	lsls	r3, r3, #10
 8000fda:	617b      	str	r3, [r7, #20]

  /* Get the valid Page end Address */
  PageEndAddress = (uint32_t)((EEPROM_START_ADDRESS - 2) + (uint32_t)((1 + ValidPage) * PAGE_SIZE));
 8000fdc:	1c3b      	adds	r3, r7, #0
 8000fde:	3310      	adds	r3, #16
 8000fe0:	881b      	ldrh	r3, [r3, #0]
 8000fe2:	3301      	adds	r3, #1
 8000fe4:	029b      	lsls	r3, r3, #10
 8000fe6:	4a20      	ldr	r2, [pc, #128]	; (8001068 <EE_VerifyPageFullWriteVariable+0xe0>)
 8000fe8:	189b      	adds	r3, r3, r2
 8000fea:	60fb      	str	r3, [r7, #12]

  /* Check each active page address starting from begining */
  while (Address < PageEndAddress)
 8000fec:	e02c      	b.n	8001048 <EE_VerifyPageFullWriteVariable+0xc0>
  {
    /* Verify if Address and Address+2 contents are 0xFFFFFFFF */
    if ((*(__IO uint32_t*)Address) == 0xFFFFFFFF)
 8000fee:	697b      	ldr	r3, [r7, #20]
 8000ff0:	681b      	ldr	r3, [r3, #0]
 8000ff2:	3301      	adds	r3, #1
 8000ff4:	d125      	bne.n	8001042 <EE_VerifyPageFullWriteVariable+0xba>
    {
      /* Set variable data */
      FlashStatus = FLASH_ProgramHalfWord(Address, Data);
 8000ff6:	1c3c      	adds	r4, r7, #0
 8000ff8:	3413      	adds	r4, #19
 8000ffa:	697a      	ldr	r2, [r7, #20]
 8000ffc:	1d3b      	adds	r3, r7, #4
 8000ffe:	881b      	ldrh	r3, [r3, #0]
 8001000:	1c10      	adds	r0, r2, #0
 8001002:	1c19      	adds	r1, r3, #0
 8001004:	f005 faba 	bl	800657c <FLASH_ProgramHalfWord>
 8001008:	1c03      	adds	r3, r0, #0
 800100a:	7023      	strb	r3, [r4, #0]
      /* If program operation was failed, a Flash error code is returned */
      if (FlashStatus != FLASH_COMPLETE)
 800100c:	1c3b      	adds	r3, r7, #0
 800100e:	3313      	adds	r3, #19
 8001010:	781b      	ldrb	r3, [r3, #0]
 8001012:	2b04      	cmp	r3, #4
 8001014:	d004      	beq.n	8001020 <EE_VerifyPageFullWriteVariable+0x98>
      {
        return FlashStatus;
 8001016:	1c3b      	adds	r3, r7, #0
 8001018:	3313      	adds	r3, #19
 800101a:	781b      	ldrb	r3, [r3, #0]
 800101c:	b29b      	uxth	r3, r3
 800101e:	e018      	b.n	8001052 <EE_VerifyPageFullWriteVariable+0xca>
      }
      /* Set variable virtual address */
      FlashStatus = FLASH_ProgramHalfWord(Address + 2, VirtAddress);
 8001020:	697b      	ldr	r3, [r7, #20]
 8001022:	1c9a      	adds	r2, r3, #2
 8001024:	1c3c      	adds	r4, r7, #0
 8001026:	3413      	adds	r4, #19
 8001028:	1dbb      	adds	r3, r7, #6
 800102a:	881b      	ldrh	r3, [r3, #0]
 800102c:	1c10      	adds	r0, r2, #0
 800102e:	1c19      	adds	r1, r3, #0
 8001030:	f005 faa4 	bl	800657c <FLASH_ProgramHalfWord>
 8001034:	1c03      	adds	r3, r0, #0
 8001036:	7023      	strb	r3, [r4, #0]
      /* Return program operation status */
      return FlashStatus;
 8001038:	1c3b      	adds	r3, r7, #0
 800103a:	3313      	adds	r3, #19
 800103c:	781b      	ldrb	r3, [r3, #0]
 800103e:	b29b      	uxth	r3, r3
 8001040:	e007      	b.n	8001052 <EE_VerifyPageFullWriteVariable+0xca>
    }
    else
    {
      /* Next address location */
      Address = Address + 4;
 8001042:	697b      	ldr	r3, [r7, #20]
 8001044:	3304      	adds	r3, #4
 8001046:	617b      	str	r3, [r7, #20]

  /* Get the valid Page end Address */
  PageEndAddress = (uint32_t)((EEPROM_START_ADDRESS - 2) + (uint32_t)((1 + ValidPage) * PAGE_SIZE));

  /* Check each active page address starting from begining */
  while (Address < PageEndAddress)
 8001048:	697a      	ldr	r2, [r7, #20]
 800104a:	68fb      	ldr	r3, [r7, #12]
 800104c:	429a      	cmp	r2, r3
 800104e:	d3ce      	bcc.n	8000fee <EE_VerifyPageFullWriteVariable+0x66>
      Address = Address + 4;
    }
  }

  /* Return PAGE_FULL in case the valid page is full */
  return PAGE_FULL;
 8001050:	2380      	movs	r3, #128	; 0x80
}
 8001052:	1c18      	adds	r0, r3, #0
 8001054:	46bd      	mov	sp, r7
 8001056:	b007      	add	sp, #28
 8001058:	bd90      	pop	{r4, r7, pc}
 800105a:	46c0      	nop			; (mov r8, r8)
 800105c:	08010000 	.word	0x08010000
 8001060:	080107ff 	.word	0x080107ff
 8001064:	0002001e 	.word	0x0002001e
 8001068:	080077fe 	.word	0x080077fe

0800106c <EE_PageTransfer>:
  *           - PAGE_FULL: if valid page is full
  *           - NO_VALID_PAGE: if no valid page was found
  *           - Flash error code: on write Flash error
  */
static uint16_t EE_PageTransfer(uint16_t VirtAddress, uint16_t Data)
{
 800106c:	b590      	push	{r4, r7, lr}
 800106e:	b089      	sub	sp, #36	; 0x24
 8001070:	af00      	add	r7, sp, #0
 8001072:	1c0a      	adds	r2, r1, #0
 8001074:	1dbb      	adds	r3, r7, #6
 8001076:	1c01      	adds	r1, r0, #0
 8001078:	8019      	strh	r1, [r3, #0]
 800107a:	1d3b      	adds	r3, r7, #4
 800107c:	801a      	strh	r2, [r3, #0]
  FLASH_Status FlashStatus = FLASH_COMPLETE;
 800107e:	1c3b      	adds	r3, r7, #0
 8001080:	3315      	adds	r3, #21
 8001082:	2204      	movs	r2, #4
 8001084:	701a      	strb	r2, [r3, #0]
  uint32_t NewPageAddress = 0x080103FF, OldPageAddress = 0x08010000;
 8001086:	4b67      	ldr	r3, [pc, #412]	; (8001224 <EE_PageTransfer+0x1b8>)
 8001088:	61fb      	str	r3, [r7, #28]
 800108a:	4b67      	ldr	r3, [pc, #412]	; (8001228 <EE_PageTransfer+0x1bc>)
 800108c:	61bb      	str	r3, [r7, #24]
  uint16_t ValidPage = PAGE0, VarIdx = 0;
 800108e:	1c3b      	adds	r3, r7, #0
 8001090:	3312      	adds	r3, #18
 8001092:	2200      	movs	r2, #0
 8001094:	801a      	strh	r2, [r3, #0]
 8001096:	1c3b      	adds	r3, r7, #0
 8001098:	3316      	adds	r3, #22
 800109a:	2200      	movs	r2, #0
 800109c:	801a      	strh	r2, [r3, #0]
  uint16_t EepromStatus = 0, ReadStatus = 0;
 800109e:	1c3b      	adds	r3, r7, #0
 80010a0:	3310      	adds	r3, #16
 80010a2:	2200      	movs	r2, #0
 80010a4:	801a      	strh	r2, [r3, #0]
 80010a6:	1c3b      	adds	r3, r7, #0
 80010a8:	330e      	adds	r3, #14
 80010aa:	2200      	movs	r2, #0
 80010ac:	801a      	strh	r2, [r3, #0]

  /* Get active Page for read operation */
  ValidPage = EE_FindValidPage(READ_FROM_VALID_PAGE);
 80010ae:	1c3c      	adds	r4, r7, #0
 80010b0:	3412      	adds	r4, #18
 80010b2:	2000      	movs	r0, #0
 80010b4:	f7ff ff0e 	bl	8000ed4 <EE_FindValidPage>
 80010b8:	1c03      	adds	r3, r0, #0
 80010ba:	8023      	strh	r3, [r4, #0]

  if (ValidPage == PAGE1)       /* Page1 valid */
 80010bc:	1c3b      	adds	r3, r7, #0
 80010be:	3312      	adds	r3, #18
 80010c0:	881b      	ldrh	r3, [r3, #0]
 80010c2:	2b01      	cmp	r3, #1
 80010c4:	d104      	bne.n	80010d0 <EE_PageTransfer+0x64>
  {
    /* New page address where variable will be moved to */
    NewPageAddress = PAGE0_BASE_ADDRESS;
 80010c6:	4b59      	ldr	r3, [pc, #356]	; (800122c <EE_PageTransfer+0x1c0>)
 80010c8:	61fb      	str	r3, [r7, #28]

    /* Old page address where variable will be taken from */
    OldPageAddress = PAGE1_BASE_ADDRESS;
 80010ca:	4b59      	ldr	r3, [pc, #356]	; (8001230 <EE_PageTransfer+0x1c4>)
 80010cc:	61bb      	str	r3, [r7, #24]
 80010ce:	e00b      	b.n	80010e8 <EE_PageTransfer+0x7c>
  }
  else if (ValidPage == PAGE0)  /* Page0 valid */
 80010d0:	1c3b      	adds	r3, r7, #0
 80010d2:	3312      	adds	r3, #18
 80010d4:	881b      	ldrh	r3, [r3, #0]
 80010d6:	2b00      	cmp	r3, #0
 80010d8:	d104      	bne.n	80010e4 <EE_PageTransfer+0x78>
  {
    /* New page address where variable will be moved to */
    NewPageAddress = PAGE1_BASE_ADDRESS;
 80010da:	4b55      	ldr	r3, [pc, #340]	; (8001230 <EE_PageTransfer+0x1c4>)
 80010dc:	61fb      	str	r3, [r7, #28]

    /* Old page address where variable will be taken from */
    OldPageAddress = PAGE0_BASE_ADDRESS;
 80010de:	4b53      	ldr	r3, [pc, #332]	; (800122c <EE_PageTransfer+0x1c0>)
 80010e0:	61bb      	str	r3, [r7, #24]
 80010e2:	e001      	b.n	80010e8 <EE_PageTransfer+0x7c>
  }
  else
  {
    return NO_VALID_PAGE;       /* No valid Page */
 80010e4:	23ab      	movs	r3, #171	; 0xab
 80010e6:	e099      	b.n	800121c <EE_PageTransfer+0x1b0>
  }

  /* Set the new Page status to RECEIVE_DATA status */
  FlashStatus = FLASH_ProgramHalfWord(NewPageAddress, RECEIVE_DATA);
 80010e8:	1c3c      	adds	r4, r7, #0
 80010ea:	3415      	adds	r4, #21
 80010ec:	69fa      	ldr	r2, [r7, #28]
 80010ee:	4b51      	ldr	r3, [pc, #324]	; (8001234 <EE_PageTransfer+0x1c8>)
 80010f0:	1c10      	adds	r0, r2, #0
 80010f2:	1c19      	adds	r1, r3, #0
 80010f4:	f005 fa42 	bl	800657c <FLASH_ProgramHalfWord>
 80010f8:	1c03      	adds	r3, r0, #0
 80010fa:	7023      	strb	r3, [r4, #0]
  /* If program operation was failed, a Flash error code is returned */
  if (FlashStatus != FLASH_COMPLETE)
 80010fc:	1c3b      	adds	r3, r7, #0
 80010fe:	3315      	adds	r3, #21
 8001100:	781b      	ldrb	r3, [r3, #0]
 8001102:	2b04      	cmp	r3, #4
 8001104:	d004      	beq.n	8001110 <EE_PageTransfer+0xa4>
  {
    return FlashStatus;
 8001106:	1c3b      	adds	r3, r7, #0
 8001108:	3315      	adds	r3, #21
 800110a:	781b      	ldrb	r3, [r3, #0]
 800110c:	b29b      	uxth	r3, r3
 800110e:	e085      	b.n	800121c <EE_PageTransfer+0x1b0>
  }

  /* Write the variable passed as parameter in the new active page */
  EepromStatus = EE_VerifyPageFullWriteVariable(VirtAddress, Data);
 8001110:	1c3c      	adds	r4, r7, #0
 8001112:	3410      	adds	r4, #16
 8001114:	1dbb      	adds	r3, r7, #6
 8001116:	881a      	ldrh	r2, [r3, #0]
 8001118:	1d3b      	adds	r3, r7, #4
 800111a:	881b      	ldrh	r3, [r3, #0]
 800111c:	1c10      	adds	r0, r2, #0
 800111e:	1c19      	adds	r1, r3, #0
 8001120:	f7ff ff32 	bl	8000f88 <EE_VerifyPageFullWriteVariable>
 8001124:	1c03      	adds	r3, r0, #0
 8001126:	8023      	strh	r3, [r4, #0]
  /* If program operation was failed, a Flash error code is returned */
  if (EepromStatus != FLASH_COMPLETE)
 8001128:	1c3b      	adds	r3, r7, #0
 800112a:	3310      	adds	r3, #16
 800112c:	881b      	ldrh	r3, [r3, #0]
 800112e:	2b04      	cmp	r3, #4
 8001130:	d003      	beq.n	800113a <EE_PageTransfer+0xce>
  {
    return EepromStatus;
 8001132:	1c3b      	adds	r3, r7, #0
 8001134:	3310      	adds	r3, #16
 8001136:	881b      	ldrh	r3, [r3, #0]
 8001138:	e070      	b.n	800121c <EE_PageTransfer+0x1b0>
  }

  /* Transfer process: transfer variables from old to the new active page */
  for (VarIdx = 0; VarIdx < NB_OF_VAR; VarIdx++)
 800113a:	1c3b      	adds	r3, r7, #0
 800113c:	3316      	adds	r3, #22
 800113e:	2200      	movs	r2, #0
 8001140:	801a      	strh	r2, [r3, #0]
 8001142:	e03d      	b.n	80011c0 <EE_PageTransfer+0x154>
  {
    if (VirtAddVarTab[VarIdx] != VirtAddress)  /* Check each variable except the one passed as parameter */
 8001144:	1c3b      	adds	r3, r7, #0
 8001146:	3316      	adds	r3, #22
 8001148:	881a      	ldrh	r2, [r3, #0]
 800114a:	4b3b      	ldr	r3, [pc, #236]	; (8001238 <EE_PageTransfer+0x1cc>)
 800114c:	0052      	lsls	r2, r2, #1
 800114e:	5ad3      	ldrh	r3, [r2, r3]
 8001150:	1dba      	adds	r2, r7, #6
 8001152:	8812      	ldrh	r2, [r2, #0]
 8001154:	429a      	cmp	r2, r3
 8001156:	d02c      	beq.n	80011b2 <EE_PageTransfer+0x146>
    {
      /* Read the other last variable updates */
      ReadStatus = EE_ReadVariable(VirtAddVarTab[VarIdx], &DataVar);
 8001158:	1c3b      	adds	r3, r7, #0
 800115a:	3316      	adds	r3, #22
 800115c:	881a      	ldrh	r2, [r3, #0]
 800115e:	4b36      	ldr	r3, [pc, #216]	; (8001238 <EE_PageTransfer+0x1cc>)
 8001160:	0052      	lsls	r2, r2, #1
 8001162:	5ad2      	ldrh	r2, [r2, r3]
 8001164:	1c3c      	adds	r4, r7, #0
 8001166:	340e      	adds	r4, #14
 8001168:	4b34      	ldr	r3, [pc, #208]	; (800123c <EE_PageTransfer+0x1d0>)
 800116a:	1c10      	adds	r0, r2, #0
 800116c:	1c19      	adds	r1, r3, #0
 800116e:	f7ff fde7 	bl	8000d40 <EE_ReadVariable>
 8001172:	1c03      	adds	r3, r0, #0
 8001174:	8023      	strh	r3, [r4, #0]
      /* In case variable corresponding to the virtual address was found */
      if (ReadStatus != 0x1)
 8001176:	1c3b      	adds	r3, r7, #0
 8001178:	330e      	adds	r3, #14
 800117a:	881b      	ldrh	r3, [r3, #0]
 800117c:	2b01      	cmp	r3, #1
 800117e:	d018      	beq.n	80011b2 <EE_PageTransfer+0x146>
      {
        /* Transfer the variable to the new active page */
        EepromStatus = EE_VerifyPageFullWriteVariable(VirtAddVarTab[VarIdx], DataVar);
 8001180:	1c3b      	adds	r3, r7, #0
 8001182:	3316      	adds	r3, #22
 8001184:	881a      	ldrh	r2, [r3, #0]
 8001186:	4b2c      	ldr	r3, [pc, #176]	; (8001238 <EE_PageTransfer+0x1cc>)
 8001188:	0052      	lsls	r2, r2, #1
 800118a:	5ad2      	ldrh	r2, [r2, r3]
 800118c:	4b2b      	ldr	r3, [pc, #172]	; (800123c <EE_PageTransfer+0x1d0>)
 800118e:	881b      	ldrh	r3, [r3, #0]
 8001190:	1c3c      	adds	r4, r7, #0
 8001192:	3410      	adds	r4, #16
 8001194:	1c10      	adds	r0, r2, #0
 8001196:	1c19      	adds	r1, r3, #0
 8001198:	f7ff fef6 	bl	8000f88 <EE_VerifyPageFullWriteVariable>
 800119c:	1c03      	adds	r3, r0, #0
 800119e:	8023      	strh	r3, [r4, #0]
        /* If program operation was failed, a Flash error code is returned */
        if (EepromStatus != FLASH_COMPLETE)
 80011a0:	1c3b      	adds	r3, r7, #0
 80011a2:	3310      	adds	r3, #16
 80011a4:	881b      	ldrh	r3, [r3, #0]
 80011a6:	2b04      	cmp	r3, #4
 80011a8:	d003      	beq.n	80011b2 <EE_PageTransfer+0x146>
        {
          return EepromStatus;
 80011aa:	1c3b      	adds	r3, r7, #0
 80011ac:	3310      	adds	r3, #16
 80011ae:	881b      	ldrh	r3, [r3, #0]
 80011b0:	e034      	b.n	800121c <EE_PageTransfer+0x1b0>
  {
    return EepromStatus;
  }

  /* Transfer process: transfer variables from old to the new active page */
  for (VarIdx = 0; VarIdx < NB_OF_VAR; VarIdx++)
 80011b2:	1c3b      	adds	r3, r7, #0
 80011b4:	3316      	adds	r3, #22
 80011b6:	881a      	ldrh	r2, [r3, #0]
 80011b8:	1c3b      	adds	r3, r7, #0
 80011ba:	3316      	adds	r3, #22
 80011bc:	3201      	adds	r2, #1
 80011be:	801a      	strh	r2, [r3, #0]
 80011c0:	1c3b      	adds	r3, r7, #0
 80011c2:	3316      	adds	r3, #22
 80011c4:	881b      	ldrh	r3, [r3, #0]
 80011c6:	2b24      	cmp	r3, #36	; 0x24
 80011c8:	d9bc      	bls.n	8001144 <EE_PageTransfer+0xd8>
      }
    }
  }

  /* Erase the old Page: Set old Page status to ERASED status */
  FlashStatus = FLASH_ErasePage(OldPageAddress);
 80011ca:	1c3c      	adds	r4, r7, #0
 80011cc:	3415      	adds	r4, #21
 80011ce:	69bb      	ldr	r3, [r7, #24]
 80011d0:	1c18      	adds	r0, r3, #0
 80011d2:	f005 f995 	bl	8006500 <FLASH_ErasePage>
 80011d6:	1c03      	adds	r3, r0, #0
 80011d8:	7023      	strb	r3, [r4, #0]
  /* If erase operation was failed, a Flash error code is returned */
  if (FlashStatus != FLASH_COMPLETE)
 80011da:	1c3b      	adds	r3, r7, #0
 80011dc:	3315      	adds	r3, #21
 80011de:	781b      	ldrb	r3, [r3, #0]
 80011e0:	2b04      	cmp	r3, #4
 80011e2:	d004      	beq.n	80011ee <EE_PageTransfer+0x182>
  {
    return FlashStatus;
 80011e4:	1c3b      	adds	r3, r7, #0
 80011e6:	3315      	adds	r3, #21
 80011e8:	781b      	ldrb	r3, [r3, #0]
 80011ea:	b29b      	uxth	r3, r3
 80011ec:	e016      	b.n	800121c <EE_PageTransfer+0x1b0>
  }

  /* Set new Page status to VALID_PAGE status */
  FlashStatus = FLASH_ProgramHalfWord(NewPageAddress, VALID_PAGE);
 80011ee:	1c3c      	adds	r4, r7, #0
 80011f0:	3415      	adds	r4, #21
 80011f2:	69fb      	ldr	r3, [r7, #28]
 80011f4:	1c18      	adds	r0, r3, #0
 80011f6:	2100      	movs	r1, #0
 80011f8:	f005 f9c0 	bl	800657c <FLASH_ProgramHalfWord>
 80011fc:	1c03      	adds	r3, r0, #0
 80011fe:	7023      	strb	r3, [r4, #0]
  /* If program operation was failed, a Flash error code is returned */
  if (FlashStatus != FLASH_COMPLETE)
 8001200:	1c3b      	adds	r3, r7, #0
 8001202:	3315      	adds	r3, #21
 8001204:	781b      	ldrb	r3, [r3, #0]
 8001206:	2b04      	cmp	r3, #4
 8001208:	d004      	beq.n	8001214 <EE_PageTransfer+0x1a8>
  {
    return FlashStatus;
 800120a:	1c3b      	adds	r3, r7, #0
 800120c:	3315      	adds	r3, #21
 800120e:	781b      	ldrb	r3, [r3, #0]
 8001210:	b29b      	uxth	r3, r3
 8001212:	e003      	b.n	800121c <EE_PageTransfer+0x1b0>
  }

  /* Return last operation flash status */
  return FlashStatus;
 8001214:	1c3b      	adds	r3, r7, #0
 8001216:	3315      	adds	r3, #21
 8001218:	781b      	ldrb	r3, [r3, #0]
 800121a:	b29b      	uxth	r3, r3
}
 800121c:	1c18      	adds	r0, r3, #0
 800121e:	46bd      	mov	sp, r7
 8001220:	b009      	add	sp, #36	; 0x24
 8001222:	bd90      	pop	{r4, r7, pc}
 8001224:	080103ff 	.word	0x080103ff
 8001228:	08010000 	.word	0x08010000
 800122c:	08007800 	.word	0x08007800
 8001230:	08007c00 	.word	0x08007c00
 8001234:	0000eeee 	.word	0x0000eeee
 8001238:	20000480 	.word	0x20000480
 800123c:	20000140 	.word	0x20000140

08001240 <USB_Init>:
};

/* Private functions ---------------------------------------------------------*/

void USB_Init()
{
 8001240:	b580      	push	{r7, lr}
 8001242:	af00      	add	r7, sp, #0


	//remap Pins PA11/12
	RCC_APB2PeriphClockCmd(RCC_APB2Periph_SYSCFG, ENABLE);
 8001244:	2001      	movs	r0, #1
 8001246:	2101      	movs	r1, #1
 8001248:	f004 feac 	bl	8005fa4 <RCC_APB2PeriphClockCmd>
	SYSCFG->CFGR1 |= SYSCFG_CFGR1_PA11_PA12_RMP;
 800124c:	4b0e      	ldr	r3, [pc, #56]	; (8001288 <USB_Init+0x48>)
 800124e:	4a0e      	ldr	r2, [pc, #56]	; (8001288 <USB_Init+0x48>)
 8001250:	6812      	ldr	r2, [r2, #0]
 8001252:	2110      	movs	r1, #16
 8001254:	430a      	orrs	r2, r1
 8001256:	601a      	str	r2, [r3, #0]

	USBD_Init(&USB_Device_dev,
 8001258:	480c      	ldr	r0, [pc, #48]	; (800128c <USB_Init+0x4c>)
 800125a:	490d      	ldr	r1, [pc, #52]	; (8001290 <USB_Init+0x50>)
 800125c:	4a0d      	ldr	r2, [pc, #52]	; (8001294 <USB_Init+0x54>)
 800125e:	4b0e      	ldr	r3, [pc, #56]	; (8001298 <USB_Init+0x58>)
 8001260:	f002 fcc0 	bl	8003be4 <USBD_Init>
				&USR_desc,
				&USBD_CDC_cb,
				&USR_cb);
	USB_Flags &= ~USB_FLAG_NEW_DATA;
 8001264:	4b0d      	ldr	r3, [pc, #52]	; (800129c <USB_Init+0x5c>)
 8001266:	781b      	ldrb	r3, [r3, #0]
 8001268:	b2db      	uxtb	r3, r3
 800126a:	2201      	movs	r2, #1
 800126c:	4393      	bics	r3, r2
 800126e:	b2da      	uxtb	r2, r3
 8001270:	4b0a      	ldr	r3, [pc, #40]	; (800129c <USB_Init+0x5c>)
 8001272:	701a      	strb	r2, [r3, #0]
	UsbPcSendBuf.read = 0;
 8001274:	4a0a      	ldr	r2, [pc, #40]	; (80012a0 <USB_Init+0x60>)
 8001276:	2380      	movs	r3, #128	; 0x80
 8001278:	2100      	movs	r1, #0
 800127a:	50d1      	str	r1, [r2, r3]
	UsbPcSendBuf.write = 0;
 800127c:	4a08      	ldr	r2, [pc, #32]	; (80012a0 <USB_Init+0x60>)
 800127e:	2384      	movs	r3, #132	; 0x84
 8001280:	2100      	movs	r1, #0
 8001282:	50d1      	str	r1, [r2, r3]
}
 8001284:	46bd      	mov	sp, r7
 8001286:	bd80      	pop	{r7, pc}
 8001288:	40010000 	.word	0x40010000
 800128c:	2000025c 	.word	0x2000025c
 8001290:	20000028 	.word	0x20000028
 8001294:	20000098 	.word	0x20000098
 8001298:	20000014 	.word	0x20000014
 800129c:	200001d2 	.word	0x200001d2
 80012a0:	200001d4 	.word	0x200001d4

080012a4 <USB_VCP_Init>:
  *         Initializes the Media on the STM32
  * @param  None
  * @retval Result of the operation (USBD_OK in all cases)
  */
uint16_t USB_VCP_Init(void)
{
 80012a4:	b580      	push	{r7, lr}
 80012a6:	af00      	add	r7, sp, #0

  return USBD_OK;
 80012a8:	2300      	movs	r3, #0
}
 80012aa:	1c18      	adds	r0, r3, #0
 80012ac:	46bd      	mov	sp, r7
 80012ae:	bd80      	pop	{r7, pc}

080012b0 <USB_VCP_DeInit>:
  *         DeInitializes the Media on the STM32
  * @param  None
  * @retval Result of the opeartion (USBD_OK in all cases)
  */
uint16_t USB_VCP_DeInit(void)
{
 80012b0:	b580      	push	{r7, lr}
 80012b2:	af00      	add	r7, sp, #0

  return USBD_OK;
 80012b4:	2300      	movs	r3, #0
}
 80012b6:	1c18      	adds	r0, r3, #0
 80012b8:	46bd      	mov	sp, r7
 80012ba:	bd80      	pop	{r7, pc}

080012bc <USB_VCP_Ctrl>:
  * @param  Buf: Buffer containing command data (request parameters)
  * @param  Len: Number of data to be sent (in bytes)
  * @retval Result of the operation (USBD_OK in all cases)
  */
uint16_t USB_VCP_Ctrl (uint32_t Cmd, uint8_t* Buf, uint32_t Len)
{ 
 80012bc:	b580      	push	{r7, lr}
 80012be:	b084      	sub	sp, #16
 80012c0:	af00      	add	r7, sp, #0
 80012c2:	60f8      	str	r0, [r7, #12]
 80012c4:	60b9      	str	r1, [r7, #8]
 80012c6:	607a      	str	r2, [r7, #4]
	//but the damn ST USB stack doesn't give us any data!
	//so we have to improvise and the user has to send something to wake the device up,
	//as win 10 sends CTRL-Packages immediatly after plugging the USB device in!!
	//-> moved this connection open recognition to USB_VCP_DataRx

	switch(Cmd)
 80012c8:	68fb      	ldr	r3, [r7, #12]
 80012ca:	2b22      	cmp	r3, #34	; 0x22
 80012cc:	d110      	bne.n	80012f0 <USB_VCP_Ctrl+0x34>
	{
	case SET_CONTROL_LINE_STATE:

		//host is not ready to receive data (any more) -> connection terminated
		if(USB_Flags & USB_FLAG_CDC_OPEN)
 80012ce:	4b0b      	ldr	r3, [pc, #44]	; (80012fc <USB_VCP_Ctrl+0x40>)
 80012d0:	781b      	ldrb	r3, [r3, #0]
 80012d2:	b2db      	uxtb	r3, r3
 80012d4:	1c1a      	adds	r2, r3, #0
 80012d6:	2302      	movs	r3, #2
 80012d8:	4013      	ands	r3, r2
 80012da:	d008      	beq.n	80012ee <USB_VCP_Ctrl+0x32>
		{
			USB_Flags &= ~USB_FLAG_CDC_OPEN;
 80012dc:	4b07      	ldr	r3, [pc, #28]	; (80012fc <USB_VCP_Ctrl+0x40>)
 80012de:	781b      	ldrb	r3, [r3, #0]
 80012e0:	b2db      	uxtb	r3, r3
 80012e2:	2202      	movs	r2, #2
 80012e4:	4393      	bics	r3, r2
 80012e6:	b2da      	uxtb	r2, r3
 80012e8:	4b04      	ldr	r3, [pc, #16]	; (80012fc <USB_VCP_Ctrl+0x40>)
 80012ea:	701a      	strb	r2, [r3, #0]
		}
		break;
 80012ec:	e7ff      	b.n	80012ee <USB_VCP_Ctrl+0x32>
 80012ee:	46c0      	nop			; (mov r8, r8)
	}
	return USBD_OK;
 80012f0:	2300      	movs	r3, #0
}
 80012f2:	1c18      	adds	r0, r3, #0
 80012f4:	46bd      	mov	sp, r7
 80012f6:	b004      	add	sp, #16
 80012f8:	bd80      	pop	{r7, pc}
 80012fa:	46c0      	nop			; (mov r8, r8)
 80012fc:	200001d2 	.word	0x200001d2

08001300 <USB_VCP_DataTx>:
  * @param  Buf: Buffer of data to be sent
  * @param  Len: Number of data to be sent (in bytes) or 0 to stop @ first null char
  * @retval Result of the operation: USBD_OK if all operations are OK else VCP_FAIL
  */
uint16_t USB_VCP_DataTx (uint8_t* Buf, uint32_t Len)
{
 8001300:	b580      	push	{r7, lr}
 8001302:	b084      	sub	sp, #16
 8001304:	af00      	add	r7, sp, #0
 8001306:	6078      	str	r0, [r7, #4]
 8001308:	6039      	str	r1, [r7, #0]
	if(Len)
 800130a:	683b      	ldr	r3, [r7, #0]
 800130c:	2b00      	cmp	r3, #0
 800130e:	d020      	beq.n	8001352 <USB_VCP_DataTx+0x52>
	{
		for(uint32_t i = 0; i < Len; i++)
 8001310:	2300      	movs	r3, #0
 8001312:	60fb      	str	r3, [r7, #12]
 8001314:	e018      	b.n	8001348 <USB_VCP_DataTx+0x48>
		{
			APP_Rx_Buffer[APP_Rx_ptr_in] = Buf[i];
 8001316:	4b22      	ldr	r3, [pc, #136]	; (80013a0 <USB_VCP_DataTx+0xa0>)
 8001318:	681b      	ldr	r3, [r3, #0]
 800131a:	6879      	ldr	r1, [r7, #4]
 800131c:	68fa      	ldr	r2, [r7, #12]
 800131e:	188a      	adds	r2, r1, r2
 8001320:	7811      	ldrb	r1, [r2, #0]
 8001322:	4a20      	ldr	r2, [pc, #128]	; (80013a4 <USB_VCP_DataTx+0xa4>)
 8001324:	54d1      	strb	r1, [r2, r3]
			APP_Rx_ptr_in++;
 8001326:	4b1e      	ldr	r3, [pc, #120]	; (80013a0 <USB_VCP_DataTx+0xa0>)
 8001328:	681b      	ldr	r3, [r3, #0]
 800132a:	1c5a      	adds	r2, r3, #1
 800132c:	4b1c      	ldr	r3, [pc, #112]	; (80013a0 <USB_VCP_DataTx+0xa0>)
 800132e:	601a      	str	r2, [r3, #0]

			/* To avoid buffer overflow */
			if(APP_Rx_ptr_in == APP_RX_DATA_SIZE)
 8001330:	4b1b      	ldr	r3, [pc, #108]	; (80013a0 <USB_VCP_DataTx+0xa0>)
 8001332:	681a      	ldr	r2, [r3, #0]
 8001334:	2380      	movs	r3, #128	; 0x80
 8001336:	011b      	lsls	r3, r3, #4
 8001338:	429a      	cmp	r2, r3
 800133a:	d102      	bne.n	8001342 <USB_VCP_DataTx+0x42>
			{
				APP_Rx_ptr_in = 0;
 800133c:	4b18      	ldr	r3, [pc, #96]	; (80013a0 <USB_VCP_DataTx+0xa0>)
 800133e:	2200      	movs	r2, #0
 8001340:	601a      	str	r2, [r3, #0]
  */
uint16_t USB_VCP_DataTx (uint8_t* Buf, uint32_t Len)
{
	if(Len)
	{
		for(uint32_t i = 0; i < Len; i++)
 8001342:	68fb      	ldr	r3, [r7, #12]
 8001344:	3301      	adds	r3, #1
 8001346:	60fb      	str	r3, [r7, #12]
 8001348:	68fa      	ldr	r2, [r7, #12]
 800134a:	683b      	ldr	r3, [r7, #0]
 800134c:	429a      	cmp	r2, r3
 800134e:	d3e2      	bcc.n	8001316 <USB_VCP_DataTx+0x16>
 8001350:	e021      	b.n	8001396 <USB_VCP_DataTx+0x96>
		}
	}
	else
	//stop @ null character (Len = 0)
	{
		uint32_t i = 0;
 8001352:	2300      	movs	r3, #0
 8001354:	60bb      	str	r3, [r7, #8]
		while(Buf[i] != 0x00)
 8001356:	e018      	b.n	800138a <USB_VCP_DataTx+0x8a>
		{
			APP_Rx_Buffer[APP_Rx_ptr_in] = Buf[i];
 8001358:	4b11      	ldr	r3, [pc, #68]	; (80013a0 <USB_VCP_DataTx+0xa0>)
 800135a:	681b      	ldr	r3, [r3, #0]
 800135c:	6879      	ldr	r1, [r7, #4]
 800135e:	68ba      	ldr	r2, [r7, #8]
 8001360:	188a      	adds	r2, r1, r2
 8001362:	7811      	ldrb	r1, [r2, #0]
 8001364:	4a0f      	ldr	r2, [pc, #60]	; (80013a4 <USB_VCP_DataTx+0xa4>)
 8001366:	54d1      	strb	r1, [r2, r3]
			APP_Rx_ptr_in++;
 8001368:	4b0d      	ldr	r3, [pc, #52]	; (80013a0 <USB_VCP_DataTx+0xa0>)
 800136a:	681b      	ldr	r3, [r3, #0]
 800136c:	1c5a      	adds	r2, r3, #1
 800136e:	4b0c      	ldr	r3, [pc, #48]	; (80013a0 <USB_VCP_DataTx+0xa0>)
 8001370:	601a      	str	r2, [r3, #0]

			/* To avoid buffer overflow */
			if(APP_Rx_ptr_in == APP_RX_DATA_SIZE)
 8001372:	4b0b      	ldr	r3, [pc, #44]	; (80013a0 <USB_VCP_DataTx+0xa0>)
 8001374:	681a      	ldr	r2, [r3, #0]
 8001376:	2380      	movs	r3, #128	; 0x80
 8001378:	011b      	lsls	r3, r3, #4
 800137a:	429a      	cmp	r2, r3
 800137c:	d102      	bne.n	8001384 <USB_VCP_DataTx+0x84>
			{
				APP_Rx_ptr_in = 0;
 800137e:	4b08      	ldr	r3, [pc, #32]	; (80013a0 <USB_VCP_DataTx+0xa0>)
 8001380:	2200      	movs	r2, #0
 8001382:	601a      	str	r2, [r3, #0]
			}
			i++;
 8001384:	68bb      	ldr	r3, [r7, #8]
 8001386:	3301      	adds	r3, #1
 8001388:	60bb      	str	r3, [r7, #8]
	}
	else
	//stop @ null character (Len = 0)
	{
		uint32_t i = 0;
		while(Buf[i] != 0x00)
 800138a:	687a      	ldr	r2, [r7, #4]
 800138c:	68bb      	ldr	r3, [r7, #8]
 800138e:	18d3      	adds	r3, r2, r3
 8001390:	781b      	ldrb	r3, [r3, #0]
 8001392:	2b00      	cmp	r3, #0
 8001394:	d1e0      	bne.n	8001358 <USB_VCP_DataTx+0x58>
				APP_Rx_ptr_in = 0;
			}
			i++;
		}
	}
	return USBD_OK;
 8001396:	2300      	movs	r3, #0
}
 8001398:	1c18      	adds	r0, r3, #0
 800139a:	46bd      	mov	sp, r7
 800139c:	b004      	add	sp, #16
 800139e:	bd80      	pop	{r7, pc}
 80013a0:	20000160 	.word	0x20000160
 80013a4:	200006e4 	.word	0x200006e4

080013a8 <USB_VCP_DataRx>:
  * @param  Buf: Buffer of data to be received
  * @param  Len: Number of data received (in bytes)
  * @retval Result of the operation: USBD_OK if all operations are OK else VCP_FAIL
  */
uint16_t USB_VCP_DataRx (uint8_t* Buf, uint32_t Len)
{
 80013a8:	b580      	push	{r7, lr}
 80013aa:	b084      	sub	sp, #16
 80013ac:	af00      	add	r7, sp, #0
 80013ae:	6078      	str	r0, [r7, #4]
 80013b0:	6039      	str	r1, [r7, #0]
	//start communication with host, as soon as the host has sent anything
	if(!(USB_Flags & USB_FLAG_CDC_OPEN))
 80013b2:	4b20      	ldr	r3, [pc, #128]	; (8001434 <USB_VCP_DataRx+0x8c>)
 80013b4:	781b      	ldrb	r3, [r3, #0]
 80013b6:	b2db      	uxtb	r3, r3
 80013b8:	1c1a      	adds	r2, r3, #0
 80013ba:	2302      	movs	r3, #2
 80013bc:	4013      	ands	r3, r2
 80013be:	d119      	bne.n	80013f4 <USB_VCP_DataRx+0x4c>
	{
		//flush the buffer
		UsbPcSendBuf.read = 0;
 80013c0:	4a1d      	ldr	r2, [pc, #116]	; (8001438 <USB_VCP_DataRx+0x90>)
 80013c2:	2380      	movs	r3, #128	; 0x80
 80013c4:	2100      	movs	r1, #0
 80013c6:	50d1      	str	r1, [r2, r3]
		UsbPcSendBuf.write = 0;
 80013c8:	4a1b      	ldr	r2, [pc, #108]	; (8001438 <USB_VCP_DataRx+0x90>)
 80013ca:	2384      	movs	r3, #132	; 0x84
 80013cc:	2100      	movs	r1, #0
 80013ce:	50d1      	str	r1, [r2, r3]

		//set flags
		USB_Flags |= USB_FLAG_CDC_OPEN;
 80013d0:	4b18      	ldr	r3, [pc, #96]	; (8001434 <USB_VCP_DataRx+0x8c>)
 80013d2:	781b      	ldrb	r3, [r3, #0]
 80013d4:	b2db      	uxtb	r3, r3
 80013d6:	2202      	movs	r2, #2
 80013d8:	4313      	orrs	r3, r2
 80013da:	b2da      	uxtb	r2, r3
 80013dc:	4b15      	ldr	r3, [pc, #84]	; (8001434 <USB_VCP_DataRx+0x8c>)
 80013de:	701a      	strb	r2, [r3, #0]
		USB_Flags |= USB_FLAG_FIRST_CONTACT;
 80013e0:	4b14      	ldr	r3, [pc, #80]	; (8001434 <USB_VCP_DataRx+0x8c>)
 80013e2:	781b      	ldrb	r3, [r3, #0]
 80013e4:	b2db      	uxtb	r3, r3
 80013e6:	2204      	movs	r2, #4
 80013e8:	4313      	orrs	r3, r2
 80013ea:	b2da      	uxtb	r2, r3
 80013ec:	4b11      	ldr	r3, [pc, #68]	; (8001434 <USB_VCP_DataRx+0x8c>)
 80013ee:	701a      	strb	r2, [r3, #0]
		return USBD_OK;
 80013f0:	2300      	movs	r3, #0
 80013f2:	e01b      	b.n	800142c <USB_VCP_DataRx+0x84>
	}

	USB_Flags |= USB_FLAG_NEW_DATA;
 80013f4:	4b0f      	ldr	r3, [pc, #60]	; (8001434 <USB_VCP_DataRx+0x8c>)
 80013f6:	781b      	ldrb	r3, [r3, #0]
 80013f8:	b2db      	uxtb	r3, r3
 80013fa:	2201      	movs	r2, #1
 80013fc:	4313      	orrs	r3, r2
 80013fe:	b2da      	uxtb	r2, r3
 8001400:	4b0c      	ldr	r3, [pc, #48]	; (8001434 <USB_VCP_DataRx+0x8c>)
 8001402:	701a      	strb	r2, [r3, #0]

	for(uint32_t i = 0; i < Len; i++)
 8001404:	2300      	movs	r3, #0
 8001406:	60fb      	str	r3, [r7, #12]
 8001408:	e00b      	b.n	8001422 <USB_VCP_DataRx+0x7a>
	{
		FifoIn(&UsbPcSendBuf, Buf[i]);
 800140a:	687a      	ldr	r2, [r7, #4]
 800140c:	68fb      	ldr	r3, [r7, #12]
 800140e:	18d3      	adds	r3, r2, r3
 8001410:	781b      	ldrb	r3, [r3, #0]
 8001412:	4a09      	ldr	r2, [pc, #36]	; (8001438 <USB_VCP_DataRx+0x90>)
 8001414:	1c10      	adds	r0, r2, #0
 8001416:	1c19      	adds	r1, r3, #0
 8001418:	f7ff f802 	bl	8000420 <FifoIn>
		return USBD_OK;
	}

	USB_Flags |= USB_FLAG_NEW_DATA;

	for(uint32_t i = 0; i < Len; i++)
 800141c:	68fb      	ldr	r3, [r7, #12]
 800141e:	3301      	adds	r3, #1
 8001420:	60fb      	str	r3, [r7, #12]
 8001422:	68fa      	ldr	r2, [r7, #12]
 8001424:	683b      	ldr	r3, [r7, #0]
 8001426:	429a      	cmp	r2, r3
 8001428:	d3ef      	bcc.n	800140a <USB_VCP_DataRx+0x62>
	{
		FifoIn(&UsbPcSendBuf, Buf[i]);
	}
	return USBD_OK;
 800142a:	2300      	movs	r3, #0
}
 800142c:	1c18      	adds	r0, r3, #0
 800142e:	46bd      	mov	sp, r7
 8001430:	b004      	add	sp, #16
 8001432:	bd80      	pop	{r7, pc}
 8001434:	200001d2 	.word	0x200001d2
 8001438:	200001d4 	.word	0x200001d4

0800143c <USB_ReadAvailable>:
	}
	return (char)tempByte;
}

uint32_t USB_ReadAvailable(uint8_t* string)
{
 800143c:	b580      	push	{r7, lr}
 800143e:	b084      	sub	sp, #16
 8001440:	af00      	add	r7, sp, #0
 8001442:	6078      	str	r0, [r7, #4]
	USB_Flags &= ~USB_FLAG_NEW_DATA;
 8001444:	4b14      	ldr	r3, [pc, #80]	; (8001498 <USB_ReadAvailable+0x5c>)
 8001446:	781b      	ldrb	r3, [r3, #0]
 8001448:	b2db      	uxtb	r3, r3
 800144a:	2201      	movs	r2, #1
 800144c:	4393      	bics	r3, r2
 800144e:	b2da      	uxtb	r2, r3
 8001450:	4b11      	ldr	r3, [pc, #68]	; (8001498 <USB_ReadAvailable+0x5c>)
 8001452:	701a      	strb	r2, [r3, #0]
	uint32_t count = FifoCount(&UsbPcSendBuf);
 8001454:	4b11      	ldr	r3, [pc, #68]	; (800149c <USB_ReadAvailable+0x60>)
 8001456:	1c18      	adds	r0, r3, #0
 8001458:	f7ff f82e 	bl	80004b8 <FifoCount>
 800145c:	1c03      	adds	r3, r0, #0
 800145e:	60bb      	str	r3, [r7, #8]
	for (uint32_t i = 0; i < count; i++)
 8001460:	2300      	movs	r3, #0
 8001462:	60fb      	str	r3, [r7, #12]
 8001464:	e00a      	b.n	800147c <USB_ReadAvailable+0x40>
	{
		FifoOut(&UsbPcSendBuf,(uint8_t*)string+i);
 8001466:	687a      	ldr	r2, [r7, #4]
 8001468:	68fb      	ldr	r3, [r7, #12]
 800146a:	18d3      	adds	r3, r2, r3
 800146c:	4a0b      	ldr	r2, [pc, #44]	; (800149c <USB_ReadAvailable+0x60>)
 800146e:	1c10      	adds	r0, r2, #0
 8001470:	1c19      	adds	r1, r3, #0
 8001472:	f7fe fffb 	bl	800046c <FifoOut>

uint32_t USB_ReadAvailable(uint8_t* string)
{
	USB_Flags &= ~USB_FLAG_NEW_DATA;
	uint32_t count = FifoCount(&UsbPcSendBuf);
	for (uint32_t i = 0; i < count; i++)
 8001476:	68fb      	ldr	r3, [r7, #12]
 8001478:	3301      	adds	r3, #1
 800147a:	60fb      	str	r3, [r7, #12]
 800147c:	68fa      	ldr	r2, [r7, #12]
 800147e:	68bb      	ldr	r3, [r7, #8]
 8001480:	429a      	cmp	r2, r3
 8001482:	d3f0      	bcc.n	8001466 <USB_ReadAvailable+0x2a>
	{
		FifoOut(&UsbPcSendBuf,(uint8_t*)string+i);
	}
	//add termination
	string[count] = 0x00;
 8001484:	687a      	ldr	r2, [r7, #4]
 8001486:	68bb      	ldr	r3, [r7, #8]
 8001488:	18d3      	adds	r3, r2, r3
 800148a:	2200      	movs	r2, #0
 800148c:	701a      	strb	r2, [r3, #0]
	return count;
 800148e:	68bb      	ldr	r3, [r7, #8]
}
 8001490:	1c18      	adds	r0, r3, #0
 8001492:	46bd      	mov	sp, r7
 8001494:	b004      	add	sp, #16
 8001496:	bd80      	pop	{r7, pc}
 8001498:	200001d2 	.word	0x200001d2
 800149c:	200001d4 	.word	0x200001d4

080014a0 <I2C_RdReg>:
/**
 * Origin of I2C_RdReg and I2C_WrReg:
 * https://hsel.co.uk/2014/08/13/stm32f0-mini-tutorial-using-the-i2c-peripheral-to-communicate-with-a-hmc5883l-digital-compass-ic/
 */
uint8_t I2C_RdReg(uint8_t Reg, uint8_t *Data, uint8_t DCnt)
{
 80014a0:	b590      	push	{r4, r7, lr}
 80014a2:	b087      	sub	sp, #28
 80014a4:	af02      	add	r7, sp, #8
 80014a6:	6039      	str	r1, [r7, #0]
 80014a8:	1dfb      	adds	r3, r7, #7
 80014aa:	1c01      	adds	r1, r0, #0
 80014ac:	7019      	strb	r1, [r3, #0]
 80014ae:	1dbb      	adds	r3, r7, #6
 80014b0:	701a      	strb	r2, [r3, #0]
	uint8_t Cnt, SingleData = 0;
 80014b2:	1c3b      	adds	r3, r7, #0
 80014b4:	330e      	adds	r3, #14
 80014b6:	2200      	movs	r2, #0
 80014b8:	701a      	strb	r2, [r3, #0]

	//Wait until I2C isn't busy
	while(I2C_GetFlagStatus(I2C_MMA8653, I2C_FLAG_BUSY) == SET);
 80014ba:	46c0      	nop			; (mov r8, r8)
 80014bc:	4a40      	ldr	r2, [pc, #256]	; (80015c0 <I2C_RdReg+0x120>)
 80014be:	2380      	movs	r3, #128	; 0x80
 80014c0:	021b      	lsls	r3, r3, #8
 80014c2:	1c10      	adds	r0, r2, #0
 80014c4:	1c19      	adds	r1, r3, #0
 80014c6:	f004 fee9 	bl	800629c <I2C_GetFlagStatus>
 80014ca:	1c03      	adds	r3, r0, #0
 80014cc:	2b01      	cmp	r3, #1
 80014ce:	d0f5      	beq.n	80014bc <I2C_RdReg+0x1c>

	//first communication (try reading the status register)
	/* Configure slave address, nbytes, reload, end mode and start or stop generation */
	I2C_TransferHandling(I2C_MMA8653,ADDR_MMA8653,1,I2C_SoftEnd_Mode,I2C_Generate_Start_Write);
 80014d0:	4b3b      	ldr	r3, [pc, #236]	; (80015c0 <I2C_RdReg+0x120>)
 80014d2:	2280      	movs	r2, #128	; 0x80
 80014d4:	0192      	lsls	r2, r2, #6
 80014d6:	9200      	str	r2, [sp, #0]
 80014d8:	1c18      	adds	r0, r3, #0
 80014da:	213a      	movs	r1, #58	; 0x3a
 80014dc:	2201      	movs	r2, #1
 80014de:	2300      	movs	r3, #0
 80014e0:	f004 fe92 	bl	8006208 <I2C_TransferHandling>
	//Ensure the transmit interrupted flag is set
	while(I2C_GetFlagStatus(I2C_MMA8653, I2C_FLAG_TXIS) == RESET);
 80014e4:	46c0      	nop			; (mov r8, r8)
 80014e6:	4b36      	ldr	r3, [pc, #216]	; (80015c0 <I2C_RdReg+0x120>)
 80014e8:	1c18      	adds	r0, r3, #0
 80014ea:	2102      	movs	r1, #2
 80014ec:	f004 fed6 	bl	800629c <I2C_GetFlagStatus>
 80014f0:	1c03      	adds	r3, r0, #0
 80014f2:	2b00      	cmp	r3, #0
 80014f4:	d0f7      	beq.n	80014e6 <I2C_RdReg+0x46>
	//send reg address
	I2C_SendData(I2C_MMA8653, (uint8_t)Reg);
 80014f6:	4a32      	ldr	r2, [pc, #200]	; (80015c0 <I2C_RdReg+0x120>)
 80014f8:	1dfb      	adds	r3, r7, #7
 80014fa:	781b      	ldrb	r3, [r3, #0]
 80014fc:	1c10      	adds	r0, r2, #0
 80014fe:	1c19      	adds	r1, r3, #0
 8001500:	f004 feb2 	bl	8006268 <I2C_SendData>
	//Wait until transfer is complete!
	while(I2C_GetFlagStatus(I2C_MMA8653, I2C_FLAG_TC) == RESET);
 8001504:	46c0      	nop			; (mov r8, r8)
 8001506:	4b2e      	ldr	r3, [pc, #184]	; (80015c0 <I2C_RdReg+0x120>)
 8001508:	1c18      	adds	r0, r3, #0
 800150a:	2140      	movs	r1, #64	; 0x40
 800150c:	f004 fec6 	bl	800629c <I2C_GetFlagStatus>
 8001510:	1c03      	adds	r3, r0, #0
 8001512:	2b00      	cmp	r3, #0
 8001514:	d0f7      	beq.n	8001506 <I2C_RdReg+0x66>
	//initiate read
	I2C_TransferHandling(I2C_MMA8653, ADDR_MMA8653, DCnt, I2C_AutoEnd_Mode, I2C_Generate_Start_Read);
 8001516:	492a      	ldr	r1, [pc, #168]	; (80015c0 <I2C_RdReg+0x120>)
 8001518:	1dbb      	adds	r3, r7, #6
 800151a:	781a      	ldrb	r2, [r3, #0]
 800151c:	2380      	movs	r3, #128	; 0x80
 800151e:	049b      	lsls	r3, r3, #18
 8001520:	2090      	movs	r0, #144	; 0x90
 8001522:	0180      	lsls	r0, r0, #6
 8001524:	9000      	str	r0, [sp, #0]
 8001526:	1c08      	adds	r0, r1, #0
 8001528:	213a      	movs	r1, #58	; 0x3a
 800152a:	f004 fe6d 	bl	8006208 <I2C_TransferHandling>


	//Read in DCnt pieces of data
	for(Cnt = 0; Cnt<DCnt; Cnt++)
 800152e:	1c3b      	adds	r3, r7, #0
 8001530:	330f      	adds	r3, #15
 8001532:	2200      	movs	r2, #0
 8001534:	701a      	strb	r2, [r3, #0]
 8001536:	e027      	b.n	8001588 <I2C_RdReg+0xe8>
	{
        //Wait until the RX register is full of luscious data!
        while(I2C_GetFlagStatus(I2C_MMA8653, I2C_FLAG_RXNE) == RESET);
 8001538:	46c0      	nop			; (mov r8, r8)
 800153a:	4b21      	ldr	r3, [pc, #132]	; (80015c0 <I2C_RdReg+0x120>)
 800153c:	1c18      	adds	r0, r3, #0
 800153e:	2104      	movs	r1, #4
 8001540:	f004 feac 	bl	800629c <I2C_GetFlagStatus>
 8001544:	1c03      	adds	r3, r0, #0
 8001546:	2b00      	cmp	r3, #0
 8001548:	d0f7      	beq.n	800153a <I2C_RdReg+0x9a>
        //If we're only reading one byte, place that data direct into the
        //SingleData variable. If we're reading more than 1 piece of data
        //store in the array "Data" (a pointer from main)
        if(DCnt > 1)
 800154a:	1dbb      	adds	r3, r7, #6
 800154c:	781b      	ldrb	r3, [r3, #0]
 800154e:	2b01      	cmp	r3, #1
 8001550:	d90b      	bls.n	800156a <I2C_RdReg+0xca>
        {
        	Data[Cnt] = I2C_ReceiveData(I2C_MMA8653);
 8001552:	1c3b      	adds	r3, r7, #0
 8001554:	330f      	adds	r3, #15
 8001556:	781b      	ldrb	r3, [r3, #0]
 8001558:	683a      	ldr	r2, [r7, #0]
 800155a:	18d4      	adds	r4, r2, r3
 800155c:	4b18      	ldr	r3, [pc, #96]	; (80015c0 <I2C_RdReg+0x120>)
 800155e:	1c18      	adds	r0, r3, #0
 8001560:	f004 fe90 	bl	8006284 <I2C_ReceiveData>
 8001564:	1c03      	adds	r3, r0, #0
 8001566:	7023      	strb	r3, [r4, #0]
 8001568:	e007      	b.n	800157a <I2C_RdReg+0xda>
        }
        else SingleData = I2C_ReceiveData(I2C_MMA8653);
 800156a:	1c3c      	adds	r4, r7, #0
 800156c:	340e      	adds	r4, #14
 800156e:	4b14      	ldr	r3, [pc, #80]	; (80015c0 <I2C_RdReg+0x120>)
 8001570:	1c18      	adds	r0, r3, #0
 8001572:	f004 fe87 	bl	8006284 <I2C_ReceiveData>
 8001576:	1c03      	adds	r3, r0, #0
 8001578:	7023      	strb	r3, [r4, #0]
	//initiate read
	I2C_TransferHandling(I2C_MMA8653, ADDR_MMA8653, DCnt, I2C_AutoEnd_Mode, I2C_Generate_Start_Read);


	//Read in DCnt pieces of data
	for(Cnt = 0; Cnt<DCnt; Cnt++)
 800157a:	1c3b      	adds	r3, r7, #0
 800157c:	330f      	adds	r3, #15
 800157e:	781a      	ldrb	r2, [r3, #0]
 8001580:	1c3b      	adds	r3, r7, #0
 8001582:	330f      	adds	r3, #15
 8001584:	3201      	adds	r2, #1
 8001586:	701a      	strb	r2, [r3, #0]
 8001588:	1c3a      	adds	r2, r7, #0
 800158a:	320f      	adds	r2, #15
 800158c:	1dbb      	adds	r3, r7, #6
 800158e:	7812      	ldrb	r2, [r2, #0]
 8001590:	781b      	ldrb	r3, [r3, #0]
 8001592:	429a      	cmp	r2, r3
 8001594:	d3d0      	bcc.n	8001538 <I2C_RdReg+0x98>
        }
        else SingleData = I2C_ReceiveData(I2C_MMA8653);
     }

    //Wait for the stop condition to be sent
    while(I2C_GetFlagStatus(I2C_MMA8653, I2C_FLAG_STOPF) == RESET);
 8001596:	46c0      	nop			; (mov r8, r8)
 8001598:	4b09      	ldr	r3, [pc, #36]	; (80015c0 <I2C_RdReg+0x120>)
 800159a:	1c18      	adds	r0, r3, #0
 800159c:	2120      	movs	r1, #32
 800159e:	f004 fe7d 	bl	800629c <I2C_GetFlagStatus>
 80015a2:	1c03      	adds	r3, r0, #0
 80015a4:	2b00      	cmp	r3, #0
 80015a6:	d0f7      	beq.n	8001598 <I2C_RdReg+0xf8>

    //Clear the stop flag for next transfers
    I2C_ClearFlag(I2C_MMA8653, I2C_FLAG_STOPF);
 80015a8:	4b05      	ldr	r3, [pc, #20]	; (80015c0 <I2C_RdReg+0x120>)
 80015aa:	1c18      	adds	r0, r3, #0
 80015ac:	2120      	movs	r1, #32
 80015ae:	f004 fe9b 	bl	80062e8 <I2C_ClearFlag>

    //Return a single piece of data if DCnt was
    //less than 1, otherwise 0 will be returned.
	return SingleData;
 80015b2:	1c3b      	adds	r3, r7, #0
 80015b4:	330e      	adds	r3, #14
 80015b6:	781b      	ldrb	r3, [r3, #0]
}
 80015b8:	1c18      	adds	r0, r3, #0
 80015ba:	46bd      	mov	sp, r7
 80015bc:	b005      	add	sp, #20
 80015be:	bd90      	pop	{r4, r7, pc}
 80015c0:	40005400 	.word	0x40005400

080015c4 <I2C_WrReg>:

void I2C_WrReg(uint8_t Reg, uint8_t Val){
 80015c4:	b580      	push	{r7, lr}
 80015c6:	b084      	sub	sp, #16
 80015c8:	af02      	add	r7, sp, #8
 80015ca:	1c0a      	adds	r2, r1, #0
 80015cc:	1dfb      	adds	r3, r7, #7
 80015ce:	1c01      	adds	r1, r0, #0
 80015d0:	7019      	strb	r1, [r3, #0]
 80015d2:	1dbb      	adds	r3, r7, #6
 80015d4:	701a      	strb	r2, [r3, #0]

	//Wait until I2C isn't busy
	while(I2C_GetFlagStatus(I2C_MMA8653, I2C_FLAG_BUSY) == SET);
 80015d6:	46c0      	nop			; (mov r8, r8)
 80015d8:	4a2c      	ldr	r2, [pc, #176]	; (800168c <I2C_WrReg+0xc8>)
 80015da:	2380      	movs	r3, #128	; 0x80
 80015dc:	021b      	lsls	r3, r3, #8
 80015de:	1c10      	adds	r0, r2, #0
 80015e0:	1c19      	adds	r1, r3, #0
 80015e2:	f004 fe5b 	bl	800629c <I2C_GetFlagStatus>
 80015e6:	1c03      	adds	r3, r0, #0
 80015e8:	2b01      	cmp	r3, #1
 80015ea:	d0f5      	beq.n	80015d8 <I2C_WrReg+0x14>
	//I2C interface... Regardless! Send the address of the HMC
	//sensor down the I2C Bus and generate a start saying we're
	//going to write one byte. I'll be completely honest,
	//the I2C peripheral doesn't make too much sense to me
	//and a lot of the code is from the Std peripheral library
	I2C_TransferHandling(I2C_MMA8653, ADDR_MMA8653, 1, I2C_Reload_Mode, I2C_Generate_Start_Write);
 80015ec:	4a27      	ldr	r2, [pc, #156]	; (800168c <I2C_WrReg+0xc8>)
 80015ee:	2380      	movs	r3, #128	; 0x80
 80015f0:	045b      	lsls	r3, r3, #17
 80015f2:	2180      	movs	r1, #128	; 0x80
 80015f4:	0189      	lsls	r1, r1, #6
 80015f6:	9100      	str	r1, [sp, #0]
 80015f8:	1c10      	adds	r0, r2, #0
 80015fa:	213a      	movs	r1, #58	; 0x3a
 80015fc:	2201      	movs	r2, #1
 80015fe:	f004 fe03 	bl	8006208 <I2C_TransferHandling>

	//Ensure the transmit interrupted flag is set
	while(I2C_GetFlagStatus(I2C_MMA8653, I2C_FLAG_TXIS) == RESET);
 8001602:	46c0      	nop			; (mov r8, r8)
 8001604:	4b21      	ldr	r3, [pc, #132]	; (800168c <I2C_WrReg+0xc8>)
 8001606:	1c18      	adds	r0, r3, #0
 8001608:	2102      	movs	r1, #2
 800160a:	f004 fe47 	bl	800629c <I2C_GetFlagStatus>
 800160e:	1c03      	adds	r3, r0, #0
 8001610:	2b00      	cmp	r3, #0
 8001612:	d0f7      	beq.n	8001604 <I2C_WrReg+0x40>

	//Send the address of the register we wish to write to
	I2C_SendData(I2C_MMA8653, Reg);
 8001614:	4a1d      	ldr	r2, [pc, #116]	; (800168c <I2C_WrReg+0xc8>)
 8001616:	1dfb      	adds	r3, r7, #7
 8001618:	781b      	ldrb	r3, [r3, #0]
 800161a:	1c10      	adds	r0, r2, #0
 800161c:	1c19      	adds	r1, r3, #0
 800161e:	f004 fe23 	bl	8006268 <I2C_SendData>

	//Ensure that the transfer complete reload flag is
	//set, essentially a standard TC flag
	while(I2C_GetFlagStatus(I2C_MMA8653, I2C_FLAG_TCR) == RESET);
 8001622:	46c0      	nop			; (mov r8, r8)
 8001624:	4b19      	ldr	r3, [pc, #100]	; (800168c <I2C_WrReg+0xc8>)
 8001626:	1c18      	adds	r0, r3, #0
 8001628:	2180      	movs	r1, #128	; 0x80
 800162a:	f004 fe37 	bl	800629c <I2C_GetFlagStatus>
 800162e:	1c03      	adds	r3, r0, #0
 8001630:	2b00      	cmp	r3, #0
 8001632:	d0f7      	beq.n	8001624 <I2C_WrReg+0x60>

	//Now that the HMC5883L knows which register
	//we want to write to, send the address again
	//and ensure the I2C peripheral doesn't add
	//any start or stop conditions
	I2C_TransferHandling(I2C_MMA8653, ADDR_MMA8653, 1, I2C_AutoEnd_Mode, I2C_No_StartStop);
 8001634:	4a15      	ldr	r2, [pc, #84]	; (800168c <I2C_WrReg+0xc8>)
 8001636:	2380      	movs	r3, #128	; 0x80
 8001638:	049b      	lsls	r3, r3, #18
 800163a:	2100      	movs	r1, #0
 800163c:	9100      	str	r1, [sp, #0]
 800163e:	1c10      	adds	r0, r2, #0
 8001640:	213a      	movs	r1, #58	; 0x3a
 8001642:	2201      	movs	r2, #1
 8001644:	f004 fde0 	bl	8006208 <I2C_TransferHandling>

	//Again, wait until the transmit interrupted flag is set
	while(I2C_GetFlagStatus(I2C_MMA8653, I2C_FLAG_TXIS) == RESET);
 8001648:	46c0      	nop			; (mov r8, r8)
 800164a:	4b10      	ldr	r3, [pc, #64]	; (800168c <I2C_WrReg+0xc8>)
 800164c:	1c18      	adds	r0, r3, #0
 800164e:	2102      	movs	r1, #2
 8001650:	f004 fe24 	bl	800629c <I2C_GetFlagStatus>
 8001654:	1c03      	adds	r3, r0, #0
 8001656:	2b00      	cmp	r3, #0
 8001658:	d0f7      	beq.n	800164a <I2C_WrReg+0x86>

	//Send the value you wish you write to the register
	I2C_SendData(I2C_MMA8653, Val);
 800165a:	4a0c      	ldr	r2, [pc, #48]	; (800168c <I2C_WrReg+0xc8>)
 800165c:	1dbb      	adds	r3, r7, #6
 800165e:	781b      	ldrb	r3, [r3, #0]
 8001660:	1c10      	adds	r0, r2, #0
 8001662:	1c19      	adds	r1, r3, #0
 8001664:	f004 fe00 	bl	8006268 <I2C_SendData>

	//Wait for the stop flag to be set indicating
	//a stop condition has been sent
	while(I2C_GetFlagStatus(I2C_MMA8653, I2C_FLAG_STOPF) == RESET);
 8001668:	46c0      	nop			; (mov r8, r8)
 800166a:	4b08      	ldr	r3, [pc, #32]	; (800168c <I2C_WrReg+0xc8>)
 800166c:	1c18      	adds	r0, r3, #0
 800166e:	2120      	movs	r1, #32
 8001670:	f004 fe14 	bl	800629c <I2C_GetFlagStatus>
 8001674:	1c03      	adds	r3, r0, #0
 8001676:	2b00      	cmp	r3, #0
 8001678:	d0f7      	beq.n	800166a <I2C_WrReg+0xa6>

	//Clear the stop flag for the next potential transfer
	I2C_ClearFlag(I2C_MMA8653, I2C_FLAG_STOPF);
 800167a:	4b04      	ldr	r3, [pc, #16]	; (800168c <I2C_WrReg+0xc8>)
 800167c:	1c18      	adds	r0, r3, #0
 800167e:	2120      	movs	r1, #32
 8001680:	f004 fe32 	bl	80062e8 <I2C_ClearFlag>
}
 8001684:	46bd      	mov	sp, r7
 8001686:	b002      	add	sp, #8
 8001688:	bd80      	pop	{r7, pc}
 800168a:	46c0      	nop			; (mov r8, r8)
 800168c:	40005400 	.word	0x40005400

08001690 <I2C_BitHandling>:

void I2C_BitHandling(uint8_t reg, uint8_t bitmask, uint8_t set)
{
 8001690:	b590      	push	{r4, r7, lr}
 8001692:	b085      	sub	sp, #20
 8001694:	af00      	add	r7, sp, #0
 8001696:	1dfb      	adds	r3, r7, #7
 8001698:	7018      	strb	r0, [r3, #0]
 800169a:	1dbb      	adds	r3, r7, #6
 800169c:	7019      	strb	r1, [r3, #0]
 800169e:	1d7b      	adds	r3, r7, #5
 80016a0:	701a      	strb	r2, [r3, #0]
	uint8_t tempReg = I2C_RdReg(reg,rxBuf,1u);
 80016a2:	1c3c      	adds	r4, r7, #0
 80016a4:	340f      	adds	r4, #15
 80016a6:	1dfb      	adds	r3, r7, #7
 80016a8:	781a      	ldrb	r2, [r3, #0]
 80016aa:	4b17      	ldr	r3, [pc, #92]	; (8001708 <I2C_BitHandling+0x78>)
 80016ac:	1c10      	adds	r0, r2, #0
 80016ae:	1c19      	adds	r1, r3, #0
 80016b0:	2201      	movs	r2, #1
 80016b2:	f7ff fef5 	bl	80014a0 <I2C_RdReg>
 80016b6:	1c03      	adds	r3, r0, #0
 80016b8:	7023      	strb	r3, [r4, #0]
	if(set)
 80016ba:	1d7b      	adds	r3, r7, #5
 80016bc:	781b      	ldrb	r3, [r3, #0]
 80016be:	2b00      	cmp	r3, #0
 80016c0:	d009      	beq.n	80016d6 <I2C_BitHandling+0x46>
	{
		//set bits
		tempReg |= bitmask;
 80016c2:	1c3b      	adds	r3, r7, #0
 80016c4:	330f      	adds	r3, #15
 80016c6:	1c39      	adds	r1, r7, #0
 80016c8:	310f      	adds	r1, #15
 80016ca:	1dba      	adds	r2, r7, #6
 80016cc:	7809      	ldrb	r1, [r1, #0]
 80016ce:	7812      	ldrb	r2, [r2, #0]
 80016d0:	430a      	orrs	r2, r1
 80016d2:	701a      	strb	r2, [r3, #0]
 80016d4:	e00b      	b.n	80016ee <I2C_BitHandling+0x5e>
	}
	else
	{
		//reset bits
		tempReg &= ~bitmask;
 80016d6:	1dbb      	adds	r3, r7, #6
 80016d8:	781b      	ldrb	r3, [r3, #0]
 80016da:	43db      	mvns	r3, r3
 80016dc:	b2db      	uxtb	r3, r3
 80016de:	1c3a      	adds	r2, r7, #0
 80016e0:	320f      	adds	r2, #15
 80016e2:	7812      	ldrb	r2, [r2, #0]
 80016e4:	4013      	ands	r3, r2
 80016e6:	b2da      	uxtb	r2, r3
 80016e8:	1c3b      	adds	r3, r7, #0
 80016ea:	330f      	adds	r3, #15
 80016ec:	701a      	strb	r2, [r3, #0]
	}
	//write back the register
	I2C_WrReg(reg,tempReg);
 80016ee:	1dfb      	adds	r3, r7, #7
 80016f0:	781a      	ldrb	r2, [r3, #0]
 80016f2:	1c3b      	adds	r3, r7, #0
 80016f4:	330f      	adds	r3, #15
 80016f6:	781b      	ldrb	r3, [r3, #0]
 80016f8:	1c10      	adds	r0, r2, #0
 80016fa:	1c19      	adds	r1, r3, #0
 80016fc:	f7ff ff62 	bl	80015c4 <I2C_WrReg>
}
 8001700:	46bd      	mov	sp, r7
 8001702:	b005      	add	sp, #20
 8001704:	bd90      	pop	{r4, r7, pc}
 8001706:	46c0      	nop			; (mov r8, r8)
 8001708:	200003c4 	.word	0x200003c4

0800170c <mma8653_goStandby>:

uint8_t mma8653_goStandby()
{
 800170c:	b580      	push	{r7, lr}
 800170e:	af00      	add	r7, sp, #0
	if(!isActive)
 8001710:	4b0f      	ldr	r3, [pc, #60]	; (8001750 <mma8653_goStandby+0x44>)
 8001712:	781b      	ldrb	r3, [r3, #0]
 8001714:	2b00      	cmp	r3, #0
 8001716:	d101      	bne.n	800171c <mma8653_goStandby+0x10>
	{
		return 0;
 8001718:	2300      	movs	r3, #0
 800171a:	e016      	b.n	800174a <mma8653_goStandby+0x3e>
	}
	//reset the Active-bit
	I2C_BitHandling(REG_CTRL_REG_1, 1<<0, 0);
 800171c:	202a      	movs	r0, #42	; 0x2a
 800171e:	2101      	movs	r1, #1
 8001720:	2200      	movs	r2, #0
 8001722:	f7ff ffb5 	bl	8001690 <I2C_BitHandling>
	delay(100);
 8001726:	2064      	movs	r0, #100	; 0x64
 8001728:	f000 fed4 	bl	80024d4 <delay>
	//check, if the sensor is inactive
	if(I2C_RdReg(REG_SYSMOD,rxBuf,1) != 0)
 800172c:	4b09      	ldr	r3, [pc, #36]	; (8001754 <mma8653_goStandby+0x48>)
 800172e:	200b      	movs	r0, #11
 8001730:	1c19      	adds	r1, r3, #0
 8001732:	2201      	movs	r2, #1
 8001734:	f7ff feb4 	bl	80014a0 <I2C_RdReg>
 8001738:	1c03      	adds	r3, r0, #0
 800173a:	2b00      	cmp	r3, #0
 800173c:	d001      	beq.n	8001742 <mma8653_goStandby+0x36>
	{
		return 1;
 800173e:	2301      	movs	r3, #1
 8001740:	e003      	b.n	800174a <mma8653_goStandby+0x3e>
	}
	isActive = 0;
 8001742:	4b03      	ldr	r3, [pc, #12]	; (8001750 <mma8653_goStandby+0x44>)
 8001744:	2200      	movs	r2, #0
 8001746:	701a      	strb	r2, [r3, #0]
	return 0;
 8001748:	2300      	movs	r3, #0
}
 800174a:	1c18      	adds	r0, r3, #0
 800174c:	46bd      	mov	sp, r7
 800174e:	bd80      	pop	{r7, pc}
 8001750:	20000142 	.word	0x20000142
 8001754:	200003c4 	.word	0x200003c4

08001758 <mma8653_goActive>:
uint8_t mma8653_goActive()
{
 8001758:	b580      	push	{r7, lr}
 800175a:	af00      	add	r7, sp, #0

	if(isActive)
 800175c:	4b0f      	ldr	r3, [pc, #60]	; (800179c <mma8653_goActive+0x44>)
 800175e:	781b      	ldrb	r3, [r3, #0]
 8001760:	2b00      	cmp	r3, #0
 8001762:	d001      	beq.n	8001768 <mma8653_goActive+0x10>
	{
		return 0;
 8001764:	2300      	movs	r3, #0
 8001766:	e016      	b.n	8001796 <mma8653_goActive+0x3e>
	}
	//set the Active-bit
	I2C_BitHandling(REG_CTRL_REG_1, 1<<0, 1);
 8001768:	202a      	movs	r0, #42	; 0x2a
 800176a:	2101      	movs	r1, #1
 800176c:	2201      	movs	r2, #1
 800176e:	f7ff ff8f 	bl	8001690 <I2C_BitHandling>
	delay(100);
 8001772:	2064      	movs	r0, #100	; 0x64
 8001774:	f000 feae 	bl	80024d4 <delay>
	//check, if the sensor is active
	if(I2C_RdReg(REG_SYSMOD,rxBuf,1) != 1)
 8001778:	4b09      	ldr	r3, [pc, #36]	; (80017a0 <mma8653_goActive+0x48>)
 800177a:	200b      	movs	r0, #11
 800177c:	1c19      	adds	r1, r3, #0
 800177e:	2201      	movs	r2, #1
 8001780:	f7ff fe8e 	bl	80014a0 <I2C_RdReg>
 8001784:	1c03      	adds	r3, r0, #0
 8001786:	2b01      	cmp	r3, #1
 8001788:	d001      	beq.n	800178e <mma8653_goActive+0x36>
	{

		return 1;
 800178a:	2301      	movs	r3, #1
 800178c:	e003      	b.n	8001796 <mma8653_goActive+0x3e>
	}
	isActive = 1;
 800178e:	4b03      	ldr	r3, [pc, #12]	; (800179c <mma8653_goActive+0x44>)
 8001790:	2201      	movs	r2, #1
 8001792:	701a      	strb	r2, [r3, #0]
	return 0;
 8001794:	2300      	movs	r3, #0
}
 8001796:	1c18      	adds	r0, r3, #0
 8001798:	46bd      	mov	sp, r7
 800179a:	bd80      	pop	{r7, pc}
 800179c:	20000142 	.word	0x20000142
 80017a0:	200003c4 	.word	0x200003c4

080017a4 <mma8653_init>:

uint8_t mma8653_init()
{
 80017a4:	b580      	push	{r7, lr}
 80017a6:	b08a      	sub	sp, #40	; 0x28
 80017a8:	af00      	add	r7, sp, #0

	//enable clock for periphery modules
	RCC_AHBPeriphClockCmd(RCC_AHBPeriph_GPIOA, ENABLE);
 80017aa:	2380      	movs	r3, #128	; 0x80
 80017ac:	029b      	lsls	r3, r3, #10
 80017ae:	1c18      	adds	r0, r3, #0
 80017b0:	2101      	movs	r1, #1
 80017b2:	f004 fbd9 	bl	8005f68 <RCC_AHBPeriphClockCmd>
	RCC_AHBPeriphClockCmd(RCC_AHBPeriph_GPIOF, ENABLE);
 80017b6:	2380      	movs	r3, #128	; 0x80
 80017b8:	03db      	lsls	r3, r3, #15
 80017ba:	1c18      	adds	r0, r3, #0
 80017bc:	2101      	movs	r1, #1
 80017be:	f004 fbd3 	bl	8005f68 <RCC_AHBPeriphClockCmd>
	RCC_APB1PeriphClockCmd(RCC_APB1Periph_I2C1, ENABLE);
 80017c2:	2380      	movs	r3, #128	; 0x80
 80017c4:	039b      	lsls	r3, r3, #14
 80017c6:	1c18      	adds	r0, r3, #0
 80017c8:	2101      	movs	r1, #1
 80017ca:	f004 fc09 	bl	8005fe0 <RCC_APB1PeriphClockCmd>

	//gpio init
	GPIO_InitTypeDef GPIO_InitStruct;
	//configure PINs PF0 and PF1 as AF OD out
	GPIO_InitStruct.GPIO_Pin = GPIO_Pin_0 | GPIO_Pin_1;
 80017ce:	1c3b      	adds	r3, r7, #0
 80017d0:	3320      	adds	r3, #32
 80017d2:	2203      	movs	r2, #3
 80017d4:	601a      	str	r2, [r3, #0]
	GPIO_InitStruct.GPIO_Mode = GPIO_Mode_AF;
 80017d6:	1c3b      	adds	r3, r7, #0
 80017d8:	3320      	adds	r3, #32
 80017da:	2202      	movs	r2, #2
 80017dc:	711a      	strb	r2, [r3, #4]
	GPIO_InitStruct.GPIO_OType = GPIO_OType_OD;
 80017de:	1c3b      	adds	r3, r7, #0
 80017e0:	3320      	adds	r3, #32
 80017e2:	2201      	movs	r2, #1
 80017e4:	719a      	strb	r2, [r3, #6]
	GPIO_InitStruct.GPIO_Speed = GPIO_Speed_Level_1;
 80017e6:	1c3b      	adds	r3, r7, #0
 80017e8:	3320      	adds	r3, #32
 80017ea:	2200      	movs	r2, #0
 80017ec:	715a      	strb	r2, [r3, #5]
	GPIO_Init(GPIOF, &GPIO_InitStruct);
 80017ee:	4a3c      	ldr	r2, [pc, #240]	; (80018e0 <mma8653_init+0x13c>)
 80017f0:	1c3b      	adds	r3, r7, #0
 80017f2:	3320      	adds	r3, #32
 80017f4:	1c10      	adds	r0, r2, #0
 80017f6:	1c19      	adds	r1, r3, #0
 80017f8:	f004 fd82 	bl	8006300 <GPIO_Init>

	//remap
	GPIO_PinAFConfig(GPIOF,GPIO_PinSource0,GPIO_AF_1);
 80017fc:	4b38      	ldr	r3, [pc, #224]	; (80018e0 <mma8653_init+0x13c>)
 80017fe:	1c18      	adds	r0, r3, #0
 8001800:	2100      	movs	r1, #0
 8001802:	2201      	movs	r2, #1
 8001804:	f004 fe18 	bl	8006438 <GPIO_PinAFConfig>
	GPIO_PinAFConfig(GPIOF,GPIO_PinSource1,GPIO_AF_1);
 8001808:	4b35      	ldr	r3, [pc, #212]	; (80018e0 <mma8653_init+0x13c>)
 800180a:	1c18      	adds	r0, r3, #0
 800180c:	2101      	movs	r1, #1
 800180e:	2201      	movs	r2, #1
 8001810:	f004 fe12 	bl	8006438 <GPIO_PinAFConfig>

	//configure PINs PA2 and PA3 as inputs for the interrupt lines
	GPIO_InitStruct.GPIO_Pin = GPIO_Pin_2 | GPIO_Pin_3;
 8001814:	1c3b      	adds	r3, r7, #0
 8001816:	3320      	adds	r3, #32
 8001818:	220c      	movs	r2, #12
 800181a:	601a      	str	r2, [r3, #0]
	GPIO_InitStruct.GPIO_Mode = GPIO_Mode_IN;
 800181c:	1c3b      	adds	r3, r7, #0
 800181e:	3320      	adds	r3, #32
 8001820:	2200      	movs	r2, #0
 8001822:	711a      	strb	r2, [r3, #4]
	GPIO_InitStruct.GPIO_PuPd = GPIO_PuPd_UP;
 8001824:	1c3b      	adds	r3, r7, #0
 8001826:	3320      	adds	r3, #32
 8001828:	2201      	movs	r2, #1
 800182a:	71da      	strb	r2, [r3, #7]
	GPIO_InitStruct.GPIO_Speed = GPIO_Speed_50MHz;
 800182c:	1c3b      	adds	r3, r7, #0
 800182e:	3320      	adds	r3, #32
 8001830:	2203      	movs	r2, #3
 8001832:	715a      	strb	r2, [r3, #5]
	GPIO_Init(GPIOA, &GPIO_InitStruct);
 8001834:	2390      	movs	r3, #144	; 0x90
 8001836:	05da      	lsls	r2, r3, #23
 8001838:	1c3b      	adds	r3, r7, #0
 800183a:	3320      	adds	r3, #32
 800183c:	1c10      	adds	r0, r2, #0
 800183e:	1c19      	adds	r1, r3, #0
 8001840:	f004 fd5e 	bl	8006300 <GPIO_Init>


	//i2c init
	//I2C_DeInit(I2C1);
	I2C_InitTypeDef I2C_InitStruct;
	I2C_InitStruct.I2C_Ack = I2C_Ack_Enable;
 8001844:	1d3b      	adds	r3, r7, #4
 8001846:	2200      	movs	r2, #0
 8001848:	615a      	str	r2, [r3, #20]
	I2C_InitStruct.I2C_AnalogFilter = I2C_AnalogFilter_Enable;
 800184a:	1d3b      	adds	r3, r7, #4
 800184c:	2200      	movs	r2, #0
 800184e:	605a      	str	r2, [r3, #4]
	I2C_InitStruct.I2C_OwnAddress1 = 0xAB;
 8001850:	1d3b      	adds	r3, r7, #4
 8001852:	22ab      	movs	r2, #171	; 0xab
 8001854:	611a      	str	r2, [r3, #16]
	I2C_InitStruct.I2C_DigitalFilter = 0;
 8001856:	1d3b      	adds	r3, r7, #4
 8001858:	2200      	movs	r2, #0
 800185a:	609a      	str	r2, [r3, #8]
	I2C_InitStruct.I2C_AcknowledgedAddress = I2C_AcknowledgedAddress_7bit;
 800185c:	1d3b      	adds	r3, r7, #4
 800185e:	2200      	movs	r2, #0
 8001860:	619a      	str	r2, [r3, #24]
	I2C_InitStruct.I2C_Mode = I2C_Mode_I2C;
 8001862:	1d3b      	adds	r3, r7, #4
 8001864:	2200      	movs	r2, #0
 8001866:	60da      	str	r2, [r3, #12]
	I2C_InitStruct.I2C_Timing = 0x0010020A; //should be 400kHz for the 8Mhz HSI
 8001868:	1d3b      	adds	r3, r7, #4
 800186a:	4a1e      	ldr	r2, [pc, #120]	; (80018e4 <mma8653_init+0x140>)
 800186c:	601a      	str	r2, [r3, #0]
	I2C_Init(I2C_MMA8653,&I2C_InitStruct);
 800186e:	4a1e      	ldr	r2, [pc, #120]	; (80018e8 <mma8653_init+0x144>)
 8001870:	1d3b      	adds	r3, r7, #4
 8001872:	1c10      	adds	r0, r2, #0
 8001874:	1c19      	adds	r1, r3, #0
 8001876:	f004 fc41 	bl	80060fc <I2C_Init>

	I2C_Cmd(I2C_MMA8653, ENABLE);
 800187a:	4b1b      	ldr	r3, [pc, #108]	; (80018e8 <mma8653_init+0x144>)
 800187c:	1c18      	adds	r0, r3, #0
 800187e:	2101      	movs	r1, #1
 8001880:	f004 fca4 	bl	80061cc <I2C_Cmd>

	delay(50);
 8001884:	2032      	movs	r0, #50	; 0x32
 8001886:	f000 fe25 	bl	80024d4 <delay>

	if(I2C_RdReg(REG_WHO_AM_I,rxBuf, 1) != 0x5A)	//read the device ID to verify communication
 800188a:	4b18      	ldr	r3, [pc, #96]	; (80018ec <mma8653_init+0x148>)
 800188c:	200d      	movs	r0, #13
 800188e:	1c19      	adds	r1, r3, #0
 8001890:	2201      	movs	r2, #1
 8001892:	f7ff fe05 	bl	80014a0 <I2C_RdReg>
 8001896:	1c03      	adds	r3, r0, #0
 8001898:	2b5a      	cmp	r3, #90	; 0x5a
 800189a:	d001      	beq.n	80018a0 <mma8653_init+0xfc>
	{
		return 1;
 800189c:	2301      	movs	r3, #1
 800189e:	e01b      	b.n	80018d8 <mma8653_init+0x134>
	}

	//set to highres mode
	I2C_BitHandling(REG_CTRL_REG_2,1<<1,SET);
 80018a0:	202b      	movs	r0, #43	; 0x2b
 80018a2:	2102      	movs	r1, #2
 80018a4:	2201      	movs	r2, #1
 80018a6:	f7ff fef3 	bl	8001690 <I2C_BitHandling>

	//set the sensor as always active (disable auto sleep) <- default
	//set to active and 10 bit mode, DataRate to 12.5Hz
	I2C_BitHandling(REG_CTRL_REG_1,(1<<0 | 1<<3 | 1<<5),SET);
 80018aa:	202a      	movs	r0, #42	; 0x2a
 80018ac:	2129      	movs	r1, #41	; 0x29
 80018ae:	2201      	movs	r2, #1
 80018b0:	f7ff feee 	bl	8001690 <I2C_BitHandling>

	//check, if the sensor is active
	if(I2C_RdReg(REG_SYSMOD,rxBuf,1) != 1)
 80018b4:	4b0d      	ldr	r3, [pc, #52]	; (80018ec <mma8653_init+0x148>)
 80018b6:	200b      	movs	r0, #11
 80018b8:	1c19      	adds	r1, r3, #0
 80018ba:	2201      	movs	r2, #1
 80018bc:	f7ff fdf0 	bl	80014a0 <I2C_RdReg>
 80018c0:	1c03      	adds	r3, r0, #0
 80018c2:	2b01      	cmp	r3, #1
 80018c4:	d004      	beq.n	80018d0 <mma8653_init+0x12c>
	{
		isActive = 0;
 80018c6:	4b0a      	ldr	r3, [pc, #40]	; (80018f0 <mma8653_init+0x14c>)
 80018c8:	2200      	movs	r2, #0
 80018ca:	701a      	strb	r2, [r3, #0]
		return 2;
 80018cc:	2302      	movs	r3, #2
 80018ce:	e003      	b.n	80018d8 <mma8653_init+0x134>
	}
	isActive = 1;
 80018d0:	4b07      	ldr	r3, [pc, #28]	; (80018f0 <mma8653_init+0x14c>)
 80018d2:	2201      	movs	r2, #1
 80018d4:	701a      	strb	r2, [r3, #0]
	return 0;
 80018d6:	2300      	movs	r3, #0
}
 80018d8:	1c18      	adds	r0, r3, #0
 80018da:	46bd      	mov	sp, r7
 80018dc:	b00a      	add	sp, #40	; 0x28
 80018de:	bd80      	pop	{r7, pc}
 80018e0:	48001400 	.word	0x48001400
 80018e4:	0010020a 	.word	0x0010020a
 80018e8:	40005400 	.word	0x40005400
 80018ec:	200003c4 	.word	0x200003c4
 80018f0:	20000142 	.word	0x20000142

080018f4 <mma8653_setRange>:

uint8_t mma8653_setRange(mma8653_Ranges range)
{
 80018f4:	b580      	push	{r7, lr}
 80018f6:	b082      	sub	sp, #8
 80018f8:	af00      	add	r7, sp, #0
 80018fa:	1c02      	adds	r2, r0, #0
 80018fc:	1dfb      	adds	r3, r7, #7
 80018fe:	701a      	strb	r2, [r3, #0]
	//deactivate the sensor
	if(mma8653_goStandby())
 8001900:	f7ff ff04 	bl	800170c <mma8653_goStandby>
 8001904:	1c03      	adds	r3, r0, #0
 8001906:	2b00      	cmp	r3, #0
 8001908:	d001      	beq.n	800190e <mma8653_setRange+0x1a>
	{
		return 1;
 800190a:	2301      	movs	r3, #1
 800190c:	e013      	b.n	8001936 <mma8653_setRange+0x42>
	}
	//clear bits in register to change
	I2C_BitHandling(REG_XYZ_DATA_CFG, 0x03, Bit_RESET);
 800190e:	200e      	movs	r0, #14
 8001910:	2103      	movs	r1, #3
 8001912:	2200      	movs	r2, #0
 8001914:	f7ff febc 	bl	8001690 <I2C_BitHandling>
	//set range
	I2C_BitHandling(REG_XYZ_DATA_CFG, range, Bit_SET);
 8001918:	1dfb      	adds	r3, r7, #7
 800191a:	781b      	ldrb	r3, [r3, #0]
 800191c:	200e      	movs	r0, #14
 800191e:	1c19      	adds	r1, r3, #0
 8001920:	2201      	movs	r2, #1
 8001922:	f7ff feb5 	bl	8001690 <I2C_BitHandling>

	if(mma8653_goActive())
 8001926:	f7ff ff17 	bl	8001758 <mma8653_goActive>
 800192a:	1c03      	adds	r3, r0, #0
 800192c:	2b00      	cmp	r3, #0
 800192e:	d001      	beq.n	8001934 <mma8653_setRange+0x40>
	{
		return 3;
 8001930:	2303      	movs	r3, #3
 8001932:	e000      	b.n	8001936 <mma8653_setRange+0x42>
	}
	return 0;
 8001934:	2300      	movs	r3, #0
}
 8001936:	1c18      	adds	r0, r3, #0
 8001938:	46bd      	mov	sp, r7
 800193a:	b002      	add	sp, #8
 800193c:	bd80      	pop	{r7, pc}
 800193e:	46c0      	nop			; (mov r8, r8)

08001940 <mma8653_setDataRate>:

uint8_t mma8653_setDataRate(mma8653_dataRates dataRate)
{
 8001940:	b580      	push	{r7, lr}
 8001942:	b082      	sub	sp, #8
 8001944:	af00      	add	r7, sp, #0
 8001946:	1c02      	adds	r2, r0, #0
 8001948:	1dfb      	adds	r3, r7, #7
 800194a:	701a      	strb	r2, [r3, #0]
	//deactivate the sensor
	if(mma8653_goStandby())
 800194c:	f7ff fede 	bl	800170c <mma8653_goStandby>
 8001950:	1c03      	adds	r3, r0, #0
 8001952:	2b00      	cmp	r3, #0
 8001954:	d001      	beq.n	800195a <mma8653_setDataRate+0x1a>
	{
		return 1;
 8001956:	2301      	movs	r3, #1
 8001958:	e015      	b.n	8001986 <mma8653_setDataRate+0x46>
	}
	//clear bits in register to change
	I2C_BitHandling(REG_CTRL_REG_1, 0x38, Bit_RESET);
 800195a:	202a      	movs	r0, #42	; 0x2a
 800195c:	2138      	movs	r1, #56	; 0x38
 800195e:	2200      	movs	r2, #0
 8001960:	f7ff fe96 	bl	8001690 <I2C_BitHandling>
	//set range
	I2C_BitHandling(REG_CTRL_REG_1, dataRate<<3, Bit_SET);
 8001964:	1dfb      	adds	r3, r7, #7
 8001966:	781b      	ldrb	r3, [r3, #0]
 8001968:	00db      	lsls	r3, r3, #3
 800196a:	b2db      	uxtb	r3, r3
 800196c:	202a      	movs	r0, #42	; 0x2a
 800196e:	1c19      	adds	r1, r3, #0
 8001970:	2201      	movs	r2, #1
 8001972:	f7ff fe8d 	bl	8001690 <I2C_BitHandling>

	if(mma8653_goActive())
 8001976:	f7ff feef 	bl	8001758 <mma8653_goActive>
 800197a:	1c03      	adds	r3, r0, #0
 800197c:	2b00      	cmp	r3, #0
 800197e:	d001      	beq.n	8001984 <mma8653_setDataRate+0x44>
	{
		return 3;
 8001980:	2303      	movs	r3, #3
 8001982:	e000      	b.n	8001986 <mma8653_setDataRate+0x46>
	}
	return 0;
 8001984:	2300      	movs	r3, #0
}
 8001986:	1c18      	adds	r0, r3, #0
 8001988:	46bd      	mov	sp, r7
 800198a:	b002      	add	sp, #8
 800198c:	bd80      	pop	{r7, pc}
 800198e:	46c0      	nop			; (mov r8, r8)

08001990 <mma8653_setDataWidth>:

uint8_t mma8653_setDataWidth(uint8_t DataWidth)
{
 8001990:	b580      	push	{r7, lr}
 8001992:	b082      	sub	sp, #8
 8001994:	af00      	add	r7, sp, #0
 8001996:	1c02      	adds	r2, r0, #0
 8001998:	1dfb      	adds	r3, r7, #7
 800199a:	701a      	strb	r2, [r3, #0]
	//deactivate the sensor
	if(mma8653_goStandby())
 800199c:	f7ff feb6 	bl	800170c <mma8653_goStandby>
 80019a0:	1c03      	adds	r3, r0, #0
 80019a2:	2b00      	cmp	r3, #0
 80019a4:	d001      	beq.n	80019aa <mma8653_setDataWidth+0x1a>
	{
		return 1;
 80019a6:	2301      	movs	r3, #1
 80019a8:	e021      	b.n	80019ee <mma8653_setDataWidth+0x5e>
	}
	//clear bits in register to change
	I2C_BitHandling(REG_CTRL_REG_1, 0x3E, Bit_RESET);
 80019aa:	202a      	movs	r0, #42	; 0x2a
 80019ac:	213e      	movs	r1, #62	; 0x3e
 80019ae:	2200      	movs	r2, #0
 80019b0:	f7ff fe6e 	bl	8001690 <I2C_BitHandling>

	//decide what to do
	switch(DataWidth)
 80019b4:	1dfb      	adds	r3, r7, #7
 80019b6:	781b      	ldrb	r3, [r3, #0]
 80019b8:	2b00      	cmp	r3, #0
 80019ba:	d002      	beq.n	80019c2 <mma8653_setDataWidth+0x32>
 80019bc:	2b01      	cmp	r3, #1
 80019be:	d006      	beq.n	80019ce <mma8653_setDataWidth+0x3e>
 80019c0:	e00b      	b.n	80019da <mma8653_setDataWidth+0x4a>
	{
	case MMA8653_DATAWIDTH_8:
		//set F_READ and leave highest data rate
		I2C_BitHandling(REG_CTRL_REG_1, 1<<1, Bit_SET);
 80019c2:	202a      	movs	r0, #42	; 0x2a
 80019c4:	2102      	movs	r1, #2
 80019c6:	2201      	movs	r2, #1
 80019c8:	f7ff fe62 	bl	8001690 <I2C_BitHandling>
		break;
 80019cc:	e007      	b.n	80019de <mma8653_setDataWidth+0x4e>
	case MMA8653_DATAWIDTH_10:
		//limit output data rate to 12.5Hz and leave F_READ reset
		I2C_BitHandling(REG_CTRL_REG_1,(1<<3 | 1<<5), Bit_SET);
 80019ce:	202a      	movs	r0, #42	; 0x2a
 80019d0:	2128      	movs	r1, #40	; 0x28
 80019d2:	2201      	movs	r2, #1
 80019d4:	f7ff fe5c 	bl	8001690 <I2C_BitHandling>
		break;
 80019d8:	e001      	b.n	80019de <mma8653_setDataWidth+0x4e>
	default:
		return 2;
 80019da:	2302      	movs	r3, #2
 80019dc:	e007      	b.n	80019ee <mma8653_setDataWidth+0x5e>
		break;
	}
	if(mma8653_goActive())
 80019de:	f7ff febb 	bl	8001758 <mma8653_goActive>
 80019e2:	1c03      	adds	r3, r0, #0
 80019e4:	2b00      	cmp	r3, #0
 80019e6:	d001      	beq.n	80019ec <mma8653_setDataWidth+0x5c>
	{
		return 3;
 80019e8:	2303      	movs	r3, #3
 80019ea:	e000      	b.n	80019ee <mma8653_setDataWidth+0x5e>
	}
	return 0;
 80019ec:	2300      	movs	r3, #0
}
 80019ee:	1c18      	adds	r0, r3, #0
 80019f0:	46bd      	mov	sp, r7
 80019f2:	b002      	add	sp, #8
 80019f4:	bd80      	pop	{r7, pc}
 80019f6:	46c0      	nop			; (mov r8, r8)

080019f8 <mma8653_read8>:

//read when in fast (8-bit) mode
//needs the fast-read mode enabled as well
//max. sample frequency (because of communication) ~ 7kHz
acc8_t mma8653_read8()
{
 80019f8:	b580      	push	{r7, lr}
 80019fa:	b084      	sub	sp, #16
 80019fc:	af00      	add	r7, sp, #0
	uint8_t rxBuf[3];
	acc8_t acc_result;

	I2C_RdReg(REG_OUT_X_MSB,rxBuf,3);
 80019fe:	1c3b      	adds	r3, r7, #0
 8001a00:	3308      	adds	r3, #8
 8001a02:	2001      	movs	r0, #1
 8001a04:	1c19      	adds	r1, r3, #0
 8001a06:	2203      	movs	r2, #3
 8001a08:	f7ff fd4a 	bl	80014a0 <I2C_RdReg>
	//rxbuf[0] contains full 8 bit of data.
	//the first bit defines the sign!
	acc_result.x = rxBuf[0];
 8001a0c:	1c3b      	adds	r3, r7, #0
 8001a0e:	3308      	adds	r3, #8
 8001a10:	781b      	ldrb	r3, [r3, #0]
 8001a12:	b2da      	uxtb	r2, r3
 8001a14:	1d3b      	adds	r3, r7, #4
 8001a16:	701a      	strb	r2, [r3, #0]
	acc_result.y = rxBuf[1];
 8001a18:	1c3b      	adds	r3, r7, #0
 8001a1a:	3308      	adds	r3, #8
 8001a1c:	785b      	ldrb	r3, [r3, #1]
 8001a1e:	b2da      	uxtb	r2, r3
 8001a20:	1d3b      	adds	r3, r7, #4
 8001a22:	705a      	strb	r2, [r3, #1]
	acc_result.z = rxBuf[2];
 8001a24:	1c3b      	adds	r3, r7, #0
 8001a26:	3308      	adds	r3, #8
 8001a28:	789b      	ldrb	r3, [r3, #2]
 8001a2a:	b2da      	uxtb	r2, r3
 8001a2c:	1d3b      	adds	r3, r7, #4
 8001a2e:	709a      	strb	r2, [r3, #2]
	return acc_result;
 8001a30:	1c3b      	adds	r3, r7, #0
 8001a32:	330c      	adds	r3, #12
 8001a34:	1d3a      	adds	r2, r7, #4
 8001a36:	8811      	ldrh	r1, [r2, #0]
 8001a38:	8019      	strh	r1, [r3, #0]
 8001a3a:	7892      	ldrb	r2, [r2, #2]
 8001a3c:	709a      	strb	r2, [r3, #2]
 8001a3e:	1c3a      	adds	r2, r7, #0
 8001a40:	320c      	adds	r2, #12
 8001a42:	2300      	movs	r3, #0
 8001a44:	7810      	ldrb	r0, [r2, #0]
 8001a46:	21ff      	movs	r1, #255	; 0xff
 8001a48:	4001      	ands	r1, r0
 8001a4a:	20ff      	movs	r0, #255	; 0xff
 8001a4c:	4383      	bics	r3, r0
 8001a4e:	430b      	orrs	r3, r1
 8001a50:	7850      	ldrb	r0, [r2, #1]
 8001a52:	21ff      	movs	r1, #255	; 0xff
 8001a54:	4001      	ands	r1, r0
 8001a56:	0209      	lsls	r1, r1, #8
 8001a58:	4806      	ldr	r0, [pc, #24]	; (8001a74 <mma8653_read8+0x7c>)
 8001a5a:	4003      	ands	r3, r0
 8001a5c:	430b      	orrs	r3, r1
 8001a5e:	7891      	ldrb	r1, [r2, #2]
 8001a60:	22ff      	movs	r2, #255	; 0xff
 8001a62:	400a      	ands	r2, r1
 8001a64:	0412      	lsls	r2, r2, #16
 8001a66:	4904      	ldr	r1, [pc, #16]	; (8001a78 <mma8653_read8+0x80>)
 8001a68:	400b      	ands	r3, r1
 8001a6a:	4313      	orrs	r3, r2
}
 8001a6c:	1c18      	adds	r0, r3, #0
 8001a6e:	46bd      	mov	sp, r7
 8001a70:	b004      	add	sp, #16
 8001a72:	bd80      	pop	{r7, pc}
 8001a74:	ffff00ff 	.word	0xffff00ff
 8001a78:	ff00ffff 	.word	0xff00ffff

08001a7c <mma8653_initIrq>:
	return acc_result;
}

//TODO: don't forget to implement and register the interrupt handler in startup code
void mma8653_initIrq()
{
 8001a7c:	b580      	push	{r7, lr}
 8001a7e:	b084      	sub	sp, #16
 8001a80:	af00      	add	r7, sp, #0
	mma8653_goStandby();
 8001a82:	f7ff fe43 	bl	800170c <mma8653_goStandby>

	//interrupt pins are defined for push/pull low active by default -> leave that

	//enable the wanted interrupt source
	I2C_BitHandling(REG_CTRL_REG_4,1<<0,Bit_SET);
 8001a86:	202d      	movs	r0, #45	; 0x2d
 8001a88:	2101      	movs	r1, #1
 8001a8a:	2201      	movs	r2, #1
 8001a8c:	f7ff fe00 	bl	8001690 <I2C_BitHandling>
	//and route it to the corresponding pin
	I2C_BitHandling(REG_CTRL_REG_5,1<<0,Bit_SET);
 8001a90:	202e      	movs	r0, #46	; 0x2e
 8001a92:	2101      	movs	r1, #1
 8001a94:	2201      	movs	r2, #1
 8001a96:	f7ff fdfb 	bl	8001690 <I2C_BitHandling>

	//set up the Interrupt in the STM32!
	//INT1 is connected to PA2 -> EXTI2 line
	//enable the clock for the syscfg module
	RCC_APB2PeriphClockCmd(RCC_APB2Periph_SYSCFG, ENABLE);
 8001a9a:	2001      	movs	r0, #1
 8001a9c:	2101      	movs	r1, #1
 8001a9e:	f004 fa81 	bl	8005fa4 <RCC_APB2PeriphClockCmd>
	//enable PA2 interrupt source
	SYSCFG_EXTILineConfig(EXTI_PortSourceGPIOA, EXTI_PinSource2);
 8001aa2:	2000      	movs	r0, #0
 8001aa4:	2102      	movs	r1, #2
 8001aa6:	f004 f93b 	bl	8005d20 <SYSCFG_EXTILineConfig>
	//configure and enable the exti2 line
	EXTI_InitTypeDef EXTI_InitStruct;
	EXTI_InitStruct.EXTI_Line = EXTI_Line2;
 8001aaa:	1c3b      	adds	r3, r7, #0
 8001aac:	3308      	adds	r3, #8
 8001aae:	2204      	movs	r2, #4
 8001ab0:	601a      	str	r2, [r3, #0]
	EXTI_InitStruct.EXTI_Mode = EXTI_Mode_Interrupt;
 8001ab2:	1c3b      	adds	r3, r7, #0
 8001ab4:	3308      	adds	r3, #8
 8001ab6:	2200      	movs	r2, #0
 8001ab8:	711a      	strb	r2, [r3, #4]
	EXTI_InitStruct.EXTI_Trigger = EXTI_Trigger_Falling;
 8001aba:	1c3b      	adds	r3, r7, #0
 8001abc:	3308      	adds	r3, #8
 8001abe:	220c      	movs	r2, #12
 8001ac0:	715a      	strb	r2, [r3, #5]
	EXTI_InitStruct.EXTI_LineCmd = ENABLE;
 8001ac2:	1c3b      	adds	r3, r7, #0
 8001ac4:	3308      	adds	r3, #8
 8001ac6:	2201      	movs	r2, #1
 8001ac8:	719a      	strb	r2, [r3, #6]
	EXTI_Init(&EXTI_InitStruct);
 8001aca:	1c3b      	adds	r3, r7, #0
 8001acc:	3308      	adds	r3, #8
 8001ace:	1c18      	adds	r0, r3, #0
 8001ad0:	f004 fdea 	bl	80066a8 <EXTI_Init>
	//enable and set exti2 interrupt
	NVIC_InitTypeDef NVIC_InitStruct;
	NVIC_InitStruct.NVIC_IRQChannel = EXTI2_3_IRQn;
 8001ad4:	1d3b      	adds	r3, r7, #4
 8001ad6:	2206      	movs	r2, #6
 8001ad8:	701a      	strb	r2, [r3, #0]
	NVIC_InitStruct.NVIC_IRQChannelCmd = ENABLE;
 8001ada:	1d3b      	adds	r3, r7, #4
 8001adc:	2201      	movs	r2, #1
 8001ade:	709a      	strb	r2, [r3, #2]
	NVIC_Init(&NVIC_InitStruct);
 8001ae0:	1d3b      	adds	r3, r7, #4
 8001ae2:	1c18      	adds	r0, r3, #0
 8001ae4:	f004 fa9a 	bl	800601c <NVIC_Init>

	//activate sensor again
	mma8653_goActive();
 8001ae8:	f7ff fe36 	bl	8001758 <mma8653_goActive>
}
 8001aec:	46bd      	mov	sp, r7
 8001aee:	b004      	add	sp, #16
 8001af0:	bd80      	pop	{r7, pc}
 8001af2:	46c0      	nop			; (mov r8, r8)

08001af4 <NVIC_EnableIRQ>:
    The function enables a device-specific interrupt in the NVIC interrupt controller.

    \param [in]      IRQn  External interrupt number. Value cannot be negative.
 */
__STATIC_INLINE void NVIC_EnableIRQ(IRQn_Type IRQn)
{
 8001af4:	b580      	push	{r7, lr}
 8001af6:	b082      	sub	sp, #8
 8001af8:	af00      	add	r7, sp, #0
 8001afa:	1c02      	adds	r2, r0, #0
 8001afc:	1dfb      	adds	r3, r7, #7
 8001afe:	701a      	strb	r2, [r3, #0]
  NVIC->ISER[0] = (1 << ((uint32_t)(IRQn) & 0x1F));
 8001b00:	4b06      	ldr	r3, [pc, #24]	; (8001b1c <NVIC_EnableIRQ+0x28>)
 8001b02:	1dfa      	adds	r2, r7, #7
 8001b04:	7812      	ldrb	r2, [r2, #0]
 8001b06:	1c11      	adds	r1, r2, #0
 8001b08:	221f      	movs	r2, #31
 8001b0a:	400a      	ands	r2, r1
 8001b0c:	2101      	movs	r1, #1
 8001b0e:	1c08      	adds	r0, r1, #0
 8001b10:	4090      	lsls	r0, r2
 8001b12:	1c02      	adds	r2, r0, #0
 8001b14:	601a      	str	r2, [r3, #0]
}
 8001b16:	46bd      	mov	sp, r7
 8001b18:	b002      	add	sp, #8
 8001b1a:	bd80      	pop	{r7, pc}
 8001b1c:	e000e100 	.word	0xe000e100

08001b20 <displayInit>:
 */



void displayInit()
{
 8001b20:	b580      	push	{r7, lr}
 8001b22:	af00      	add	r7, sp, #0
	//set up mma8653 with +-4g-Range, low res and high sampling rate
	//set up interrupt-driven sensor readout
	mma8653_setRange(RANGE_8G);
 8001b24:	2002      	movs	r0, #2
 8001b26:	f7ff fee5 	bl	80018f4 <mma8653_setRange>
	mma8653_setDataWidth(MMA8653_DATAWIDTH_8);
 8001b2a:	2000      	movs	r0, #0
 8001b2c:	f7ff ff30 	bl	8001990 <mma8653_setDataWidth>
	mma8653_setDataRate(RATE_200Hz);
 8001b30:	2002      	movs	r0, #2
 8001b32:	f7ff ff05 	bl	8001940 <mma8653_setDataRate>
	mma8653_initIrq();
 8001b36:	f7ff ffa1 	bl	8001a7c <mma8653_initIrq>

	apa102_allOff();
 8001b3a:	f000 fbe3 	bl	8002304 <apa102_allOff>

	RowsLogic = RowsVisible+2*RowsOverscan;
 8001b3e:	4b33      	ldr	r3, [pc, #204]	; (8001c0c <displayInit+0xec>)
 8001b40:	781b      	ldrb	r3, [r3, #0]
 8001b42:	b2db      	uxtb	r3, r3
 8001b44:	18db      	adds	r3, r3, r3
 8001b46:	b2da      	uxtb	r2, r3
 8001b48:	4b31      	ldr	r3, [pc, #196]	; (8001c10 <displayInit+0xf0>)
 8001b4a:	781b      	ldrb	r3, [r3, #0]
 8001b4c:	b2db      	uxtb	r3, r3
 8001b4e:	18d3      	adds	r3, r2, r3
 8001b50:	b2da      	uxtb	r2, r3
 8001b52:	4b30      	ldr	r3, [pc, #192]	; (8001c14 <displayInit+0xf4>)
 8001b54:	701a      	strb	r2, [r3, #0]

	//set up timer TIM2 for measuring t_frame
	//upcounting,12MHz-> prescaler = 4,
	RCC_APB1PeriphClockCmd(RCC_APB1Periph_TIM2,ENABLE);
 8001b56:	2001      	movs	r0, #1
 8001b58:	2101      	movs	r1, #1
 8001b5a:	f004 fa41 	bl	8005fe0 <RCC_APB1PeriphClockCmd>
	TIM2->CR1 = 0;
 8001b5e:	2380      	movs	r3, #128	; 0x80
 8001b60:	05db      	lsls	r3, r3, #23
 8001b62:	2200      	movs	r2, #0
 8001b64:	801a      	strh	r2, [r3, #0]
	TIM2->PSC = 48;
 8001b66:	2380      	movs	r3, #128	; 0x80
 8001b68:	05db      	lsls	r3, r3, #23
 8001b6a:	2230      	movs	r2, #48	; 0x30
 8001b6c:	851a      	strh	r2, [r3, #40]	; 0x28
	//reset the counter:
	TIM2->EGR |= TIM_EGR_UG;
 8001b6e:	2380      	movs	r3, #128	; 0x80
 8001b70:	05db      	lsls	r3, r3, #23
 8001b72:	2280      	movs	r2, #128	; 0x80
 8001b74:	05d2      	lsls	r2, r2, #23
 8001b76:	8a92      	ldrh	r2, [r2, #20]
 8001b78:	b292      	uxth	r2, r2
 8001b7a:	2101      	movs	r1, #1
 8001b7c:	430a      	orrs	r2, r1
 8001b7e:	b292      	uxth	r2, r2
 8001b80:	829a      	strh	r2, [r3, #20]
	TIM2->CR1 |= TIM_CR1_CEN;
 8001b82:	2380      	movs	r3, #128	; 0x80
 8001b84:	05db      	lsls	r3, r3, #23
 8001b86:	2280      	movs	r2, #128	; 0x80
 8001b88:	05d2      	lsls	r2, r2, #23
 8001b8a:	8812      	ldrh	r2, [r2, #0]
 8001b8c:	b292      	uxth	r2, r2
 8001b8e:	2101      	movs	r1, #1
 8001b90:	430a      	orrs	r2, r1
 8001b92:	b292      	uxth	r2, r2
 8001b94:	801a      	strh	r2, [r3, #0]


	//setup TIM2 Compare Channel 1 for setting the length of the LockTime!
	//the data-ready interrupt from the sensor is ignored during that time
	//set to 30 ms (a faster swipe doesn't seem to be possible by hand)
	TIM2->DIER |= TIM_DIER_CC1IE;
 8001b96:	2380      	movs	r3, #128	; 0x80
 8001b98:	05db      	lsls	r3, r3, #23
 8001b9a:	2280      	movs	r2, #128	; 0x80
 8001b9c:	05d2      	lsls	r2, r2, #23
 8001b9e:	8992      	ldrh	r2, [r2, #12]
 8001ba0:	b292      	uxth	r2, r2
 8001ba2:	2102      	movs	r1, #2
 8001ba4:	430a      	orrs	r2, r1
 8001ba6:	b292      	uxth	r2, r2
 8001ba8:	819a      	strh	r2, [r3, #12]
	TIM2->CCR1 = 30000;
 8001baa:	2380      	movs	r3, #128	; 0x80
 8001bac:	05db      	lsls	r3, r3, #23
 8001bae:	4a1a      	ldr	r2, [pc, #104]	; (8001c18 <displayInit+0xf8>)
 8001bb0:	635a      	str	r2, [r3, #52]	; 0x34
	TIM2->CCER |= TIM_CCER_CC1E;
 8001bb2:	2380      	movs	r3, #128	; 0x80
 8001bb4:	05db      	lsls	r3, r3, #23
 8001bb6:	2280      	movs	r2, #128	; 0x80
 8001bb8:	05d2      	lsls	r2, r2, #23
 8001bba:	8c12      	ldrh	r2, [r2, #32]
 8001bbc:	b292      	uxth	r2, r2
 8001bbe:	2101      	movs	r1, #1
 8001bc0:	430a      	orrs	r2, r1
 8001bc2:	b292      	uxth	r2, r2
 8001bc4:	841a      	strh	r2, [r3, #32]
	NVIC_EnableIRQ(TIM2_IRQn);
 8001bc6:	200f      	movs	r0, #15
 8001bc8:	f7ff ff94 	bl	8001af4 <NVIC_EnableIRQ>

	//set up timer TIM3 for triggering the lines with t_line (= t_frame/LINECOUNT)
	//upcounting 12Mhz, autoreload @ t_frame/LINECOUNT, interrupt @ overflow
	RCC_APB1PeriphClockCmd(RCC_APB1Periph_TIM3,ENABLE);
 8001bcc:	2002      	movs	r0, #2
 8001bce:	2101      	movs	r1, #1
 8001bd0:	f004 fa06 	bl	8005fe0 <RCC_APB1PeriphClockCmd>
	TIM3->CR1 = 0;
 8001bd4:	4b11      	ldr	r3, [pc, #68]	; (8001c1c <displayInit+0xfc>)
 8001bd6:	2200      	movs	r2, #0
 8001bd8:	801a      	strh	r2, [r3, #0]
	TIM3->PSC = 48;
 8001bda:	4b10      	ldr	r3, [pc, #64]	; (8001c1c <displayInit+0xfc>)
 8001bdc:	2230      	movs	r2, #48	; 0x30
 8001bde:	851a      	strh	r2, [r3, #40]	; 0x28
	TIM3->DIER |= TIM_DIER_UIE;
 8001be0:	4b0e      	ldr	r3, [pc, #56]	; (8001c1c <displayInit+0xfc>)
 8001be2:	4a0e      	ldr	r2, [pc, #56]	; (8001c1c <displayInit+0xfc>)
 8001be4:	8992      	ldrh	r2, [r2, #12]
 8001be6:	b292      	uxth	r2, r2
 8001be8:	2101      	movs	r1, #1
 8001bea:	430a      	orrs	r2, r1
 8001bec:	b292      	uxth	r2, r2
 8001bee:	819a      	strh	r2, [r3, #12]
	//clear interrupt flag
	TIM3->SR &= ~TIM_SR_UIF;
 8001bf0:	4b0a      	ldr	r3, [pc, #40]	; (8001c1c <displayInit+0xfc>)
 8001bf2:	4a0a      	ldr	r2, [pc, #40]	; (8001c1c <displayInit+0xfc>)
 8001bf4:	8a12      	ldrh	r2, [r2, #16]
 8001bf6:	b292      	uxth	r2, r2
 8001bf8:	2101      	movs	r1, #1
 8001bfa:	438a      	bics	r2, r1
 8001bfc:	b292      	uxth	r2, r2
 8001bfe:	821a      	strh	r2, [r3, #16]
	//enable the IRQ
	NVIC_EnableIRQ(TIM3_IRQn);
 8001c00:	2010      	movs	r0, #16
 8001c02:	f7ff ff77 	bl	8001af4 <NVIC_EnableIRQ>
	//don't activate this timer now, because an overflow would produce a line on the display!
}
 8001c06:	46bd      	mov	sp, r7
 8001c08:	bd80      	pop	{r7, pc}
 8001c0a:	46c0      	nop			; (mov r8, r8)
 8001c0c:	20000188 	.word	0x20000188
 8001c10:	200001cc 	.word	0x200001cc
 8001c14:	200001cd 	.word	0x200001cd
 8001c18:	00007530 	.word	0x00007530
 8001c1c:	40000400 	.word	0x40000400

08001c20 <displaySendLine>:

//called 2 times for every row
//first call should switch on the LEDs according to rowData, 2nd should switch them off to insert a blank row
//without this blank row, the rows are squeezed together too much
void displaySendLine()
{
 8001c20:	b580      	push	{r7, lr}
 8001c22:	af00      	add	r7, sp, #0
	//clear interrupt flag
	TIM3->SR &= ~TIM_SR_UIF;
 8001c24:	4b2b      	ldr	r3, [pc, #172]	; (8001cd4 <displaySendLine+0xb4>)
 8001c26:	4a2b      	ldr	r2, [pc, #172]	; (8001cd4 <displaySendLine+0xb4>)
 8001c28:	8a12      	ldrh	r2, [r2, #16]
 8001c2a:	b292      	uxth	r2, r2
 8001c2c:	2101      	movs	r1, #1
 8001c2e:	438a      	bics	r2, r1
 8001c30:	b292      	uxth	r2, r2
 8001c32:	821a      	strh	r2, [r3, #16]

	//left side is the row, right side the gap
	if(DisplayPosition == DISP_POS_ROW_START)
 8001c34:	4b28      	ldr	r3, [pc, #160]	; (8001cd8 <displaySendLine+0xb8>)
 8001c36:	781b      	ldrb	r3, [r3, #0]
 8001c38:	b2db      	uxtb	r3, r3
 8001c3a:	2b00      	cmp	r3, #0
 8001c3c:	d128      	bne.n	8001c90 <displaySendLine+0x70>
	{
		//if row is in the visible area
		if(RowNumber >= RowsOverscan && RowNumber < RowsOverscan+RowsVisible)
 8001c3e:	4b27      	ldr	r3, [pc, #156]	; (8001cdc <displaySendLine+0xbc>)
 8001c40:	781b      	ldrb	r3, [r3, #0]
 8001c42:	b2da      	uxtb	r2, r3
 8001c44:	4b26      	ldr	r3, [pc, #152]	; (8001ce0 <displaySendLine+0xc0>)
 8001c46:	781b      	ldrb	r3, [r3, #0]
 8001c48:	b2db      	uxtb	r3, r3
 8001c4a:	429a      	cmp	r2, r3
 8001c4c:	d31a      	bcc.n	8001c84 <displaySendLine+0x64>
 8001c4e:	4b23      	ldr	r3, [pc, #140]	; (8001cdc <displaySendLine+0xbc>)
 8001c50:	781b      	ldrb	r3, [r3, #0]
 8001c52:	b2db      	uxtb	r3, r3
 8001c54:	1c1a      	adds	r2, r3, #0
 8001c56:	4b22      	ldr	r3, [pc, #136]	; (8001ce0 <displaySendLine+0xc0>)
 8001c58:	781b      	ldrb	r3, [r3, #0]
 8001c5a:	b2db      	uxtb	r3, r3
 8001c5c:	1c19      	adds	r1, r3, #0
 8001c5e:	4b21      	ldr	r3, [pc, #132]	; (8001ce4 <displaySendLine+0xc4>)
 8001c60:	781b      	ldrb	r3, [r3, #0]
 8001c62:	b2db      	uxtb	r3, r3
 8001c64:	18cb      	adds	r3, r1, r3
 8001c66:	429a      	cmp	r2, r3
 8001c68:	da0c      	bge.n	8001c84 <displaySendLine+0x64>
		{
			apa102_setPattern(DispRowMasks[RowNumber],31);
 8001c6a:	4b1c      	ldr	r3, [pc, #112]	; (8001cdc <displaySendLine+0xbc>)
 8001c6c:	781b      	ldrb	r3, [r3, #0]
 8001c6e:	b2db      	uxtb	r3, r3
 8001c70:	1c1a      	adds	r2, r3, #0
 8001c72:	4b1d      	ldr	r3, [pc, #116]	; (8001ce8 <displaySendLine+0xc8>)
 8001c74:	0052      	lsls	r2, r2, #1
 8001c76:	5ad3      	ldrh	r3, [r2, r3]
 8001c78:	b29b      	uxth	r3, r3
 8001c7a:	1c18      	adds	r0, r3, #0
 8001c7c:	211f      	movs	r1, #31
 8001c7e:	f000 fac7 	bl	8002210 <apa102_setPattern>
 8001c82:	e001      	b.n	8001c88 <displaySendLine+0x68>
		}
		else
		{
			//switch off the display
			apa102_allOff();
 8001c84:	f000 fb3e 	bl	8002304 <apa102_allOff>
		}
		DisplayPosition = DISP_POS_GAP_START;
 8001c88:	4b13      	ldr	r3, [pc, #76]	; (8001cd8 <displaySendLine+0xb8>)
 8001c8a:	2201      	movs	r2, #1
 8001c8c:	701a      	strb	r2, [r3, #0]
 8001c8e:	e01f      	b.n	8001cd0 <displaySendLine+0xb0>
	}
	else //if(DisplayPosition == DISP_POS_GAP_START)
	{
		//switch off the display
		apa102_allOff();
 8001c90:	f000 fb38 	bl	8002304 <apa102_allOff>

		//next row
		RowNumber += rowStep;
 8001c94:	4b11      	ldr	r3, [pc, #68]	; (8001cdc <displaySendLine+0xbc>)
 8001c96:	781b      	ldrb	r3, [r3, #0]
 8001c98:	b2da      	uxtb	r2, r3
 8001c9a:	4b14      	ldr	r3, [pc, #80]	; (8001cec <displaySendLine+0xcc>)
 8001c9c:	781b      	ldrb	r3, [r3, #0]
 8001c9e:	b2db      	uxtb	r3, r3
 8001ca0:	b2db      	uxtb	r3, r3
 8001ca2:	18d3      	adds	r3, r2, r3
 8001ca4:	b2da      	uxtb	r2, r3
 8001ca6:	4b0d      	ldr	r3, [pc, #52]	; (8001cdc <displaySendLine+0xbc>)
 8001ca8:	701a      	strb	r2, [r3, #0]
		DisplayPosition = DISP_POS_ROW_START;
 8001caa:	4b0b      	ldr	r3, [pc, #44]	; (8001cd8 <displaySendLine+0xb8>)
 8001cac:	2200      	movs	r2, #0
 8001cae:	701a      	strb	r2, [r3, #0]
		//prevent an overshoot if something with the timing doesn't fit
		if(RowNumber >= RowsLogic)
 8001cb0:	4b0a      	ldr	r3, [pc, #40]	; (8001cdc <displaySendLine+0xbc>)
 8001cb2:	781b      	ldrb	r3, [r3, #0]
 8001cb4:	b2da      	uxtb	r2, r3
 8001cb6:	4b0e      	ldr	r3, [pc, #56]	; (8001cf0 <displaySendLine+0xd0>)
 8001cb8:	781b      	ldrb	r3, [r3, #0]
 8001cba:	b2db      	uxtb	r3, r3
 8001cbc:	429a      	cmp	r2, r3
 8001cbe:	d307      	bcc.n	8001cd0 <displaySendLine+0xb0>
		{
			//prevent TIM3 from triggering a new row by stopping it
			TIM3->CR1 &= ~TIM_CR1_CEN;
 8001cc0:	4b04      	ldr	r3, [pc, #16]	; (8001cd4 <displaySendLine+0xb4>)
 8001cc2:	4a04      	ldr	r2, [pc, #16]	; (8001cd4 <displaySendLine+0xb4>)
 8001cc4:	8812      	ldrh	r2, [r2, #0]
 8001cc6:	b292      	uxth	r2, r2
 8001cc8:	2101      	movs	r1, #1
 8001cca:	438a      	bics	r2, r1
 8001ccc:	b292      	uxth	r2, r2
 8001cce:	801a      	strh	r2, [r3, #0]
		}

	}


}
 8001cd0:	46bd      	mov	sp, r7
 8001cd2:	bd80      	pop	{r7, pc}
 8001cd4:	40000400 	.word	0x40000400
 8001cd8:	200003c8 	.word	0x200003c8
 8001cdc:	20000144 	.word	0x20000144
 8001ce0:	20000188 	.word	0x20000188
 8001ce4:	200001cc 	.word	0x200001cc
 8001ce8:	2000018c 	.word	0x2000018c
 8001cec:	20000143 	.word	0x20000143
 8001cf0:	200001cd 	.word	0x200001cd

08001cf4 <displayEndOfLocktime>:

//triggered by TIM2 CompareMatch
void displayEndOfLocktime()
{
 8001cf4:	b580      	push	{r7, lr}
 8001cf6:	af00      	add	r7, sp, #0
	//clear the flag and read the data (so the sensor releases the INT line)
	EXTI->PR |= EXTI_PR_PR2;
 8001cf8:	4b0c      	ldr	r3, [pc, #48]	; (8001d2c <displayEndOfLocktime+0x38>)
 8001cfa:	4a0c      	ldr	r2, [pc, #48]	; (8001d2c <displayEndOfLocktime+0x38>)
 8001cfc:	6952      	ldr	r2, [r2, #20]
 8001cfe:	2104      	movs	r1, #4
 8001d00:	430a      	orrs	r2, r1
 8001d02:	615a      	str	r2, [r3, #20]
	mma8653_read8();
 8001d04:	f7ff fe78 	bl	80019f8 <mma8653_read8>

	//reenable the EXTI interrupt
	EXTI->IMR |= EXTI_EMR_MR2;
 8001d08:	4b08      	ldr	r3, [pc, #32]	; (8001d2c <displayEndOfLocktime+0x38>)
 8001d0a:	4a08      	ldr	r2, [pc, #32]	; (8001d2c <displayEndOfLocktime+0x38>)
 8001d0c:	6812      	ldr	r2, [r2, #0]
 8001d0e:	2104      	movs	r1, #4
 8001d10:	430a      	orrs	r2, r1
 8001d12:	601a      	str	r2, [r3, #0]

	//clear Flag for this Interrupt
	TIM2->SR &= ~TIM_SR_CC1IF;
 8001d14:	2380      	movs	r3, #128	; 0x80
 8001d16:	05db      	lsls	r3, r3, #23
 8001d18:	2280      	movs	r2, #128	; 0x80
 8001d1a:	05d2      	lsls	r2, r2, #23
 8001d1c:	8a12      	ldrh	r2, [r2, #16]
 8001d1e:	b292      	uxth	r2, r2
 8001d20:	2102      	movs	r1, #2
 8001d22:	438a      	bics	r2, r1
 8001d24:	b292      	uxth	r2, r2
 8001d26:	821a      	strh	r2, [r3, #16]
}
 8001d28:	46bd      	mov	sp, r7
 8001d2a:	bd80      	pop	{r7, pc}
 8001d2c:	40010400 	.word	0x40010400

08001d30 <displayFrameStart>:

void displayFrameStart()
{
 8001d30:	b590      	push	{r4, r7, lr}
 8001d32:	b083      	sub	sp, #12
 8001d34:	af00      	add	r7, sp, #0

	//deactivate the peak detection for some time after a valid return point
	//by deactivating the EXTI interrupt
	EXTI->IMR &= ~EXTI_EMR_MR2;
 8001d36:	4b22      	ldr	r3, [pc, #136]	; (8001dc0 <displayFrameStart+0x90>)
 8001d38:	4a21      	ldr	r2, [pc, #132]	; (8001dc0 <displayFrameStart+0x90>)
 8001d3a:	6812      	ldr	r2, [r2, #0]
 8001d3c:	2104      	movs	r1, #4
 8001d3e:	438a      	bics	r2, r1
 8001d40:	601a      	str	r2, [r3, #0]

	//take the counter value from timer2:
	uint32_t tFrame = TIM2->CNT;
 8001d42:	2380      	movs	r3, #128	; 0x80
 8001d44:	05db      	lsls	r3, r3, #23
 8001d46:	6a5b      	ldr	r3, [r3, #36]	; 0x24
 8001d48:	607b      	str	r3, [r7, #4]

	//calculate t_row and save it to the auto-reload register of tim3
	TIM3->ARR = (uint16_t)(tFrame / (RowsLogic*2));
 8001d4a:	4c1e      	ldr	r4, [pc, #120]	; (8001dc4 <displayFrameStart+0x94>)
 8001d4c:	4b1e      	ldr	r3, [pc, #120]	; (8001dc8 <displayFrameStart+0x98>)
 8001d4e:	781b      	ldrb	r3, [r3, #0]
 8001d50:	b2db      	uxtb	r3, r3
 8001d52:	005b      	lsls	r3, r3, #1
 8001d54:	6878      	ldr	r0, [r7, #4]
 8001d56:	1c19      	adds	r1, r3, #0
 8001d58:	f7fe f9d6 	bl	8000108 <__aeabi_uidiv>
 8001d5c:	1c03      	adds	r3, r0, #0
 8001d5e:	b29b      	uxth	r3, r3
 8001d60:	62e3      	str	r3, [r4, #44]	; 0x2c
	//clear interrupt flag for TIM3
	TIM3->SR &= ~TIM_SR_UIF;
 8001d62:	4b18      	ldr	r3, [pc, #96]	; (8001dc4 <displayFrameStart+0x94>)
 8001d64:	4a17      	ldr	r2, [pc, #92]	; (8001dc4 <displayFrameStart+0x94>)
 8001d66:	8a12      	ldrh	r2, [r2, #16]
 8001d68:	b292      	uxth	r2, r2
 8001d6a:	2101      	movs	r1, #1
 8001d6c:	438a      	bics	r2, r1
 8001d6e:	b292      	uxth	r2, r2
 8001d70:	821a      	strh	r2, [r3, #16]
	//reset both timers
	TIM2->EGR |= TIM_EGR_UG;
 8001d72:	2380      	movs	r3, #128	; 0x80
 8001d74:	05db      	lsls	r3, r3, #23
 8001d76:	2280      	movs	r2, #128	; 0x80
 8001d78:	05d2      	lsls	r2, r2, #23
 8001d7a:	8a92      	ldrh	r2, [r2, #20]
 8001d7c:	b292      	uxth	r2, r2
 8001d7e:	2101      	movs	r1, #1
 8001d80:	430a      	orrs	r2, r1
 8001d82:	b292      	uxth	r2, r2
 8001d84:	829a      	strh	r2, [r3, #20]
	TIM3->EGR |= TIM_EGR_UG;
 8001d86:	4b0f      	ldr	r3, [pc, #60]	; (8001dc4 <displayFrameStart+0x94>)
 8001d88:	4a0e      	ldr	r2, [pc, #56]	; (8001dc4 <displayFrameStart+0x94>)
 8001d8a:	8a92      	ldrh	r2, [r2, #20]
 8001d8c:	b292      	uxth	r2, r2
 8001d8e:	2101      	movs	r1, #1
 8001d90:	430a      	orrs	r2, r1
 8001d92:	b292      	uxth	r2, r2
 8001d94:	829a      	strh	r2, [r3, #20]
	//start both timers
	TIM2->CR1 |= TIM_CR1_CEN;
 8001d96:	2380      	movs	r3, #128	; 0x80
 8001d98:	05db      	lsls	r3, r3, #23
 8001d9a:	2280      	movs	r2, #128	; 0x80
 8001d9c:	05d2      	lsls	r2, r2, #23
 8001d9e:	8812      	ldrh	r2, [r2, #0]
 8001da0:	b292      	uxth	r2, r2
 8001da2:	2101      	movs	r1, #1
 8001da4:	430a      	orrs	r2, r1
 8001da6:	b292      	uxth	r2, r2
 8001da8:	801a      	strh	r2, [r3, #0]
	TIM3->CR1 |= TIM_CR1_CEN;
 8001daa:	4b06      	ldr	r3, [pc, #24]	; (8001dc4 <displayFrameStart+0x94>)
 8001dac:	4a05      	ldr	r2, [pc, #20]	; (8001dc4 <displayFrameStart+0x94>)
 8001dae:	8812      	ldrh	r2, [r2, #0]
 8001db0:	b292      	uxth	r2, r2
 8001db2:	2101      	movs	r1, #1
 8001db4:	430a      	orrs	r2, r1
 8001db6:	b292      	uxth	r2, r2
 8001db8:	801a      	strh	r2, [r3, #0]
}
 8001dba:	46bd      	mov	sp, r7
 8001dbc:	b003      	add	sp, #12
 8001dbe:	bd90      	pop	{r4, r7, pc}
 8001dc0:	40010400 	.word	0x40010400
 8001dc4:	40000400 	.word	0x40000400
 8001dc8:	200001cd 	.word	0x200001cd

08001dcc <displayFindReturnPoint>:

//now this should be called with the sensors IRQ
void displayFindReturnPoint()
{
 8001dcc:	b580      	push	{r7, lr}
 8001dce:	b082      	sub	sp, #8
 8001dd0:	af00      	add	r7, sp, #0


	//read the output of the sensor
	//the low-pass filtering is done by the sensor!
	//this also lets the sensor release the interrupt line
	int8_t acc = mma8653_read8().x;
 8001dd2:	f7ff fe11 	bl	80019f8 <mma8653_read8>
 8001dd6:	1c03      	adds	r3, r0, #0
 8001dd8:	1c1a      	adds	r2, r3, #0
 8001dda:	1c3b      	adds	r3, r7, #0
 8001ddc:	1c11      	adds	r1, r2, #0
 8001dde:	7019      	strb	r1, [r3, #0]
 8001de0:	0411      	lsls	r1, r2, #16
 8001de2:	0e09      	lsrs	r1, r1, #24
 8001de4:	7059      	strb	r1, [r3, #1]
 8001de6:	0212      	lsls	r2, r2, #8
 8001de8:	0e12      	lsrs	r2, r2, #24
 8001dea:	709a      	strb	r2, [r3, #2]
 8001dec:	1dbb      	adds	r3, r7, #6
 8001dee:	1c3a      	adds	r2, r7, #0
 8001df0:	7812      	ldrb	r2, [r2, #0]
 8001df2:	701a      	strb	r2, [r3, #0]

	//separate value and sign for faster calculations
	uint8_t accAbs;
	if(acc >= 0)
 8001df4:	1dbb      	adds	r3, r7, #6
 8001df6:	781b      	ldrb	r3, [r3, #0]
 8001df8:	2b7f      	cmp	r3, #127	; 0x7f
 8001dfa:	d804      	bhi.n	8001e06 <displayFindReturnPoint+0x3a>
	{
		accAbs = acc;
 8001dfc:	1dfb      	adds	r3, r7, #7
 8001dfe:	1dba      	adds	r2, r7, #6
 8001e00:	7812      	ldrb	r2, [r2, #0]
 8001e02:	701a      	strb	r2, [r3, #0]
 8001e04:	e004      	b.n	8001e10 <displayFindReturnPoint+0x44>
	}
	else
	{
		accAbs = -acc;
 8001e06:	1dbb      	adds	r3, r7, #6
 8001e08:	781a      	ldrb	r2, [r3, #0]
 8001e0a:	1dfb      	adds	r3, r7, #7
 8001e0c:	4252      	negs	r2, r2
 8001e0e:	701a      	strb	r2, [r3, #0]
	 * the return doesn't happen in one point, but takes some time (>10ms)
	 * ->stop the time measurement as soon as the acc gets higher that the threshold,
	 * ->start the next meas and the display if the acc gets lower than the threshold again
	 */

	switch(movementState)
 8001e10:	4b5d      	ldr	r3, [pc, #372]	; (8001f88 <displayFindReturnPoint+0x1bc>)
 8001e12:	781b      	ldrb	r3, [r3, #0]
 8001e14:	b2db      	uxtb	r3, r3
 8001e16:	2b04      	cmp	r3, #4
 8001e18:	d900      	bls.n	8001e1c <displayFindReturnPoint+0x50>
 8001e1a:	e08f      	b.n	8001f3c <displayFindReturnPoint+0x170>
 8001e1c:	009a      	lsls	r2, r3, #2
 8001e1e:	4b5b      	ldr	r3, [pc, #364]	; (8001f8c <displayFindReturnPoint+0x1c0>)
 8001e20:	18d3      	adds	r3, r2, r3
 8001e22:	681b      	ldr	r3, [r3, #0]
 8001e24:	469f      	mov	pc, r3
	{
	case STATE_UNKNOWN:
		if(accAbs > ACC_RETURN_TH)
 8001e26:	1dfb      	adds	r3, r7, #7
 8001e28:	781b      	ldrb	r3, [r3, #0]
 8001e2a:	2b64      	cmp	r3, #100	; 0x64
 8001e2c:	d91e      	bls.n	8001e6c <displayFindReturnPoint+0xa0>
		{	//this could be the first return point
			//stop TIM2
			TIM2->CR1 &= ~TIM_CR1_CEN;
 8001e2e:	2380      	movs	r3, #128	; 0x80
 8001e30:	05db      	lsls	r3, r3, #23
 8001e32:	2280      	movs	r2, #128	; 0x80
 8001e34:	05d2      	lsls	r2, r2, #23
 8001e36:	8812      	ldrh	r2, [r2, #0]
 8001e38:	b292      	uxth	r2, r2
 8001e3a:	2101      	movs	r1, #1
 8001e3c:	438a      	bics	r2, r1
 8001e3e:	b292      	uxth	r2, r2
 8001e40:	801a      	strh	r2, [r3, #0]
			//prevent TIM3 from triggering a new row by stopping it
			TIM3->CR1 &= ~TIM_CR1_CEN;
 8001e42:	4b53      	ldr	r3, [pc, #332]	; (8001f90 <displayFindReturnPoint+0x1c4>)
 8001e44:	4a52      	ldr	r2, [pc, #328]	; (8001f90 <displayFindReturnPoint+0x1c4>)
 8001e46:	8812      	ldrh	r2, [r2, #0]
 8001e48:	b292      	uxth	r2, r2
 8001e4a:	2101      	movs	r1, #1
 8001e4c:	438a      	bics	r2, r1
 8001e4e:	b292      	uxth	r2, r2
 8001e50:	801a      	strh	r2, [r3, #0]


			if(acc > 0)
 8001e52:	1dbb      	adds	r3, r7, #6
 8001e54:	781b      	ldrb	r3, [r3, #0]
 8001e56:	b25b      	sxtb	r3, r3
 8001e58:	2b00      	cmp	r3, #0
 8001e5a:	dd03      	ble.n	8001e64 <displayFindReturnPoint+0x98>
			{
				movementState = STATE_RIGHT_END;
 8001e5c:	4b4a      	ldr	r3, [pc, #296]	; (8001f88 <displayFindReturnPoint+0x1bc>)
 8001e5e:	2203      	movs	r2, #3
 8001e60:	701a      	strb	r2, [r3, #0]
 8001e62:	e003      	b.n	8001e6c <displayFindReturnPoint+0xa0>
			}
			else
			{
				movementState = STATE_LEFT_END;
 8001e64:	4b48      	ldr	r3, [pc, #288]	; (8001f88 <displayFindReturnPoint+0x1bc>)
 8001e66:	2201      	movs	r2, #1
 8001e68:	701a      	strb	r2, [r3, #0]
			}
		}
		break;
 8001e6a:	e067      	b.n	8001f3c <displayFindReturnPoint+0x170>
 8001e6c:	e066      	b.n	8001f3c <displayFindReturnPoint+0x170>
	case STATE_LEFT_END:
		if(accAbs < ACC_RETURN_TH)
 8001e6e:	1dfb      	adds	r3, r7, #7
 8001e70:	781b      	ldrb	r3, [r3, #0]
 8001e72:	2b63      	cmp	r3, #99	; 0x63
 8001e74:	d80e      	bhi.n	8001e94 <displayFindReturnPoint+0xc8>
		{
			rowStep = 1;
 8001e76:	4b47      	ldr	r3, [pc, #284]	; (8001f94 <displayFindReturnPoint+0x1c8>)
 8001e78:	2201      	movs	r2, #1
 8001e7a:	701a      	strb	r2, [r3, #0]
			RowNumber = 0;
 8001e7c:	4b46      	ldr	r3, [pc, #280]	; (8001f98 <displayFindReturnPoint+0x1cc>)
 8001e7e:	2200      	movs	r2, #0
 8001e80:	701a      	strb	r2, [r3, #0]
			DisplayPosition = DISP_POS_ROW_START;
 8001e82:	4b46      	ldr	r3, [pc, #280]	; (8001f9c <displayFindReturnPoint+0x1d0>)
 8001e84:	2200      	movs	r2, #0
 8001e86:	701a      	strb	r2, [r3, #0]
			//end of return phase
			displayFrameStart();
 8001e88:	f7ff ff52 	bl	8001d30 <displayFrameStart>
			movementState = STATE_MOVE_FORW;
 8001e8c:	4b3e      	ldr	r3, [pc, #248]	; (8001f88 <displayFindReturnPoint+0x1bc>)
 8001e8e:	2202      	movs	r2, #2
 8001e90:	701a      	strb	r2, [r3, #0]
		}
		break;
 8001e92:	e053      	b.n	8001f3c <displayFindReturnPoint+0x170>
 8001e94:	e052      	b.n	8001f3c <displayFindReturnPoint+0x170>
	case STATE_RIGHT_END:
		if(accAbs < ACC_RETURN_TH)
 8001e96:	1dfb      	adds	r3, r7, #7
 8001e98:	781b      	ldrb	r3, [r3, #0]
 8001e9a:	2b63      	cmp	r3, #99	; 0x63
 8001e9c:	d810      	bhi.n	8001ec0 <displayFindReturnPoint+0xf4>
		{
			//end of return phase
			rowStep = -1;
 8001e9e:	4b3d      	ldr	r3, [pc, #244]	; (8001f94 <displayFindReturnPoint+0x1c8>)
 8001ea0:	22ff      	movs	r2, #255	; 0xff
 8001ea2:	701a      	strb	r2, [r3, #0]
			RowNumber = RowsLogic;
 8001ea4:	4b3e      	ldr	r3, [pc, #248]	; (8001fa0 <displayFindReturnPoint+0x1d4>)
 8001ea6:	781b      	ldrb	r3, [r3, #0]
 8001ea8:	b2da      	uxtb	r2, r3
 8001eaa:	4b3b      	ldr	r3, [pc, #236]	; (8001f98 <displayFindReturnPoint+0x1cc>)
 8001eac:	701a      	strb	r2, [r3, #0]
			DisplayPosition = DISP_POS_GAP_START;
 8001eae:	4b3b      	ldr	r3, [pc, #236]	; (8001f9c <displayFindReturnPoint+0x1d0>)
 8001eb0:	2201      	movs	r2, #1
 8001eb2:	701a      	strb	r2, [r3, #0]
			displayFrameStart();
 8001eb4:	f7ff ff3c 	bl	8001d30 <displayFrameStart>


			movementState = STATE_MOVE_BACKW;
 8001eb8:	4b33      	ldr	r3, [pc, #204]	; (8001f88 <displayFindReturnPoint+0x1bc>)
 8001eba:	2204      	movs	r2, #4
 8001ebc:	701a      	strb	r2, [r3, #0]
		}
		break;
 8001ebe:	e03d      	b.n	8001f3c <displayFindReturnPoint+0x170>
 8001ec0:	e03c      	b.n	8001f3c <displayFindReturnPoint+0x170>
	case STATE_MOVE_FORW:
		if(acc > ACC_RETURN_TH)
 8001ec2:	1dbb      	adds	r3, r7, #6
 8001ec4:	781b      	ldrb	r3, [r3, #0]
 8001ec6:	b25b      	sxtb	r3, r3
 8001ec8:	2b64      	cmp	r3, #100	; 0x64
 8001eca:	dd17      	ble.n	8001efc <displayFindReturnPoint+0x130>
		{
			//stop TIM2
			TIM2->CR1 &= ~TIM_CR1_CEN;
 8001ecc:	2380      	movs	r3, #128	; 0x80
 8001ece:	05db      	lsls	r3, r3, #23
 8001ed0:	2280      	movs	r2, #128	; 0x80
 8001ed2:	05d2      	lsls	r2, r2, #23
 8001ed4:	8812      	ldrh	r2, [r2, #0]
 8001ed6:	b292      	uxth	r2, r2
 8001ed8:	2101      	movs	r1, #1
 8001eda:	438a      	bics	r2, r1
 8001edc:	b292      	uxth	r2, r2
 8001ede:	801a      	strh	r2, [r3, #0]
			//prevent TIM3 from triggering a new row by stopping it
			TIM3->CR1 &= ~TIM_CR1_CEN;
 8001ee0:	4b2b      	ldr	r3, [pc, #172]	; (8001f90 <displayFindReturnPoint+0x1c4>)
 8001ee2:	4a2b      	ldr	r2, [pc, #172]	; (8001f90 <displayFindReturnPoint+0x1c4>)
 8001ee4:	8812      	ldrh	r2, [r2, #0]
 8001ee6:	b292      	uxth	r2, r2
 8001ee8:	2101      	movs	r1, #1
 8001eea:	438a      	bics	r2, r1
 8001eec:	b292      	uxth	r2, r2
 8001eee:	801a      	strh	r2, [r3, #0]
			//switch off the display
			apa102_allOff();
 8001ef0:	f000 fa08 	bl	8002304 <apa102_allOff>
			movementState = STATE_RIGHT_END;
 8001ef4:	4b24      	ldr	r3, [pc, #144]	; (8001f88 <displayFindReturnPoint+0x1bc>)
 8001ef6:	2203      	movs	r2, #3
 8001ef8:	701a      	strb	r2, [r3, #0]
		}
		break;
 8001efa:	e01f      	b.n	8001f3c <displayFindReturnPoint+0x170>
 8001efc:	e01e      	b.n	8001f3c <displayFindReturnPoint+0x170>
	case STATE_MOVE_BACKW:
		if(acc < -ACC_RETURN_TH)
 8001efe:	1dbb      	adds	r3, r7, #6
 8001f00:	781b      	ldrb	r3, [r3, #0]
 8001f02:	b25b      	sxtb	r3, r3
 8001f04:	1c1a      	adds	r2, r3, #0
 8001f06:	3264      	adds	r2, #100	; 0x64
 8001f08:	da17      	bge.n	8001f3a <displayFindReturnPoint+0x16e>
		{
			//stop TIM2
			TIM2->CR1 &= ~TIM_CR1_CEN;
 8001f0a:	2380      	movs	r3, #128	; 0x80
 8001f0c:	05db      	lsls	r3, r3, #23
 8001f0e:	2280      	movs	r2, #128	; 0x80
 8001f10:	05d2      	lsls	r2, r2, #23
 8001f12:	8812      	ldrh	r2, [r2, #0]
 8001f14:	b292      	uxth	r2, r2
 8001f16:	2101      	movs	r1, #1
 8001f18:	438a      	bics	r2, r1
 8001f1a:	b292      	uxth	r2, r2
 8001f1c:	801a      	strh	r2, [r3, #0]
			//prevent TIM3 from triggering a new row by stopping it
			TIM3->CR1 &= ~TIM_CR1_CEN;
 8001f1e:	4b1c      	ldr	r3, [pc, #112]	; (8001f90 <displayFindReturnPoint+0x1c4>)
 8001f20:	4a1b      	ldr	r2, [pc, #108]	; (8001f90 <displayFindReturnPoint+0x1c4>)
 8001f22:	8812      	ldrh	r2, [r2, #0]
 8001f24:	b292      	uxth	r2, r2
 8001f26:	2101      	movs	r1, #1
 8001f28:	438a      	bics	r2, r1
 8001f2a:	b292      	uxth	r2, r2
 8001f2c:	801a      	strh	r2, [r3, #0]
			//switch off the display
			apa102_allOff();
 8001f2e:	f000 f9e9 	bl	8002304 <apa102_allOff>
			movementState = STATE_LEFT_END;
 8001f32:	4b15      	ldr	r3, [pc, #84]	; (8001f88 <displayFindReturnPoint+0x1bc>)
 8001f34:	2201      	movs	r2, #1
 8001f36:	701a      	strb	r2, [r3, #0]
		}
		break;
 8001f38:	e7ff      	b.n	8001f3a <displayFindReturnPoint+0x16e>
 8001f3a:	46c0      	nop			; (mov r8, r8)
	}

	//no state other than STATE_UNKNOWN should last longer than T_FRAME_MAX
	//-> if TIM2 exceeds this time, stop it and
	//if this value is out of bounds, reset TIM2 and return to STATE_UNKNOWN
	if(TIM2->CNT > T_FRAME_MAX)
 8001f3c:	2380      	movs	r3, #128	; 0x80
 8001f3e:	05db      	lsls	r3, r3, #23
 8001f40:	6a5a      	ldr	r2, [r3, #36]	; 0x24
 8001f42:	4b18      	ldr	r3, [pc, #96]	; (8001fa4 <displayFindReturnPoint+0x1d8>)
 8001f44:	429a      	cmp	r2, r3
 8001f46:	d918      	bls.n	8001f7a <displayFindReturnPoint+0x1ae>
	{//reset the counter:
		TIM2->EGR |= TIM_EGR_UG;
 8001f48:	2380      	movs	r3, #128	; 0x80
 8001f4a:	05db      	lsls	r3, r3, #23
 8001f4c:	2280      	movs	r2, #128	; 0x80
 8001f4e:	05d2      	lsls	r2, r2, #23
 8001f50:	8a92      	ldrh	r2, [r2, #20]
 8001f52:	b292      	uxth	r2, r2
 8001f54:	2101      	movs	r1, #1
 8001f56:	430a      	orrs	r2, r1
 8001f58:	b292      	uxth	r2, r2
 8001f5a:	829a      	strh	r2, [r3, #20]
		//and stop it
		TIM2->CR1 |= TIM_CR1_CEN;
 8001f5c:	2380      	movs	r3, #128	; 0x80
 8001f5e:	05db      	lsls	r3, r3, #23
 8001f60:	2280      	movs	r2, #128	; 0x80
 8001f62:	05d2      	lsls	r2, r2, #23
 8001f64:	8812      	ldrh	r2, [r2, #0]
 8001f66:	b292      	uxth	r2, r2
 8001f68:	2101      	movs	r1, #1
 8001f6a:	430a      	orrs	r2, r1
 8001f6c:	b292      	uxth	r2, r2
 8001f6e:	801a      	strh	r2, [r3, #0]
		//switch off the display
		apa102_allOff();
 8001f70:	f000 f9c8 	bl	8002304 <apa102_allOff>
		//set state
		movementState = STATE_UNKNOWN;
 8001f74:	4b04      	ldr	r3, [pc, #16]	; (8001f88 <displayFindReturnPoint+0x1bc>)
 8001f76:	2200      	movs	r2, #0
 8001f78:	701a      	strb	r2, [r3, #0]
	}

	EXTI_ClearITPendingBit(EXTI_Line2);
 8001f7a:	2004      	movs	r0, #4
 8001f7c:	f004 fc00 	bl	8006780 <EXTI_ClearITPendingBit>

}
 8001f80:	46bd      	mov	sp, r7
 8001f82:	b002      	add	sp, #8
 8001f84:	bd80      	pop	{r7, pc}
 8001f86:	46c0      	nop			; (mov r8, r8)
 8001f88:	200003c9 	.word	0x200003c9
 8001f8c:	080074a8 	.word	0x080074a8
 8001f90:	40000400 	.word	0x40000400
 8001f94:	20000143 	.word	0x20000143
 8001f98:	20000144 	.word	0x20000144
 8001f9c:	200003c8 	.word	0x200003c8
 8001fa0:	200001cd 	.word	0x200001cd
 8001fa4:	003fffc0 	.word	0x003fffc0

08001fa8 <apa102_init>:
colorVrgb leds[LED_CNT];

uint8_t spiSendData[12+4*LED_CNT];

void apa102_init()
{
 8001fa8:	b580      	push	{r7, lr}
 8001faa:	b092      	sub	sp, #72	; 0x48
 8001fac:	af00      	add	r7, sp, #0

	//enable clock for periphery modules
	RCC_AHBPeriphClockCmd(RCC_AHBPeriph_GPIOA, ENABLE);
 8001fae:	2380      	movs	r3, #128	; 0x80
 8001fb0:	029b      	lsls	r3, r3, #10
 8001fb2:	1c18      	adds	r0, r3, #0
 8001fb4:	2101      	movs	r1, #1
 8001fb6:	f003 ffd7 	bl	8005f68 <RCC_AHBPeriphClockCmd>
	RCC_APB2PeriphClockCmd(RCC_APB2Periph_SPI1, ENABLE);
 8001fba:	2380      	movs	r3, #128	; 0x80
 8001fbc:	015b      	lsls	r3, r3, #5
 8001fbe:	1c18      	adds	r0, r3, #0
 8001fc0:	2101      	movs	r1, #1
 8001fc2:	f003 ffef 	bl	8005fa4 <RCC_APB2PeriphClockCmd>
	RCC_AHBPeriphClockCmd(RCC_AHBPeriph_DMA1,ENABLE);
 8001fc6:	2001      	movs	r0, #1
 8001fc8:	2101      	movs	r1, #1
 8001fca:	f003 ffcd 	bl	8005f68 <RCC_AHBPeriphClockCmd>

	//gpio
	GPIO_InitTypeDef GPIO_InitStructure;
	//configure PINs PA7 and PA5 as AF out
	GPIO_InitStructure.GPIO_Pin = GPIO_Pin_5 | GPIO_Pin_7;
 8001fce:	1c3b      	adds	r3, r7, #0
 8001fd0:	3340      	adds	r3, #64	; 0x40
 8001fd2:	22a0      	movs	r2, #160	; 0xa0
 8001fd4:	601a      	str	r2, [r3, #0]
	GPIO_InitStructure.GPIO_Mode = GPIO_Mode_AF;
 8001fd6:	1c3b      	adds	r3, r7, #0
 8001fd8:	3340      	adds	r3, #64	; 0x40
 8001fda:	2202      	movs	r2, #2
 8001fdc:	711a      	strb	r2, [r3, #4]
	GPIO_InitStructure.GPIO_OType = GPIO_OType_PP;
 8001fde:	1c3b      	adds	r3, r7, #0
 8001fe0:	3340      	adds	r3, #64	; 0x40
 8001fe2:	2200      	movs	r2, #0
 8001fe4:	719a      	strb	r2, [r3, #6]
	GPIO_InitStructure.GPIO_Speed = GPIO_Speed_50MHz;
 8001fe6:	1c3b      	adds	r3, r7, #0
 8001fe8:	3340      	adds	r3, #64	; 0x40
 8001fea:	2203      	movs	r2, #3
 8001fec:	715a      	strb	r2, [r3, #5]
	GPIO_Init(GPIOA, &GPIO_InitStructure);
 8001fee:	2390      	movs	r3, #144	; 0x90
 8001ff0:	05da      	lsls	r2, r3, #23
 8001ff2:	1c3b      	adds	r3, r7, #0
 8001ff4:	3340      	adds	r3, #64	; 0x40
 8001ff6:	1c10      	adds	r0, r2, #0
 8001ff8:	1c19      	adds	r1, r3, #0
 8001ffa:	f004 f981 	bl	8006300 <GPIO_Init>

	//init the SPI module
	SPI_InitTypeDef SPI_InitStruct;
	SPI_InitStruct.SPI_BaudRatePrescaler = SPI_BaudRatePrescaler_8;
 8001ffe:	1c3b      	adds	r3, r7, #0
 8002000:	332c      	adds	r3, #44	; 0x2c
 8002002:	2210      	movs	r2, #16
 8002004:	819a      	strh	r2, [r3, #12]
	SPI_InitStruct.SPI_CPHA = SPI_CPHA_2Edge;
 8002006:	1c3b      	adds	r3, r7, #0
 8002008:	332c      	adds	r3, #44	; 0x2c
 800200a:	2201      	movs	r2, #1
 800200c:	811a      	strh	r2, [r3, #8]
	SPI_InitStruct.SPI_CPOL = SPI_CPOL_High;
 800200e:	1c3b      	adds	r3, r7, #0
 8002010:	332c      	adds	r3, #44	; 0x2c
 8002012:	2202      	movs	r2, #2
 8002014:	80da      	strh	r2, [r3, #6]
	SPI_InitStruct.SPI_DataSize = SPI_DataSize_8b;
 8002016:	1c3b      	adds	r3, r7, #0
 8002018:	332c      	adds	r3, #44	; 0x2c
 800201a:	22e0      	movs	r2, #224	; 0xe0
 800201c:	00d2      	lsls	r2, r2, #3
 800201e:	809a      	strh	r2, [r3, #4]
	SPI_InitStruct.SPI_Direction = SPI_Direction_Tx;
 8002020:	1c3b      	adds	r3, r7, #0
 8002022:	332c      	adds	r3, #44	; 0x2c
 8002024:	2280      	movs	r2, #128	; 0x80
 8002026:	01d2      	lsls	r2, r2, #7
 8002028:	801a      	strh	r2, [r3, #0]
	SPI_InitStruct.SPI_FirstBit = SPI_FirstBit_MSB;
 800202a:	1c3b      	adds	r3, r7, #0
 800202c:	332c      	adds	r3, #44	; 0x2c
 800202e:	2200      	movs	r2, #0
 8002030:	81da      	strh	r2, [r3, #14]
	SPI_InitStruct.SPI_Mode = SPI_Mode_Master;
 8002032:	1c3b      	adds	r3, r7, #0
 8002034:	332c      	adds	r3, #44	; 0x2c
 8002036:	2282      	movs	r2, #130	; 0x82
 8002038:	0052      	lsls	r2, r2, #1
 800203a:	805a      	strh	r2, [r3, #2]
	SPI_InitStruct.SPI_NSS = SPI_NSS_Soft;
 800203c:	1c3b      	adds	r3, r7, #0
 800203e:	332c      	adds	r3, #44	; 0x2c
 8002040:	2280      	movs	r2, #128	; 0x80
 8002042:	0092      	lsls	r2, r2, #2
 8002044:	815a      	strh	r2, [r3, #10]
	SPI_Init(SPI1, &SPI_InitStruct);
 8002046:	4a1e      	ldr	r2, [pc, #120]	; (80020c0 <apa102_init+0x118>)
 8002048:	1c3b      	adds	r3, r7, #0
 800204a:	332c      	adds	r3, #44	; 0x2c
 800204c:	1c10      	adds	r0, r2, #0
 800204e:	1c19      	adds	r1, r3, #0
 8002050:	f003 feae 	bl	8005db0 <SPI_Init>

	SPI_I2S_DMACmd(SPI1,SPI_I2S_DMAReq_Tx,ENABLE);
 8002054:	4b1a      	ldr	r3, [pc, #104]	; (80020c0 <apa102_init+0x118>)
 8002056:	1c18      	adds	r0, r3, #0
 8002058:	2102      	movs	r1, #2
 800205a:	2201      	movs	r2, #1
 800205c:	f003 ff4a 	bl	8005ef4 <SPI_I2S_DMACmd>
	//start the SPI module:
	SPI_Cmd(SPI1,ENABLE);
 8002060:	4b17      	ldr	r3, [pc, #92]	; (80020c0 <apa102_init+0x118>)
 8002062:	1c18      	adds	r0, r3, #0
 8002064:	2101      	movs	r1, #1
 8002066:	f003 ff25 	bl	8005eb4 <SPI_Cmd>

	DMA_InitTypeDef DMA_InitStruct;
	DMA_InitStruct.DMA_DIR = DMA_DIR_PeripheralDST;
 800206a:	1c3b      	adds	r3, r7, #0
 800206c:	2210      	movs	r2, #16
 800206e:	609a      	str	r2, [r3, #8]
	DMA_InitStruct.DMA_M2M = DMA_M2M_Disable;
 8002070:	1c3b      	adds	r3, r7, #0
 8002072:	2200      	movs	r2, #0
 8002074:	629a      	str	r2, [r3, #40]	; 0x28
	DMA_InitStruct.DMA_MemoryBaseAddr = (uint32_t)spiSendData;
 8002076:	4a13      	ldr	r2, [pc, #76]	; (80020c4 <apa102_init+0x11c>)
 8002078:	1c3b      	adds	r3, r7, #0
 800207a:	605a      	str	r2, [r3, #4]
	DMA_InitStruct.DMA_MemoryDataSize = DMA_MemoryDataSize_Byte;
 800207c:	1c3b      	adds	r3, r7, #0
 800207e:	2200      	movs	r2, #0
 8002080:	61da      	str	r2, [r3, #28]
	DMA_InitStruct.DMA_MemoryInc = DMA_MemoryInc_Enable;
 8002082:	1c3b      	adds	r3, r7, #0
 8002084:	2280      	movs	r2, #128	; 0x80
 8002086:	615a      	str	r2, [r3, #20]
	DMA_InitStruct.DMA_Mode = DMA_Mode_Normal;
 8002088:	1c3b      	adds	r3, r7, #0
 800208a:	2200      	movs	r2, #0
 800208c:	621a      	str	r2, [r3, #32]
	DMA_InitStruct.DMA_PeripheralBaseAddr = (uint32_t)&(SPI1->DR);
 800208e:	1c3b      	adds	r3, r7, #0
 8002090:	4a0d      	ldr	r2, [pc, #52]	; (80020c8 <apa102_init+0x120>)
 8002092:	601a      	str	r2, [r3, #0]
	DMA_InitStruct.DMA_PeripheralDataSize = DMA_PeripheralDataSize_Byte;
 8002094:	1c3b      	adds	r3, r7, #0
 8002096:	2200      	movs	r2, #0
 8002098:	619a      	str	r2, [r3, #24]
	DMA_InitStruct.DMA_PeripheralInc = DMA_PeripheralInc_Disable;
 800209a:	1c3b      	adds	r3, r7, #0
 800209c:	2200      	movs	r2, #0
 800209e:	611a      	str	r2, [r3, #16]
	DMA_InitStruct.DMA_Priority = DMA_Priority_High;
 80020a0:	1c3b      	adds	r3, r7, #0
 80020a2:	2280      	movs	r2, #128	; 0x80
 80020a4:	0192      	lsls	r2, r2, #6
 80020a6:	625a      	str	r2, [r3, #36]	; 0x24
	DMA_Init(DMA1_Channel3, &DMA_InitStruct);
 80020a8:	4a08      	ldr	r2, [pc, #32]	; (80020cc <apa102_init+0x124>)
 80020aa:	1c3b      	adds	r3, r7, #0
 80020ac:	1c10      	adds	r0, r2, #0
 80020ae:	1c19      	adds	r1, r3, #0
 80020b0:	f004 fb72 	bl	8006798 <DMA_Init>

	apa102_allOff();
 80020b4:	f000 f926 	bl	8002304 <apa102_allOff>

}
 80020b8:	46bd      	mov	sp, r7
 80020ba:	b012      	add	sp, #72	; 0x48
 80020bc:	bd80      	pop	{r7, pc}
 80020be:	46c0      	nop			; (mov r8, r8)
 80020c0:	40013000 	.word	0x40013000
 80020c4:	20000410 	.word	0x20000410
 80020c8:	4001300c 	.word	0x4001300c
 80020cc:	40020030 	.word	0x40020030

080020d0 <updateStripe>:


void updateStripe()
{
 80020d0:	b580      	push	{r7, lr}
 80020d2:	b082      	sub	sp, #8
 80020d4:	af00      	add	r7, sp, #0
	uint8_t ledIdx = 0;
 80020d6:	1dfb      	adds	r3, r7, #7
 80020d8:	2200      	movs	r2, #0
 80020da:	701a      	strb	r2, [r3, #0]
	uint8_t byteIdx = 0;
 80020dc:	1dbb      	adds	r3, r7, #6
 80020de:	2200      	movs	r2, #0
 80020e0:	701a      	strb	r2, [r3, #0]
	DMA_Cmd(DMA1_Channel3, DISABLE);
 80020e2:	4b48      	ldr	r3, [pc, #288]	; (8002204 <updateStripe+0x134>)
 80020e4:	1c18      	adds	r0, r3, #0
 80020e6:	2100      	movs	r1, #0
 80020e8:	f004 fb92 	bl	8006810 <DMA_Cmd>
	//start frame
	for(uint8_t i = 0; i < 4; i++)
 80020ec:	1d7b      	adds	r3, r7, #5
 80020ee:	2200      	movs	r2, #0
 80020f0:	701a      	strb	r2, [r3, #0]
 80020f2:	e00e      	b.n	8002112 <updateStripe+0x42>
	{
		spiSendData[byteIdx] = 0x00;
 80020f4:	1dbb      	adds	r3, r7, #6
 80020f6:	781b      	ldrb	r3, [r3, #0]
 80020f8:	4a43      	ldr	r2, [pc, #268]	; (8002208 <updateStripe+0x138>)
 80020fa:	2100      	movs	r1, #0
 80020fc:	54d1      	strb	r1, [r2, r3]
		byteIdx++;
 80020fe:	1dbb      	adds	r3, r7, #6
 8002100:	781a      	ldrb	r2, [r3, #0]
 8002102:	1dbb      	adds	r3, r7, #6
 8002104:	3201      	adds	r2, #1
 8002106:	701a      	strb	r2, [r3, #0]
{
	uint8_t ledIdx = 0;
	uint8_t byteIdx = 0;
	DMA_Cmd(DMA1_Channel3, DISABLE);
	//start frame
	for(uint8_t i = 0; i < 4; i++)
 8002108:	1d7b      	adds	r3, r7, #5
 800210a:	781a      	ldrb	r2, [r3, #0]
 800210c:	1d7b      	adds	r3, r7, #5
 800210e:	3201      	adds	r2, #1
 8002110:	701a      	strb	r2, [r3, #0]
 8002112:	1d7b      	adds	r3, r7, #5
 8002114:	781b      	ldrb	r3, [r3, #0]
 8002116:	2b03      	cmp	r3, #3
 8002118:	d9ec      	bls.n	80020f4 <updateStripe+0x24>
	{
		spiSendData[byteIdx] = 0x00;
		byteIdx++;
	}

	for(uint8_t i = 0; i < LED_CNT; i++)
 800211a:	1d3b      	adds	r3, r7, #4
 800211c:	2200      	movs	r2, #0
 800211e:	701a      	strb	r2, [r3, #0]
 8002120:	e048      	b.n	80021b4 <updateStripe+0xe4>
	{
		//led frame
		spiSendData[byteIdx] = 0xE0 |(leds[ledIdx].global & 0x1F); //global
 8002122:	1dbb      	adds	r3, r7, #6
 8002124:	781b      	ldrb	r3, [r3, #0]
 8002126:	1dfa      	adds	r2, r7, #7
 8002128:	7811      	ldrb	r1, [r2, #0]
 800212a:	4a38      	ldr	r2, [pc, #224]	; (800220c <updateStripe+0x13c>)
 800212c:	0089      	lsls	r1, r1, #2
 800212e:	5c8a      	ldrb	r2, [r1, r2]
 8002130:	2120      	movs	r1, #32
 8002132:	4249      	negs	r1, r1
 8002134:	430a      	orrs	r2, r1
 8002136:	b2d1      	uxtb	r1, r2
 8002138:	4a33      	ldr	r2, [pc, #204]	; (8002208 <updateStripe+0x138>)
 800213a:	54d1      	strb	r1, [r2, r3]
		byteIdx++;
 800213c:	1dbb      	adds	r3, r7, #6
 800213e:	781a      	ldrb	r2, [r3, #0]
 8002140:	1dbb      	adds	r3, r7, #6
 8002142:	3201      	adds	r2, #1
 8002144:	701a      	strb	r2, [r3, #0]
		spiSendData[byteIdx] = leds[ledIdx].blue;
 8002146:	1dbb      	adds	r3, r7, #6
 8002148:	781b      	ldrb	r3, [r3, #0]
 800214a:	1dfa      	adds	r2, r7, #7
 800214c:	7812      	ldrb	r2, [r2, #0]
 800214e:	492f      	ldr	r1, [pc, #188]	; (800220c <updateStripe+0x13c>)
 8002150:	0092      	lsls	r2, r2, #2
 8002152:	188a      	adds	r2, r1, r2
 8002154:	7851      	ldrb	r1, [r2, #1]
 8002156:	4a2c      	ldr	r2, [pc, #176]	; (8002208 <updateStripe+0x138>)
 8002158:	54d1      	strb	r1, [r2, r3]
		byteIdx++;
 800215a:	1dbb      	adds	r3, r7, #6
 800215c:	781a      	ldrb	r2, [r3, #0]
 800215e:	1dbb      	adds	r3, r7, #6
 8002160:	3201      	adds	r2, #1
 8002162:	701a      	strb	r2, [r3, #0]
		spiSendData[byteIdx] = leds[ledIdx].green;
 8002164:	1dbb      	adds	r3, r7, #6
 8002166:	781b      	ldrb	r3, [r3, #0]
 8002168:	1dfa      	adds	r2, r7, #7
 800216a:	7812      	ldrb	r2, [r2, #0]
 800216c:	4927      	ldr	r1, [pc, #156]	; (800220c <updateStripe+0x13c>)
 800216e:	0092      	lsls	r2, r2, #2
 8002170:	188a      	adds	r2, r1, r2
 8002172:	7891      	ldrb	r1, [r2, #2]
 8002174:	4a24      	ldr	r2, [pc, #144]	; (8002208 <updateStripe+0x138>)
 8002176:	54d1      	strb	r1, [r2, r3]
		byteIdx++;
 8002178:	1dbb      	adds	r3, r7, #6
 800217a:	781a      	ldrb	r2, [r3, #0]
 800217c:	1dbb      	adds	r3, r7, #6
 800217e:	3201      	adds	r2, #1
 8002180:	701a      	strb	r2, [r3, #0]
		spiSendData[byteIdx] = leds[ledIdx].red;
 8002182:	1dbb      	adds	r3, r7, #6
 8002184:	781b      	ldrb	r3, [r3, #0]
 8002186:	1dfa      	adds	r2, r7, #7
 8002188:	7812      	ldrb	r2, [r2, #0]
 800218a:	4920      	ldr	r1, [pc, #128]	; (800220c <updateStripe+0x13c>)
 800218c:	0092      	lsls	r2, r2, #2
 800218e:	188a      	adds	r2, r1, r2
 8002190:	78d1      	ldrb	r1, [r2, #3]
 8002192:	4a1d      	ldr	r2, [pc, #116]	; (8002208 <updateStripe+0x138>)
 8002194:	54d1      	strb	r1, [r2, r3]
		byteIdx++;
 8002196:	1dbb      	adds	r3, r7, #6
 8002198:	781a      	ldrb	r2, [r3, #0]
 800219a:	1dbb      	adds	r3, r7, #6
 800219c:	3201      	adds	r2, #1
 800219e:	701a      	strb	r2, [r3, #0]
		ledIdx++;
 80021a0:	1dfb      	adds	r3, r7, #7
 80021a2:	781a      	ldrb	r2, [r3, #0]
 80021a4:	1dfb      	adds	r3, r7, #7
 80021a6:	3201      	adds	r2, #1
 80021a8:	701a      	strb	r2, [r3, #0]
	{
		spiSendData[byteIdx] = 0x00;
		byteIdx++;
	}

	for(uint8_t i = 0; i < LED_CNT; i++)
 80021aa:	1d3b      	adds	r3, r7, #4
 80021ac:	781a      	ldrb	r2, [r3, #0]
 80021ae:	1d3b      	adds	r3, r7, #4
 80021b0:	3201      	adds	r2, #1
 80021b2:	701a      	strb	r2, [r3, #0]
 80021b4:	1d3b      	adds	r3, r7, #4
 80021b6:	781b      	ldrb	r3, [r3, #0]
 80021b8:	2b0f      	cmp	r3, #15
 80021ba:	d9b2      	bls.n	8002122 <updateStripe+0x52>
		ledIdx++;
	}
	//end frame
	//this is not the Frame as stated in the Datasheet! our LEDs (SK9822) seem to be a bit different from the original APA102 here!
	//but it works this way...
	for(uint8_t i = 0; i < 8 ; i++)
 80021bc:	1cfb      	adds	r3, r7, #3
 80021be:	2200      	movs	r2, #0
 80021c0:	701a      	strb	r2, [r3, #0]
 80021c2:	e00e      	b.n	80021e2 <updateStripe+0x112>
	{
		spiSendData[byteIdx] = 0x00;
 80021c4:	1dbb      	adds	r3, r7, #6
 80021c6:	781b      	ldrb	r3, [r3, #0]
 80021c8:	4a0f      	ldr	r2, [pc, #60]	; (8002208 <updateStripe+0x138>)
 80021ca:	2100      	movs	r1, #0
 80021cc:	54d1      	strb	r1, [r2, r3]
		byteIdx++;
 80021ce:	1dbb      	adds	r3, r7, #6
 80021d0:	781a      	ldrb	r2, [r3, #0]
 80021d2:	1dbb      	adds	r3, r7, #6
 80021d4:	3201      	adds	r2, #1
 80021d6:	701a      	strb	r2, [r3, #0]
		ledIdx++;
	}
	//end frame
	//this is not the Frame as stated in the Datasheet! our LEDs (SK9822) seem to be a bit different from the original APA102 here!
	//but it works this way...
	for(uint8_t i = 0; i < 8 ; i++)
 80021d8:	1cfb      	adds	r3, r7, #3
 80021da:	781a      	ldrb	r2, [r3, #0]
 80021dc:	1cfb      	adds	r3, r7, #3
 80021de:	3201      	adds	r2, #1
 80021e0:	701a      	strb	r2, [r3, #0]
 80021e2:	1cfb      	adds	r3, r7, #3
 80021e4:	781b      	ldrb	r3, [r3, #0]
 80021e6:	2b07      	cmp	r3, #7
 80021e8:	d9ec      	bls.n	80021c4 <updateStripe+0xf4>
		byteIdx++;
	}


	//now the DMA has to send the spiSendData to the SPI tx fifo :)
	DMA_SetCurrDataCounter(DMA1_Channel3,12+4*LED_CNT);
 80021ea:	4b06      	ldr	r3, [pc, #24]	; (8002204 <updateStripe+0x134>)
 80021ec:	1c18      	adds	r0, r3, #0
 80021ee:	214c      	movs	r1, #76	; 0x4c
 80021f0:	f004 fb2c 	bl	800684c <DMA_SetCurrDataCounter>
	DMA_Cmd(DMA1_Channel3, ENABLE);
 80021f4:	4b03      	ldr	r3, [pc, #12]	; (8002204 <updateStripe+0x134>)
 80021f6:	1c18      	adds	r0, r3, #0
 80021f8:	2101      	movs	r1, #1
 80021fa:	f004 fb09 	bl	8006810 <DMA_Cmd>
}
 80021fe:	46bd      	mov	sp, r7
 8002200:	b002      	add	sp, #8
 8002202:	bd80      	pop	{r7, pc}
 8002204:	40020030 	.word	0x40020030
 8002208:	20000410 	.word	0x20000410
 800220c:	200003d0 	.word	0x200003d0

08002210 <apa102_setPattern>:


//so far only one global color

void apa102_setPattern(uint16_t mask, uint8_t global)
{
 8002210:	b580      	push	{r7, lr}
 8002212:	b084      	sub	sp, #16
 8002214:	af00      	add	r7, sp, #0
 8002216:	1c0a      	adds	r2, r1, #0
 8002218:	1dbb      	adds	r3, r7, #6
 800221a:	1c01      	adds	r1, r0, #0
 800221c:	8019      	strh	r1, [r3, #0]
 800221e:	1d7b      	adds	r3, r7, #5
 8002220:	701a      	strb	r2, [r3, #0]
	//the global-value in the Led-frame is only 5 bit (max.31)!
	if(global > 0x1F)
 8002222:	1d7b      	adds	r3, r7, #5
 8002224:	781b      	ldrb	r3, [r3, #0]
 8002226:	2b1f      	cmp	r3, #31
 8002228:	d902      	bls.n	8002230 <apa102_setPattern+0x20>
	{
		global = 0x1F;
 800222a:	1d7b      	adds	r3, r7, #5
 800222c:	221f      	movs	r2, #31
 800222e:	701a      	strb	r2, [r3, #0]
	}
	globalColor.global = global;
 8002230:	4b25      	ldr	r3, [pc, #148]	; (80022c8 <apa102_setPattern+0xb8>)
 8002232:	1d7a      	adds	r2, r7, #5
 8002234:	7812      	ldrb	r2, [r2, #0]
 8002236:	701a      	strb	r2, [r3, #0]
	for(uint16_t i = 0; i< 16; i++)
 8002238:	1c3b      	adds	r3, r7, #0
 800223a:	330e      	adds	r3, #14
 800223c:	2200      	movs	r2, #0
 800223e:	801a      	strh	r2, [r3, #0]
 8002240:	e037      	b.n	80022b2 <apa102_setPattern+0xa2>
	{
		if(mask & (1<<i))
 8002242:	1dbb      	adds	r3, r7, #6
 8002244:	881a      	ldrh	r2, [r3, #0]
 8002246:	1c3b      	adds	r3, r7, #0
 8002248:	330e      	adds	r3, #14
 800224a:	881b      	ldrh	r3, [r3, #0]
 800224c:	411a      	asrs	r2, r3
 800224e:	2301      	movs	r3, #1
 8002250:	4013      	ands	r3, r2
 8002252:	d008      	beq.n	8002266 <apa102_setPattern+0x56>
		{	//led shall be active
			leds[i] = globalColor;
 8002254:	1c3b      	adds	r3, r7, #0
 8002256:	330e      	adds	r3, #14
 8002258:	881b      	ldrh	r3, [r3, #0]
 800225a:	4a1c      	ldr	r2, [pc, #112]	; (80022cc <apa102_setPattern+0xbc>)
 800225c:	0099      	lsls	r1, r3, #2
 800225e:	4b1a      	ldr	r3, [pc, #104]	; (80022c8 <apa102_setPattern+0xb8>)
 8002260:	681b      	ldr	r3, [r3, #0]
 8002262:	508b      	str	r3, [r1, r2]
 8002264:	e01e      	b.n	80022a4 <apa102_setPattern+0x94>
		}
		else
		{	//led shall be off
			leds[i].global = 0;
 8002266:	1c3b      	adds	r3, r7, #0
 8002268:	330e      	adds	r3, #14
 800226a:	881a      	ldrh	r2, [r3, #0]
 800226c:	4b17      	ldr	r3, [pc, #92]	; (80022cc <apa102_setPattern+0xbc>)
 800226e:	0092      	lsls	r2, r2, #2
 8002270:	2100      	movs	r1, #0
 8002272:	54d1      	strb	r1, [r2, r3]
			leds[i].blue = 0;
 8002274:	1c3b      	adds	r3, r7, #0
 8002276:	330e      	adds	r3, #14
 8002278:	881b      	ldrh	r3, [r3, #0]
 800227a:	4a14      	ldr	r2, [pc, #80]	; (80022cc <apa102_setPattern+0xbc>)
 800227c:	009b      	lsls	r3, r3, #2
 800227e:	18d3      	adds	r3, r2, r3
 8002280:	2200      	movs	r2, #0
 8002282:	705a      	strb	r2, [r3, #1]
			leds[i].green = 0;
 8002284:	1c3b      	adds	r3, r7, #0
 8002286:	330e      	adds	r3, #14
 8002288:	881b      	ldrh	r3, [r3, #0]
 800228a:	4a10      	ldr	r2, [pc, #64]	; (80022cc <apa102_setPattern+0xbc>)
 800228c:	009b      	lsls	r3, r3, #2
 800228e:	18d3      	adds	r3, r2, r3
 8002290:	2200      	movs	r2, #0
 8002292:	709a      	strb	r2, [r3, #2]
			leds[i].red = 0;
 8002294:	1c3b      	adds	r3, r7, #0
 8002296:	330e      	adds	r3, #14
 8002298:	881b      	ldrh	r3, [r3, #0]
 800229a:	4a0c      	ldr	r2, [pc, #48]	; (80022cc <apa102_setPattern+0xbc>)
 800229c:	009b      	lsls	r3, r3, #2
 800229e:	18d3      	adds	r3, r2, r3
 80022a0:	2200      	movs	r2, #0
 80022a2:	70da      	strb	r2, [r3, #3]
	if(global > 0x1F)
	{
		global = 0x1F;
	}
	globalColor.global = global;
	for(uint16_t i = 0; i< 16; i++)
 80022a4:	1c3b      	adds	r3, r7, #0
 80022a6:	330e      	adds	r3, #14
 80022a8:	881a      	ldrh	r2, [r3, #0]
 80022aa:	1c3b      	adds	r3, r7, #0
 80022ac:	330e      	adds	r3, #14
 80022ae:	3201      	adds	r2, #1
 80022b0:	801a      	strh	r2, [r3, #0]
 80022b2:	1c3b      	adds	r3, r7, #0
 80022b4:	330e      	adds	r3, #14
 80022b6:	881b      	ldrh	r3, [r3, #0]
 80022b8:	2b0f      	cmp	r3, #15
 80022ba:	d9c2      	bls.n	8002242 <apa102_setPattern+0x32>
			leds[i].blue = 0;
			leds[i].green = 0;
			leds[i].red = 0;
		}
	}
	updateStripe();
 80022bc:	f7ff ff08 	bl	80020d0 <updateStripe>
}
 80022c0:	46bd      	mov	sp, r7
 80022c2:	b004      	add	sp, #16
 80022c4:	bd80      	pop	{r7, pc}
 80022c6:	46c0      	nop			; (mov r8, r8)
 80022c8:	200003cc 	.word	0x200003cc
 80022cc:	200003d0 	.word	0x200003d0

080022d0 <apa102_setSingle>:

void apa102_setSingle(uint8_t index, uint8_t global)
{
 80022d0:	b580      	push	{r7, lr}
 80022d2:	b082      	sub	sp, #8
 80022d4:	af00      	add	r7, sp, #0
 80022d6:	1c0a      	adds	r2, r1, #0
 80022d8:	1dfb      	adds	r3, r7, #7
 80022da:	1c01      	adds	r1, r0, #0
 80022dc:	7019      	strb	r1, [r3, #0]
 80022de:	1dbb      	adds	r3, r7, #6
 80022e0:	701a      	strb	r2, [r3, #0]
	apa102_setPattern(1<<index,global);
 80022e2:	1dfb      	adds	r3, r7, #7
 80022e4:	781b      	ldrb	r3, [r3, #0]
 80022e6:	2201      	movs	r2, #1
 80022e8:	1c11      	adds	r1, r2, #0
 80022ea:	4099      	lsls	r1, r3
 80022ec:	1c0b      	adds	r3, r1, #0
 80022ee:	b29a      	uxth	r2, r3
 80022f0:	1dbb      	adds	r3, r7, #6
 80022f2:	781b      	ldrb	r3, [r3, #0]
 80022f4:	1c10      	adds	r0, r2, #0
 80022f6:	1c19      	adds	r1, r3, #0
 80022f8:	f7ff ff8a 	bl	8002210 <apa102_setPattern>
}
 80022fc:	46bd      	mov	sp, r7
 80022fe:	b002      	add	sp, #8
 8002300:	bd80      	pop	{r7, pc}
 8002302:	46c0      	nop			; (mov r8, r8)

08002304 <apa102_allOff>:

void apa102_allOff()
{
 8002304:	b580      	push	{r7, lr}
 8002306:	b082      	sub	sp, #8
 8002308:	af00      	add	r7, sp, #0
	for(uint16_t i = 0; i< 16; i++)
 800230a:	1dbb      	adds	r3, r7, #6
 800230c:	2200      	movs	r2, #0
 800230e:	801a      	strh	r2, [r3, #0]
 8002310:	e01f      	b.n	8002352 <apa102_allOff+0x4e>
	{

		leds[i].global = 0;
 8002312:	1dbb      	adds	r3, r7, #6
 8002314:	881a      	ldrh	r2, [r3, #0]
 8002316:	4b13      	ldr	r3, [pc, #76]	; (8002364 <apa102_allOff+0x60>)
 8002318:	0092      	lsls	r2, r2, #2
 800231a:	2100      	movs	r1, #0
 800231c:	54d1      	strb	r1, [r2, r3]
		leds[i].blue = 0;
 800231e:	1dbb      	adds	r3, r7, #6
 8002320:	881b      	ldrh	r3, [r3, #0]
 8002322:	4a10      	ldr	r2, [pc, #64]	; (8002364 <apa102_allOff+0x60>)
 8002324:	009b      	lsls	r3, r3, #2
 8002326:	18d3      	adds	r3, r2, r3
 8002328:	2200      	movs	r2, #0
 800232a:	705a      	strb	r2, [r3, #1]
		leds[i].green = 0;
 800232c:	1dbb      	adds	r3, r7, #6
 800232e:	881b      	ldrh	r3, [r3, #0]
 8002330:	4a0c      	ldr	r2, [pc, #48]	; (8002364 <apa102_allOff+0x60>)
 8002332:	009b      	lsls	r3, r3, #2
 8002334:	18d3      	adds	r3, r2, r3
 8002336:	2200      	movs	r2, #0
 8002338:	709a      	strb	r2, [r3, #2]
		leds[i].red = 0;
 800233a:	1dbb      	adds	r3, r7, #6
 800233c:	881b      	ldrh	r3, [r3, #0]
 800233e:	4a09      	ldr	r2, [pc, #36]	; (8002364 <apa102_allOff+0x60>)
 8002340:	009b      	lsls	r3, r3, #2
 8002342:	18d3      	adds	r3, r2, r3
 8002344:	2200      	movs	r2, #0
 8002346:	70da      	strb	r2, [r3, #3]
	apa102_setPattern(1<<index,global);
}

void apa102_allOff()
{
	for(uint16_t i = 0; i< 16; i++)
 8002348:	1dbb      	adds	r3, r7, #6
 800234a:	881a      	ldrh	r2, [r3, #0]
 800234c:	1dbb      	adds	r3, r7, #6
 800234e:	3201      	adds	r2, #1
 8002350:	801a      	strh	r2, [r3, #0]
 8002352:	1dbb      	adds	r3, r7, #6
 8002354:	881b      	ldrh	r3, [r3, #0]
 8002356:	2b0f      	cmp	r3, #15
 8002358:	d9db      	bls.n	8002312 <apa102_allOff+0xe>
		leds[i].blue = 0;
		leds[i].green = 0;
		leds[i].red = 0;

	}
	updateStripe();
 800235a:	f7ff feb9 	bl	80020d0 <updateStripe>
}
 800235e:	46bd      	mov	sp, r7
 8002360:	b002      	add	sp, #8
 8002362:	bd80      	pop	{r7, pc}
 8002364:	200003d0 	.word	0x200003d0

08002368 <NVIC_SetPriority>:

    \param [in]      IRQn  Interrupt number.
    \param [in]  priority  Priority to set.
 */
__STATIC_INLINE void NVIC_SetPriority(IRQn_Type IRQn, uint32_t priority)
{
 8002368:	b5b0      	push	{r4, r5, r7, lr}
 800236a:	b082      	sub	sp, #8
 800236c:	af00      	add	r7, sp, #0
 800236e:	1c02      	adds	r2, r0, #0
 8002370:	6039      	str	r1, [r7, #0]
 8002372:	1dfb      	adds	r3, r7, #7
 8002374:	701a      	strb	r2, [r3, #0]
  if(IRQn < 0) {
 8002376:	1dfb      	adds	r3, r7, #7
 8002378:	781b      	ldrb	r3, [r3, #0]
 800237a:	2b7f      	cmp	r3, #127	; 0x7f
 800237c:	d932      	bls.n	80023e4 <NVIC_SetPriority+0x7c>
    SCB->SHP[_SHP_IDX(IRQn)] = (SCB->SHP[_SHP_IDX(IRQn)] & ~(0xFF << _BIT_SHIFT(IRQn))) |
 800237e:	4930      	ldr	r1, [pc, #192]	; (8002440 <NVIC_SetPriority+0xd8>)
 8002380:	1dfb      	adds	r3, r7, #7
 8002382:	781b      	ldrb	r3, [r3, #0]
 8002384:	1c1a      	adds	r2, r3, #0
 8002386:	230f      	movs	r3, #15
 8002388:	4013      	ands	r3, r2
 800238a:	3b08      	subs	r3, #8
 800238c:	0898      	lsrs	r0, r3, #2
 800238e:	4a2c      	ldr	r2, [pc, #176]	; (8002440 <NVIC_SetPriority+0xd8>)
 8002390:	1dfb      	adds	r3, r7, #7
 8002392:	781b      	ldrb	r3, [r3, #0]
 8002394:	1c1c      	adds	r4, r3, #0
 8002396:	230f      	movs	r3, #15
 8002398:	4023      	ands	r3, r4
 800239a:	3b08      	subs	r3, #8
 800239c:	089b      	lsrs	r3, r3, #2
 800239e:	3306      	adds	r3, #6
 80023a0:	009b      	lsls	r3, r3, #2
 80023a2:	18d3      	adds	r3, r2, r3
 80023a4:	685b      	ldr	r3, [r3, #4]
 80023a6:	1dfa      	adds	r2, r7, #7
 80023a8:	7812      	ldrb	r2, [r2, #0]
 80023aa:	1c14      	adds	r4, r2, #0
 80023ac:	2203      	movs	r2, #3
 80023ae:	4022      	ands	r2, r4
 80023b0:	00d2      	lsls	r2, r2, #3
 80023b2:	24ff      	movs	r4, #255	; 0xff
 80023b4:	1c25      	adds	r5, r4, #0
 80023b6:	4095      	lsls	r5, r2
 80023b8:	1c2a      	adds	r2, r5, #0
 80023ba:	43d2      	mvns	r2, r2
 80023bc:	401a      	ands	r2, r3
        (((priority << (8 - __NVIC_PRIO_BITS)) & 0xFF) << _BIT_SHIFT(IRQn)); }
 80023be:	683b      	ldr	r3, [r7, #0]
 80023c0:	019c      	lsls	r4, r3, #6
 80023c2:	23ff      	movs	r3, #255	; 0xff
 80023c4:	401c      	ands	r4, r3
 80023c6:	1dfb      	adds	r3, r7, #7
 80023c8:	781b      	ldrb	r3, [r3, #0]
 80023ca:	1c1d      	adds	r5, r3, #0
 80023cc:	2303      	movs	r3, #3
 80023ce:	402b      	ands	r3, r5
 80023d0:	00db      	lsls	r3, r3, #3
 80023d2:	1c25      	adds	r5, r4, #0
 80023d4:	409d      	lsls	r5, r3
 80023d6:	1c2b      	adds	r3, r5, #0
    \param [in]  priority  Priority to set.
 */
__STATIC_INLINE void NVIC_SetPriority(IRQn_Type IRQn, uint32_t priority)
{
  if(IRQn < 0) {
    SCB->SHP[_SHP_IDX(IRQn)] = (SCB->SHP[_SHP_IDX(IRQn)] & ~(0xFF << _BIT_SHIFT(IRQn))) |
 80023d8:	431a      	orrs	r2, r3
 80023da:	1d83      	adds	r3, r0, #6
 80023dc:	009b      	lsls	r3, r3, #2
 80023de:	18cb      	adds	r3, r1, r3
 80023e0:	605a      	str	r2, [r3, #4]
 80023e2:	e029      	b.n	8002438 <NVIC_SetPriority+0xd0>
        (((priority << (8 - __NVIC_PRIO_BITS)) & 0xFF) << _BIT_SHIFT(IRQn)); }
  else {
    NVIC->IP[_IP_IDX(IRQn)] = (NVIC->IP[_IP_IDX(IRQn)] & ~(0xFF << _BIT_SHIFT(IRQn))) |
 80023e4:	4b17      	ldr	r3, [pc, #92]	; (8002444 <NVIC_SetPriority+0xdc>)
 80023e6:	1dfa      	adds	r2, r7, #7
 80023e8:	7812      	ldrb	r2, [r2, #0]
 80023ea:	b252      	sxtb	r2, r2
 80023ec:	0892      	lsrs	r2, r2, #2
 80023ee:	4915      	ldr	r1, [pc, #84]	; (8002444 <NVIC_SetPriority+0xdc>)
 80023f0:	1df8      	adds	r0, r7, #7
 80023f2:	7800      	ldrb	r0, [r0, #0]
 80023f4:	b240      	sxtb	r0, r0
 80023f6:	0880      	lsrs	r0, r0, #2
 80023f8:	30c0      	adds	r0, #192	; 0xc0
 80023fa:	0080      	lsls	r0, r0, #2
 80023fc:	5841      	ldr	r1, [r0, r1]
 80023fe:	1df8      	adds	r0, r7, #7
 8002400:	7800      	ldrb	r0, [r0, #0]
 8002402:	1c04      	adds	r4, r0, #0
 8002404:	2003      	movs	r0, #3
 8002406:	4020      	ands	r0, r4
 8002408:	00c0      	lsls	r0, r0, #3
 800240a:	24ff      	movs	r4, #255	; 0xff
 800240c:	1c25      	adds	r5, r4, #0
 800240e:	4085      	lsls	r5, r0
 8002410:	1c28      	adds	r0, r5, #0
 8002412:	43c0      	mvns	r0, r0
 8002414:	4008      	ands	r0, r1
        (((priority << (8 - __NVIC_PRIO_BITS)) & 0xFF) << _BIT_SHIFT(IRQn)); }
 8002416:	6839      	ldr	r1, [r7, #0]
 8002418:	018c      	lsls	r4, r1, #6
 800241a:	21ff      	movs	r1, #255	; 0xff
 800241c:	400c      	ands	r4, r1
 800241e:	1df9      	adds	r1, r7, #7
 8002420:	7809      	ldrb	r1, [r1, #0]
 8002422:	1c0d      	adds	r5, r1, #0
 8002424:	2103      	movs	r1, #3
 8002426:	4029      	ands	r1, r5
 8002428:	00c9      	lsls	r1, r1, #3
 800242a:	1c25      	adds	r5, r4, #0
 800242c:	408d      	lsls	r5, r1
 800242e:	1c29      	adds	r1, r5, #0
{
  if(IRQn < 0) {
    SCB->SHP[_SHP_IDX(IRQn)] = (SCB->SHP[_SHP_IDX(IRQn)] & ~(0xFF << _BIT_SHIFT(IRQn))) |
        (((priority << (8 - __NVIC_PRIO_BITS)) & 0xFF) << _BIT_SHIFT(IRQn)); }
  else {
    NVIC->IP[_IP_IDX(IRQn)] = (NVIC->IP[_IP_IDX(IRQn)] & ~(0xFF << _BIT_SHIFT(IRQn))) |
 8002430:	4301      	orrs	r1, r0
 8002432:	32c0      	adds	r2, #192	; 0xc0
 8002434:	0092      	lsls	r2, r2, #2
 8002436:	50d1      	str	r1, [r2, r3]
        (((priority << (8 - __NVIC_PRIO_BITS)) & 0xFF) << _BIT_SHIFT(IRQn)); }
}
 8002438:	46bd      	mov	sp, r7
 800243a:	b002      	add	sp, #8
 800243c:	bdb0      	pop	{r4, r5, r7, pc}
 800243e:	46c0      	nop			; (mov r8, r8)
 8002440:	e000ed00 	.word	0xe000ed00
 8002444:	e000e100 	.word	0xe000e100

08002448 <SysTick_Config>:
    function <b>SysTick_Config</b> is not included. In this case, the file <b><i>device</i>.h</b>
    must contain a vendor-specific implementation of this function.

 */
__STATIC_INLINE uint32_t SysTick_Config(uint32_t ticks)
{
 8002448:	b580      	push	{r7, lr}
 800244a:	b082      	sub	sp, #8
 800244c:	af00      	add	r7, sp, #0
 800244e:	6078      	str	r0, [r7, #4]
  if ((ticks - 1) > SysTick_LOAD_RELOAD_Msk)  return (1);      /* Reload value impossible */
 8002450:	687b      	ldr	r3, [r7, #4]
 8002452:	1e5a      	subs	r2, r3, #1
 8002454:	4b0c      	ldr	r3, [pc, #48]	; (8002488 <SysTick_Config+0x40>)
 8002456:	429a      	cmp	r2, r3
 8002458:	d901      	bls.n	800245e <SysTick_Config+0x16>
 800245a:	2301      	movs	r3, #1
 800245c:	e010      	b.n	8002480 <SysTick_Config+0x38>

  SysTick->LOAD  = ticks - 1;                                  /* set reload register */
 800245e:	4b0b      	ldr	r3, [pc, #44]	; (800248c <SysTick_Config+0x44>)
 8002460:	687a      	ldr	r2, [r7, #4]
 8002462:	3a01      	subs	r2, #1
 8002464:	605a      	str	r2, [r3, #4]
  NVIC_SetPriority (SysTick_IRQn, (1<<__NVIC_PRIO_BITS) - 1);  /* set Priority for Systick Interrupt */
 8002466:	2301      	movs	r3, #1
 8002468:	425b      	negs	r3, r3
 800246a:	1c18      	adds	r0, r3, #0
 800246c:	2103      	movs	r1, #3
 800246e:	f7ff ff7b 	bl	8002368 <NVIC_SetPriority>
  SysTick->VAL   = 0;                                          /* Load the SysTick Counter Value */
 8002472:	4b06      	ldr	r3, [pc, #24]	; (800248c <SysTick_Config+0x44>)
 8002474:	2200      	movs	r2, #0
 8002476:	609a      	str	r2, [r3, #8]
  SysTick->CTRL  = SysTick_CTRL_CLKSOURCE_Msk |
 8002478:	4b04      	ldr	r3, [pc, #16]	; (800248c <SysTick_Config+0x44>)
 800247a:	2207      	movs	r2, #7
 800247c:	601a      	str	r2, [r3, #0]
                   SysTick_CTRL_TICKINT_Msk   |
                   SysTick_CTRL_ENABLE_Msk;                    /* Enable SysTick IRQ and SysTick Timer */
  return (0);                                                  /* Function successful */
 800247e:	2300      	movs	r3, #0
}
 8002480:	1c18      	adds	r0, r3, #0
 8002482:	46bd      	mov	sp, r7
 8002484:	b002      	add	sp, #8
 8002486:	bd80      	pop	{r7, pc}
 8002488:	00ffffff 	.word	0x00ffffff
 800248c:	e000e010 	.word	0xe000e010

08002490 <SysTick_Handler>:
uint8_t errorcode = 0;

uint8_t tempstring[32];

void SysTick_Handler(void)
{
 8002490:	b580      	push	{r7, lr}
 8002492:	af00      	add	r7, sp, #0
	if(delayTimer)
 8002494:	4b0c      	ldr	r3, [pc, #48]	; (80024c8 <SysTick_Handler+0x38>)
 8002496:	681b      	ldr	r3, [r3, #0]
 8002498:	2b00      	cmp	r3, #0
 800249a:	d004      	beq.n	80024a6 <SysTick_Handler+0x16>
	{
		delayTimer--;
 800249c:	4b0a      	ldr	r3, [pc, #40]	; (80024c8 <SysTick_Handler+0x38>)
 800249e:	681b      	ldr	r3, [r3, #0]
 80024a0:	1e5a      	subs	r2, r3, #1
 80024a2:	4b09      	ldr	r3, [pc, #36]	; (80024c8 <SysTick_Handler+0x38>)
 80024a4:	601a      	str	r2, [r3, #0]
	}
	timer++;
 80024a6:	4b09      	ldr	r3, [pc, #36]	; (80024cc <SysTick_Handler+0x3c>)
 80024a8:	681b      	ldr	r3, [r3, #0]
 80024aa:	1c5a      	adds	r2, r3, #1
 80024ac:	4b07      	ldr	r3, [pc, #28]	; (80024cc <SysTick_Handler+0x3c>)
 80024ae:	601a      	str	r2, [r3, #0]

	if  (timer>=100)
 80024b0:	4b06      	ldr	r3, [pc, #24]	; (80024cc <SysTick_Handler+0x3c>)
 80024b2:	681b      	ldr	r3, [r3, #0]
 80024b4:	2b63      	cmp	r3, #99	; 0x63
 80024b6:	d905      	bls.n	80024c4 <SysTick_Handler+0x34>
	{
		timerFlag = 1;
 80024b8:	4b05      	ldr	r3, [pc, #20]	; (80024d0 <SysTick_Handler+0x40>)
 80024ba:	2201      	movs	r2, #1
 80024bc:	701a      	strb	r2, [r3, #0]
		timer = 0;
 80024be:	4b03      	ldr	r3, [pc, #12]	; (80024cc <SysTick_Handler+0x3c>)
 80024c0:	2200      	movs	r2, #0
 80024c2:	601a      	str	r2, [r3, #0]
	}
}
 80024c4:	46bd      	mov	sp, r7
 80024c6:	bd80      	pop	{r7, pc}
 80024c8:	2000045c 	.word	0x2000045c
 80024cc:	20000148 	.word	0x20000148
 80024d0:	2000014c 	.word	0x2000014c

080024d4 <delay>:


void delay(uint32_t ticks)
{
 80024d4:	b580      	push	{r7, lr}
 80024d6:	b082      	sub	sp, #8
 80024d8:	af00      	add	r7, sp, #0
 80024da:	6078      	str	r0, [r7, #4]
	delayTimer = ticks;
 80024dc:	4b05      	ldr	r3, [pc, #20]	; (80024f4 <delay+0x20>)
 80024de:	687a      	ldr	r2, [r7, #4]
 80024e0:	601a      	str	r2, [r3, #0]
	while(delayTimer > 0);
 80024e2:	46c0      	nop			; (mov r8, r8)
 80024e4:	4b03      	ldr	r3, [pc, #12]	; (80024f4 <delay+0x20>)
 80024e6:	681b      	ldr	r3, [r3, #0]
 80024e8:	2b00      	cmp	r3, #0
 80024ea:	d1fb      	bne.n	80024e4 <delay+0x10>
}
 80024ec:	46bd      	mov	sp, r7
 80024ee:	b002      	add	sp, #8
 80024f0:	bd80      	pop	{r7, pc}
 80024f2:	46c0      	nop			; (mov r8, r8)
 80024f4:	2000045c 	.word	0x2000045c

080024f8 <main>:
 */

int main(void)


{
 80024f8:	b580      	push	{r7, lr}
 80024fa:	b082      	sub	sp, #8
 80024fc:	af00      	add	r7, sp, #0
	SystemInit();
 80024fe:	f7fd fe53 	bl	80001a8 <SystemInit>
	SystemCoreClockUpdate();
 8002502:	f7fd fe99 	bl	8000238 <SystemCoreClockUpdate>
	//the systick timer runs with 6MHz
	//config the timer for 1ms interval
	SysTick_Config(SystemCoreClock / 8 / 1000);
 8002506:	4b38      	ldr	r3, [pc, #224]	; (80025e8 <main+0xf0>)
 8002508:	681b      	ldr	r3, [r3, #0]
 800250a:	1c18      	adds	r0, r3, #0
 800250c:	23fa      	movs	r3, #250	; 0xfa
 800250e:	0159      	lsls	r1, r3, #5
 8002510:	f7fd fdfa 	bl	8000108 <__aeabi_uidiv>
 8002514:	1c03      	adds	r3, r0, #0
 8002516:	1c18      	adds	r0, r3, #0
 8002518:	f7ff ff96 	bl	8002448 <SysTick_Config>
	//the systick_config just set the priority of the systick to 15  or so - very low!
	//set it back to 0
	NVIC_SetPriority(SysTick_IRQn,0);
 800251c:	2301      	movs	r3, #1
 800251e:	425b      	negs	r3, r3
 8002520:	1c18      	adds	r0, r3, #0
 8002522:	2100      	movs	r1, #0
 8002524:	f7ff ff20 	bl	8002368 <NVIC_SetPriority>
	SysTick_CLKSourceConfig(SysTick_CLKSource_HCLK_Div8);
 8002528:	2305      	movs	r3, #5
 800252a:	425b      	negs	r3, r3
 800252c:	1c18      	adds	r0, r3, #0
 800252e:	f003 fdcb 	bl	80060c8 <SysTick_CLKSourceConfig>
//	{
//		dbgLED_toggle();
//		delay(100);
//	}
//	dbgLED_off();
	USB_Init();
 8002532:	f7fe fe85 	bl	8001240 <USB_Init>
	consoleInit();
 8002536:	f000 fa23 	bl	8002980 <consoleInit>
	mma8653_init();
 800253a:	f7ff f933 	bl	80017a4 <mma8653_init>
	apa102_init();
 800253e:	f7ff fd33 	bl	8001fa8 <apa102_init>
	//LED-Test
	for(uint8_t i = 0; i<16; i++)
 8002542:	1dfb      	adds	r3, r7, #7
 8002544:	2200      	movs	r2, #0
 8002546:	701a      	strb	r2, [r3, #0]
 8002548:	e00d      	b.n	8002566 <main+0x6e>
	{
		apa102_setSingle(i,10);
 800254a:	1dfb      	adds	r3, r7, #7
 800254c:	781b      	ldrb	r3, [r3, #0]
 800254e:	1c18      	adds	r0, r3, #0
 8002550:	210a      	movs	r1, #10
 8002552:	f7ff febd 	bl	80022d0 <apa102_setSingle>
		delay(30);
 8002556:	201e      	movs	r0, #30
 8002558:	f7ff ffbc 	bl	80024d4 <delay>
	USB_Init();
	consoleInit();
	mma8653_init();
	apa102_init();
	//LED-Test
	for(uint8_t i = 0; i<16; i++)
 800255c:	1dfb      	adds	r3, r7, #7
 800255e:	781a      	ldrb	r2, [r3, #0]
 8002560:	1dfb      	adds	r3, r7, #7
 8002562:	3201      	adds	r2, #1
 8002564:	701a      	strb	r2, [r3, #0]
 8002566:	1dfb      	adds	r3, r7, #7
 8002568:	781b      	ldrb	r3, [r3, #0]
 800256a:	2b0f      	cmp	r3, #15
 800256c:	d9ed      	bls.n	800254a <main+0x52>
	{
		apa102_setSingle(i,10);
		delay(30);
	}
	apa102_allOff();
 800256e:	f7ff fec9 	bl	8002304 <apa102_allOff>
	//TODO: battery-check is still missing

	displayInit();
 8002572:	f7ff fad5 	bl	8001b20 <displayInit>



	while(1)
	{
		if(timerFlag)
 8002576:	4b1d      	ldr	r3, [pc, #116]	; (80025ec <main+0xf4>)
 8002578:	781b      	ldrb	r3, [r3, #0]
 800257a:	b2db      	uxtb	r3, r3
 800257c:	2b00      	cmp	r3, #0
 800257e:	d032      	beq.n	80025e6 <main+0xee>
		{
			timerFlag = 0;
 8002580:	4b1a      	ldr	r3, [pc, #104]	; (80025ec <main+0xf4>)
 8002582:	2200      	movs	r2, #0
 8002584:	701a      	strb	r2, [r3, #0]


			if(USB_Flags & USB_FLAG_FIRST_CONTACT)
 8002586:	4b1a      	ldr	r3, [pc, #104]	; (80025f0 <main+0xf8>)
 8002588:	781b      	ldrb	r3, [r3, #0]
 800258a:	b2db      	uxtb	r3, r3
 800258c:	1c1a      	adds	r2, r3, #0
 800258e:	2304      	movs	r3, #4
 8002590:	4013      	ands	r3, r2
 8002592:	d00c      	beq.n	80025ae <main+0xb6>
			{
				USB_Flags &= ~USB_FLAG_FIRST_CONTACT;
 8002594:	4b16      	ldr	r3, [pc, #88]	; (80025f0 <main+0xf8>)
 8002596:	781b      	ldrb	r3, [r3, #0]
 8002598:	b2db      	uxtb	r3, r3
 800259a:	2204      	movs	r2, #4
 800259c:	4393      	bics	r3, r2
 800259e:	b2da      	uxtb	r2, r3
 80025a0:	4b13      	ldr	r3, [pc, #76]	; (80025f0 <main+0xf8>)
 80025a2:	701a      	strb	r2, [r3, #0]
				USB_VCP_DataTx((uint8_t*)"----LightShaker - POV_Display - Version1.1----\n",0);
 80025a4:	4b13      	ldr	r3, [pc, #76]	; (80025f4 <main+0xfc>)
 80025a6:	1c18      	adds	r0, r3, #0
 80025a8:	2100      	movs	r1, #0
 80025aa:	f7fe fea9 	bl	8001300 <USB_VCP_DataTx>
			}
			if(USB_Flags & USB_FLAG_CDC_OPEN)
 80025ae:	4b10      	ldr	r3, [pc, #64]	; (80025f0 <main+0xf8>)
 80025b0:	781b      	ldrb	r3, [r3, #0]
 80025b2:	b2db      	uxtb	r3, r3
 80025b4:	1c1a      	adds	r2, r3, #0
 80025b6:	2302      	movs	r3, #2
 80025b8:	4013      	ands	r3, r2
 80025ba:	d014      	beq.n	80025e6 <main+0xee>
			{
				if(errorcode != 0)
 80025bc:	4b0e      	ldr	r3, [pc, #56]	; (80025f8 <main+0x100>)
 80025be:	781b      	ldrb	r3, [r3, #0]
 80025c0:	2b00      	cmp	r3, #0
 80025c2:	d00d      	beq.n	80025e0 <main+0xe8>
				{
					sprintf((char*)tempstring,"Error %i occured!\n",errorcode);
 80025c4:	4b0c      	ldr	r3, [pc, #48]	; (80025f8 <main+0x100>)
 80025c6:	781b      	ldrb	r3, [r3, #0]
 80025c8:	490c      	ldr	r1, [pc, #48]	; (80025fc <main+0x104>)
 80025ca:	4a0d      	ldr	r2, [pc, #52]	; (8002600 <main+0x108>)
 80025cc:	1c08      	adds	r0, r1, #0
 80025ce:	1c11      	adds	r1, r2, #0
 80025d0:	1c1a      	adds	r2, r3, #0
 80025d2:	f004 f9c9 	bl	8006968 <siprintf>
					USB_VCP_DataTx((uint8_t*)tempstring,0);
 80025d6:	4b09      	ldr	r3, [pc, #36]	; (80025fc <main+0x104>)
 80025d8:	1c18      	adds	r0, r3, #0
 80025da:	2100      	movs	r1, #0
 80025dc:	f7fe fe90 	bl	8001300 <USB_VCP_DataTx>
				}
				consoleExecute();
 80025e0:	f000 fadc 	bl	8002b9c <consoleExecute>
			}
		}
	}
 80025e4:	e7c7      	b.n	8002576 <main+0x7e>
 80025e6:	e7c6      	b.n	8002576 <main+0x7e>
 80025e8:	20000000 	.word	0x20000000
 80025ec:	2000014c 	.word	0x2000014c
 80025f0:	200001d2 	.word	0x200001d2
 80025f4:	08007214 	.word	0x08007214
 80025f8:	2000014d 	.word	0x2000014d
 80025fc:	20000460 	.word	0x20000460
 8002600:	08007244 	.word	0x08007244

08002604 <StrFindChar>:
 * returns the index of the first occurrence of char in the string starting at startindex
 * if not found, returns 0xFFFF
 * can be used to find the length of an string (charTofind = 0x00, length = LENGTH_UNKNOWN)
 */
uint16_t StrFindChar(uint8_t* string, uint8_t charToFind, uint8_t startIdx, uint8_t length)
{
 8002604:	b580      	push	{r7, lr}
 8002606:	b084      	sub	sp, #16
 8002608:	af00      	add	r7, sp, #0
 800260a:	6078      	str	r0, [r7, #4]
 800260c:	1c08      	adds	r0, r1, #0
 800260e:	1c11      	adds	r1, r2, #0
 8002610:	1c1a      	adds	r2, r3, #0
 8002612:	1cfb      	adds	r3, r7, #3
 8002614:	7018      	strb	r0, [r3, #0]
 8002616:	1cbb      	adds	r3, r7, #2
 8002618:	7019      	strb	r1, [r3, #0]
 800261a:	1c7b      	adds	r3, r7, #1
 800261c:	701a      	strb	r2, [r3, #0]
	for(uint16_t i = startIdx; i < length+startIdx; i++)
 800261e:	1c3b      	adds	r3, r7, #0
 8002620:	330e      	adds	r3, #14
 8002622:	1cba      	adds	r2, r7, #2
 8002624:	7812      	ldrb	r2, [r2, #0]
 8002626:	801a      	strh	r2, [r3, #0]
 8002628:	e022      	b.n	8002670 <StrFindChar+0x6c>
	{
		if(string[i] == charToFind)
 800262a:	1c3b      	adds	r3, r7, #0
 800262c:	330e      	adds	r3, #14
 800262e:	881b      	ldrh	r3, [r3, #0]
 8002630:	687a      	ldr	r2, [r7, #4]
 8002632:	18d3      	adds	r3, r2, r3
 8002634:	781b      	ldrb	r3, [r3, #0]
 8002636:	1cfa      	adds	r2, r7, #3
 8002638:	7812      	ldrb	r2, [r2, #0]
 800263a:	429a      	cmp	r2, r3
 800263c:	d103      	bne.n	8002646 <StrFindChar+0x42>
		{
			return i;
 800263e:	1c3b      	adds	r3, r7, #0
 8002640:	330e      	adds	r3, #14
 8002642:	881b      	ldrh	r3, [r3, #0]
 8002644:	e01f      	b.n	8002686 <StrFindChar+0x82>
		}
		if(length == LENGTH_UNKNOWN && string[i] == 0x00)
 8002646:	1c7b      	adds	r3, r7, #1
 8002648:	781b      	ldrb	r3, [r3, #0]
 800264a:	2bff      	cmp	r3, #255	; 0xff
 800264c:	d109      	bne.n	8002662 <StrFindChar+0x5e>
 800264e:	1c3b      	adds	r3, r7, #0
 8002650:	330e      	adds	r3, #14
 8002652:	881b      	ldrh	r3, [r3, #0]
 8002654:	687a      	ldr	r2, [r7, #4]
 8002656:	18d3      	adds	r3, r2, r3
 8002658:	781b      	ldrb	r3, [r3, #0]
 800265a:	2b00      	cmp	r3, #0
 800265c:	d101      	bne.n	8002662 <StrFindChar+0x5e>
		{
			return 0xFFFF;
 800265e:	4b0c      	ldr	r3, [pc, #48]	; (8002690 <StrFindChar+0x8c>)
 8002660:	e011      	b.n	8002686 <StrFindChar+0x82>
 * if not found, returns 0xFFFF
 * can be used to find the length of an string (charTofind = 0x00, length = LENGTH_UNKNOWN)
 */
uint16_t StrFindChar(uint8_t* string, uint8_t charToFind, uint8_t startIdx, uint8_t length)
{
	for(uint16_t i = startIdx; i < length+startIdx; i++)
 8002662:	1c3b      	adds	r3, r7, #0
 8002664:	330e      	adds	r3, #14
 8002666:	881a      	ldrh	r2, [r3, #0]
 8002668:	1c3b      	adds	r3, r7, #0
 800266a:	330e      	adds	r3, #14
 800266c:	3201      	adds	r2, #1
 800266e:	801a      	strh	r2, [r3, #0]
 8002670:	1c3b      	adds	r3, r7, #0
 8002672:	330e      	adds	r3, #14
 8002674:	881a      	ldrh	r2, [r3, #0]
 8002676:	1c7b      	adds	r3, r7, #1
 8002678:	7819      	ldrb	r1, [r3, #0]
 800267a:	1cbb      	adds	r3, r7, #2
 800267c:	781b      	ldrb	r3, [r3, #0]
 800267e:	18cb      	adds	r3, r1, r3
 8002680:	429a      	cmp	r2, r3
 8002682:	dbd2      	blt.n	800262a <StrFindChar+0x26>
		if(length == LENGTH_UNKNOWN && string[i] == 0x00)
		{
			return 0xFFFF;
		}
	}
	return 0xFFFF;
 8002684:	4b02      	ldr	r3, [pc, #8]	; (8002690 <StrFindChar+0x8c>)
}
 8002686:	1c18      	adds	r0, r3, #0
 8002688:	46bd      	mov	sp, r7
 800268a:	b004      	add	sp, #16
 800268c:	bd80      	pop	{r7, pc}
 800268e:	46c0      	nop			; (mov r8, r8)
 8002690:	0000ffff 	.word	0x0000ffff

08002694 <StrToU32>:
 * the number doesn't have to be right at the beginning, the algorithm searches for the first number (beginning at startIdx)
 * if something goes wrong, it returns 0xFFFFFFFF
 * automatically terminates @ null-character
 */
uint32_t StrToU32(uint8_t* string, uint8_t startIdx, uint8_t length)
{
 8002694:	b580      	push	{r7, lr}
 8002696:	b086      	sub	sp, #24
 8002698:	af00      	add	r7, sp, #0
 800269a:	6078      	str	r0, [r7, #4]
 800269c:	1cfb      	adds	r3, r7, #3
 800269e:	7019      	strb	r1, [r3, #0]
 80026a0:	1cbb      	adds	r3, r7, #2
 80026a2:	701a      	strb	r2, [r3, #0]

	uint8_t numberStartIdx = 0;
 80026a4:	1c3b      	adds	r3, r7, #0
 80026a6:	3317      	adds	r3, #23
 80026a8:	2200      	movs	r2, #0
 80026aa:	701a      	strb	r2, [r3, #0]
	uint8_t radix = 2;
 80026ac:	1c3b      	adds	r3, r7, #0
 80026ae:	3316      	adds	r3, #22
 80026b0:	2202      	movs	r2, #2
 80026b2:	701a      	strb	r2, [r3, #0]


	//if the length is not specified, it will be 0xFF -> search for null-character
	if(length == LENGTH_UNKNOWN)
 80026b4:	1cbb      	adds	r3, r7, #2
 80026b6:	781b      	ldrb	r3, [r3, #0]
 80026b8:	2bff      	cmp	r3, #255	; 0xff
 80026ba:	d10f      	bne.n	80026dc <StrToU32+0x48>
	{
		length = StrFindChar(string, 0x00, startIdx,0xFF)-startIdx;
 80026bc:	687a      	ldr	r2, [r7, #4]
 80026be:	1cfb      	adds	r3, r7, #3
 80026c0:	781b      	ldrb	r3, [r3, #0]
 80026c2:	1c10      	adds	r0, r2, #0
 80026c4:	2100      	movs	r1, #0
 80026c6:	1c1a      	adds	r2, r3, #0
 80026c8:	23ff      	movs	r3, #255	; 0xff
 80026ca:	f7ff ff9b 	bl	8002604 <StrFindChar>
 80026ce:	1c03      	adds	r3, r0, #0
 80026d0:	b2d9      	uxtb	r1, r3
 80026d2:	1cbb      	adds	r3, r7, #2
 80026d4:	1cfa      	adds	r2, r7, #3
 80026d6:	7812      	ldrb	r2, [r2, #0]
 80026d8:	1a8a      	subs	r2, r1, r2
 80026da:	701a      	strb	r2, [r3, #0]
	}

	//we will need this more than once
	uint8_t endIdx = startIdx + length - 1;
 80026dc:	1cfa      	adds	r2, r7, #3
 80026de:	1cbb      	adds	r3, r7, #2
 80026e0:	7812      	ldrb	r2, [r2, #0]
 80026e2:	781b      	ldrb	r3, [r3, #0]
 80026e4:	18d3      	adds	r3, r2, r3
 80026e6:	b2da      	uxtb	r2, r3
 80026e8:	1c3b      	adds	r3, r7, #0
 80026ea:	330e      	adds	r3, #14
 80026ec:	3a01      	subs	r2, #1
 80026ee:	701a      	strb	r2, [r3, #0]


	//search for the first number
	for(uint8_t i = startIdx; i <= endIdx; i++)
 80026f0:	1c3b      	adds	r3, r7, #0
 80026f2:	330d      	adds	r3, #13
 80026f4:	1cfa      	adds	r2, r7, #3
 80026f6:	7812      	ldrb	r2, [r2, #0]
 80026f8:	701a      	strb	r2, [r3, #0]
 80026fa:	1c3a      	adds	r2, r7, #0
 80026fc:	320d      	adds	r2, #13
 80026fe:	1c3b      	adds	r3, r7, #0
 8002700:	330e      	adds	r3, #14
 8002702:	7812      	ldrb	r2, [r2, #0]
 8002704:	781b      	ldrb	r3, [r3, #0]
 8002706:	429a      	cmp	r2, r3
 8002708:	d900      	bls.n	800270c <StrToU32+0x78>
 800270a:	e085      	b.n	8002818 <StrToU32+0x184>
	{
		if(string[i] >= '0' && string[i] <= '9')
 800270c:	1c3b      	adds	r3, r7, #0
 800270e:	330d      	adds	r3, #13
 8002710:	781b      	ldrb	r3, [r3, #0]
 8002712:	687a      	ldr	r2, [r7, #4]
 8002714:	18d3      	adds	r3, r2, r3
 8002716:	781b      	ldrb	r3, [r3, #0]
 8002718:	2b2f      	cmp	r3, #47	; 0x2f
 800271a:	d800      	bhi.n	800271e <StrToU32+0x8a>
 800271c:	e079      	b.n	8002812 <StrToU32+0x17e>
 800271e:	1c3b      	adds	r3, r7, #0
 8002720:	330d      	adds	r3, #13
 8002722:	781b      	ldrb	r3, [r3, #0]
 8002724:	687a      	ldr	r2, [r7, #4]
 8002726:	18d3      	adds	r3, r2, r3
 8002728:	781b      	ldrb	r3, [r3, #0]
 800272a:	2b39      	cmp	r3, #57	; 0x39
 800272c:	d900      	bls.n	8002730 <StrToU32+0x9c>
 800272e:	e070      	b.n	8002812 <StrToU32+0x17e>
		{
			//we found the beginning of a number!
			//check if more is coming
			if(i == endIdx)
 8002730:	1c3a      	adds	r2, r7, #0
 8002732:	320d      	adds	r2, #13
 8002734:	1c3b      	adds	r3, r7, #0
 8002736:	330e      	adds	r3, #14
 8002738:	7812      	ldrb	r2, [r2, #0]
 800273a:	781b      	ldrb	r3, [r3, #0]
 800273c:	429a      	cmp	r2, r3
 800273e:	d107      	bne.n	8002750 <StrToU32+0xbc>
			{
				//we found a single digit right at the end
				return string[i]-'0';
 8002740:	1c3b      	adds	r3, r7, #0
 8002742:	330d      	adds	r3, #13
 8002744:	781b      	ldrb	r3, [r3, #0]
 8002746:	687a      	ldr	r2, [r7, #4]
 8002748:	18d3      	adds	r3, r2, r3
 800274a:	781b      	ldrb	r3, [r3, #0]
 800274c:	3b30      	subs	r3, #48	; 0x30
 800274e:	e113      	b.n	8002978 <StrToU32+0x2e4>
			}
			//more characters left
			if(string[i+1] >= '0' && string[i+1] <= '9')
 8002750:	1c3b      	adds	r3, r7, #0
 8002752:	330d      	adds	r3, #13
 8002754:	781b      	ldrb	r3, [r3, #0]
 8002756:	3301      	adds	r3, #1
 8002758:	687a      	ldr	r2, [r7, #4]
 800275a:	18d3      	adds	r3, r2, r3
 800275c:	781b      	ldrb	r3, [r3, #0]
 800275e:	2b2f      	cmp	r3, #47	; 0x2f
 8002760:	d913      	bls.n	800278a <StrToU32+0xf6>
 8002762:	1c3b      	adds	r3, r7, #0
 8002764:	330d      	adds	r3, #13
 8002766:	781b      	ldrb	r3, [r3, #0]
 8002768:	3301      	adds	r3, #1
 800276a:	687a      	ldr	r2, [r7, #4]
 800276c:	18d3      	adds	r3, r2, r3
 800276e:	781b      	ldrb	r3, [r3, #0]
 8002770:	2b39      	cmp	r3, #57	; 0x39
 8002772:	d80a      	bhi.n	800278a <StrToU32+0xf6>
			{
				//decimal number
				radix = 10;
 8002774:	1c3b      	adds	r3, r7, #0
 8002776:	3316      	adds	r3, #22
 8002778:	220a      	movs	r2, #10
 800277a:	701a      	strb	r2, [r3, #0]
				numberStartIdx = i;
 800277c:	1c3b      	adds	r3, r7, #0
 800277e:	3317      	adds	r3, #23
 8002780:	1c3a      	adds	r2, r7, #0
 8002782:	320d      	adds	r2, #13
 8002784:	7812      	ldrb	r2, [r2, #0]
 8002786:	701a      	strb	r2, [r3, #0]
				break;
 8002788:	e046      	b.n	8002818 <StrToU32+0x184>
			}
			else if(string[i+1] == 'X' || string[i+1] == 'x')
 800278a:	1c3b      	adds	r3, r7, #0
 800278c:	330d      	adds	r3, #13
 800278e:	781b      	ldrb	r3, [r3, #0]
 8002790:	3301      	adds	r3, #1
 8002792:	687a      	ldr	r2, [r7, #4]
 8002794:	18d3      	adds	r3, r2, r3
 8002796:	781b      	ldrb	r3, [r3, #0]
 8002798:	2b58      	cmp	r3, #88	; 0x58
 800279a:	d008      	beq.n	80027ae <StrToU32+0x11a>
 800279c:	1c3b      	adds	r3, r7, #0
 800279e:	330d      	adds	r3, #13
 80027a0:	781b      	ldrb	r3, [r3, #0]
 80027a2:	3301      	adds	r3, #1
 80027a4:	687a      	ldr	r2, [r7, #4]
 80027a6:	18d3      	adds	r3, r2, r3
 80027a8:	781b      	ldrb	r3, [r3, #0]
 80027aa:	2b78      	cmp	r3, #120	; 0x78
 80027ac:	d10b      	bne.n	80027c6 <StrToU32+0x132>
			{
				//hex
				radix = 16;
 80027ae:	1c3b      	adds	r3, r7, #0
 80027b0:	3316      	adds	r3, #22
 80027b2:	2210      	movs	r2, #16
 80027b4:	701a      	strb	r2, [r3, #0]
				numberStartIdx = i+2;
 80027b6:	1c3b      	adds	r3, r7, #0
 80027b8:	3317      	adds	r3, #23
 80027ba:	1c3a      	adds	r2, r7, #0
 80027bc:	320d      	adds	r2, #13
 80027be:	7812      	ldrb	r2, [r2, #0]
 80027c0:	3202      	adds	r2, #2
 80027c2:	701a      	strb	r2, [r3, #0]
				break;
 80027c4:	e028      	b.n	8002818 <StrToU32+0x184>
			}
			else if(string[i+1] == 'B' || string[i+1] == 'b')
 80027c6:	1c3b      	adds	r3, r7, #0
 80027c8:	330d      	adds	r3, #13
 80027ca:	781b      	ldrb	r3, [r3, #0]
 80027cc:	3301      	adds	r3, #1
 80027ce:	687a      	ldr	r2, [r7, #4]
 80027d0:	18d3      	adds	r3, r2, r3
 80027d2:	781b      	ldrb	r3, [r3, #0]
 80027d4:	2b42      	cmp	r3, #66	; 0x42
 80027d6:	d008      	beq.n	80027ea <StrToU32+0x156>
 80027d8:	1c3b      	adds	r3, r7, #0
 80027da:	330d      	adds	r3, #13
 80027dc:	781b      	ldrb	r3, [r3, #0]
 80027de:	3301      	adds	r3, #1
 80027e0:	687a      	ldr	r2, [r7, #4]
 80027e2:	18d3      	adds	r3, r2, r3
 80027e4:	781b      	ldrb	r3, [r3, #0]
 80027e6:	2b62      	cmp	r3, #98	; 0x62
 80027e8:	d10b      	bne.n	8002802 <StrToU32+0x16e>
			{
				//hex
				radix = 2;
 80027ea:	1c3b      	adds	r3, r7, #0
 80027ec:	3316      	adds	r3, #22
 80027ee:	2202      	movs	r2, #2
 80027f0:	701a      	strb	r2, [r3, #0]
				numberStartIdx = i+2;
 80027f2:	1c3b      	adds	r3, r7, #0
 80027f4:	3317      	adds	r3, #23
 80027f6:	1c3a      	adds	r2, r7, #0
 80027f8:	320d      	adds	r2, #13
 80027fa:	7812      	ldrb	r2, [r2, #0]
 80027fc:	3202      	adds	r2, #2
 80027fe:	701a      	strb	r2, [r3, #0]
				break;
 8002800:	e00a      	b.n	8002818 <StrToU32+0x184>
			}
			else
			{
				//we found a single digit
				return string[i]-'0';
 8002802:	1c3b      	adds	r3, r7, #0
 8002804:	330d      	adds	r3, #13
 8002806:	781b      	ldrb	r3, [r3, #0]
 8002808:	687a      	ldr	r2, [r7, #4]
 800280a:	18d3      	adds	r3, r2, r3
 800280c:	781b      	ldrb	r3, [r3, #0]
 800280e:	3b30      	subs	r3, #48	; 0x30
 8002810:	e0b2      	b.n	8002978 <StrToU32+0x2e4>
			}
		}
		else
		{
			return 0xFFFFFFFF;
 8002812:	2301      	movs	r3, #1
 8002814:	425b      	negs	r3, r3
 8002816:	e0af      	b.n	8002978 <StrToU32+0x2e4>
		}
	}
	//we know the number format and the start Index now
	uint32_t result = 0;
 8002818:	2300      	movs	r3, #0
 800281a:	613b      	str	r3, [r7, #16]
	//this loop starts with the first digit!
	for(uint8_t i = 0; i < length-startIdx; i++)
 800281c:	1c3b      	adds	r3, r7, #0
 800281e:	330f      	adds	r3, #15
 8002820:	2200      	movs	r2, #0
 8002822:	701a      	strb	r2, [r3, #0]
 8002824:	e09c      	b.n	8002960 <StrToU32+0x2cc>
	{
		uint8_t digit = string[numberStartIdx+i];
 8002826:	1c3b      	adds	r3, r7, #0
 8002828:	3317      	adds	r3, #23
 800282a:	781a      	ldrb	r2, [r3, #0]
 800282c:	1c3b      	adds	r3, r7, #0
 800282e:	330f      	adds	r3, #15
 8002830:	781b      	ldrb	r3, [r3, #0]
 8002832:	18d3      	adds	r3, r2, r3
 8002834:	687a      	ldr	r2, [r7, #4]
 8002836:	18d2      	adds	r2, r2, r3
 8002838:	1c3b      	adds	r3, r7, #0
 800283a:	330c      	adds	r3, #12
 800283c:	7812      	ldrb	r2, [r2, #0]
 800283e:	701a      	strb	r2, [r3, #0]
		switch(radix)
 8002840:	1c3b      	adds	r3, r7, #0
 8002842:	3316      	adds	r3, #22
 8002844:	781b      	ldrb	r3, [r3, #0]
 8002846:	2b0a      	cmp	r3, #10
 8002848:	d01e      	beq.n	8002888 <StrToU32+0x1f4>
 800284a:	2b10      	cmp	r3, #16
 800284c:	d036      	beq.n	80028bc <StrToU32+0x228>
 800284e:	2b02      	cmp	r3, #2
 8002850:	d000      	beq.n	8002854 <StrToU32+0x1c0>
 8002852:	e07e      	b.n	8002952 <StrToU32+0x2be>
		{
		case 2:
			if(digit == '0' || digit == '1')
 8002854:	1c3b      	adds	r3, r7, #0
 8002856:	330c      	adds	r3, #12
 8002858:	781b      	ldrb	r3, [r3, #0]
 800285a:	2b30      	cmp	r3, #48	; 0x30
 800285c:	d004      	beq.n	8002868 <StrToU32+0x1d4>
 800285e:	1c3b      	adds	r3, r7, #0
 8002860:	330c      	adds	r3, #12
 8002862:	781b      	ldrb	r3, [r3, #0]
 8002864:	2b31      	cmp	r3, #49	; 0x31
 8002866:	d10d      	bne.n	8002884 <StrToU32+0x1f0>
			{
				result *= radix;
 8002868:	1c3b      	adds	r3, r7, #0
 800286a:	3316      	adds	r3, #22
 800286c:	781a      	ldrb	r2, [r3, #0]
 800286e:	693b      	ldr	r3, [r7, #16]
 8002870:	4353      	muls	r3, r2
 8002872:	613b      	str	r3, [r7, #16]
				result += (digit - '0');
 8002874:	1c3b      	adds	r3, r7, #0
 8002876:	330c      	adds	r3, #12
 8002878:	781a      	ldrb	r2, [r3, #0]
 800287a:	693b      	ldr	r3, [r7, #16]
 800287c:	18d3      	adds	r3, r2, r3
 800287e:	3b30      	subs	r3, #48	; 0x30
 8002880:	613b      	str	r3, [r7, #16]
			}
			else
			{
				return result;
			}
			break;
 8002882:	e066      	b.n	8002952 <StrToU32+0x2be>
				result *= radix;
				result += (digit - '0');
			}
			else
			{
				return result;
 8002884:	693b      	ldr	r3, [r7, #16]
 8002886:	e077      	b.n	8002978 <StrToU32+0x2e4>
			}
			break;
		case 10:
			if(digit >= '0' && digit <= '9')
 8002888:	1c3b      	adds	r3, r7, #0
 800288a:	330c      	adds	r3, #12
 800288c:	781b      	ldrb	r3, [r3, #0]
 800288e:	2b2f      	cmp	r3, #47	; 0x2f
 8002890:	d912      	bls.n	80028b8 <StrToU32+0x224>
 8002892:	1c3b      	adds	r3, r7, #0
 8002894:	330c      	adds	r3, #12
 8002896:	781b      	ldrb	r3, [r3, #0]
 8002898:	2b39      	cmp	r3, #57	; 0x39
 800289a:	d80d      	bhi.n	80028b8 <StrToU32+0x224>
			{
				result *= radix;
 800289c:	1c3b      	adds	r3, r7, #0
 800289e:	3316      	adds	r3, #22
 80028a0:	781a      	ldrb	r2, [r3, #0]
 80028a2:	693b      	ldr	r3, [r7, #16]
 80028a4:	4353      	muls	r3, r2
 80028a6:	613b      	str	r3, [r7, #16]
				result += (digit - '0');
 80028a8:	1c3b      	adds	r3, r7, #0
 80028aa:	330c      	adds	r3, #12
 80028ac:	781a      	ldrb	r2, [r3, #0]
 80028ae:	693b      	ldr	r3, [r7, #16]
 80028b0:	18d3      	adds	r3, r2, r3
 80028b2:	3b30      	subs	r3, #48	; 0x30
 80028b4:	613b      	str	r3, [r7, #16]
			}
			else
			{
				return result;
			}
			break;
 80028b6:	e04c      	b.n	8002952 <StrToU32+0x2be>
				result *= radix;
				result += (digit - '0');
			}
			else
			{
				return result;
 80028b8:	693b      	ldr	r3, [r7, #16]
 80028ba:	e05d      	b.n	8002978 <StrToU32+0x2e4>
			}
			break;
		case 16:
			if(digit >= '0' && digit <= '9')
 80028bc:	1c3b      	adds	r3, r7, #0
 80028be:	330c      	adds	r3, #12
 80028c0:	781b      	ldrb	r3, [r3, #0]
 80028c2:	2b2f      	cmp	r3, #47	; 0x2f
 80028c4:	d912      	bls.n	80028ec <StrToU32+0x258>
 80028c6:	1c3b      	adds	r3, r7, #0
 80028c8:	330c      	adds	r3, #12
 80028ca:	781b      	ldrb	r3, [r3, #0]
 80028cc:	2b39      	cmp	r3, #57	; 0x39
 80028ce:	d80d      	bhi.n	80028ec <StrToU32+0x258>
			{
				result *= radix;
 80028d0:	1c3b      	adds	r3, r7, #0
 80028d2:	3316      	adds	r3, #22
 80028d4:	781a      	ldrb	r2, [r3, #0]
 80028d6:	693b      	ldr	r3, [r7, #16]
 80028d8:	4353      	muls	r3, r2
 80028da:	613b      	str	r3, [r7, #16]
				result += (digit - '0');
 80028dc:	1c3b      	adds	r3, r7, #0
 80028de:	330c      	adds	r3, #12
 80028e0:	781a      	ldrb	r2, [r3, #0]
 80028e2:	693b      	ldr	r3, [r7, #16]
 80028e4:	18d3      	adds	r3, r2, r3
 80028e6:	3b30      	subs	r3, #48	; 0x30
 80028e8:	613b      	str	r3, [r7, #16]
 80028ea:	e031      	b.n	8002950 <StrToU32+0x2bc>
			}
			else if(digit >= 'a' && digit <= 'f')
 80028ec:	1c3b      	adds	r3, r7, #0
 80028ee:	330c      	adds	r3, #12
 80028f0:	781b      	ldrb	r3, [r3, #0]
 80028f2:	2b60      	cmp	r3, #96	; 0x60
 80028f4:	d912      	bls.n	800291c <StrToU32+0x288>
 80028f6:	1c3b      	adds	r3, r7, #0
 80028f8:	330c      	adds	r3, #12
 80028fa:	781b      	ldrb	r3, [r3, #0]
 80028fc:	2b66      	cmp	r3, #102	; 0x66
 80028fe:	d80d      	bhi.n	800291c <StrToU32+0x288>
			{
				result *= radix;
 8002900:	1c3b      	adds	r3, r7, #0
 8002902:	3316      	adds	r3, #22
 8002904:	781a      	ldrb	r2, [r3, #0]
 8002906:	693b      	ldr	r3, [r7, #16]
 8002908:	4353      	muls	r3, r2
 800290a:	613b      	str	r3, [r7, #16]
				result += (digit - 'a'+10);
 800290c:	1c3b      	adds	r3, r7, #0
 800290e:	330c      	adds	r3, #12
 8002910:	781a      	ldrb	r2, [r3, #0]
 8002912:	693b      	ldr	r3, [r7, #16]
 8002914:	18d3      	adds	r3, r2, r3
 8002916:	3b57      	subs	r3, #87	; 0x57
 8002918:	613b      	str	r3, [r7, #16]
 800291a:	e019      	b.n	8002950 <StrToU32+0x2bc>
			}
			else if(digit >= 'A' && digit <= 'F')
 800291c:	1c3b      	adds	r3, r7, #0
 800291e:	330c      	adds	r3, #12
 8002920:	781b      	ldrb	r3, [r3, #0]
 8002922:	2b40      	cmp	r3, #64	; 0x40
 8002924:	d912      	bls.n	800294c <StrToU32+0x2b8>
 8002926:	1c3b      	adds	r3, r7, #0
 8002928:	330c      	adds	r3, #12
 800292a:	781b      	ldrb	r3, [r3, #0]
 800292c:	2b46      	cmp	r3, #70	; 0x46
 800292e:	d80d      	bhi.n	800294c <StrToU32+0x2b8>
			{
				result *= radix;
 8002930:	1c3b      	adds	r3, r7, #0
 8002932:	3316      	adds	r3, #22
 8002934:	781a      	ldrb	r2, [r3, #0]
 8002936:	693b      	ldr	r3, [r7, #16]
 8002938:	4353      	muls	r3, r2
 800293a:	613b      	str	r3, [r7, #16]
				result += (digit - 'A'+10);
 800293c:	1c3b      	adds	r3, r7, #0
 800293e:	330c      	adds	r3, #12
 8002940:	781a      	ldrb	r2, [r3, #0]
 8002942:	693b      	ldr	r3, [r7, #16]
 8002944:	18d3      	adds	r3, r2, r3
 8002946:	3b37      	subs	r3, #55	; 0x37
 8002948:	613b      	str	r3, [r7, #16]
 800294a:	e001      	b.n	8002950 <StrToU32+0x2bc>
			}
			else
			{
				return result;
 800294c:	693b      	ldr	r3, [r7, #16]
 800294e:	e013      	b.n	8002978 <StrToU32+0x2e4>
			}
			break;
 8002950:	46c0      	nop			; (mov r8, r8)
		}
	}
	//we know the number format and the start Index now
	uint32_t result = 0;
	//this loop starts with the first digit!
	for(uint8_t i = 0; i < length-startIdx; i++)
 8002952:	1c3b      	adds	r3, r7, #0
 8002954:	330f      	adds	r3, #15
 8002956:	781a      	ldrb	r2, [r3, #0]
 8002958:	1c3b      	adds	r3, r7, #0
 800295a:	330f      	adds	r3, #15
 800295c:	3201      	adds	r2, #1
 800295e:	701a      	strb	r2, [r3, #0]
 8002960:	1c3b      	adds	r3, r7, #0
 8002962:	330f      	adds	r3, #15
 8002964:	781a      	ldrb	r2, [r3, #0]
 8002966:	1cbb      	adds	r3, r7, #2
 8002968:	7819      	ldrb	r1, [r3, #0]
 800296a:	1cfb      	adds	r3, r7, #3
 800296c:	781b      	ldrb	r3, [r3, #0]
 800296e:	1acb      	subs	r3, r1, r3
 8002970:	429a      	cmp	r2, r3
 8002972:	da00      	bge.n	8002976 <StrToU32+0x2e2>
 8002974:	e757      	b.n	8002826 <StrToU32+0x192>
				return result;
			}
			break;
		}
	}
	return result;
 8002976:	693b      	ldr	r3, [r7, #16]
}
 8002978:	1c18      	adds	r0, r3, #0
 800297a:	46bd      	mov	sp, r7
 800297c:	b006      	add	sp, #24
 800297e:	bd80      	pop	{r7, pc}

08002980 <consoleInit>:


void consoleInit()
{
 8002980:	b580      	push	{r7, lr}
 8002982:	b082      	sub	sp, #8
 8002984:	af00      	add	r7, sp, #0
	consoleStates = CSTATE_ROW_VIS;
 8002986:	4b66      	ldr	r3, [pc, #408]	; (8002b20 <consoleInit+0x1a0>)
 8002988:	2200      	movs	r2, #0
 800298a:	701a      	strb	r2, [r3, #0]
	consoleFlags |= CFLAG_NEWSTATE;
 800298c:	4b65      	ldr	r3, [pc, #404]	; (8002b24 <consoleInit+0x1a4>)
 800298e:	781b      	ldrb	r3, [r3, #0]
 8002990:	2201      	movs	r2, #1
 8002992:	4313      	orrs	r3, r2
 8002994:	b2da      	uxtb	r2, r3
 8002996:	4b63      	ldr	r3, [pc, #396]	; (8002b24 <consoleInit+0x1a4>)
 8002998:	701a      	strb	r2, [r3, #0]
	FLASH_Unlock();
 800299a:	f003 fd9b 	bl	80064d4 <FLASH_Unlock>

	//fill array with addresses
	for(uint8_t i = 0; i < NB_OF_VAR; i++)
 800299e:	1dfb      	adds	r3, r7, #7
 80029a0:	2200      	movs	r2, #0
 80029a2:	701a      	strb	r2, [r3, #0]
 80029a4:	e00c      	b.n	80029c0 <consoleInit+0x40>
	{
		VirtAddVarTab[i] = (uint16_t)i;
 80029a6:	1dfb      	adds	r3, r7, #7
 80029a8:	781a      	ldrb	r2, [r3, #0]
 80029aa:	1dfb      	adds	r3, r7, #7
 80029ac:	781b      	ldrb	r3, [r3, #0]
 80029ae:	b299      	uxth	r1, r3
 80029b0:	4b5d      	ldr	r3, [pc, #372]	; (8002b28 <consoleInit+0x1a8>)
 80029b2:	0052      	lsls	r2, r2, #1
 80029b4:	52d1      	strh	r1, [r2, r3]
	consoleStates = CSTATE_ROW_VIS;
	consoleFlags |= CFLAG_NEWSTATE;
	FLASH_Unlock();

	//fill array with addresses
	for(uint8_t i = 0; i < NB_OF_VAR; i++)
 80029b6:	1dfb      	adds	r3, r7, #7
 80029b8:	781a      	ldrb	r2, [r3, #0]
 80029ba:	1dfb      	adds	r3, r7, #7
 80029bc:	3201      	adds	r2, #1
 80029be:	701a      	strb	r2, [r3, #0]
 80029c0:	1dfb      	adds	r3, r7, #7
 80029c2:	781b      	ldrb	r3, [r3, #0]
 80029c4:	2b24      	cmp	r3, #36	; 0x24
 80029c6:	d9ee      	bls.n	80029a6 <consoleInit+0x26>
	{
		VirtAddVarTab[i] = (uint16_t)i;
	}

	EE_Init();
 80029c8:	f7fd ffd2 	bl	8000970 <EE_Init>


	//read values from virtual eeprom (from flash)
	for(uint8_t i = 0; i < NB_OF_VAR; i++)
 80029cc:	1dbb      	adds	r3, r7, #6
 80029ce:	2200      	movs	r2, #0
 80029d0:	701a      	strb	r2, [r3, #0]
 80029d2:	e012      	b.n	80029fa <consoleInit+0x7a>
	{
		EE_ReadVariable(VirtAddVarTab[i],&VarDataTab[i]);
 80029d4:	1dbb      	adds	r3, r7, #6
 80029d6:	781a      	ldrb	r2, [r3, #0]
 80029d8:	4b53      	ldr	r3, [pc, #332]	; (8002b28 <consoleInit+0x1a8>)
 80029da:	0052      	lsls	r2, r2, #1
 80029dc:	5ad2      	ldrh	r2, [r2, r3]
 80029de:	1dbb      	adds	r3, r7, #6
 80029e0:	781b      	ldrb	r3, [r3, #0]
 80029e2:	0059      	lsls	r1, r3, #1
 80029e4:	4b51      	ldr	r3, [pc, #324]	; (8002b2c <consoleInit+0x1ac>)
 80029e6:	18cb      	adds	r3, r1, r3
 80029e8:	1c10      	adds	r0, r2, #0
 80029ea:	1c19      	adds	r1, r3, #0
 80029ec:	f7fe f9a8 	bl	8000d40 <EE_ReadVariable>

	EE_Init();


	//read values from virtual eeprom (from flash)
	for(uint8_t i = 0; i < NB_OF_VAR; i++)
 80029f0:	1dbb      	adds	r3, r7, #6
 80029f2:	781a      	ldrb	r2, [r3, #0]
 80029f4:	1dbb      	adds	r3, r7, #6
 80029f6:	3201      	adds	r2, #1
 80029f8:	701a      	strb	r2, [r3, #0]
 80029fa:	1dbb      	adds	r3, r7, #6
 80029fc:	781b      	ldrb	r3, [r3, #0]
 80029fe:	2b24      	cmp	r3, #36	; 0x24
 8002a00:	d9e8      	bls.n	80029d4 <consoleInit+0x54>
	{
		EE_ReadVariable(VirtAddVarTab[i],&VarDataTab[i]);
	}
	globalColor.red = EE_VAL_RED;
 8002a02:	4b4a      	ldr	r3, [pc, #296]	; (8002b2c <consoleInit+0x1ac>)
 8002a04:	881b      	ldrh	r3, [r3, #0]
 8002a06:	b2da      	uxtb	r2, r3
 8002a08:	4b49      	ldr	r3, [pc, #292]	; (8002b30 <consoleInit+0x1b0>)
 8002a0a:	70da      	strb	r2, [r3, #3]
	globalColor.green = EE_VAL_GREEN;
 8002a0c:	4b47      	ldr	r3, [pc, #284]	; (8002b2c <consoleInit+0x1ac>)
 8002a0e:	885b      	ldrh	r3, [r3, #2]
 8002a10:	b2da      	uxtb	r2, r3
 8002a12:	4b47      	ldr	r3, [pc, #284]	; (8002b30 <consoleInit+0x1b0>)
 8002a14:	709a      	strb	r2, [r3, #2]
	globalColor.blue = EE_VAL_BLUE;
 8002a16:	4b45      	ldr	r3, [pc, #276]	; (8002b2c <consoleInit+0x1ac>)
 8002a18:	889b      	ldrh	r3, [r3, #4]
 8002a1a:	b2da      	uxtb	r2, r3
 8002a1c:	4b44      	ldr	r3, [pc, #272]	; (8002b30 <consoleInit+0x1b0>)
 8002a1e:	705a      	strb	r2, [r3, #1]
	RowsVisible = EE_VAL_ROWS;
 8002a20:	4b42      	ldr	r3, [pc, #264]	; (8002b2c <consoleInit+0x1ac>)
 8002a22:	88db      	ldrh	r3, [r3, #6]
 8002a24:	b2da      	uxtb	r2, r3
 8002a26:	4b43      	ldr	r3, [pc, #268]	; (8002b34 <consoleInit+0x1b4>)
 8002a28:	701a      	strb	r2, [r3, #0]
	RowsOverscan = EE_VAL_OVERSCAN;
 8002a2a:	4b40      	ldr	r3, [pc, #256]	; (8002b2c <consoleInit+0x1ac>)
 8002a2c:	891b      	ldrh	r3, [r3, #8]
 8002a2e:	b2da      	uxtb	r2, r3
 8002a30:	4b41      	ldr	r3, [pc, #260]	; (8002b38 <consoleInit+0x1b8>)
 8002a32:	701a      	strb	r2, [r3, #0]
	//uninitialized Flash should read 0xFFFF
	//todo: check that
	if(RowsVisible == 0xFF)
 8002a34:	4b3f      	ldr	r3, [pc, #252]	; (8002b34 <consoleInit+0x1b4>)
 8002a36:	781b      	ldrb	r3, [r3, #0]
 8002a38:	b2db      	uxtb	r3, r3
 8002a3a:	2bff      	cmp	r3, #255	; 0xff
 8002a3c:	d102      	bne.n	8002a44 <consoleInit+0xc4>
	{
		RowsVisible = 0;
 8002a3e:	4b3d      	ldr	r3, [pc, #244]	; (8002b34 <consoleInit+0x1b4>)
 8002a40:	2200      	movs	r2, #0
 8002a42:	701a      	strb	r2, [r3, #0]
	}

	//the array for the rowData holds 32 values -> limit RowsVisible to that
	if( RowsVisible > 32)
 8002a44:	4b3b      	ldr	r3, [pc, #236]	; (8002b34 <consoleInit+0x1b4>)
 8002a46:	781b      	ldrb	r3, [r3, #0]
 8002a48:	b2db      	uxtb	r3, r3
 8002a4a:	2b20      	cmp	r3, #32
 8002a4c:	d902      	bls.n	8002a54 <consoleInit+0xd4>
	{
		RowsVisible = 32;
 8002a4e:	4b39      	ldr	r3, [pc, #228]	; (8002b34 <consoleInit+0x1b4>)
 8002a50:	2220      	movs	r2, #32
 8002a52:	701a      	strb	r2, [r3, #0]
	}
	for(uint8_t i = 0; i< RowsVisible; i++)
 8002a54:	1d7b      	adds	r3, r7, #5
 8002a56:	2200      	movs	r2, #0
 8002a58:	701a      	strb	r2, [r3, #0]
 8002a5a:	e00f      	b.n	8002a7c <consoleInit+0xfc>
	{
		DispRowMasks[i] = VarDataTab[EE_VAL_PIC_START+i];
 8002a5c:	1d7b      	adds	r3, r7, #5
 8002a5e:	781a      	ldrb	r2, [r3, #0]
 8002a60:	1d7b      	adds	r3, r7, #5
 8002a62:	781b      	ldrb	r3, [r3, #0]
 8002a64:	1d59      	adds	r1, r3, #5
 8002a66:	4b31      	ldr	r3, [pc, #196]	; (8002b2c <consoleInit+0x1ac>)
 8002a68:	0049      	lsls	r1, r1, #1
 8002a6a:	5ac9      	ldrh	r1, [r1, r3]
 8002a6c:	4b33      	ldr	r3, [pc, #204]	; (8002b3c <consoleInit+0x1bc>)
 8002a6e:	0052      	lsls	r2, r2, #1
 8002a70:	52d1      	strh	r1, [r2, r3]
	//the array for the rowData holds 32 values -> limit RowsVisible to that
	if( RowsVisible > 32)
	{
		RowsVisible = 32;
	}
	for(uint8_t i = 0; i< RowsVisible; i++)
 8002a72:	1d7b      	adds	r3, r7, #5
 8002a74:	781a      	ldrb	r2, [r3, #0]
 8002a76:	1d7b      	adds	r3, r7, #5
 8002a78:	3201      	adds	r2, #1
 8002a7a:	701a      	strb	r2, [r3, #0]
 8002a7c:	4b2d      	ldr	r3, [pc, #180]	; (8002b34 <consoleInit+0x1b4>)
 8002a7e:	781b      	ldrb	r3, [r3, #0]
 8002a80:	b2db      	uxtb	r3, r3
 8002a82:	1d7a      	adds	r2, r7, #5
 8002a84:	7812      	ldrb	r2, [r2, #0]
 8002a86:	429a      	cmp	r2, r3
 8002a88:	d3e8      	bcc.n	8002a5c <consoleInit+0xdc>
	{
		DispRowMasks[i] = VarDataTab[EE_VAL_PIC_START+i];
	}

	//if the device is unconfigured (rowsVisible = 0), set a smiley as default picture
	if(RowsVisible == 0)
 8002a8a:	4b2a      	ldr	r3, [pc, #168]	; (8002b34 <consoleInit+0x1b4>)
 8002a8c:	781b      	ldrb	r3, [r3, #0]
 8002a8e:	b2db      	uxtb	r3, r3
 8002a90:	2b00      	cmp	r3, #0
 8002a92:	d142      	bne.n	8002b1a <consoleInit+0x19a>
	{
		RowsVisible = 16;
 8002a94:	4b27      	ldr	r3, [pc, #156]	; (8002b34 <consoleInit+0x1b4>)
 8002a96:	2210      	movs	r2, #16
 8002a98:	701a      	strb	r2, [r3, #0]
		RowsOverscan = 0;
 8002a9a:	4b27      	ldr	r3, [pc, #156]	; (8002b38 <consoleInit+0x1b8>)
 8002a9c:	2200      	movs	r2, #0
 8002a9e:	701a      	strb	r2, [r3, #0]
		DispRowMasks[0]  = 0b0000001111000000;
 8002aa0:	4b26      	ldr	r3, [pc, #152]	; (8002b3c <consoleInit+0x1bc>)
 8002aa2:	22f0      	movs	r2, #240	; 0xf0
 8002aa4:	0092      	lsls	r2, r2, #2
 8002aa6:	801a      	strh	r2, [r3, #0]
		DispRowMasks[1]  = 0b0000110000110000;
 8002aa8:	4b24      	ldr	r3, [pc, #144]	; (8002b3c <consoleInit+0x1bc>)
 8002aaa:	22c3      	movs	r2, #195	; 0xc3
 8002aac:	0112      	lsls	r2, r2, #4
 8002aae:	805a      	strh	r2, [r3, #2]
		DispRowMasks[2]  = 0b0001000000001000;
 8002ab0:	4b22      	ldr	r3, [pc, #136]	; (8002b3c <consoleInit+0x1bc>)
 8002ab2:	4a23      	ldr	r2, [pc, #140]	; (8002b40 <consoleInit+0x1c0>)
 8002ab4:	809a      	strh	r2, [r3, #4]
		DispRowMasks[3]  = 0b0010000000000100;
 8002ab6:	4b21      	ldr	r3, [pc, #132]	; (8002b3c <consoleInit+0x1bc>)
 8002ab8:	4a22      	ldr	r2, [pc, #136]	; (8002b44 <consoleInit+0x1c4>)
 8002aba:	80da      	strh	r2, [r3, #6]
		DispRowMasks[4]  = 0b0100010000010010;
 8002abc:	4b1f      	ldr	r3, [pc, #124]	; (8002b3c <consoleInit+0x1bc>)
 8002abe:	4a22      	ldr	r2, [pc, #136]	; (8002b48 <consoleInit+0x1c8>)
 8002ac0:	811a      	strh	r2, [r3, #8]
		DispRowMasks[5]  = 0b0100010000010010;
 8002ac2:	4b1e      	ldr	r3, [pc, #120]	; (8002b3c <consoleInit+0x1bc>)
 8002ac4:	4a20      	ldr	r2, [pc, #128]	; (8002b48 <consoleInit+0x1c8>)
 8002ac6:	815a      	strh	r2, [r3, #10]
		DispRowMasks[6]  = 0b1000000000001001;
 8002ac8:	4b1c      	ldr	r3, [pc, #112]	; (8002b3c <consoleInit+0x1bc>)
 8002aca:	4a20      	ldr	r2, [pc, #128]	; (8002b4c <consoleInit+0x1cc>)
 8002acc:	819a      	strh	r2, [r3, #12]
		DispRowMasks[7]  = 0b1000000110001001;
 8002ace:	4b1b      	ldr	r3, [pc, #108]	; (8002b3c <consoleInit+0x1bc>)
 8002ad0:	4a1f      	ldr	r2, [pc, #124]	; (8002b50 <consoleInit+0x1d0>)
 8002ad2:	81da      	strh	r2, [r3, #14]
		DispRowMasks[8]  = 0b1000000000001001;
 8002ad4:	4b19      	ldr	r3, [pc, #100]	; (8002b3c <consoleInit+0x1bc>)
 8002ad6:	4a1d      	ldr	r2, [pc, #116]	; (8002b4c <consoleInit+0x1cc>)
 8002ad8:	821a      	strh	r2, [r3, #16]
		DispRowMasks[9]  = 0b1000000000001001;
 8002ada:	4b18      	ldr	r3, [pc, #96]	; (8002b3c <consoleInit+0x1bc>)
 8002adc:	4a1b      	ldr	r2, [pc, #108]	; (8002b4c <consoleInit+0x1cc>)
 8002ade:	825a      	strh	r2, [r3, #18]
		DispRowMasks[10] = 0b0100010000010010;
 8002ae0:	4b16      	ldr	r3, [pc, #88]	; (8002b3c <consoleInit+0x1bc>)
 8002ae2:	4a19      	ldr	r2, [pc, #100]	; (8002b48 <consoleInit+0x1c8>)
 8002ae4:	829a      	strh	r2, [r3, #20]
		DispRowMasks[11] = 0b0100010000010010;
 8002ae6:	4b15      	ldr	r3, [pc, #84]	; (8002b3c <consoleInit+0x1bc>)
 8002ae8:	4a17      	ldr	r2, [pc, #92]	; (8002b48 <consoleInit+0x1c8>)
 8002aea:	82da      	strh	r2, [r3, #22]
		DispRowMasks[12] = 0b0010000000000100;
 8002aec:	4b13      	ldr	r3, [pc, #76]	; (8002b3c <consoleInit+0x1bc>)
 8002aee:	4a15      	ldr	r2, [pc, #84]	; (8002b44 <consoleInit+0x1c4>)
 8002af0:	831a      	strh	r2, [r3, #24]
		DispRowMasks[13] = 0b0001000000001000;
 8002af2:	4b12      	ldr	r3, [pc, #72]	; (8002b3c <consoleInit+0x1bc>)
 8002af4:	4a12      	ldr	r2, [pc, #72]	; (8002b40 <consoleInit+0x1c0>)
 8002af6:	835a      	strh	r2, [r3, #26]
		DispRowMasks[14] = 0b0000110000110000;
 8002af8:	4b10      	ldr	r3, [pc, #64]	; (8002b3c <consoleInit+0x1bc>)
 8002afa:	22c3      	movs	r2, #195	; 0xc3
 8002afc:	0112      	lsls	r2, r2, #4
 8002afe:	839a      	strh	r2, [r3, #28]
		DispRowMasks[15] = 0b0000001111000000;
 8002b00:	4b0e      	ldr	r3, [pc, #56]	; (8002b3c <consoleInit+0x1bc>)
 8002b02:	22f0      	movs	r2, #240	; 0xf0
 8002b04:	0092      	lsls	r2, r2, #2
 8002b06:	83da      	strh	r2, [r3, #30]
		globalColor.red = 255;
 8002b08:	4b09      	ldr	r3, [pc, #36]	; (8002b30 <consoleInit+0x1b0>)
 8002b0a:	22ff      	movs	r2, #255	; 0xff
 8002b0c:	70da      	strb	r2, [r3, #3]
		globalColor.green = 255;
 8002b0e:	4b08      	ldr	r3, [pc, #32]	; (8002b30 <consoleInit+0x1b0>)
 8002b10:	22ff      	movs	r2, #255	; 0xff
 8002b12:	709a      	strb	r2, [r3, #2]
		globalColor.blue = 255;
 8002b14:	4b06      	ldr	r3, [pc, #24]	; (8002b30 <consoleInit+0x1b0>)
 8002b16:	22ff      	movs	r2, #255	; 0xff
 8002b18:	705a      	strb	r2, [r3, #1]
	}

}
 8002b1a:	46bd      	mov	sp, r7
 8002b1c:	b002      	add	sp, #8
 8002b1e:	bd80      	pop	{r7, pc}
 8002b20:	200004ca 	.word	0x200004ca
 8002b24:	20000557 	.word	0x20000557
 8002b28:	20000480 	.word	0x20000480
 8002b2c:	2000050c 	.word	0x2000050c
 8002b30:	200003cc 	.word	0x200003cc
 8002b34:	200001cc 	.word	0x200001cc
 8002b38:	20000188 	.word	0x20000188
 8002b3c:	2000018c 	.word	0x2000018c
 8002b40:	00001008 	.word	0x00001008
 8002b44:	00002004 	.word	0x00002004
 8002b48:	00004412 	.word	0x00004412
 8002b4c:	ffff8009 	.word	0xffff8009
 8002b50:	ffff8189 	.word	0xffff8189

08002b54 <consoleError>:

void consoleError()
{
 8002b54:	b580      	push	{r7, lr}
 8002b56:	af00      	add	r7, sp, #0
	USB_VCP_DataTx((uint8_t*)"invalid input:",0);
 8002b58:	4b0c      	ldr	r3, [pc, #48]	; (8002b8c <consoleError+0x38>)
 8002b5a:	1c18      	adds	r0, r3, #0
 8002b5c:	2100      	movs	r1, #0
 8002b5e:	f7fe fbcf 	bl	8001300 <USB_VCP_DataTx>
	USB_VCP_DataTx((uint8_t*)stringBuff,0);
 8002b62:	4b0b      	ldr	r3, [pc, #44]	; (8002b90 <consoleError+0x3c>)
 8002b64:	1c18      	adds	r0, r3, #0
 8002b66:	2100      	movs	r1, #0
 8002b68:	f7fe fbca 	bl	8001300 <USB_VCP_DataTx>
	USB_VCP_DataTx((uint8_t*)"\n",0);
 8002b6c:	4b09      	ldr	r3, [pc, #36]	; (8002b94 <consoleError+0x40>)
 8002b6e:	1c18      	adds	r0, r3, #0
 8002b70:	2100      	movs	r1, #0
 8002b72:	f7fe fbc5 	bl	8001300 <USB_VCP_DataTx>
	consoleFlags |= CFLAG_NEWSTATE;
 8002b76:	4b08      	ldr	r3, [pc, #32]	; (8002b98 <consoleError+0x44>)
 8002b78:	781b      	ldrb	r3, [r3, #0]
 8002b7a:	2201      	movs	r2, #1
 8002b7c:	4313      	orrs	r3, r2
 8002b7e:	b2da      	uxtb	r2, r3
 8002b80:	4b05      	ldr	r3, [pc, #20]	; (8002b98 <consoleError+0x44>)
 8002b82:	701a      	strb	r2, [r3, #0]
	return;
 8002b84:	46c0      	nop			; (mov r8, r8)
}
 8002b86:	46bd      	mov	sp, r7
 8002b88:	bd80      	pop	{r7, pc}
 8002b8a:	46c0      	nop			; (mov r8, r8)
 8002b8c:	08007258 	.word	0x08007258
 8002b90:	200004cc 	.word	0x200004cc
 8002b94:	08007268 	.word	0x08007268
 8002b98:	20000557 	.word	0x20000557

08002b9c <consoleExecute>:


void consoleExecute()
{
 8002b9c:	b590      	push	{r4, r7, lr}
 8002b9e:	b08b      	sub	sp, #44	; 0x2c
 8002ba0:	af02      	add	r7, sp, #8
	uint8_t inputLength = USB_ReadAvailable(stringBuff);
 8002ba2:	4bd9      	ldr	r3, [pc, #868]	; (8002f08 <consoleExecute+0x36c>)
 8002ba4:	1c18      	adds	r0, r3, #0
 8002ba6:	f7fe fc49 	bl	800143c <USB_ReadAvailable>
 8002baa:	1c02      	adds	r2, r0, #0
 8002bac:	1c3b      	adds	r3, r7, #0
 8002bae:	331f      	adds	r3, #31
 8002bb0:	701a      	strb	r2, [r3, #0]
	switch(consoleStates)
 8002bb2:	4bd6      	ldr	r3, [pc, #856]	; (8002f0c <consoleExecute+0x370>)
 8002bb4:	781b      	ldrb	r3, [r3, #0]
 8002bb6:	2b04      	cmp	r3, #4
 8002bb8:	d900      	bls.n	8002bbc <consoleExecute+0x20>
 8002bba:	e28d      	b.n	80030d8 <consoleExecute+0x53c>
 8002bbc:	009a      	lsls	r2, r3, #2
 8002bbe:	4bd4      	ldr	r3, [pc, #848]	; (8002f10 <consoleExecute+0x374>)
 8002bc0:	18d3      	adds	r3, r2, r3
 8002bc2:	681b      	ldr	r3, [r3, #0]
 8002bc4:	469f      	mov	pc, r3
	{
	case CSTATE_ROW_VIS:	//set number of visible rows
		if(consoleFlags & CFLAG_NEWSTATE)
 8002bc6:	4bd3      	ldr	r3, [pc, #844]	; (8002f14 <consoleExecute+0x378>)
 8002bc8:	781b      	ldrb	r3, [r3, #0]
 8002bca:	1c1a      	adds	r2, r3, #0
 8002bcc:	2301      	movs	r3, #1
 8002bce:	4013      	ands	r3, r2
 8002bd0:	d01a      	beq.n	8002c08 <consoleExecute+0x6c>
		{
			consoleFlags &= ~CFLAG_NEWSTATE;
 8002bd2:	4bd0      	ldr	r3, [pc, #832]	; (8002f14 <consoleExecute+0x378>)
 8002bd4:	781b      	ldrb	r3, [r3, #0]
 8002bd6:	2201      	movs	r2, #1
 8002bd8:	4393      	bics	r3, r2
 8002bda:	b2da      	uxtb	r2, r3
 8002bdc:	4bcd      	ldr	r3, [pc, #820]	; (8002f14 <consoleExecute+0x378>)
 8002bde:	701a      	strb	r2, [r3, #0]
			USB_VCP_DataTx((uint8_t*)"set number of visible rows - 1..32",0);
 8002be0:	4bcd      	ldr	r3, [pc, #820]	; (8002f18 <consoleExecute+0x37c>)
 8002be2:	1c18      	adds	r0, r3, #0
 8002be4:	2100      	movs	r1, #0
 8002be6:	f7fe fb8b 	bl	8001300 <USB_VCP_DataTx>
			sprintf((char*)stringBuff,"[%u]\n",RowsVisible);
 8002bea:	4bcc      	ldr	r3, [pc, #816]	; (8002f1c <consoleExecute+0x380>)
 8002bec:	781b      	ldrb	r3, [r3, #0]
 8002bee:	b2db      	uxtb	r3, r3
 8002bf0:	49c5      	ldr	r1, [pc, #788]	; (8002f08 <consoleExecute+0x36c>)
 8002bf2:	4acb      	ldr	r2, [pc, #812]	; (8002f20 <consoleExecute+0x384>)
 8002bf4:	1c08      	adds	r0, r1, #0
 8002bf6:	1c11      	adds	r1, r2, #0
 8002bf8:	1c1a      	adds	r2, r3, #0
 8002bfa:	f003 feb5 	bl	8006968 <siprintf>
			USB_VCP_DataTx((uint8_t*)stringBuff,0);
 8002bfe:	4bc2      	ldr	r3, [pc, #776]	; (8002f08 <consoleExecute+0x36c>)
 8002c00:	1c18      	adds	r0, r3, #0
 8002c02:	2100      	movs	r1, #0
 8002c04:	f7fe fb7c 	bl	8001300 <USB_VCP_DataTx>
		}
		if(inputLength == 0)
 8002c08:	1c3b      	adds	r3, r7, #0
 8002c0a:	331f      	adds	r3, #31
 8002c0c:	781b      	ldrb	r3, [r3, #0]
 8002c0e:	2b00      	cmp	r3, #0
 8002c10:	d100      	bne.n	8002c14 <consoleExecute+0x78>
		{
			return;
 8002c12:	e261      	b.n	80030d8 <consoleExecute+0x53c>
		}
		//the user input could just be a single line break (no change)
		if(stringBuff[0] == '\n')
 8002c14:	4bbc      	ldr	r3, [pc, #752]	; (8002f08 <consoleExecute+0x36c>)
 8002c16:	781b      	ldrb	r3, [r3, #0]
 8002c18:	2b0a      	cmp	r3, #10
 8002c1a:	d10b      	bne.n	8002c34 <consoleExecute+0x98>
		{
			USB_VCP_DataTx((uint8_t*)"no change\n",0);
 8002c1c:	4bc1      	ldr	r3, [pc, #772]	; (8002f24 <consoleExecute+0x388>)
 8002c1e:	1c18      	adds	r0, r3, #0
 8002c20:	2100      	movs	r1, #0
 8002c22:	f7fe fb6d 	bl	8001300 <USB_VCP_DataTx>
			consoleStates = CSTATE_ROW_OVERSCAN;
 8002c26:	4bb9      	ldr	r3, [pc, #740]	; (8002f0c <consoleExecute+0x370>)
 8002c28:	2201      	movs	r2, #1
 8002c2a:	701a      	strb	r2, [r3, #0]
			consoleFlags = CFLAG_NEWSTATE;
 8002c2c:	4bb9      	ldr	r3, [pc, #740]	; (8002f14 <consoleExecute+0x378>)
 8002c2e:	2201      	movs	r2, #1
 8002c30:	701a      	strb	r2, [r3, #0]
			return;
 8002c32:	e251      	b.n	80030d8 <consoleExecute+0x53c>
		}
		uint32_t rows = StrToU32(stringBuff,0,inputLength);
 8002c34:	4ab4      	ldr	r2, [pc, #720]	; (8002f08 <consoleExecute+0x36c>)
 8002c36:	1c3b      	adds	r3, r7, #0
 8002c38:	331f      	adds	r3, #31
 8002c3a:	781b      	ldrb	r3, [r3, #0]
 8002c3c:	1c10      	adds	r0, r2, #0
 8002c3e:	2100      	movs	r1, #0
 8002c40:	1c1a      	adds	r2, r3, #0
 8002c42:	f7ff fd27 	bl	8002694 <StrToU32>
 8002c46:	1c03      	adds	r3, r0, #0
 8002c48:	61bb      	str	r3, [r7, #24]
		if(rows > 32)
 8002c4a:	69bb      	ldr	r3, [r7, #24]
 8002c4c:	2b20      	cmp	r3, #32
 8002c4e:	d902      	bls.n	8002c56 <consoleExecute+0xba>
		{
			//no number or too big number
			consoleError();
 8002c50:	f7ff ff80 	bl	8002b54 <consoleError>
			return;
 8002c54:	e240      	b.n	80030d8 <consoleExecute+0x53c>
		}
		EE_WriteVariable(EE_ROWS,(uint8_t)rows);
 8002c56:	4bb4      	ldr	r3, [pc, #720]	; (8002f28 <consoleExecute+0x38c>)
 8002c58:	88da      	ldrh	r2, [r3, #6]
 8002c5a:	69bb      	ldr	r3, [r7, #24]
 8002c5c:	b2db      	uxtb	r3, r3
 8002c5e:	1c10      	adds	r0, r2, #0
 8002c60:	1c19      	adds	r1, r3, #0
 8002c62:	f7fe f8d1 	bl	8000e08 <EE_WriteVariable>
		RowsVisible = (uint8_t) rows;
 8002c66:	69bb      	ldr	r3, [r7, #24]
 8002c68:	b2da      	uxtb	r2, r3
 8002c6a:	4bac      	ldr	r3, [pc, #688]	; (8002f1c <consoleExecute+0x380>)
 8002c6c:	701a      	strb	r2, [r3, #0]
		sprintf((char*)stringBuff,"saved number of visible rows %u\n",RowsVisible);
 8002c6e:	4bab      	ldr	r3, [pc, #684]	; (8002f1c <consoleExecute+0x380>)
 8002c70:	781b      	ldrb	r3, [r3, #0]
 8002c72:	b2db      	uxtb	r3, r3
 8002c74:	49a4      	ldr	r1, [pc, #656]	; (8002f08 <consoleExecute+0x36c>)
 8002c76:	4aad      	ldr	r2, [pc, #692]	; (8002f2c <consoleExecute+0x390>)
 8002c78:	1c08      	adds	r0, r1, #0
 8002c7a:	1c11      	adds	r1, r2, #0
 8002c7c:	1c1a      	adds	r2, r3, #0
 8002c7e:	f003 fe73 	bl	8006968 <siprintf>
		USB_VCP_DataTx((uint8_t*)stringBuff,0);
 8002c82:	4ba1      	ldr	r3, [pc, #644]	; (8002f08 <consoleExecute+0x36c>)
 8002c84:	1c18      	adds	r0, r3, #0
 8002c86:	2100      	movs	r1, #0
 8002c88:	f7fe fb3a 	bl	8001300 <USB_VCP_DataTx>
		consoleStates = CSTATE_ROW_OVERSCAN;
 8002c8c:	4b9f      	ldr	r3, [pc, #636]	; (8002f0c <consoleExecute+0x370>)
 8002c8e:	2201      	movs	r2, #1
 8002c90:	701a      	strb	r2, [r3, #0]
		consoleFlags = CFLAG_NEWSTATE;
 8002c92:	4ba0      	ldr	r3, [pc, #640]	; (8002f14 <consoleExecute+0x378>)
 8002c94:	2201      	movs	r2, #1
 8002c96:	701a      	strb	r2, [r3, #0]
		break;
 8002c98:	e21e      	b.n	80030d8 <consoleExecute+0x53c>
	case CSTATE_ROW_OVERSCAN:	//set number of overscan rows
		if(consoleFlags & CFLAG_NEWSTATE)
 8002c9a:	4b9e      	ldr	r3, [pc, #632]	; (8002f14 <consoleExecute+0x378>)
 8002c9c:	781b      	ldrb	r3, [r3, #0]
 8002c9e:	1c1a      	adds	r2, r3, #0
 8002ca0:	2301      	movs	r3, #1
 8002ca2:	4013      	ands	r3, r2
 8002ca4:	d01f      	beq.n	8002ce6 <consoleExecute+0x14a>
		{
			consoleFlags &= ~CFLAG_NEWSTATE;
 8002ca6:	4b9b      	ldr	r3, [pc, #620]	; (8002f14 <consoleExecute+0x378>)
 8002ca8:	781b      	ldrb	r3, [r3, #0]
 8002caa:	2201      	movs	r2, #1
 8002cac:	4393      	bics	r3, r2
 8002cae:	b2da      	uxtb	r2, r3
 8002cb0:	4b98      	ldr	r3, [pc, #608]	; (8002f14 <consoleExecute+0x378>)
 8002cb2:	701a      	strb	r2, [r3, #0]
			USB_VCP_DataTx((uint8_t*)"set number of overscan rows (start and end)",0);
 8002cb4:	4b9e      	ldr	r3, [pc, #632]	; (8002f30 <consoleExecute+0x394>)
 8002cb6:	1c18      	adds	r0, r3, #0
 8002cb8:	2100      	movs	r1, #0
 8002cba:	f7fe fb21 	bl	8001300 <USB_VCP_DataTx>
			sprintf((char*)stringBuff,"[%u]\n",RowsOverscan);
 8002cbe:	4b9d      	ldr	r3, [pc, #628]	; (8002f34 <consoleExecute+0x398>)
 8002cc0:	781b      	ldrb	r3, [r3, #0]
 8002cc2:	b2db      	uxtb	r3, r3
 8002cc4:	4990      	ldr	r1, [pc, #576]	; (8002f08 <consoleExecute+0x36c>)
 8002cc6:	4a96      	ldr	r2, [pc, #600]	; (8002f20 <consoleExecute+0x384>)
 8002cc8:	1c08      	adds	r0, r1, #0
 8002cca:	1c11      	adds	r1, r2, #0
 8002ccc:	1c1a      	adds	r2, r3, #0
 8002cce:	f003 fe4b 	bl	8006968 <siprintf>
			USB_VCP_DataTx((uint8_t*)stringBuff,0);
 8002cd2:	4b8d      	ldr	r3, [pc, #564]	; (8002f08 <consoleExecute+0x36c>)
 8002cd4:	1c18      	adds	r0, r3, #0
 8002cd6:	2100      	movs	r1, #0
 8002cd8:	f7fe fb12 	bl	8001300 <USB_VCP_DataTx>
			USB_VCP_DataTx((uint8_t*)"the total number of rows (visible + 2*overscan) should be 2^n!\n",0);
 8002cdc:	4b96      	ldr	r3, [pc, #600]	; (8002f38 <consoleExecute+0x39c>)
 8002cde:	1c18      	adds	r0, r3, #0
 8002ce0:	2100      	movs	r1, #0
 8002ce2:	f7fe fb0d 	bl	8001300 <USB_VCP_DataTx>
		}
		if(inputLength == 0)
 8002ce6:	1c3b      	adds	r3, r7, #0
 8002ce8:	331f      	adds	r3, #31
 8002cea:	781b      	ldrb	r3, [r3, #0]
 8002cec:	2b00      	cmp	r3, #0
 8002cee:	d100      	bne.n	8002cf2 <consoleExecute+0x156>
		{
			return;
 8002cf0:	e1f2      	b.n	80030d8 <consoleExecute+0x53c>
		}
		//the user input could just be a single line break (no change)
		if(stringBuff[0] == '\n')
 8002cf2:	4b85      	ldr	r3, [pc, #532]	; (8002f08 <consoleExecute+0x36c>)
 8002cf4:	781b      	ldrb	r3, [r3, #0]
 8002cf6:	2b0a      	cmp	r3, #10
 8002cf8:	d10b      	bne.n	8002d12 <consoleExecute+0x176>
		{
			USB_VCP_DataTx((uint8_t*)"no change\n",0);
 8002cfa:	4b8a      	ldr	r3, [pc, #552]	; (8002f24 <consoleExecute+0x388>)
 8002cfc:	1c18      	adds	r0, r3, #0
 8002cfe:	2100      	movs	r1, #0
 8002d00:	f7fe fafe 	bl	8001300 <USB_VCP_DataTx>
			consoleStates = CSTATE_PICTURE;
 8002d04:	4b81      	ldr	r3, [pc, #516]	; (8002f0c <consoleExecute+0x370>)
 8002d06:	2202      	movs	r2, #2
 8002d08:	701a      	strb	r2, [r3, #0]
			consoleFlags = CFLAG_NEWSTATE;
 8002d0a:	4b82      	ldr	r3, [pc, #520]	; (8002f14 <consoleExecute+0x378>)
 8002d0c:	2201      	movs	r2, #1
 8002d0e:	701a      	strb	r2, [r3, #0]
			return;
 8002d10:	e1e2      	b.n	80030d8 <consoleExecute+0x53c>
		}
		uint32_t overscan = StrToU32(stringBuff,0,inputLength);
 8002d12:	4a7d      	ldr	r2, [pc, #500]	; (8002f08 <consoleExecute+0x36c>)
 8002d14:	1c3b      	adds	r3, r7, #0
 8002d16:	331f      	adds	r3, #31
 8002d18:	781b      	ldrb	r3, [r3, #0]
 8002d1a:	1c10      	adds	r0, r2, #0
 8002d1c:	2100      	movs	r1, #0
 8002d1e:	1c1a      	adds	r2, r3, #0
 8002d20:	f7ff fcb8 	bl	8002694 <StrToU32>
 8002d24:	1c03      	adds	r3, r0, #0
 8002d26:	617b      	str	r3, [r7, #20]
		if(overscan > 0xFF)
 8002d28:	697b      	ldr	r3, [r7, #20]
 8002d2a:	2bff      	cmp	r3, #255	; 0xff
 8002d2c:	d902      	bls.n	8002d34 <consoleExecute+0x198>
		{
			//no number or too big number
			consoleError();
 8002d2e:	f7ff ff11 	bl	8002b54 <consoleError>
			return;
 8002d32:	e1d1      	b.n	80030d8 <consoleExecute+0x53c>
		}
		EE_WriteVariable(EE_OVERSCAN,(uint8_t)overscan);
 8002d34:	4b7c      	ldr	r3, [pc, #496]	; (8002f28 <consoleExecute+0x38c>)
 8002d36:	891a      	ldrh	r2, [r3, #8]
 8002d38:	697b      	ldr	r3, [r7, #20]
 8002d3a:	b2db      	uxtb	r3, r3
 8002d3c:	1c10      	adds	r0, r2, #0
 8002d3e:	1c19      	adds	r1, r3, #0
 8002d40:	f7fe f862 	bl	8000e08 <EE_WriteVariable>
		RowsOverscan = (uint8_t)overscan;
 8002d44:	697b      	ldr	r3, [r7, #20]
 8002d46:	b2da      	uxtb	r2, r3
 8002d48:	4b7a      	ldr	r3, [pc, #488]	; (8002f34 <consoleExecute+0x398>)
 8002d4a:	701a      	strb	r2, [r3, #0]
		sprintf((char*)stringBuff,"saved number of overscan rows %u\n",RowsVisible);
 8002d4c:	4b73      	ldr	r3, [pc, #460]	; (8002f1c <consoleExecute+0x380>)
 8002d4e:	781b      	ldrb	r3, [r3, #0]
 8002d50:	b2db      	uxtb	r3, r3
 8002d52:	496d      	ldr	r1, [pc, #436]	; (8002f08 <consoleExecute+0x36c>)
 8002d54:	4a79      	ldr	r2, [pc, #484]	; (8002f3c <consoleExecute+0x3a0>)
 8002d56:	1c08      	adds	r0, r1, #0
 8002d58:	1c11      	adds	r1, r2, #0
 8002d5a:	1c1a      	adds	r2, r3, #0
 8002d5c:	f003 fe04 	bl	8006968 <siprintf>
		USB_VCP_DataTx((uint8_t*)stringBuff,0);
 8002d60:	4b69      	ldr	r3, [pc, #420]	; (8002f08 <consoleExecute+0x36c>)
 8002d62:	1c18      	adds	r0, r3, #0
 8002d64:	2100      	movs	r1, #0
 8002d66:	f7fe facb 	bl	8001300 <USB_VCP_DataTx>
		consoleStates = CSTATE_PICTURE;
 8002d6a:	4b68      	ldr	r3, [pc, #416]	; (8002f0c <consoleExecute+0x370>)
 8002d6c:	2202      	movs	r2, #2
 8002d6e:	701a      	strb	r2, [r3, #0]
		consoleFlags = CFLAG_NEWSTATE;
 8002d70:	4b68      	ldr	r3, [pc, #416]	; (8002f14 <consoleExecute+0x378>)
 8002d72:	2201      	movs	r2, #1
 8002d74:	701a      	strb	r2, [r3, #0]
		break;
 8002d76:	e1af      	b.n	80030d8 <consoleExecute+0x53c>
	case CSTATE_PICTURE:	//set picture data
		if(consoleFlags & CFLAG_NEWSTATE)
 8002d78:	4b66      	ldr	r3, [pc, #408]	; (8002f14 <consoleExecute+0x378>)
 8002d7a:	781b      	ldrb	r3, [r3, #0]
 8002d7c:	1c1a      	adds	r2, r3, #0
 8002d7e:	2301      	movs	r3, #1
 8002d80:	4013      	ands	r3, r2
 8002d82:	d021      	beq.n	8002dc8 <consoleExecute+0x22c>
		{
			consoleFlags &= ~CFLAG_NEWSTATE;
 8002d84:	4b63      	ldr	r3, [pc, #396]	; (8002f14 <consoleExecute+0x378>)
 8002d86:	781b      	ldrb	r3, [r3, #0]
 8002d88:	2201      	movs	r2, #1
 8002d8a:	4393      	bics	r3, r2
 8002d8c:	b2da      	uxtb	r2, r3
 8002d8e:	4b61      	ldr	r3, [pc, #388]	; (8002f14 <consoleExecute+0x378>)
 8002d90:	701a      	strb	r2, [r3, #0]
			USB_VCP_DataTx((uint8_t*)"enter picture data - one value per row\n",0);
 8002d92:	4b6b      	ldr	r3, [pc, #428]	; (8002f40 <consoleExecute+0x3a4>)
 8002d94:	1c18      	adds	r0, r3, #0
 8002d96:	2100      	movs	r1, #0
 8002d98:	f7fe fab2 	bl	8001300 <USB_VCP_DataTx>
			USB_VCP_DataTx((uint8_t*)"1st row is the leftmost, MSB is top pixel\n",0);
 8002d9c:	4b69      	ldr	r3, [pc, #420]	; (8002f44 <consoleExecute+0x3a8>)
 8002d9e:	1c18      	adds	r0, r3, #0
 8002da0:	2100      	movs	r1, #0
 8002da2:	f7fe faad 	bl	8001300 <USB_VCP_DataTx>
			//Todo: writeback of the saved data?
			CountOfEnteredDates = 0;
 8002da6:	4b68      	ldr	r3, [pc, #416]	; (8002f48 <consoleExecute+0x3ac>)
 8002da8:	2200      	movs	r2, #0
 8002daa:	701a      	strb	r2, [r3, #0]

			sprintf((char*)stringBuff,"%u>",CountOfEnteredDates);
 8002dac:	4b66      	ldr	r3, [pc, #408]	; (8002f48 <consoleExecute+0x3ac>)
 8002dae:	781b      	ldrb	r3, [r3, #0]
 8002db0:	4955      	ldr	r1, [pc, #340]	; (8002f08 <consoleExecute+0x36c>)
 8002db2:	4a66      	ldr	r2, [pc, #408]	; (8002f4c <consoleExecute+0x3b0>)
 8002db4:	1c08      	adds	r0, r1, #0
 8002db6:	1c11      	adds	r1, r2, #0
 8002db8:	1c1a      	adds	r2, r3, #0
 8002dba:	f003 fdd5 	bl	8006968 <siprintf>
			USB_VCP_DataTx((uint8_t*)stringBuff,0);
 8002dbe:	4b52      	ldr	r3, [pc, #328]	; (8002f08 <consoleExecute+0x36c>)
 8002dc0:	1c18      	adds	r0, r3, #0
 8002dc2:	2100      	movs	r1, #0
 8002dc4:	f7fe fa9c 	bl	8001300 <USB_VCP_DataTx>
		}
		if(CountOfEnteredDates < RowsVisible)
 8002dc8:	4b5f      	ldr	r3, [pc, #380]	; (8002f48 <consoleExecute+0x3ac>)
 8002dca:	781a      	ldrb	r2, [r3, #0]
 8002dcc:	4b53      	ldr	r3, [pc, #332]	; (8002f1c <consoleExecute+0x380>)
 8002dce:	781b      	ldrb	r3, [r3, #0]
 8002dd0:	b2db      	uxtb	r3, r3
 8002dd2:	429a      	cmp	r2, r3
 8002dd4:	d251      	bcs.n	8002e7a <consoleExecute+0x2de>
		{
			if(inputLength == 0)
 8002dd6:	1c3b      	adds	r3, r7, #0
 8002dd8:	331f      	adds	r3, #31
 8002dda:	781b      	ldrb	r3, [r3, #0]
 8002ddc:	2b00      	cmp	r3, #0
 8002dde:	d100      	bne.n	8002de2 <consoleExecute+0x246>
			{
				return;
 8002de0:	e17a      	b.n	80030d8 <consoleExecute+0x53c>
			}
			//the user input could just be a single line break

			if(stringBuff[0] == '\n')
 8002de2:	4b49      	ldr	r3, [pc, #292]	; (8002f08 <consoleExecute+0x36c>)
 8002de4:	781b      	ldrb	r3, [r3, #0]
 8002de6:	2b0a      	cmp	r3, #10
 8002de8:	d10f      	bne.n	8002e0a <consoleExecute+0x26e>
			{
				//for row 0, this terminates the complete picture data entry
				if(CountOfEnteredDates == 0)
 8002dea:	4b57      	ldr	r3, [pc, #348]	; (8002f48 <consoleExecute+0x3ac>)
 8002dec:	781b      	ldrb	r3, [r3, #0]
 8002dee:	2b00      	cmp	r3, #0
 8002df0:	d10b      	bne.n	8002e0a <consoleExecute+0x26e>
				{
					USB_VCP_DataTx((uint8_t*)"no change to picture data\n",0);
 8002df2:	4b57      	ldr	r3, [pc, #348]	; (8002f50 <consoleExecute+0x3b4>)
 8002df4:	1c18      	adds	r0, r3, #0
 8002df6:	2100      	movs	r1, #0
 8002df8:	f7fe fa82 	bl	8001300 <USB_VCP_DataTx>
					consoleStates = CSTATE_COLOR;
 8002dfc:	4b43      	ldr	r3, [pc, #268]	; (8002f0c <consoleExecute+0x370>)
 8002dfe:	2203      	movs	r2, #3
 8002e00:	701a      	strb	r2, [r3, #0]
					consoleFlags = CFLAG_NEWSTATE;
 8002e02:	4b44      	ldr	r3, [pc, #272]	; (8002f14 <consoleExecute+0x378>)
 8002e04:	2201      	movs	r2, #1
 8002e06:	701a      	strb	r2, [r3, #0]
					return;
 8002e08:	e166      	b.n	80030d8 <consoleExecute+0x53c>
				}
			}
			uint32_t rowData = StrToU32(stringBuff,0,inputLength);
 8002e0a:	4a3f      	ldr	r2, [pc, #252]	; (8002f08 <consoleExecute+0x36c>)
 8002e0c:	1c3b      	adds	r3, r7, #0
 8002e0e:	331f      	adds	r3, #31
 8002e10:	781b      	ldrb	r3, [r3, #0]
 8002e12:	1c10      	adds	r0, r2, #0
 8002e14:	2100      	movs	r1, #0
 8002e16:	1c1a      	adds	r2, r3, #0
 8002e18:	f7ff fc3c 	bl	8002694 <StrToU32>
 8002e1c:	1c03      	adds	r3, r0, #0
 8002e1e:	613b      	str	r3, [r7, #16]
			if(rowData > 0xFFFF)
 8002e20:	693a      	ldr	r2, [r7, #16]
 8002e22:	4b4c      	ldr	r3, [pc, #304]	; (8002f54 <consoleExecute+0x3b8>)
 8002e24:	429a      	cmp	r2, r3
 8002e26:	d902      	bls.n	8002e2e <consoleExecute+0x292>
			{
				//no number or too big number
				consoleError();
 8002e28:	f7ff fe94 	bl	8002b54 <consoleError>
				return;
 8002e2c:	e154      	b.n	80030d8 <consoleExecute+0x53c>
			}
			EE_WriteVariable(VirtAddVarTab[EE_PIC_START+CountOfEnteredDates],rowData);
 8002e2e:	4b46      	ldr	r3, [pc, #280]	; (8002f48 <consoleExecute+0x3ac>)
 8002e30:	781b      	ldrb	r3, [r3, #0]
 8002e32:	1d5a      	adds	r2, r3, #5
 8002e34:	4b3c      	ldr	r3, [pc, #240]	; (8002f28 <consoleExecute+0x38c>)
 8002e36:	0052      	lsls	r2, r2, #1
 8002e38:	5ad2      	ldrh	r2, [r2, r3]
 8002e3a:	693b      	ldr	r3, [r7, #16]
 8002e3c:	b29b      	uxth	r3, r3
 8002e3e:	1c10      	adds	r0, r2, #0
 8002e40:	1c19      	adds	r1, r3, #0
 8002e42:	f7fd ffe1 	bl	8000e08 <EE_WriteVariable>
			USB_VCP_DataTx((uint8_t*)" saved\n",0);
 8002e46:	4b44      	ldr	r3, [pc, #272]	; (8002f58 <consoleExecute+0x3bc>)
 8002e48:	1c18      	adds	r0, r3, #0
 8002e4a:	2100      	movs	r1, #0
 8002e4c:	f7fe fa58 	bl	8001300 <USB_VCP_DataTx>
			CountOfEnteredDates++;
 8002e50:	4b3d      	ldr	r3, [pc, #244]	; (8002f48 <consoleExecute+0x3ac>)
 8002e52:	781b      	ldrb	r3, [r3, #0]
 8002e54:	3301      	adds	r3, #1
 8002e56:	b2da      	uxtb	r2, r3
 8002e58:	4b3b      	ldr	r3, [pc, #236]	; (8002f48 <consoleExecute+0x3ac>)
 8002e5a:	701a      	strb	r2, [r3, #0]
			sprintf((char*)stringBuff,"%u>",CountOfEnteredDates);
 8002e5c:	4b3a      	ldr	r3, [pc, #232]	; (8002f48 <consoleExecute+0x3ac>)
 8002e5e:	781b      	ldrb	r3, [r3, #0]
 8002e60:	4929      	ldr	r1, [pc, #164]	; (8002f08 <consoleExecute+0x36c>)
 8002e62:	4a3a      	ldr	r2, [pc, #232]	; (8002f4c <consoleExecute+0x3b0>)
 8002e64:	1c08      	adds	r0, r1, #0
 8002e66:	1c11      	adds	r1, r2, #0
 8002e68:	1c1a      	adds	r2, r3, #0
 8002e6a:	f003 fd7d 	bl	8006968 <siprintf>
			USB_VCP_DataTx((uint8_t*)stringBuff,0);
 8002e6e:	4b26      	ldr	r3, [pc, #152]	; (8002f08 <consoleExecute+0x36c>)
 8002e70:	1c18      	adds	r0, r3, #0
 8002e72:	2100      	movs	r1, #0
 8002e74:	f7fe fa44 	bl	8001300 <USB_VCP_DataTx>
			USB_VCP_DataTx((uint8_t*)"successfully saved new picture\n",0);
			consoleStates = CSTATE_COLOR;
			consoleFlags = CFLAG_NEWSTATE;

		}
		break;
 8002e78:	e12e      	b.n	80030d8 <consoleExecute+0x53c>
			USB_VCP_DataTx((uint8_t*)stringBuff,0);

		}
		else
		{
			USB_VCP_DataTx((uint8_t*)"successfully saved new picture\n",0);
 8002e7a:	4b38      	ldr	r3, [pc, #224]	; (8002f5c <consoleExecute+0x3c0>)
 8002e7c:	1c18      	adds	r0, r3, #0
 8002e7e:	2100      	movs	r1, #0
 8002e80:	f7fe fa3e 	bl	8001300 <USB_VCP_DataTx>
			consoleStates = CSTATE_COLOR;
 8002e84:	4b21      	ldr	r3, [pc, #132]	; (8002f0c <consoleExecute+0x370>)
 8002e86:	2203      	movs	r2, #3
 8002e88:	701a      	strb	r2, [r3, #0]
			consoleFlags = CFLAG_NEWSTATE;
 8002e8a:	4b22      	ldr	r3, [pc, #136]	; (8002f14 <consoleExecute+0x378>)
 8002e8c:	2201      	movs	r2, #1
 8002e8e:	701a      	strb	r2, [r3, #0]

		}
		break;
 8002e90:	e122      	b.n	80030d8 <consoleExecute+0x53c>
	case CSTATE_COLOR:	//set global color
		if(consoleFlags & CFLAG_NEWSTATE)
 8002e92:	4b20      	ldr	r3, [pc, #128]	; (8002f14 <consoleExecute+0x378>)
 8002e94:	781b      	ldrb	r3, [r3, #0]
 8002e96:	1c1a      	adds	r2, r3, #0
 8002e98:	2301      	movs	r3, #1
 8002e9a:	4013      	ands	r3, r2
 8002e9c:	d01d      	beq.n	8002eda <consoleExecute+0x33e>
		{
			consoleFlags &= ~CFLAG_NEWSTATE;
 8002e9e:	4b1d      	ldr	r3, [pc, #116]	; (8002f14 <consoleExecute+0x378>)
 8002ea0:	781b      	ldrb	r3, [r3, #0]
 8002ea2:	2201      	movs	r2, #1
 8002ea4:	4393      	bics	r3, r2
 8002ea6:	b2da      	uxtb	r2, r3
 8002ea8:	4b1a      	ldr	r3, [pc, #104]	; (8002f14 <consoleExecute+0x378>)
 8002eaa:	701a      	strb	r2, [r3, #0]
			USB_VCP_DataTx((uint8_t*)"set global color as uint8_t R, uint8_t G, uint8_t B ",0);
 8002eac:	4b2c      	ldr	r3, [pc, #176]	; (8002f60 <consoleExecute+0x3c4>)
 8002eae:	1c18      	adds	r0, r3, #0
 8002eb0:	2100      	movs	r1, #0
 8002eb2:	f7fe fa25 	bl	8001300 <USB_VCP_DataTx>
			sprintf((char*)stringBuff,"[%u,%u,%u]\n",EE_VAL_RED,EE_VAL_GREEN,EE_VAL_BLUE);
 8002eb6:	4b2b      	ldr	r3, [pc, #172]	; (8002f64 <consoleExecute+0x3c8>)
 8002eb8:	881b      	ldrh	r3, [r3, #0]
 8002eba:	1c1a      	adds	r2, r3, #0
 8002ebc:	4b29      	ldr	r3, [pc, #164]	; (8002f64 <consoleExecute+0x3c8>)
 8002ebe:	885b      	ldrh	r3, [r3, #2]
 8002ec0:	4928      	ldr	r1, [pc, #160]	; (8002f64 <consoleExecute+0x3c8>)
 8002ec2:	8889      	ldrh	r1, [r1, #4]
 8002ec4:	1c0c      	adds	r4, r1, #0
 8002ec6:	4810      	ldr	r0, [pc, #64]	; (8002f08 <consoleExecute+0x36c>)
 8002ec8:	4927      	ldr	r1, [pc, #156]	; (8002f68 <consoleExecute+0x3cc>)
 8002eca:	9400      	str	r4, [sp, #0]
 8002ecc:	f003 fd4c 	bl	8006968 <siprintf>
			USB_VCP_DataTx((uint8_t*)stringBuff,0);
 8002ed0:	4b0d      	ldr	r3, [pc, #52]	; (8002f08 <consoleExecute+0x36c>)
 8002ed2:	1c18      	adds	r0, r3, #0
 8002ed4:	2100      	movs	r1, #0
 8002ed6:	f7fe fa13 	bl	8001300 <USB_VCP_DataTx>
		}
		if(inputLength == 0)
 8002eda:	1c3b      	adds	r3, r7, #0
 8002edc:	331f      	adds	r3, #31
 8002ede:	781b      	ldrb	r3, [r3, #0]
 8002ee0:	2b00      	cmp	r3, #0
 8002ee2:	d100      	bne.n	8002ee6 <consoleExecute+0x34a>
		{
			return;
 8002ee4:	e0f8      	b.n	80030d8 <consoleExecute+0x53c>
		}
		//the user input could just be a single line break (no change)
		if(stringBuff[0] == '\n')
 8002ee6:	4b08      	ldr	r3, [pc, #32]	; (8002f08 <consoleExecute+0x36c>)
 8002ee8:	781b      	ldrb	r3, [r3, #0]
 8002eea:	2b0a      	cmp	r3, #10
 8002eec:	d13e      	bne.n	8002f6c <consoleExecute+0x3d0>
		{
			USB_VCP_DataTx((uint8_t*)"no change\n",0);
 8002eee:	4b0d      	ldr	r3, [pc, #52]	; (8002f24 <consoleExecute+0x388>)
 8002ef0:	1c18      	adds	r0, r3, #0
 8002ef2:	2100      	movs	r1, #0
 8002ef4:	f7fe fa04 	bl	8001300 <USB_VCP_DataTx>
			consoleStates = CSTATE_FINISHED;
 8002ef8:	4b04      	ldr	r3, [pc, #16]	; (8002f0c <consoleExecute+0x370>)
 8002efa:	2204      	movs	r2, #4
 8002efc:	701a      	strb	r2, [r3, #0]
			consoleFlags = CFLAG_NEWSTATE;
 8002efe:	4b05      	ldr	r3, [pc, #20]	; (8002f14 <consoleExecute+0x378>)
 8002f00:	2201      	movs	r2, #1
 8002f02:	701a      	strb	r2, [r3, #0]
			return;
 8002f04:	e0e8      	b.n	80030d8 <consoleExecute+0x53c>
 8002f06:	46c0      	nop			; (mov r8, r8)
 8002f08:	200004cc 	.word	0x200004cc
 8002f0c:	200004ca 	.word	0x200004ca
 8002f10:	080074bc 	.word	0x080074bc
 8002f14:	20000557 	.word	0x20000557
 8002f18:	0800726c 	.word	0x0800726c
 8002f1c:	200001cc 	.word	0x200001cc
 8002f20:	08007290 	.word	0x08007290
 8002f24:	08007298 	.word	0x08007298
 8002f28:	20000480 	.word	0x20000480
 8002f2c:	080072a4 	.word	0x080072a4
 8002f30:	080072c8 	.word	0x080072c8
 8002f34:	20000188 	.word	0x20000188
 8002f38:	080072f4 	.word	0x080072f4
 8002f3c:	08007334 	.word	0x08007334
 8002f40:	08007358 	.word	0x08007358
 8002f44:	08007380 	.word	0x08007380
 8002f48:	20000556 	.word	0x20000556
 8002f4c:	080073ac 	.word	0x080073ac
 8002f50:	080073b0 	.word	0x080073b0
 8002f54:	0000ffff 	.word	0x0000ffff
 8002f58:	080073cc 	.word	0x080073cc
 8002f5c:	080073d4 	.word	0x080073d4
 8002f60:	080073f4 	.word	0x080073f4
 8002f64:	2000050c 	.word	0x2000050c
 8002f68:	0800742c 	.word	0x0800742c
		}
		//search for the 2 needed commas
		uint16_t comma1Idx;
		uint16_t comma2Idx;

		comma1Idx = StrFindChar(stringBuff, ',',1,inputLength);
 8002f6c:	1c3c      	adds	r4, r7, #0
 8002f6e:	340e      	adds	r4, #14
 8002f70:	4a5b      	ldr	r2, [pc, #364]	; (80030e0 <consoleExecute+0x544>)
 8002f72:	1c3b      	adds	r3, r7, #0
 8002f74:	331f      	adds	r3, #31
 8002f76:	781b      	ldrb	r3, [r3, #0]
 8002f78:	1c10      	adds	r0, r2, #0
 8002f7a:	212c      	movs	r1, #44	; 0x2c
 8002f7c:	2201      	movs	r2, #1
 8002f7e:	f7ff fb41 	bl	8002604 <StrFindChar>
 8002f82:	1c03      	adds	r3, r0, #0
 8002f84:	8023      	strh	r3, [r4, #0]
		if(comma1Idx == 0xFFFF)
 8002f86:	1c3b      	adds	r3, r7, #0
 8002f88:	330e      	adds	r3, #14
 8002f8a:	881a      	ldrh	r2, [r3, #0]
 8002f8c:	4b55      	ldr	r3, [pc, #340]	; (80030e4 <consoleExecute+0x548>)
 8002f8e:	429a      	cmp	r2, r3
 8002f90:	d102      	bne.n	8002f98 <consoleExecute+0x3fc>
		{
			//no comma found -> cannot be parsed
			consoleError();
 8002f92:	f7ff fddf 	bl	8002b54 <consoleError>
			return;
 8002f96:	e09f      	b.n	80030d8 <consoleExecute+0x53c>
		}
		comma2Idx = StrFindChar(stringBuff, ',',comma1Idx + 1,inputLength);
 8002f98:	1c3b      	adds	r3, r7, #0
 8002f9a:	330e      	adds	r3, #14
 8002f9c:	881b      	ldrh	r3, [r3, #0]
 8002f9e:	b2db      	uxtb	r3, r3
 8002fa0:	3301      	adds	r3, #1
 8002fa2:	b2da      	uxtb	r2, r3
 8002fa4:	1c3c      	adds	r4, r7, #0
 8002fa6:	340c      	adds	r4, #12
 8002fa8:	494d      	ldr	r1, [pc, #308]	; (80030e0 <consoleExecute+0x544>)
 8002faa:	1c3b      	adds	r3, r7, #0
 8002fac:	331f      	adds	r3, #31
 8002fae:	781b      	ldrb	r3, [r3, #0]
 8002fb0:	1c08      	adds	r0, r1, #0
 8002fb2:	212c      	movs	r1, #44	; 0x2c
 8002fb4:	f7ff fb26 	bl	8002604 <StrFindChar>
 8002fb8:	1c03      	adds	r3, r0, #0
 8002fba:	8023      	strh	r3, [r4, #0]
		if(comma1Idx == 0xFFFF)
 8002fbc:	1c3b      	adds	r3, r7, #0
 8002fbe:	330e      	adds	r3, #14
 8002fc0:	881a      	ldrh	r2, [r3, #0]
 8002fc2:	4b48      	ldr	r3, [pc, #288]	; (80030e4 <consoleExecute+0x548>)
 8002fc4:	429a      	cmp	r2, r3
 8002fc6:	d102      	bne.n	8002fce <consoleExecute+0x432>
		{
			//no comma found -> cannot be parsed
			consoleError();
 8002fc8:	f7ff fdc4 	bl	8002b54 <consoleError>
			return;
 8002fcc:	e084      	b.n	80030d8 <consoleExecute+0x53c>
		}

		//parse the values
		uint32_t red = StrToU32(stringBuff,0,comma1Idx);
 8002fce:	1c3b      	adds	r3, r7, #0
 8002fd0:	330e      	adds	r3, #14
 8002fd2:	881b      	ldrh	r3, [r3, #0]
 8002fd4:	b2db      	uxtb	r3, r3
 8002fd6:	4a42      	ldr	r2, [pc, #264]	; (80030e0 <consoleExecute+0x544>)
 8002fd8:	1c10      	adds	r0, r2, #0
 8002fda:	2100      	movs	r1, #0
 8002fdc:	1c1a      	adds	r2, r3, #0
 8002fde:	f7ff fb59 	bl	8002694 <StrToU32>
 8002fe2:	1c03      	adds	r3, r0, #0
 8002fe4:	60bb      	str	r3, [r7, #8]
		if(red > 0xFF)
 8002fe6:	68bb      	ldr	r3, [r7, #8]
 8002fe8:	2bff      	cmp	r3, #255	; 0xff
 8002fea:	d902      	bls.n	8002ff2 <consoleExecute+0x456>
		{
			//no number or too big number
			consoleError();
 8002fec:	f7ff fdb2 	bl	8002b54 <consoleError>
			return;
 8002ff0:	e072      	b.n	80030d8 <consoleExecute+0x53c>
		}
		uint32_t green = StrToU32(stringBuff,comma1Idx+1,comma2Idx);
 8002ff2:	1c3b      	adds	r3, r7, #0
 8002ff4:	330e      	adds	r3, #14
 8002ff6:	881b      	ldrh	r3, [r3, #0]
 8002ff8:	b2db      	uxtb	r3, r3
 8002ffa:	3301      	adds	r3, #1
 8002ffc:	b2da      	uxtb	r2, r3
 8002ffe:	1c3b      	adds	r3, r7, #0
 8003000:	330c      	adds	r3, #12
 8003002:	881b      	ldrh	r3, [r3, #0]
 8003004:	b2db      	uxtb	r3, r3
 8003006:	4936      	ldr	r1, [pc, #216]	; (80030e0 <consoleExecute+0x544>)
 8003008:	1c08      	adds	r0, r1, #0
 800300a:	1c11      	adds	r1, r2, #0
 800300c:	1c1a      	adds	r2, r3, #0
 800300e:	f7ff fb41 	bl	8002694 <StrToU32>
 8003012:	1c03      	adds	r3, r0, #0
 8003014:	607b      	str	r3, [r7, #4]
		if(green > 0xFF)
 8003016:	687b      	ldr	r3, [r7, #4]
 8003018:	2bff      	cmp	r3, #255	; 0xff
 800301a:	d902      	bls.n	8003022 <consoleExecute+0x486>
		{
			//no number or too big number
			consoleError();
 800301c:	f7ff fd9a 	bl	8002b54 <consoleError>
			return;
 8003020:	e05a      	b.n	80030d8 <consoleExecute+0x53c>
		}
		uint32_t blue = StrToU32(stringBuff,comma2Idx+1,inputLength);
 8003022:	1c3b      	adds	r3, r7, #0
 8003024:	330c      	adds	r3, #12
 8003026:	881b      	ldrh	r3, [r3, #0]
 8003028:	b2db      	uxtb	r3, r3
 800302a:	3301      	adds	r3, #1
 800302c:	b2da      	uxtb	r2, r3
 800302e:	492c      	ldr	r1, [pc, #176]	; (80030e0 <consoleExecute+0x544>)
 8003030:	1c3b      	adds	r3, r7, #0
 8003032:	331f      	adds	r3, #31
 8003034:	781b      	ldrb	r3, [r3, #0]
 8003036:	1c08      	adds	r0, r1, #0
 8003038:	1c11      	adds	r1, r2, #0
 800303a:	1c1a      	adds	r2, r3, #0
 800303c:	f7ff fb2a 	bl	8002694 <StrToU32>
 8003040:	1c03      	adds	r3, r0, #0
 8003042:	603b      	str	r3, [r7, #0]
		if(blue > 0xFF)
 8003044:	683b      	ldr	r3, [r7, #0]
 8003046:	2bff      	cmp	r3, #255	; 0xff
 8003048:	d902      	bls.n	8003050 <consoleExecute+0x4b4>
		{
			//no number or too big number
			consoleError();
 800304a:	f7ff fd83 	bl	8002b54 <consoleError>
			return;
 800304e:	e043      	b.n	80030d8 <consoleExecute+0x53c>
		}
		//all values ok -> write to flash
		EE_WriteVariable(EE_RED,(uint8_t)red);
 8003050:	4b25      	ldr	r3, [pc, #148]	; (80030e8 <consoleExecute+0x54c>)
 8003052:	881a      	ldrh	r2, [r3, #0]
 8003054:	68bb      	ldr	r3, [r7, #8]
 8003056:	b2db      	uxtb	r3, r3
 8003058:	1c10      	adds	r0, r2, #0
 800305a:	1c19      	adds	r1, r3, #0
 800305c:	f7fd fed4 	bl	8000e08 <EE_WriteVariable>
		EE_WriteVariable(EE_GREEN,(uint8_t)green);
 8003060:	4b21      	ldr	r3, [pc, #132]	; (80030e8 <consoleExecute+0x54c>)
 8003062:	885a      	ldrh	r2, [r3, #2]
 8003064:	687b      	ldr	r3, [r7, #4]
 8003066:	b2db      	uxtb	r3, r3
 8003068:	1c10      	adds	r0, r2, #0
 800306a:	1c19      	adds	r1, r3, #0
 800306c:	f7fd fecc 	bl	8000e08 <EE_WriteVariable>
		EE_WriteVariable(EE_BLUE,(uint8_t)blue);
 8003070:	4b1d      	ldr	r3, [pc, #116]	; (80030e8 <consoleExecute+0x54c>)
 8003072:	889a      	ldrh	r2, [r3, #4]
 8003074:	683b      	ldr	r3, [r7, #0]
 8003076:	b2db      	uxtb	r3, r3
 8003078:	1c10      	adds	r0, r2, #0
 800307a:	1c19      	adds	r1, r3, #0
 800307c:	f7fd fec4 	bl	8000e08 <EE_WriteVariable>

		sprintf((char*)stringBuff,"saved global color %u,%u,%u\n",(uint8_t)red,(uint8_t)green,(uint8_t)blue);
 8003080:	68bb      	ldr	r3, [r7, #8]
 8003082:	b2db      	uxtb	r3, r3
 8003084:	1c1a      	adds	r2, r3, #0
 8003086:	687b      	ldr	r3, [r7, #4]
 8003088:	b2db      	uxtb	r3, r3
 800308a:	6839      	ldr	r1, [r7, #0]
 800308c:	b2c9      	uxtb	r1, r1
 800308e:	1c0c      	adds	r4, r1, #0
 8003090:	4813      	ldr	r0, [pc, #76]	; (80030e0 <consoleExecute+0x544>)
 8003092:	4916      	ldr	r1, [pc, #88]	; (80030ec <consoleExecute+0x550>)
 8003094:	9400      	str	r4, [sp, #0]
 8003096:	f003 fc67 	bl	8006968 <siprintf>
		USB_VCP_DataTx((uint8_t*)stringBuff,0);
 800309a:	4b11      	ldr	r3, [pc, #68]	; (80030e0 <consoleExecute+0x544>)
 800309c:	1c18      	adds	r0, r3, #0
 800309e:	2100      	movs	r1, #0
 80030a0:	f7fe f92e 	bl	8001300 <USB_VCP_DataTx>

		consoleStates = CSTATE_FINISHED;
 80030a4:	4b12      	ldr	r3, [pc, #72]	; (80030f0 <consoleExecute+0x554>)
 80030a6:	2204      	movs	r2, #4
 80030a8:	701a      	strb	r2, [r3, #0]
		consoleFlags = CFLAG_NEWSTATE;
 80030aa:	4b12      	ldr	r3, [pc, #72]	; (80030f4 <consoleExecute+0x558>)
 80030ac:	2201      	movs	r2, #1
 80030ae:	701a      	strb	r2, [r3, #0]

		break;
 80030b0:	e012      	b.n	80030d8 <consoleExecute+0x53c>
	case CSTATE_FINISHED:
		if(consoleFlags & CFLAG_NEWSTATE)
 80030b2:	4b10      	ldr	r3, [pc, #64]	; (80030f4 <consoleExecute+0x558>)
 80030b4:	781b      	ldrb	r3, [r3, #0]
 80030b6:	1c1a      	adds	r2, r3, #0
 80030b8:	2301      	movs	r3, #1
 80030ba:	4013      	ands	r3, r2
 80030bc:	d00b      	beq.n	80030d6 <consoleExecute+0x53a>
		{
			consoleFlags &= ~CFLAG_NEWSTATE;
 80030be:	4b0d      	ldr	r3, [pc, #52]	; (80030f4 <consoleExecute+0x558>)
 80030c0:	781b      	ldrb	r3, [r3, #0]
 80030c2:	2201      	movs	r2, #1
 80030c4:	4393      	bics	r3, r2
 80030c6:	b2da      	uxtb	r2, r3
 80030c8:	4b0a      	ldr	r3, [pc, #40]	; (80030f4 <consoleExecute+0x558>)
 80030ca:	701a      	strb	r2, [r3, #0]
			USB_VCP_DataTx((uint8_t*)"config done, ready for work!\n",0);
 80030cc:	4b0a      	ldr	r3, [pc, #40]	; (80030f8 <consoleExecute+0x55c>)
 80030ce:	1c18      	adds	r0, r3, #0
 80030d0:	2100      	movs	r1, #0
 80030d2:	f7fe f915 	bl	8001300 <USB_VCP_DataTx>
		}
		break;
 80030d6:	46c0      	nop			; (mov r8, r8)
	}
}
 80030d8:	46bd      	mov	sp, r7
 80030da:	b009      	add	sp, #36	; 0x24
 80030dc:	bd90      	pop	{r4, r7, pc}
 80030de:	46c0      	nop			; (mov r8, r8)
 80030e0:	200004cc 	.word	0x200004cc
 80030e4:	0000ffff 	.word	0x0000ffff
 80030e8:	20000480 	.word	0x20000480
 80030ec:	08007438 	.word	0x08007438
 80030f0:	200004ca 	.word	0x200004ca
 80030f4:	20000557 	.word	0x20000557
 80030f8:	08007458 	.word	0x08007458

080030fc <USBD_StdDevReq>:
  * @param  pdev: device instance
  * @param  req: usb request
  * @retval status
  */
USBD_Status  USBD_StdDevReq (USB_CORE_HANDLE  *pdev, USB_SETUP_REQ  *req)
{
 80030fc:	b580      	push	{r7, lr}
 80030fe:	b084      	sub	sp, #16
 8003100:	af00      	add	r7, sp, #0
 8003102:	6078      	str	r0, [r7, #4]
 8003104:	6039      	str	r1, [r7, #0]
  USBD_Status ret = USBD_OK;  
 8003106:	1c3b      	adds	r3, r7, #0
 8003108:	330f      	adds	r3, #15
 800310a:	2200      	movs	r2, #0
 800310c:	701a      	strb	r2, [r3, #0]
  
  switch (req->bRequest) 
 800310e:	683b      	ldr	r3, [r7, #0]
 8003110:	785b      	ldrb	r3, [r3, #1]
 8003112:	2b09      	cmp	r3, #9
 8003114:	d835      	bhi.n	8003182 <USBD_StdDevReq+0x86>
 8003116:	009a      	lsls	r2, r3, #2
 8003118:	4b21      	ldr	r3, [pc, #132]	; (80031a0 <USBD_StdDevReq+0xa4>)
 800311a:	18d3      	adds	r3, r2, r3
 800311c:	681b      	ldr	r3, [r3, #0]
 800311e:	469f      	mov	pc, r3
  {
  case USB_REQ_GET_DESCRIPTOR: 
    
    USBD_GetDescriptor (pdev, req) ;
 8003120:	687a      	ldr	r2, [r7, #4]
 8003122:	683b      	ldr	r3, [r7, #0]
 8003124:	1c10      	adds	r0, r2, #0
 8003126:	1c19      	adds	r1, r3, #0
 8003128:	f000 f992 	bl	8003450 <USBD_GetDescriptor>
    break;
 800312c:	e030      	b.n	8003190 <USBD_StdDevReq+0x94>
    
  case USB_REQ_SET_ADDRESS:                      
    USBD_SetAddress(pdev, req);
 800312e:	687a      	ldr	r2, [r7, #4]
 8003130:	683b      	ldr	r3, [r7, #0]
 8003132:	1c10      	adds	r0, r2, #0
 8003134:	1c19      	adds	r1, r3, #0
 8003136:	f000 fa79 	bl	800362c <USBD_SetAddress>
    break;
 800313a:	e029      	b.n	8003190 <USBD_StdDevReq+0x94>
    
  case USB_REQ_SET_CONFIGURATION:                    
    USBD_SetConfig (pdev , req);
 800313c:	687a      	ldr	r2, [r7, #4]
 800313e:	683b      	ldr	r3, [r7, #0]
 8003140:	1c10      	adds	r0, r2, #0
 8003142:	1c19      	adds	r1, r3, #0
 8003144:	f000 faba 	bl	80036bc <USBD_SetConfig>
    break;
 8003148:	e022      	b.n	8003190 <USBD_StdDevReq+0x94>
    
  case USB_REQ_GET_CONFIGURATION:                 
    USBD_GetConfig (pdev , req);
 800314a:	687a      	ldr	r2, [r7, #4]
 800314c:	683b      	ldr	r3, [r7, #0]
 800314e:	1c10      	adds	r0, r2, #0
 8003150:	1c19      	adds	r1, r3, #0
 8003152:	f000 fb31 	bl	80037b8 <USBD_GetConfig>
    break;
 8003156:	e01b      	b.n	8003190 <USBD_StdDevReq+0x94>
    
  case USB_REQ_GET_STATUS:                                  
    USBD_GetStatus (pdev , req);
 8003158:	687a      	ldr	r2, [r7, #4]
 800315a:	683b      	ldr	r3, [r7, #0]
 800315c:	1c10      	adds	r0, r2, #0
 800315e:	1c19      	adds	r1, r3, #0
 8003160:	f000 fb5e 	bl	8003820 <USBD_GetStatus>
    break;
 8003164:	e014      	b.n	8003190 <USBD_StdDevReq+0x94>
    
    
  case USB_REQ_SET_FEATURE:   
    USBD_SetFeature (pdev , req);    
 8003166:	687a      	ldr	r2, [r7, #4]
 8003168:	683b      	ldr	r3, [r7, #0]
 800316a:	1c10      	adds	r0, r2, #0
 800316c:	1c19      	adds	r1, r3, #0
 800316e:	f000 fb81 	bl	8003874 <USBD_SetFeature>
    break;
 8003172:	e00d      	b.n	8003190 <USBD_StdDevReq+0x94>
    
  case USB_REQ_CLEAR_FEATURE:                                   
    USBD_ClrFeature (pdev , req);
 8003174:	687a      	ldr	r2, [r7, #4]
 8003176:	683b      	ldr	r3, [r7, #0]
 8003178:	1c10      	adds	r0, r2, #0
 800317a:	1c19      	adds	r1, r3, #0
 800317c:	f000 fb98 	bl	80038b0 <USBD_ClrFeature>
    break;
 8003180:	e006      	b.n	8003190 <USBD_StdDevReq+0x94>
    
  default:  
    USBD_CtlError(pdev , req);
 8003182:	687a      	ldr	r2, [r7, #4]
 8003184:	683b      	ldr	r3, [r7, #0]
 8003186:	1c10      	adds	r0, r2, #0
 8003188:	1c19      	adds	r1, r3, #0
 800318a:	f000 fbf7 	bl	800397c <USBD_CtlError>
    break;
 800318e:	46c0      	nop			; (mov r8, r8)
  }
  
  return ret;
 8003190:	1c3b      	adds	r3, r7, #0
 8003192:	330f      	adds	r3, #15
 8003194:	781b      	ldrb	r3, [r3, #0]
}
 8003196:	1c18      	adds	r0, r3, #0
 8003198:	46bd      	mov	sp, r7
 800319a:	b004      	add	sp, #16
 800319c:	bd80      	pop	{r7, pc}
 800319e:	46c0      	nop			; (mov r8, r8)
 80031a0:	080074d0 	.word	0x080074d0

080031a4 <USBD_StdItfReq>:
  * @param  pdev: USB device instance
  * @param  req: usb request
  * @retval status
  */
USBD_Status  USBD_StdItfReq (USB_CORE_HANDLE  *pdev, USB_SETUP_REQ  *req)
{
 80031a4:	b590      	push	{r4, r7, lr}
 80031a6:	b085      	sub	sp, #20
 80031a8:	af00      	add	r7, sp, #0
 80031aa:	6078      	str	r0, [r7, #4]
 80031ac:	6039      	str	r1, [r7, #0]
  USBD_Status ret = USBD_OK; 
 80031ae:	1c3b      	adds	r3, r7, #0
 80031b0:	330f      	adds	r3, #15
 80031b2:	2200      	movs	r2, #0
 80031b4:	701a      	strb	r2, [r3, #0]
  
  switch (pdev->dev.device_status) 
 80031b6:	687b      	ldr	r3, [r7, #4]
 80031b8:	789b      	ldrb	r3, [r3, #2]
 80031ba:	2b03      	cmp	r3, #3
 80031bc:	d128      	bne.n	8003210 <USBD_StdItfReq+0x6c>
  {
  case USB_CONFIGURED:
    
    if (LOBYTE(req->wIndex) <= USBD_ITF_MAX_NUM) 
 80031be:	683b      	ldr	r3, [r7, #0]
 80031c0:	889b      	ldrh	r3, [r3, #4]
 80031c2:	b2db      	uxtb	r3, r3
 80031c4:	2b01      	cmp	r3, #1
 80031c6:	d81b      	bhi.n	8003200 <USBD_StdItfReq+0x5c>
    {
      ret = (USBD_Status) (pdev->dev.class_cb->Setup (pdev, req)); 
 80031c8:	687a      	ldr	r2, [r7, #4]
 80031ca:	23ac      	movs	r3, #172	; 0xac
 80031cc:	005b      	lsls	r3, r3, #1
 80031ce:	58d3      	ldr	r3, [r2, r3]
 80031d0:	689b      	ldr	r3, [r3, #8]
 80031d2:	1c3c      	adds	r4, r7, #0
 80031d4:	340f      	adds	r4, #15
 80031d6:	6879      	ldr	r1, [r7, #4]
 80031d8:	683a      	ldr	r2, [r7, #0]
 80031da:	1c08      	adds	r0, r1, #0
 80031dc:	1c11      	adds	r1, r2, #0
 80031de:	4798      	blx	r3
 80031e0:	1c03      	adds	r3, r0, #0
 80031e2:	7023      	strb	r3, [r4, #0]
      
      if((req->wLength == 0)&& (ret == USBD_OK))
 80031e4:	683b      	ldr	r3, [r7, #0]
 80031e6:	88db      	ldrh	r3, [r3, #6]
 80031e8:	2b00      	cmp	r3, #0
 80031ea:	d110      	bne.n	800320e <USBD_StdItfReq+0x6a>
 80031ec:	1c3b      	adds	r3, r7, #0
 80031ee:	330f      	adds	r3, #15
 80031f0:	781b      	ldrb	r3, [r3, #0]
 80031f2:	2b00      	cmp	r3, #0
 80031f4:	d10b      	bne.n	800320e <USBD_StdItfReq+0x6a>
      {
         USBD_CtlSendStatus(pdev);
 80031f6:	687b      	ldr	r3, [r7, #4]
 80031f8:	1c18      	adds	r0, r3, #0
 80031fa:	f000 fcbf 	bl	8003b7c <USBD_CtlSendStatus>
    } 
    else 
    {                                               
       USBD_CtlError(pdev , req);
    }
    break;
 80031fe:	e00e      	b.n	800321e <USBD_StdItfReq+0x7a>
         USBD_CtlSendStatus(pdev);
      }
    } 
    else 
    {                                               
       USBD_CtlError(pdev , req);
 8003200:	687a      	ldr	r2, [r7, #4]
 8003202:	683b      	ldr	r3, [r7, #0]
 8003204:	1c10      	adds	r0, r2, #0
 8003206:	1c19      	adds	r1, r3, #0
 8003208:	f000 fbb8 	bl	800397c <USBD_CtlError>
    }
    break;
 800320c:	e007      	b.n	800321e <USBD_StdItfReq+0x7a>
 800320e:	e006      	b.n	800321e <USBD_StdItfReq+0x7a>
    
  default:
     USBD_CtlError(pdev , req);
 8003210:	687a      	ldr	r2, [r7, #4]
 8003212:	683b      	ldr	r3, [r7, #0]
 8003214:	1c10      	adds	r0, r2, #0
 8003216:	1c19      	adds	r1, r3, #0
 8003218:	f000 fbb0 	bl	800397c <USBD_CtlError>
    break;
 800321c:	46c0      	nop			; (mov r8, r8)
  }
  return ret;
 800321e:	1c3b      	adds	r3, r7, #0
 8003220:	330f      	adds	r3, #15
 8003222:	781b      	ldrb	r3, [r3, #0]
}
 8003224:	1c18      	adds	r0, r3, #0
 8003226:	46bd      	mov	sp, r7
 8003228:	b005      	add	sp, #20
 800322a:	bd90      	pop	{r4, r7, pc}

0800322c <USBD_StdEPReq>:
  * @param  pdev: USB device instance
  * @param  req: usb request
  * @retval status
  */
USBD_Status  USBD_StdEPReq (USB_CORE_HANDLE  *pdev, USB_SETUP_REQ  *req)
{
 800322c:	b580      	push	{r7, lr}
 800322e:	b084      	sub	sp, #16
 8003230:	af00      	add	r7, sp, #0
 8003232:	6078      	str	r0, [r7, #4]
 8003234:	6039      	str	r1, [r7, #0]
  
  uint8_t   ep_addr;
  uint32_t USBD_ep_status  = 0; 
 8003236:	2300      	movs	r3, #0
 8003238:	60bb      	str	r3, [r7, #8]
  USBD_Status ret = USBD_OK; 
 800323a:	1c3b      	adds	r3, r7, #0
 800323c:	330f      	adds	r3, #15
 800323e:	2200      	movs	r2, #0
 8003240:	701a      	strb	r2, [r3, #0]
  
  ep_addr  = LOBYTE(req->wIndex);   
 8003242:	683b      	ldr	r3, [r7, #0]
 8003244:	889a      	ldrh	r2, [r3, #4]
 8003246:	1c3b      	adds	r3, r7, #0
 8003248:	330e      	adds	r3, #14
 800324a:	701a      	strb	r2, [r3, #0]
  
  switch (req->bRequest) 
 800324c:	683b      	ldr	r3, [r7, #0]
 800324e:	785b      	ldrb	r3, [r3, #1]
 8003250:	2b01      	cmp	r3, #1
 8003252:	d04d      	beq.n	80032f0 <USBD_StdEPReq+0xc4>
 8003254:	2b03      	cmp	r3, #3
 8003256:	d003      	beq.n	8003260 <USBD_StdEPReq+0x34>
 8003258:	2b00      	cmp	r3, #0
 800325a:	d100      	bne.n	800325e <USBD_StdEPReq+0x32>
 800325c:	e090      	b.n	8003380 <USBD_StdEPReq+0x154>
      break;
    }
    break;
    
  default:
    break;
 800325e:	e0ef      	b.n	8003440 <USBD_StdEPReq+0x214>
  
  switch (req->bRequest) 
  {  
  case USB_REQ_SET_FEATURE :
    
    switch (pdev->dev.device_status) 
 8003260:	687b      	ldr	r3, [r7, #4]
 8003262:	789b      	ldrb	r3, [r3, #2]
 8003264:	2b02      	cmp	r3, #2
 8003266:	d002      	beq.n	800326e <USBD_StdEPReq+0x42>
 8003268:	2b03      	cmp	r3, #3
 800326a:	d014      	beq.n	8003296 <USBD_StdEPReq+0x6a>
 800326c:	e038      	b.n	80032e0 <USBD_StdEPReq+0xb4>
    {
    case USB_ADDRESSED:          
      if ((ep_addr != 0x00) && (ep_addr != 0x80)) 
 800326e:	1c3b      	adds	r3, r7, #0
 8003270:	330e      	adds	r3, #14
 8003272:	781b      	ldrb	r3, [r3, #0]
 8003274:	2b00      	cmp	r3, #0
 8003276:	d00d      	beq.n	8003294 <USBD_StdEPReq+0x68>
 8003278:	1c3b      	adds	r3, r7, #0
 800327a:	330e      	adds	r3, #14
 800327c:	781b      	ldrb	r3, [r3, #0]
 800327e:	2b80      	cmp	r3, #128	; 0x80
 8003280:	d008      	beq.n	8003294 <USBD_StdEPReq+0x68>
      {
        DCD_EP_Stall(pdev , ep_addr);
 8003282:	687a      	ldr	r2, [r7, #4]
 8003284:	1c3b      	adds	r3, r7, #0
 8003286:	330e      	adds	r3, #14
 8003288:	781b      	ldrb	r3, [r3, #0]
 800328a:	1c10      	adds	r0, r2, #0
 800328c:	1c19      	adds	r1, r3, #0
 800328e:	f001 ffc5 	bl	800521c <DCD_EP_Stall>
      }
      break;	
 8003292:	e02c      	b.n	80032ee <USBD_StdEPReq+0xc2>
 8003294:	e02b      	b.n	80032ee <USBD_StdEPReq+0xc2>
      
    case USB_CONFIGURED:   
      if (req->wValue == USB_FEATURE_EP_HALT)
 8003296:	683b      	ldr	r3, [r7, #0]
 8003298:	885b      	ldrh	r3, [r3, #2]
 800329a:	2b00      	cmp	r3, #0
 800329c:	d111      	bne.n	80032c2 <USBD_StdEPReq+0x96>
      {
        if ((ep_addr != 0x00) && (ep_addr != 0x80)) 
 800329e:	1c3b      	adds	r3, r7, #0
 80032a0:	330e      	adds	r3, #14
 80032a2:	781b      	ldrb	r3, [r3, #0]
 80032a4:	2b00      	cmp	r3, #0
 80032a6:	d00c      	beq.n	80032c2 <USBD_StdEPReq+0x96>
 80032a8:	1c3b      	adds	r3, r7, #0
 80032aa:	330e      	adds	r3, #14
 80032ac:	781b      	ldrb	r3, [r3, #0]
 80032ae:	2b80      	cmp	r3, #128	; 0x80
 80032b0:	d007      	beq.n	80032c2 <USBD_StdEPReq+0x96>
        { 
          DCD_EP_Stall(pdev , ep_addr);
 80032b2:	687a      	ldr	r2, [r7, #4]
 80032b4:	1c3b      	adds	r3, r7, #0
 80032b6:	330e      	adds	r3, #14
 80032b8:	781b      	ldrb	r3, [r3, #0]
 80032ba:	1c10      	adds	r0, r2, #0
 80032bc:	1c19      	adds	r1, r3, #0
 80032be:	f001 ffad 	bl	800521c <DCD_EP_Stall>
          
        }
      }
      pdev->dev.class_cb->Setup (pdev, req);   
 80032c2:	687a      	ldr	r2, [r7, #4]
 80032c4:	23ac      	movs	r3, #172	; 0xac
 80032c6:	005b      	lsls	r3, r3, #1
 80032c8:	58d3      	ldr	r3, [r2, r3]
 80032ca:	689b      	ldr	r3, [r3, #8]
 80032cc:	6879      	ldr	r1, [r7, #4]
 80032ce:	683a      	ldr	r2, [r7, #0]
 80032d0:	1c08      	adds	r0, r1, #0
 80032d2:	1c11      	adds	r1, r2, #0
 80032d4:	4798      	blx	r3
      USBD_CtlSendStatus(pdev);
 80032d6:	687b      	ldr	r3, [r7, #4]
 80032d8:	1c18      	adds	r0, r3, #0
 80032da:	f000 fc4f 	bl	8003b7c <USBD_CtlSendStatus>
      
      break;
 80032de:	e006      	b.n	80032ee <USBD_StdEPReq+0xc2>
      
    default:                         
      USBD_CtlError(pdev , req);
 80032e0:	687a      	ldr	r2, [r7, #4]
 80032e2:	683b      	ldr	r3, [r7, #0]
 80032e4:	1c10      	adds	r0, r2, #0
 80032e6:	1c19      	adds	r1, r3, #0
 80032e8:	f000 fb48 	bl	800397c <USBD_CtlError>
      break;    
 80032ec:	46c0      	nop			; (mov r8, r8)
    }
    break;
 80032ee:	e0a7      	b.n	8003440 <USBD_StdEPReq+0x214>
    
  case USB_REQ_CLEAR_FEATURE :
    
    switch (pdev->dev.device_status) 
 80032f0:	687b      	ldr	r3, [r7, #4]
 80032f2:	789b      	ldrb	r3, [r3, #2]
 80032f4:	2b02      	cmp	r3, #2
 80032f6:	d002      	beq.n	80032fe <USBD_StdEPReq+0xd2>
 80032f8:	2b03      	cmp	r3, #3
 80032fa:	d014      	beq.n	8003326 <USBD_StdEPReq+0xfa>
 80032fc:	e038      	b.n	8003370 <USBD_StdEPReq+0x144>
    {
    case USB_ADDRESSED:          
      if ((ep_addr != 0x00) && (ep_addr != 0x80)) 
 80032fe:	1c3b      	adds	r3, r7, #0
 8003300:	330e      	adds	r3, #14
 8003302:	781b      	ldrb	r3, [r3, #0]
 8003304:	2b00      	cmp	r3, #0
 8003306:	d00d      	beq.n	8003324 <USBD_StdEPReq+0xf8>
 8003308:	1c3b      	adds	r3, r7, #0
 800330a:	330e      	adds	r3, #14
 800330c:	781b      	ldrb	r3, [r3, #0]
 800330e:	2b80      	cmp	r3, #128	; 0x80
 8003310:	d008      	beq.n	8003324 <USBD_StdEPReq+0xf8>
      {
        DCD_EP_Stall(pdev , ep_addr);
 8003312:	687a      	ldr	r2, [r7, #4]
 8003314:	1c3b      	adds	r3, r7, #0
 8003316:	330e      	adds	r3, #14
 8003318:	781b      	ldrb	r3, [r3, #0]
 800331a:	1c10      	adds	r0, r2, #0
 800331c:	1c19      	adds	r1, r3, #0
 800331e:	f001 ff7d 	bl	800521c <DCD_EP_Stall>
      }
      break;	
 8003322:	e02c      	b.n	800337e <USBD_StdEPReq+0x152>
 8003324:	e02b      	b.n	800337e <USBD_StdEPReq+0x152>
      
    case USB_CONFIGURED:   
      if (req->wValue == USB_FEATURE_EP_HALT)
 8003326:	683b      	ldr	r3, [r7, #0]
 8003328:	885b      	ldrh	r3, [r3, #2]
 800332a:	2b00      	cmp	r3, #0
 800332c:	d111      	bne.n	8003352 <USBD_StdEPReq+0x126>
      {
        if ((ep_addr != 0x00) && (ep_addr != 0x80)) 
 800332e:	1c3b      	adds	r3, r7, #0
 8003330:	330e      	adds	r3, #14
 8003332:	781b      	ldrb	r3, [r3, #0]
 8003334:	2b00      	cmp	r3, #0
 8003336:	d00c      	beq.n	8003352 <USBD_StdEPReq+0x126>
 8003338:	1c3b      	adds	r3, r7, #0
 800333a:	330e      	adds	r3, #14
 800333c:	781b      	ldrb	r3, [r3, #0]
 800333e:	2b80      	cmp	r3, #128	; 0x80
 8003340:	d007      	beq.n	8003352 <USBD_StdEPReq+0x126>
        {        
          DCD_EP_ClrStall(pdev , ep_addr);
 8003342:	687a      	ldr	r2, [r7, #4]
 8003344:	1c3b      	adds	r3, r7, #0
 8003346:	330e      	adds	r3, #14
 8003348:	781b      	ldrb	r3, [r3, #0]
 800334a:	1c10      	adds	r0, r2, #0
 800334c:	1c19      	adds	r1, r3, #0
 800334e:	f001 ffd1 	bl	80052f4 <DCD_EP_ClrStall>
        }
      }
      pdev->dev.class_cb->Setup (pdev, req);
 8003352:	687a      	ldr	r2, [r7, #4]
 8003354:	23ac      	movs	r3, #172	; 0xac
 8003356:	005b      	lsls	r3, r3, #1
 8003358:	58d3      	ldr	r3, [r2, r3]
 800335a:	689b      	ldr	r3, [r3, #8]
 800335c:	6879      	ldr	r1, [r7, #4]
 800335e:	683a      	ldr	r2, [r7, #0]
 8003360:	1c08      	adds	r0, r1, #0
 8003362:	1c11      	adds	r1, r2, #0
 8003364:	4798      	blx	r3
      USBD_CtlSendStatus(pdev);
 8003366:	687b      	ldr	r3, [r7, #4]
 8003368:	1c18      	adds	r0, r3, #0
 800336a:	f000 fc07 	bl	8003b7c <USBD_CtlSendStatus>
      break;
 800336e:	e006      	b.n	800337e <USBD_StdEPReq+0x152>
      
    default:                         
       USBD_CtlError(pdev , req);
 8003370:	687a      	ldr	r2, [r7, #4]
 8003372:	683b      	ldr	r3, [r7, #0]
 8003374:	1c10      	adds	r0, r2, #0
 8003376:	1c19      	adds	r1, r3, #0
 8003378:	f000 fb00 	bl	800397c <USBD_CtlError>
      break;    
 800337c:	46c0      	nop			; (mov r8, r8)
    }
    break;
 800337e:	e05f      	b.n	8003440 <USBD_StdEPReq+0x214>
    
  case USB_REQ_GET_STATUS:                  
    switch (pdev->dev.device_status) 
 8003380:	687b      	ldr	r3, [r7, #4]
 8003382:	789b      	ldrb	r3, [r3, #2]
 8003384:	2b02      	cmp	r3, #2
 8003386:	d002      	beq.n	800338e <USBD_StdEPReq+0x162>
 8003388:	2b03      	cmp	r3, #3
 800338a:	d014      	beq.n	80033b6 <USBD_StdEPReq+0x18a>
 800338c:	e050      	b.n	8003430 <USBD_StdEPReq+0x204>
    {
    case USB_ADDRESSED:          
      if ((ep_addr != 0x00) && (ep_addr != 0x80)) 
 800338e:	1c3b      	adds	r3, r7, #0
 8003390:	330e      	adds	r3, #14
 8003392:	781b      	ldrb	r3, [r3, #0]
 8003394:	2b00      	cmp	r3, #0
 8003396:	d00d      	beq.n	80033b4 <USBD_StdEPReq+0x188>
 8003398:	1c3b      	adds	r3, r7, #0
 800339a:	330e      	adds	r3, #14
 800339c:	781b      	ldrb	r3, [r3, #0]
 800339e:	2b80      	cmp	r3, #128	; 0x80
 80033a0:	d008      	beq.n	80033b4 <USBD_StdEPReq+0x188>
      {
        DCD_EP_Stall(pdev , ep_addr);
 80033a2:	687a      	ldr	r2, [r7, #4]
 80033a4:	1c3b      	adds	r3, r7, #0
 80033a6:	330e      	adds	r3, #14
 80033a8:	781b      	ldrb	r3, [r3, #0]
 80033aa:	1c10      	adds	r0, r2, #0
 80033ac:	1c19      	adds	r1, r3, #0
 80033ae:	f001 ff35 	bl	800521c <DCD_EP_Stall>
      }
      break;	
 80033b2:	e044      	b.n	800343e <USBD_StdEPReq+0x212>
 80033b4:	e043      	b.n	800343e <USBD_StdEPReq+0x212>
      
    case USB_CONFIGURED:         
      
      if ((ep_addr & 0x80)== 0x80)
 80033b6:	1c3b      	adds	r3, r7, #0
 80033b8:	330e      	adds	r3, #14
 80033ba:	781b      	ldrb	r3, [r3, #0]
 80033bc:	b25b      	sxtb	r3, r3
 80033be:	2b00      	cmp	r3, #0
 80033c0:	da14      	bge.n	80033ec <USBD_StdEPReq+0x1c0>
      {
        if(pdev->dev.in_ep[ep_addr & 0x7F].is_stall)
 80033c2:	1c3b      	adds	r3, r7, #0
 80033c4:	330e      	adds	r3, #14
 80033c6:	781a      	ldrb	r2, [r3, #0]
 80033c8:	237f      	movs	r3, #127	; 0x7f
 80033ca:	401a      	ands	r2, r3
 80033cc:	6879      	ldr	r1, [r7, #4]
 80033ce:	1c13      	adds	r3, r2, #0
 80033d0:	009b      	lsls	r3, r3, #2
 80033d2:	189b      	adds	r3, r3, r2
 80033d4:	00db      	lsls	r3, r3, #3
 80033d6:	18cb      	adds	r3, r1, r3
 80033d8:	3318      	adds	r3, #24
 80033da:	789b      	ldrb	r3, [r3, #2]
 80033dc:	2b00      	cmp	r3, #0
 80033de:	d002      	beq.n	80033e6 <USBD_StdEPReq+0x1ba>
        {
          USBD_ep_status = 0x0001;     
 80033e0:	2301      	movs	r3, #1
 80033e2:	60bb      	str	r3, [r7, #8]
 80033e4:	e01b      	b.n	800341e <USBD_StdEPReq+0x1f2>
        }
        else
        {
          USBD_ep_status = 0x0000;  
 80033e6:	2300      	movs	r3, #0
 80033e8:	60bb      	str	r3, [r7, #8]
 80033ea:	e018      	b.n	800341e <USBD_StdEPReq+0x1f2>
        }
      }
      else if ((ep_addr & 0x80)== 0x00)
 80033ec:	1c3b      	adds	r3, r7, #0
 80033ee:	330e      	adds	r3, #14
 80033f0:	781b      	ldrb	r3, [r3, #0]
 80033f2:	b25b      	sxtb	r3, r3
 80033f4:	2b00      	cmp	r3, #0
 80033f6:	db12      	blt.n	800341e <USBD_StdEPReq+0x1f2>
      {
        if(pdev->dev.out_ep[ep_addr].is_stall)
 80033f8:	1c3b      	adds	r3, r7, #0
 80033fa:	330e      	adds	r3, #14
 80033fc:	781a      	ldrb	r2, [r3, #0]
 80033fe:	6878      	ldr	r0, [r7, #4]
 8003400:	21b8      	movs	r1, #184	; 0xb8
 8003402:	1c13      	adds	r3, r2, #0
 8003404:	009b      	lsls	r3, r3, #2
 8003406:	189b      	adds	r3, r3, r2
 8003408:	00db      	lsls	r3, r3, #3
 800340a:	18c3      	adds	r3, r0, r3
 800340c:	185b      	adds	r3, r3, r1
 800340e:	789b      	ldrb	r3, [r3, #2]
 8003410:	2b00      	cmp	r3, #0
 8003412:	d002      	beq.n	800341a <USBD_StdEPReq+0x1ee>
        {
          USBD_ep_status = 0x0001;     
 8003414:	2301      	movs	r3, #1
 8003416:	60bb      	str	r3, [r7, #8]
 8003418:	e001      	b.n	800341e <USBD_StdEPReq+0x1f2>
        }
        
        else 
        {
          USBD_ep_status = 0x0000;     
 800341a:	2300      	movs	r3, #0
 800341c:	60bb      	str	r3, [r7, #8]
        }      
      }
      USBD_CtlSendData (pdev,
 800341e:	687a      	ldr	r2, [r7, #4]
 8003420:	1c3b      	adds	r3, r7, #0
 8003422:	3308      	adds	r3, #8
 8003424:	1c10      	adds	r0, r2, #0
 8003426:	1c19      	adds	r1, r3, #0
 8003428:	2202      	movs	r2, #2
 800342a:	f000 fb25 	bl	8003a78 <USBD_CtlSendData>
                        (uint8_t *)&USBD_ep_status,
                        2);
      break;
 800342e:	e006      	b.n	800343e <USBD_StdEPReq+0x212>
      
    default:                         
       USBD_CtlError(pdev , req);
 8003430:	687a      	ldr	r2, [r7, #4]
 8003432:	683b      	ldr	r3, [r7, #0]
 8003434:	1c10      	adds	r0, r2, #0
 8003436:	1c19      	adds	r1, r3, #0
 8003438:	f000 faa0 	bl	800397c <USBD_CtlError>
      break;
 800343c:	46c0      	nop			; (mov r8, r8)
    }
    break;
 800343e:	46c0      	nop			; (mov r8, r8)
    
  default:
    break;
  }
  return ret;
 8003440:	1c3b      	adds	r3, r7, #0
 8003442:	330f      	adds	r3, #15
 8003444:	781b      	ldrb	r3, [r3, #0]
}
 8003446:	1c18      	adds	r0, r3, #0
 8003448:	46bd      	mov	sp, r7
 800344a:	b004      	add	sp, #16
 800344c:	bd80      	pop	{r7, pc}
 800344e:	46c0      	nop			; (mov r8, r8)

08003450 <USBD_GetDescriptor>:
  * @param  req: usb request
  * @retval status
  */
static void USBD_GetDescriptor(USB_CORE_HANDLE  *pdev, 
                               USB_SETUP_REQ *req)
{
 8003450:	b580      	push	{r7, lr}
 8003452:	b084      	sub	sp, #16
 8003454:	af00      	add	r7, sp, #0
 8003456:	6078      	str	r0, [r7, #4]
 8003458:	6039      	str	r1, [r7, #0]
  uint16_t len;
  uint8_t *pbuf;
  
  switch (req->wValue >> 8)
 800345a:	683b      	ldr	r3, [r7, #0]
 800345c:	885b      	ldrh	r3, [r3, #2]
 800345e:	0a1b      	lsrs	r3, r3, #8
 8003460:	b29b      	uxth	r3, r3
 8003462:	2b07      	cmp	r3, #7
 8003464:	d900      	bls.n	8003468 <USBD_GetDescriptor+0x18>
 8003466:	e0b2      	b.n	80035ce <USBD_GetDescriptor+0x17e>
 8003468:	009a      	lsls	r2, r3, #2
 800346a:	4b6e      	ldr	r3, [pc, #440]	; (8003624 <USBD_GetDescriptor+0x1d4>)
 800346c:	18d3      	adds	r3, r2, r3
 800346e:	681b      	ldr	r3, [r3, #0]
 8003470:	469f      	mov	pc, r3
  case USB_DESC_TYPE_BOS:
    pbuf = pdev->dev.usr_device->GetBOSDescriptor(pdev->dev.speed, &len);
    break;
#endif    
  case USB_DESC_TYPE_DEVICE:
    pbuf = pdev->dev.usr_device->GetDeviceDescriptor(pdev->dev.speed, &len);
 8003472:	687a      	ldr	r2, [r7, #4]
 8003474:	23b0      	movs	r3, #176	; 0xb0
 8003476:	005b      	lsls	r3, r3, #1
 8003478:	58d3      	ldr	r3, [r2, r3]
 800347a:	681a      	ldr	r2, [r3, #0]
 800347c:	687b      	ldr	r3, [r7, #4]
 800347e:	68db      	ldr	r3, [r3, #12]
 8003480:	b2d9      	uxtb	r1, r3
 8003482:	1c3b      	adds	r3, r7, #0
 8003484:	330a      	adds	r3, #10
 8003486:	1c08      	adds	r0, r1, #0
 8003488:	1c19      	adds	r1, r3, #0
 800348a:	4790      	blx	r2
 800348c:	1c03      	adds	r3, r0, #0
 800348e:	60fb      	str	r3, [r7, #12]
    if (req->wLength == 64)   
 8003490:	683b      	ldr	r3, [r7, #0]
 8003492:	88db      	ldrh	r3, [r3, #6]
 8003494:	2b40      	cmp	r3, #64	; 0x40
 8003496:	d104      	bne.n	80034a2 <USBD_GetDescriptor+0x52>
    {                  
      len = 8;
 8003498:	1c3b      	adds	r3, r7, #0
 800349a:	330a      	adds	r3, #10
 800349c:	2208      	movs	r2, #8
 800349e:	801a      	strh	r2, [r3, #0]
    }
    break;
 80034a0:	e09c      	b.n	80035dc <USBD_GetDescriptor+0x18c>
 80034a2:	e09b      	b.n	80035dc <USBD_GetDescriptor+0x18c>
    
  case USB_DESC_TYPE_CONFIGURATION:
      pbuf   = (uint8_t *)pdev->dev.class_cb->GetConfigDescriptor(pdev->dev.speed, &len);  
 80034a4:	687a      	ldr	r2, [r7, #4]
 80034a6:	23ac      	movs	r3, #172	; 0xac
 80034a8:	005b      	lsls	r3, r3, #1
 80034aa:	58d3      	ldr	r3, [r2, r3]
 80034ac:	6a1a      	ldr	r2, [r3, #32]
 80034ae:	687b      	ldr	r3, [r7, #4]
 80034b0:	68db      	ldr	r3, [r3, #12]
 80034b2:	b2d9      	uxtb	r1, r3
 80034b4:	1c3b      	adds	r3, r7, #0
 80034b6:	330a      	adds	r3, #10
 80034b8:	1c08      	adds	r0, r1, #0
 80034ba:	1c19      	adds	r1, r3, #0
 80034bc:	4790      	blx	r2
 80034be:	1c03      	adds	r3, r0, #0
 80034c0:	60fb      	str	r3, [r7, #12]
      pdev->dev.pConfig_descriptor = pbuf;    
 80034c2:	687a      	ldr	r2, [r7, #4]
 80034c4:	23b2      	movs	r3, #178	; 0xb2
 80034c6:	005b      	lsls	r3, r3, #1
 80034c8:	68f9      	ldr	r1, [r7, #12]
 80034ca:	50d1      	str	r1, [r2, r3]
    break;
 80034cc:	e086      	b.n	80035dc <USBD_GetDescriptor+0x18c>
    
  case USB_DESC_TYPE_STRING:
    switch ((uint8_t)(req->wValue))
 80034ce:	683b      	ldr	r3, [r7, #0]
 80034d0:	885b      	ldrh	r3, [r3, #2]
 80034d2:	b2db      	uxtb	r3, r3
 80034d4:	2b05      	cmp	r3, #5
 80034d6:	d864      	bhi.n	80035a2 <USBD_GetDescriptor+0x152>
 80034d8:	009a      	lsls	r2, r3, #2
 80034da:	4b53      	ldr	r3, [pc, #332]	; (8003628 <USBD_GetDescriptor+0x1d8>)
 80034dc:	18d3      	adds	r3, r2, r3
 80034de:	681b      	ldr	r3, [r3, #0]
 80034e0:	469f      	mov	pc, r3
    {
    case USBD_IDX_LANGID_STR:
     pbuf = pdev->dev.usr_device->GetLangIDStrDescriptor(pdev->dev.speed, &len);        
 80034e2:	687a      	ldr	r2, [r7, #4]
 80034e4:	23b0      	movs	r3, #176	; 0xb0
 80034e6:	005b      	lsls	r3, r3, #1
 80034e8:	58d3      	ldr	r3, [r2, r3]
 80034ea:	685a      	ldr	r2, [r3, #4]
 80034ec:	687b      	ldr	r3, [r7, #4]
 80034ee:	68db      	ldr	r3, [r3, #12]
 80034f0:	b2d9      	uxtb	r1, r3
 80034f2:	1c3b      	adds	r3, r7, #0
 80034f4:	330a      	adds	r3, #10
 80034f6:	1c08      	adds	r0, r1, #0
 80034f8:	1c19      	adds	r1, r3, #0
 80034fa:	4790      	blx	r2
 80034fc:	1c03      	adds	r3, r0, #0
 80034fe:	60fb      	str	r3, [r7, #12]
      break;
 8003500:	e056      	b.n	80035b0 <USBD_GetDescriptor+0x160>
      
    case USBD_IDX_MFC_STR:
      pbuf = pdev->dev.usr_device->GetManufacturerStrDescriptor(pdev->dev.speed, &len);
 8003502:	687a      	ldr	r2, [r7, #4]
 8003504:	23b0      	movs	r3, #176	; 0xb0
 8003506:	005b      	lsls	r3, r3, #1
 8003508:	58d3      	ldr	r3, [r2, r3]
 800350a:	689a      	ldr	r2, [r3, #8]
 800350c:	687b      	ldr	r3, [r7, #4]
 800350e:	68db      	ldr	r3, [r3, #12]
 8003510:	b2d9      	uxtb	r1, r3
 8003512:	1c3b      	adds	r3, r7, #0
 8003514:	330a      	adds	r3, #10
 8003516:	1c08      	adds	r0, r1, #0
 8003518:	1c19      	adds	r1, r3, #0
 800351a:	4790      	blx	r2
 800351c:	1c03      	adds	r3, r0, #0
 800351e:	60fb      	str	r3, [r7, #12]
      break;
 8003520:	e046      	b.n	80035b0 <USBD_GetDescriptor+0x160>
      
    case USBD_IDX_PRODUCT_STR:
      pbuf = pdev->dev.usr_device->GetProductStrDescriptor(pdev->dev.speed, &len);
 8003522:	687a      	ldr	r2, [r7, #4]
 8003524:	23b0      	movs	r3, #176	; 0xb0
 8003526:	005b      	lsls	r3, r3, #1
 8003528:	58d3      	ldr	r3, [r2, r3]
 800352a:	68da      	ldr	r2, [r3, #12]
 800352c:	687b      	ldr	r3, [r7, #4]
 800352e:	68db      	ldr	r3, [r3, #12]
 8003530:	b2d9      	uxtb	r1, r3
 8003532:	1c3b      	adds	r3, r7, #0
 8003534:	330a      	adds	r3, #10
 8003536:	1c08      	adds	r0, r1, #0
 8003538:	1c19      	adds	r1, r3, #0
 800353a:	4790      	blx	r2
 800353c:	1c03      	adds	r3, r0, #0
 800353e:	60fb      	str	r3, [r7, #12]
      break;
 8003540:	e036      	b.n	80035b0 <USBD_GetDescriptor+0x160>
      
    case USBD_IDX_SERIAL_STR:
      pbuf = pdev->dev.usr_device->GetSerialStrDescriptor(pdev->dev.speed, &len);
 8003542:	687a      	ldr	r2, [r7, #4]
 8003544:	23b0      	movs	r3, #176	; 0xb0
 8003546:	005b      	lsls	r3, r3, #1
 8003548:	58d3      	ldr	r3, [r2, r3]
 800354a:	691a      	ldr	r2, [r3, #16]
 800354c:	687b      	ldr	r3, [r7, #4]
 800354e:	68db      	ldr	r3, [r3, #12]
 8003550:	b2d9      	uxtb	r1, r3
 8003552:	1c3b      	adds	r3, r7, #0
 8003554:	330a      	adds	r3, #10
 8003556:	1c08      	adds	r0, r1, #0
 8003558:	1c19      	adds	r1, r3, #0
 800355a:	4790      	blx	r2
 800355c:	1c03      	adds	r3, r0, #0
 800355e:	60fb      	str	r3, [r7, #12]
      break;
 8003560:	e026      	b.n	80035b0 <USBD_GetDescriptor+0x160>
      
    case USBD_IDX_CONFIG_STR:
      pbuf = pdev->dev.usr_device->GetConfigurationStrDescriptor(pdev->dev.speed, &len);
 8003562:	687a      	ldr	r2, [r7, #4]
 8003564:	23b0      	movs	r3, #176	; 0xb0
 8003566:	005b      	lsls	r3, r3, #1
 8003568:	58d3      	ldr	r3, [r2, r3]
 800356a:	695a      	ldr	r2, [r3, #20]
 800356c:	687b      	ldr	r3, [r7, #4]
 800356e:	68db      	ldr	r3, [r3, #12]
 8003570:	b2d9      	uxtb	r1, r3
 8003572:	1c3b      	adds	r3, r7, #0
 8003574:	330a      	adds	r3, #10
 8003576:	1c08      	adds	r0, r1, #0
 8003578:	1c19      	adds	r1, r3, #0
 800357a:	4790      	blx	r2
 800357c:	1c03      	adds	r3, r0, #0
 800357e:	60fb      	str	r3, [r7, #12]
      break;
 8003580:	e016      	b.n	80035b0 <USBD_GetDescriptor+0x160>
      
    case USBD_IDX_INTERFACE_STR:
      pbuf = pdev->dev.usr_device->GetInterfaceStrDescriptor(pdev->dev.speed, &len);
 8003582:	687a      	ldr	r2, [r7, #4]
 8003584:	23b0      	movs	r3, #176	; 0xb0
 8003586:	005b      	lsls	r3, r3, #1
 8003588:	58d3      	ldr	r3, [r2, r3]
 800358a:	699a      	ldr	r2, [r3, #24]
 800358c:	687b      	ldr	r3, [r7, #4]
 800358e:	68db      	ldr	r3, [r3, #12]
 8003590:	b2d9      	uxtb	r1, r3
 8003592:	1c3b      	adds	r3, r7, #0
 8003594:	330a      	adds	r3, #10
 8003596:	1c08      	adds	r0, r1, #0
 8003598:	1c19      	adds	r1, r3, #0
 800359a:	4790      	blx	r2
 800359c:	1c03      	adds	r3, r0, #0
 800359e:	60fb      	str	r3, [r7, #12]
      break;
 80035a0:	e006      	b.n	80035b0 <USBD_GetDescriptor+0x160>
    default:
#ifdef USB_SUPPORT_USER_STRING_DESC
      pbuf = pdev->dev.class_cb->GetUsrStrDescriptor(pdev->dev.speed, (req->wValue) , &len);
      break;
#else      
       USBD_CtlError(pdev , req);
 80035a2:	687a      	ldr	r2, [r7, #4]
 80035a4:	683b      	ldr	r3, [r7, #0]
 80035a6:	1c10      	adds	r0, r2, #0
 80035a8:	1c19      	adds	r1, r3, #0
 80035aa:	f000 f9e7 	bl	800397c <USBD_CtlError>
      return;
 80035ae:	e036      	b.n	800361e <USBD_GetDescriptor+0x1ce>
#endif /* USBD_CtlError(pdev , req); */      
    }
    break;
 80035b0:	e014      	b.n	80035dc <USBD_GetDescriptor+0x18c>
  case USB_DESC_TYPE_DEVICE_QUALIFIER:                   
       USBD_CtlError(pdev , req);
 80035b2:	687a      	ldr	r2, [r7, #4]
 80035b4:	683b      	ldr	r3, [r7, #0]
 80035b6:	1c10      	adds	r0, r2, #0
 80035b8:	1c19      	adds	r1, r3, #0
 80035ba:	f000 f9df 	bl	800397c <USBD_CtlError>
      return;  
 80035be:	e02e      	b.n	800361e <USBD_GetDescriptor+0x1ce>

  case USB_DESC_TYPE_OTHER_SPEED_CONFIGURATION:
      USBD_CtlError(pdev , req);
 80035c0:	687a      	ldr	r2, [r7, #4]
 80035c2:	683b      	ldr	r3, [r7, #0]
 80035c4:	1c10      	adds	r0, r2, #0
 80035c6:	1c19      	adds	r1, r3, #0
 80035c8:	f000 f9d8 	bl	800397c <USBD_CtlError>
      return;  
 80035cc:	e027      	b.n	800361e <USBD_GetDescriptor+0x1ce>
  default: 
     USBD_CtlError(pdev , req);
 80035ce:	687a      	ldr	r2, [r7, #4]
 80035d0:	683b      	ldr	r3, [r7, #0]
 80035d2:	1c10      	adds	r0, r2, #0
 80035d4:	1c19      	adds	r1, r3, #0
 80035d6:	f000 f9d1 	bl	800397c <USBD_CtlError>
    return;
 80035da:	e020      	b.n	800361e <USBD_GetDescriptor+0x1ce>
  }
  
  if((len != 0)&& (req->wLength != 0))
 80035dc:	1c3b      	adds	r3, r7, #0
 80035de:	330a      	adds	r3, #10
 80035e0:	881b      	ldrh	r3, [r3, #0]
 80035e2:	2b00      	cmp	r3, #0
 80035e4:	d01b      	beq.n	800361e <USBD_GetDescriptor+0x1ce>
 80035e6:	683b      	ldr	r3, [r7, #0]
 80035e8:	88db      	ldrh	r3, [r3, #6]
 80035ea:	2b00      	cmp	r3, #0
 80035ec:	d017      	beq.n	800361e <USBD_GetDescriptor+0x1ce>
  {
    
    len = MIN(len , req->wLength);
 80035ee:	683b      	ldr	r3, [r7, #0]
 80035f0:	88db      	ldrh	r3, [r3, #6]
 80035f2:	1c3a      	adds	r2, r7, #0
 80035f4:	320a      	adds	r2, #10
 80035f6:	8812      	ldrh	r2, [r2, #0]
 80035f8:	b298      	uxth	r0, r3
 80035fa:	b291      	uxth	r1, r2
 80035fc:	4288      	cmp	r0, r1
 80035fe:	d900      	bls.n	8003602 <USBD_GetDescriptor+0x1b2>
 8003600:	1c13      	adds	r3, r2, #0
 8003602:	b29a      	uxth	r2, r3
 8003604:	1c3b      	adds	r3, r7, #0
 8003606:	330a      	adds	r3, #10
 8003608:	801a      	strh	r2, [r3, #0]
    
    USBD_CtlSendData (pdev, 
 800360a:	1c3b      	adds	r3, r7, #0
 800360c:	330a      	adds	r3, #10
 800360e:	881b      	ldrh	r3, [r3, #0]
 8003610:	6879      	ldr	r1, [r7, #4]
 8003612:	68fa      	ldr	r2, [r7, #12]
 8003614:	1c08      	adds	r0, r1, #0
 8003616:	1c11      	adds	r1, r2, #0
 8003618:	1c1a      	adds	r2, r3, #0
 800361a:	f000 fa2d 	bl	8003a78 <USBD_CtlSendData>
                      pbuf,
                      len);
  }
  
}
 800361e:	46bd      	mov	sp, r7
 8003620:	b004      	add	sp, #16
 8003622:	bd80      	pop	{r7, pc}
 8003624:	080074f8 	.word	0x080074f8
 8003628:	08007518 	.word	0x08007518

0800362c <USBD_SetAddress>:
  * @param  req: usb request
  * @retval status
  */
static void USBD_SetAddress(USB_CORE_HANDLE  *pdev, 
                            USB_SETUP_REQ *req)
{
 800362c:	b580      	push	{r7, lr}
 800362e:	b084      	sub	sp, #16
 8003630:	af00      	add	r7, sp, #0
 8003632:	6078      	str	r0, [r7, #4]
 8003634:	6039      	str	r1, [r7, #0]
  uint8_t  dev_addr; 
  
  if ((req->wIndex == 0) && (req->wLength == 0)) 
 8003636:	683b      	ldr	r3, [r7, #0]
 8003638:	889b      	ldrh	r3, [r3, #4]
 800363a:	2b00      	cmp	r3, #0
 800363c:	d132      	bne.n	80036a4 <USBD_SetAddress+0x78>
 800363e:	683b      	ldr	r3, [r7, #0]
 8003640:	88db      	ldrh	r3, [r3, #6]
 8003642:	2b00      	cmp	r3, #0
 8003644:	d12e      	bne.n	80036a4 <USBD_SetAddress+0x78>
  {
    dev_addr = (uint8_t)(req->wValue) & 0x7F;     
 8003646:	683b      	ldr	r3, [r7, #0]
 8003648:	885b      	ldrh	r3, [r3, #2]
 800364a:	b2d9      	uxtb	r1, r3
 800364c:	1c3b      	adds	r3, r7, #0
 800364e:	330f      	adds	r3, #15
 8003650:	227f      	movs	r2, #127	; 0x7f
 8003652:	400a      	ands	r2, r1
 8003654:	701a      	strb	r2, [r3, #0]
    
    if (pdev->dev.device_status == USB_CONFIGURED) 
 8003656:	687b      	ldr	r3, [r7, #4]
 8003658:	789b      	ldrb	r3, [r3, #2]
 800365a:	2b03      	cmp	r3, #3
 800365c:	d106      	bne.n	800366c <USBD_SetAddress+0x40>
    {
      USBD_CtlError(pdev , req);
 800365e:	687a      	ldr	r2, [r7, #4]
 8003660:	683b      	ldr	r3, [r7, #0]
 8003662:	1c10      	adds	r0, r2, #0
 8003664:	1c19      	adds	r1, r3, #0
 8003666:	f000 f989 	bl	800397c <USBD_CtlError>
 800366a:	e01a      	b.n	80036a2 <USBD_SetAddress+0x76>
    } 
    else 
    {
      pdev->dev.device_address = dev_addr;              
 800366c:	687b      	ldr	r3, [r7, #4]
 800366e:	1c3a      	adds	r2, r7, #0
 8003670:	320f      	adds	r2, #15
 8003672:	7812      	ldrb	r2, [r2, #0]
 8003674:	711a      	strb	r2, [r3, #4]
      ADDRESS = dev_addr;
 8003676:	1c3b      	adds	r3, r7, #0
 8003678:	330f      	adds	r3, #15
 800367a:	781a      	ldrb	r2, [r3, #0]
 800367c:	4b0e      	ldr	r3, [pc, #56]	; (80036b8 <USBD_SetAddress+0x8c>)
 800367e:	601a      	str	r2, [r3, #0]
      USBD_CtlSendStatus(pdev);                         
 8003680:	687b      	ldr	r3, [r7, #4]
 8003682:	1c18      	adds	r0, r3, #0
 8003684:	f000 fa7a 	bl	8003b7c <USBD_CtlSendStatus>
      
      if (dev_addr != 0) 
 8003688:	1c3b      	adds	r3, r7, #0
 800368a:	330f      	adds	r3, #15
 800368c:	781b      	ldrb	r3, [r3, #0]
 800368e:	2b00      	cmp	r3, #0
 8003690:	d003      	beq.n	800369a <USBD_SetAddress+0x6e>
      {
        pdev->dev.device_status  = USB_ADDRESSED;
 8003692:	687b      	ldr	r3, [r7, #4]
 8003694:	2202      	movs	r2, #2
 8003696:	709a      	strb	r2, [r3, #2]
 8003698:	e003      	b.n	80036a2 <USBD_SetAddress+0x76>
      } 
      else 
      {
        pdev->dev.device_status  = USB_DEFAULT; 
 800369a:	687b      	ldr	r3, [r7, #4]
 800369c:	2201      	movs	r2, #1
 800369e:	709a      	strb	r2, [r3, #2]
  
  if ((req->wIndex == 0) && (req->wLength == 0)) 
  {
    dev_addr = (uint8_t)(req->wValue) & 0x7F;     
    
    if (pdev->dev.device_status == USB_CONFIGURED) 
 80036a0:	e006      	b.n	80036b0 <USBD_SetAddress+0x84>
 80036a2:	e005      	b.n	80036b0 <USBD_SetAddress+0x84>
      }
    }
  } 
  else 
  {
     USBD_CtlError(pdev , req);                        
 80036a4:	687a      	ldr	r2, [r7, #4]
 80036a6:	683b      	ldr	r3, [r7, #0]
 80036a8:	1c10      	adds	r0, r2, #0
 80036aa:	1c19      	adds	r1, r3, #0
 80036ac:	f000 f966 	bl	800397c <USBD_CtlError>
  } 
}
 80036b0:	46bd      	mov	sp, r7
 80036b2:	b004      	add	sp, #16
 80036b4:	bd80      	pop	{r7, pc}
 80036b6:	46c0      	nop			; (mov r8, r8)
 80036b8:	20000150 	.word	0x20000150

080036bc <USBD_SetConfig>:
  * @param  req: usb request
  * @retval status
  */
static void USBD_SetConfig(USB_CORE_HANDLE  *pdev, 
                           USB_SETUP_REQ *req)
{
 80036bc:	b580      	push	{r7, lr}
 80036be:	b082      	sub	sp, #8
 80036c0:	af00      	add	r7, sp, #0
 80036c2:	6078      	str	r0, [r7, #4]
 80036c4:	6039      	str	r1, [r7, #0]
  
  static uint8_t  cfgidx;
  
  cfgidx = (uint8_t)(req->wValue);                 
 80036c6:	683b      	ldr	r3, [r7, #0]
 80036c8:	885b      	ldrh	r3, [r3, #2]
 80036ca:	b2da      	uxtb	r2, r3
 80036cc:	4b39      	ldr	r3, [pc, #228]	; (80037b4 <USBD_SetConfig+0xf8>)
 80036ce:	701a      	strb	r2, [r3, #0]
  
  if (cfgidx > USBD_CFG_MAX_NUM ) 
 80036d0:	4b38      	ldr	r3, [pc, #224]	; (80037b4 <USBD_SetConfig+0xf8>)
 80036d2:	781b      	ldrb	r3, [r3, #0]
 80036d4:	2b01      	cmp	r3, #1
 80036d6:	d906      	bls.n	80036e6 <USBD_SetConfig+0x2a>
  {            
     USBD_CtlError(pdev , req);                              
 80036d8:	687a      	ldr	r2, [r7, #4]
 80036da:	683b      	ldr	r3, [r7, #0]
 80036dc:	1c10      	adds	r0, r2, #0
 80036de:	1c19      	adds	r1, r3, #0
 80036e0:	f000 f94c 	bl	800397c <USBD_CtlError>
 80036e4:	e063      	b.n	80037ae <USBD_SetConfig+0xf2>
  } 
  else 
  {
    switch (pdev->dev.device_status) 
 80036e6:	687b      	ldr	r3, [r7, #4]
 80036e8:	789b      	ldrb	r3, [r3, #2]
 80036ea:	2b02      	cmp	r3, #2
 80036ec:	d002      	beq.n	80036f4 <USBD_SetConfig+0x38>
 80036ee:	2b03      	cmp	r3, #3
 80036f0:	d01c      	beq.n	800372c <USBD_SetConfig+0x70>
 80036f2:	e055      	b.n	80037a0 <USBD_SetConfig+0xe4>
    {
    case USB_ADDRESSED:
      if (cfgidx) 
 80036f4:	4b2f      	ldr	r3, [pc, #188]	; (80037b4 <USBD_SetConfig+0xf8>)
 80036f6:	781b      	ldrb	r3, [r3, #0]
 80036f8:	2b00      	cmp	r3, #0
 80036fa:	d012      	beq.n	8003722 <USBD_SetConfig+0x66>
      {                                			   							   							   				
        pdev->dev.device_config = cfgidx;
 80036fc:	4b2d      	ldr	r3, [pc, #180]	; (80037b4 <USBD_SetConfig+0xf8>)
 80036fe:	781a      	ldrb	r2, [r3, #0]
 8003700:	687b      	ldr	r3, [r7, #4]
 8003702:	701a      	strb	r2, [r3, #0]
        pdev->dev.device_status = USB_CONFIGURED;
 8003704:	687b      	ldr	r3, [r7, #4]
 8003706:	2203      	movs	r2, #3
 8003708:	709a      	strb	r2, [r3, #2]
        USBD_SetCfg(pdev , cfgidx);
 800370a:	4b2a      	ldr	r3, [pc, #168]	; (80037b4 <USBD_SetConfig+0xf8>)
 800370c:	781b      	ldrb	r3, [r3, #0]
 800370e:	687a      	ldr	r2, [r7, #4]
 8003710:	1c10      	adds	r0, r2, #0
 8003712:	1c19      	adds	r1, r3, #0
 8003714:	f000 fc54 	bl	8003fc0 <USBD_SetCfg>
        USBD_CtlSendStatus(pdev);
 8003718:	687b      	ldr	r3, [r7, #4]
 800371a:	1c18      	adds	r0, r3, #0
 800371c:	f000 fa2e 	bl	8003b7c <USBD_CtlSendStatus>
      }
      else 
      {
         USBD_CtlSendStatus(pdev);
      }
      break;
 8003720:	e045      	b.n	80037ae <USBD_SetConfig+0xf2>
        USBD_SetCfg(pdev , cfgidx);
        USBD_CtlSendStatus(pdev);
      }
      else 
      {
         USBD_CtlSendStatus(pdev);
 8003722:	687b      	ldr	r3, [r7, #4]
 8003724:	1c18      	adds	r0, r3, #0
 8003726:	f000 fa29 	bl	8003b7c <USBD_CtlSendStatus>
      }
      break;
 800372a:	e040      	b.n	80037ae <USBD_SetConfig+0xf2>
      
    case USB_CONFIGURED:
      if (cfgidx == 0) 
 800372c:	4b21      	ldr	r3, [pc, #132]	; (80037b4 <USBD_SetConfig+0xf8>)
 800372e:	781b      	ldrb	r3, [r3, #0]
 8003730:	2b00      	cmp	r3, #0
 8003732:	d112      	bne.n	800375a <USBD_SetConfig+0x9e>
      {                           
        pdev->dev.device_status = USB_ADDRESSED;
 8003734:	687b      	ldr	r3, [r7, #4]
 8003736:	2202      	movs	r2, #2
 8003738:	709a      	strb	r2, [r3, #2]
        pdev->dev.device_config = cfgidx;          
 800373a:	4b1e      	ldr	r3, [pc, #120]	; (80037b4 <USBD_SetConfig+0xf8>)
 800373c:	781a      	ldrb	r2, [r3, #0]
 800373e:	687b      	ldr	r3, [r7, #4]
 8003740:	701a      	strb	r2, [r3, #0]
        USBD_ClrCfg(pdev , cfgidx);
 8003742:	4b1c      	ldr	r3, [pc, #112]	; (80037b4 <USBD_SetConfig+0xf8>)
 8003744:	781b      	ldrb	r3, [r3, #0]
 8003746:	687a      	ldr	r2, [r7, #4]
 8003748:	1c10      	adds	r0, r2, #0
 800374a:	1c19      	adds	r1, r3, #0
 800374c:	f000 fc56 	bl	8003ffc <USBD_ClrCfg>
        USBD_CtlSendStatus(pdev);
 8003750:	687b      	ldr	r3, [r7, #4]
 8003752:	1c18      	adds	r0, r3, #0
 8003754:	f000 fa12 	bl	8003b7c <USBD_CtlSendStatus>
 8003758:	e021      	b.n	800379e <USBD_SetConfig+0xe2>
      } 
      else  if (cfgidx != pdev->dev.device_config) 
 800375a:	687b      	ldr	r3, [r7, #4]
 800375c:	781a      	ldrb	r2, [r3, #0]
 800375e:	4b15      	ldr	r3, [pc, #84]	; (80037b4 <USBD_SetConfig+0xf8>)
 8003760:	781b      	ldrb	r3, [r3, #0]
 8003762:	429a      	cmp	r2, r3
 8003764:	d016      	beq.n	8003794 <USBD_SetConfig+0xd8>
      {
        /* Clear old configuration */
        USBD_ClrCfg(pdev , pdev->dev.device_config);
 8003766:	687b      	ldr	r3, [r7, #4]
 8003768:	781b      	ldrb	r3, [r3, #0]
 800376a:	687a      	ldr	r2, [r7, #4]
 800376c:	1c10      	adds	r0, r2, #0
 800376e:	1c19      	adds	r1, r3, #0
 8003770:	f000 fc44 	bl	8003ffc <USBD_ClrCfg>
        
        /* set new configuration */
        pdev->dev.device_config = cfgidx;
 8003774:	4b0f      	ldr	r3, [pc, #60]	; (80037b4 <USBD_SetConfig+0xf8>)
 8003776:	781a      	ldrb	r2, [r3, #0]
 8003778:	687b      	ldr	r3, [r7, #4]
 800377a:	701a      	strb	r2, [r3, #0]
        USBD_SetCfg(pdev , cfgidx);
 800377c:	4b0d      	ldr	r3, [pc, #52]	; (80037b4 <USBD_SetConfig+0xf8>)
 800377e:	781b      	ldrb	r3, [r3, #0]
 8003780:	687a      	ldr	r2, [r7, #4]
 8003782:	1c10      	adds	r0, r2, #0
 8003784:	1c19      	adds	r1, r3, #0
 8003786:	f000 fc1b 	bl	8003fc0 <USBD_SetCfg>
        USBD_CtlSendStatus(pdev);
 800378a:	687b      	ldr	r3, [r7, #4]
 800378c:	1c18      	adds	r0, r3, #0
 800378e:	f000 f9f5 	bl	8003b7c <USBD_CtlSendStatus>
 8003792:	e004      	b.n	800379e <USBD_SetConfig+0xe2>
      }
      else
      {
        USBD_CtlSendStatus(pdev);
 8003794:	687b      	ldr	r3, [r7, #4]
 8003796:	1c18      	adds	r0, r3, #0
 8003798:	f000 f9f0 	bl	8003b7c <USBD_CtlSendStatus>
      }
      break;
 800379c:	e007      	b.n	80037ae <USBD_SetConfig+0xf2>
 800379e:	e006      	b.n	80037ae <USBD_SetConfig+0xf2>
      
    default:					
       USBD_CtlError(pdev , req);                     
 80037a0:	687a      	ldr	r2, [r7, #4]
 80037a2:	683b      	ldr	r3, [r7, #0]
 80037a4:	1c10      	adds	r0, r2, #0
 80037a6:	1c19      	adds	r1, r3, #0
 80037a8:	f000 f8e8 	bl	800397c <USBD_CtlError>
      break;
 80037ac:	46c0      	nop			; (mov r8, r8)
    }
  }
}
 80037ae:	46bd      	mov	sp, r7
 80037b0:	b002      	add	sp, #8
 80037b2:	bd80      	pop	{r7, pc}
 80037b4:	20000154 	.word	0x20000154

080037b8 <USBD_GetConfig>:
  * @param  req: usb request
  * @retval status
  */
static void USBD_GetConfig(USB_CORE_HANDLE  *pdev, 
                           USB_SETUP_REQ *req)
{
 80037b8:	b580      	push	{r7, lr}
 80037ba:	b084      	sub	sp, #16
 80037bc:	af00      	add	r7, sp, #0
 80037be:	6078      	str	r0, [r7, #4]
 80037c0:	6039      	str	r1, [r7, #0]
  uint32_t  USBD_default_cfg  = 0;
 80037c2:	2300      	movs	r3, #0
 80037c4:	60fb      	str	r3, [r7, #12]
 
  if (req->wLength != 1) 
 80037c6:	683b      	ldr	r3, [r7, #0]
 80037c8:	88db      	ldrh	r3, [r3, #6]
 80037ca:	2b01      	cmp	r3, #1
 80037cc:	d006      	beq.n	80037dc <USBD_GetConfig+0x24>
  {                   
     USBD_CtlError(pdev , req);
 80037ce:	687a      	ldr	r2, [r7, #4]
 80037d0:	683b      	ldr	r3, [r7, #0]
 80037d2:	1c10      	adds	r0, r2, #0
 80037d4:	1c19      	adds	r1, r3, #0
 80037d6:	f000 f8d1 	bl	800397c <USBD_CtlError>
 80037da:	e01e      	b.n	800381a <USBD_GetConfig+0x62>
  }
  else 
  {
    switch (pdev->dev.device_status )  
 80037dc:	687b      	ldr	r3, [r7, #4]
 80037de:	789b      	ldrb	r3, [r3, #2]
 80037e0:	2b02      	cmp	r3, #2
 80037e2:	d002      	beq.n	80037ea <USBD_GetConfig+0x32>
 80037e4:	2b03      	cmp	r3, #3
 80037e6:	d009      	beq.n	80037fc <USBD_GetConfig+0x44>
 80037e8:	e010      	b.n	800380c <USBD_GetConfig+0x54>
    {
    case USB_ADDRESSED:                     
      
      USBD_CtlSendData (pdev, 
 80037ea:	687a      	ldr	r2, [r7, #4]
 80037ec:	1c3b      	adds	r3, r7, #0
 80037ee:	330c      	adds	r3, #12
 80037f0:	1c10      	adds	r0, r2, #0
 80037f2:	1c19      	adds	r1, r3, #0
 80037f4:	2201      	movs	r2, #1
 80037f6:	f000 f93f 	bl	8003a78 <USBD_CtlSendData>
                        (uint8_t *)&USBD_default_cfg,
                        1);
      break;
 80037fa:	e00e      	b.n	800381a <USBD_GetConfig+0x62>
      
    case USB_CONFIGURED:                   
      
      USBD_CtlSendData (pdev, 
 80037fc:	687b      	ldr	r3, [r7, #4]
 80037fe:	687a      	ldr	r2, [r7, #4]
 8003800:	1c10      	adds	r0, r2, #0
 8003802:	1c19      	adds	r1, r3, #0
 8003804:	2201      	movs	r2, #1
 8003806:	f000 f937 	bl	8003a78 <USBD_CtlSendData>
                        &pdev->dev.device_config,
                        1);
      break;
 800380a:	e006      	b.n	800381a <USBD_GetConfig+0x62>
      
    default:
       USBD_CtlError(pdev , req);
 800380c:	687a      	ldr	r2, [r7, #4]
 800380e:	683b      	ldr	r3, [r7, #0]
 8003810:	1c10      	adds	r0, r2, #0
 8003812:	1c19      	adds	r1, r3, #0
 8003814:	f000 f8b2 	bl	800397c <USBD_CtlError>
      break;
 8003818:	46c0      	nop			; (mov r8, r8)
    }
  }
}
 800381a:	46bd      	mov	sp, r7
 800381c:	b004      	add	sp, #16
 800381e:	bd80      	pop	{r7, pc}

08003820 <USBD_GetStatus>:
  * @param  req: usb request
  * @retval status
  */
static void USBD_GetStatus(USB_CORE_HANDLE  *pdev, 
                           USB_SETUP_REQ *req)
{
 8003820:	b580      	push	{r7, lr}
 8003822:	b084      	sub	sp, #16
 8003824:	af00      	add	r7, sp, #0
 8003826:	6078      	str	r0, [r7, #4]
 8003828:	6039      	str	r1, [r7, #0]
  uint32_t  USBD_cfg_status = 0;  
 800382a:	2300      	movs	r3, #0
 800382c:	60fb      	str	r3, [r7, #12]
  switch (pdev->dev.device_status) 
 800382e:	687b      	ldr	r3, [r7, #4]
 8003830:	789b      	ldrb	r3, [r3, #2]
 8003832:	3b02      	subs	r3, #2
 8003834:	2b01      	cmp	r3, #1
 8003836:	d812      	bhi.n	800385e <USBD_GetStatus+0x3e>
  {
  case USB_ADDRESSED:
  case USB_CONFIGURED:
    
#ifdef USBD_SELF_POWERED
    USBD_cfg_status = USB_CONFIG_SELF_POWERED;                                    
 8003838:	2301      	movs	r3, #1
 800383a:	60fb      	str	r3, [r7, #12]
#else
    USBD_cfg_status = 0x00;                                    
#endif
                      
    if (pdev->dev.DevRemoteWakeup) 
 800383c:	687b      	ldr	r3, [r7, #4]
 800383e:	689b      	ldr	r3, [r3, #8]
 8003840:	2b00      	cmp	r3, #0
 8003842:	d003      	beq.n	800384c <USBD_GetStatus+0x2c>
    {
      USBD_cfg_status |= USB_CONFIG_REMOTE_WAKEUP;                                
 8003844:	68fb      	ldr	r3, [r7, #12]
 8003846:	2202      	movs	r2, #2
 8003848:	4313      	orrs	r3, r2
 800384a:	60fb      	str	r3, [r7, #12]
    }
    
    USBD_CtlSendData (pdev, 
 800384c:	687a      	ldr	r2, [r7, #4]
 800384e:	1c3b      	adds	r3, r7, #0
 8003850:	330c      	adds	r3, #12
 8003852:	1c10      	adds	r0, r2, #0
 8003854:	1c19      	adds	r1, r3, #0
 8003856:	2202      	movs	r2, #2
 8003858:	f000 f90e 	bl	8003a78 <USBD_CtlSendData>
                      (uint8_t *)&USBD_cfg_status,
                      2);
    break;
 800385c:	e006      	b.n	800386c <USBD_GetStatus+0x4c>
    
  default :
    USBD_CtlError(pdev , req);                        
 800385e:	687a      	ldr	r2, [r7, #4]
 8003860:	683b      	ldr	r3, [r7, #0]
 8003862:	1c10      	adds	r0, r2, #0
 8003864:	1c19      	adds	r1, r3, #0
 8003866:	f000 f889 	bl	800397c <USBD_CtlError>
    break;
 800386a:	46c0      	nop			; (mov r8, r8)
  }
}
 800386c:	46bd      	mov	sp, r7
 800386e:	b004      	add	sp, #16
 8003870:	bd80      	pop	{r7, pc}
 8003872:	46c0      	nop			; (mov r8, r8)

08003874 <USBD_SetFeature>:
  * @param  req: usb request
  * @retval status
  */
static void USBD_SetFeature(USB_CORE_HANDLE  *pdev, 
                            USB_SETUP_REQ *req)
{
 8003874:	b580      	push	{r7, lr}
 8003876:	b082      	sub	sp, #8
 8003878:	af00      	add	r7, sp, #0
 800387a:	6078      	str	r0, [r7, #4]
 800387c:	6039      	str	r1, [r7, #0]
 
  if (req->wValue == USB_FEATURE_REMOTE_WAKEUP)
 800387e:	683b      	ldr	r3, [r7, #0]
 8003880:	885b      	ldrh	r3, [r3, #2]
 8003882:	2b01      	cmp	r3, #1
 8003884:	d110      	bne.n	80038a8 <USBD_SetFeature+0x34>
  {
    pdev->dev.DevRemoteWakeup = 1;  
 8003886:	687b      	ldr	r3, [r7, #4]
 8003888:	2201      	movs	r2, #1
 800388a:	609a      	str	r2, [r3, #8]
    pdev->dev.class_cb->Setup (pdev, req);   
 800388c:	687a      	ldr	r2, [r7, #4]
 800388e:	23ac      	movs	r3, #172	; 0xac
 8003890:	005b      	lsls	r3, r3, #1
 8003892:	58d3      	ldr	r3, [r2, r3]
 8003894:	689b      	ldr	r3, [r3, #8]
 8003896:	6879      	ldr	r1, [r7, #4]
 8003898:	683a      	ldr	r2, [r7, #0]
 800389a:	1c08      	adds	r0, r1, #0
 800389c:	1c11      	adds	r1, r2, #0
 800389e:	4798      	blx	r3
    USBD_CtlSendStatus(pdev);
 80038a0:	687b      	ldr	r3, [r7, #4]
 80038a2:	1c18      	adds	r0, r3, #0
 80038a4:	f000 f96a 	bl	8003b7c <USBD_CtlSendStatus>
  }
}
 80038a8:	46bd      	mov	sp, r7
 80038aa:	b002      	add	sp, #8
 80038ac:	bd80      	pop	{r7, pc}
 80038ae:	46c0      	nop			; (mov r8, r8)

080038b0 <USBD_ClrFeature>:
  * @param  req: usb request
  * @retval status
  */
static void USBD_ClrFeature(USB_CORE_HANDLE  *pdev, 
                            USB_SETUP_REQ *req)
{
 80038b0:	b580      	push	{r7, lr}
 80038b2:	b082      	sub	sp, #8
 80038b4:	af00      	add	r7, sp, #0
 80038b6:	6078      	str	r0, [r7, #4]
 80038b8:	6039      	str	r1, [r7, #0]
  switch (pdev->dev.device_status)
 80038ba:	687b      	ldr	r3, [r7, #4]
 80038bc:	789b      	ldrb	r3, [r3, #2]
 80038be:	3b02      	subs	r3, #2
 80038c0:	2b01      	cmp	r3, #1
 80038c2:	d816      	bhi.n	80038f2 <USBD_ClrFeature+0x42>
  {
  case USB_ADDRESSED:
  case USB_CONFIGURED:
    if (req->wValue == USB_FEATURE_REMOTE_WAKEUP) 
 80038c4:	683b      	ldr	r3, [r7, #0]
 80038c6:	885b      	ldrh	r3, [r3, #2]
 80038c8:	2b01      	cmp	r3, #1
 80038ca:	d111      	bne.n	80038f0 <USBD_ClrFeature+0x40>
    {
      pdev->dev.DevRemoteWakeup = 0; 
 80038cc:	687b      	ldr	r3, [r7, #4]
 80038ce:	2200      	movs	r2, #0
 80038d0:	609a      	str	r2, [r3, #8]
      pdev->dev.class_cb->Setup (pdev, req);   
 80038d2:	687a      	ldr	r2, [r7, #4]
 80038d4:	23ac      	movs	r3, #172	; 0xac
 80038d6:	005b      	lsls	r3, r3, #1
 80038d8:	58d3      	ldr	r3, [r2, r3]
 80038da:	689b      	ldr	r3, [r3, #8]
 80038dc:	6879      	ldr	r1, [r7, #4]
 80038de:	683a      	ldr	r2, [r7, #0]
 80038e0:	1c08      	adds	r0, r1, #0
 80038e2:	1c11      	adds	r1, r2, #0
 80038e4:	4798      	blx	r3
      USBD_CtlSendStatus(pdev);
 80038e6:	687b      	ldr	r3, [r7, #4]
 80038e8:	1c18      	adds	r0, r3, #0
 80038ea:	f000 f947 	bl	8003b7c <USBD_CtlSendStatus>
    }
    break;
 80038ee:	e007      	b.n	8003900 <USBD_ClrFeature+0x50>
 80038f0:	e006      	b.n	8003900 <USBD_ClrFeature+0x50>
    
  default :
     USBD_CtlError(pdev , req);
 80038f2:	687a      	ldr	r2, [r7, #4]
 80038f4:	683b      	ldr	r3, [r7, #0]
 80038f6:	1c10      	adds	r0, r2, #0
 80038f8:	1c19      	adds	r1, r3, #0
 80038fa:	f000 f83f 	bl	800397c <USBD_CtlError>
    break;
 80038fe:	46c0      	nop			; (mov r8, r8)
  }
}
 8003900:	46bd      	mov	sp, r7
 8003902:	b002      	add	sp, #8
 8003904:	bd80      	pop	{r7, pc}
 8003906:	46c0      	nop			; (mov r8, r8)

08003908 <USBD_ParseSetupRequest>:
  * @retval None
  */

void USBD_ParseSetupRequest( USB_CORE_HANDLE  *pdev,
                            USB_SETUP_REQ *req)
{
 8003908:	b580      	push	{r7, lr}
 800390a:	b082      	sub	sp, #8
 800390c:	af00      	add	r7, sp, #0
 800390e:	6078      	str	r0, [r7, #4]
 8003910:	6039      	str	r1, [r7, #0]
  req->bmRequest     = *(uint8_t *)  (pdev->dev.setup_packet);
 8003912:	687b      	ldr	r3, [r7, #4]
 8003914:	7c1a      	ldrb	r2, [r3, #16]
 8003916:	683b      	ldr	r3, [r7, #0]
 8003918:	701a      	strb	r2, [r3, #0]
  req->bRequest      = *(uint8_t *)  (pdev->dev.setup_packet +  1);
 800391a:	687b      	ldr	r3, [r7, #4]
 800391c:	7c5a      	ldrb	r2, [r3, #17]
 800391e:	683b      	ldr	r3, [r7, #0]
 8003920:	705a      	strb	r2, [r3, #1]
  req->wValue        = SWAPBYTE      (pdev->dev.setup_packet +  2);
 8003922:	687b      	ldr	r3, [r7, #4]
 8003924:	7c9b      	ldrb	r3, [r3, #18]
 8003926:	1c1a      	adds	r2, r3, #0
 8003928:	687b      	ldr	r3, [r7, #4]
 800392a:	7cdb      	ldrb	r3, [r3, #19]
 800392c:	021b      	lsls	r3, r3, #8
 800392e:	b29b      	uxth	r3, r3
 8003930:	18d3      	adds	r3, r2, r3
 8003932:	b29a      	uxth	r2, r3
 8003934:	683b      	ldr	r3, [r7, #0]
 8003936:	805a      	strh	r2, [r3, #2]
  req->wIndex        = SWAPBYTE      (pdev->dev.setup_packet +  4);
 8003938:	687b      	ldr	r3, [r7, #4]
 800393a:	7d1b      	ldrb	r3, [r3, #20]
 800393c:	1c1a      	adds	r2, r3, #0
 800393e:	687b      	ldr	r3, [r7, #4]
 8003940:	7d5b      	ldrb	r3, [r3, #21]
 8003942:	021b      	lsls	r3, r3, #8
 8003944:	b29b      	uxth	r3, r3
 8003946:	18d3      	adds	r3, r2, r3
 8003948:	b29a      	uxth	r2, r3
 800394a:	683b      	ldr	r3, [r7, #0]
 800394c:	809a      	strh	r2, [r3, #4]
  req->wLength       = SWAPBYTE      (pdev->dev.setup_packet +  6);
 800394e:	687b      	ldr	r3, [r7, #4]
 8003950:	7d9b      	ldrb	r3, [r3, #22]
 8003952:	1c1a      	adds	r2, r3, #0
 8003954:	687b      	ldr	r3, [r7, #4]
 8003956:	7ddb      	ldrb	r3, [r3, #23]
 8003958:	021b      	lsls	r3, r3, #8
 800395a:	b29b      	uxth	r3, r3
 800395c:	18d3      	adds	r3, r2, r3
 800395e:	b29a      	uxth	r2, r3
 8003960:	683b      	ldr	r3, [r7, #0]
 8003962:	80da      	strh	r2, [r3, #6]
  
  pdev->dev.in_ep[0].ctl_data_len = req->wLength  ;
 8003964:	683b      	ldr	r3, [r7, #0]
 8003966:	88db      	ldrh	r3, [r3, #6]
 8003968:	1c1a      	adds	r2, r3, #0
 800396a:	687b      	ldr	r3, [r7, #4]
 800396c:	63da      	str	r2, [r3, #60]	; 0x3c
  pdev->dev.device_state = USB_EP0_SETUP;
 800396e:	687b      	ldr	r3, [r7, #4]
 8003970:	2201      	movs	r2, #1
 8003972:	705a      	strb	r2, [r3, #1]
}
 8003974:	46bd      	mov	sp, r7
 8003976:	b002      	add	sp, #8
 8003978:	bd80      	pop	{r7, pc}
 800397a:	46c0      	nop			; (mov r8, r8)

0800397c <USBD_CtlError>:
  * @retval None
  */

void USBD_CtlError( USB_CORE_HANDLE  *pdev,
                            USB_SETUP_REQ *req)
{
 800397c:	b580      	push	{r7, lr}
 800397e:	b082      	sub	sp, #8
 8003980:	af00      	add	r7, sp, #0
 8003982:	6078      	str	r0, [r7, #4]
 8003984:	6039      	str	r1, [r7, #0]
  DCD_EP_Stall(pdev , 0);
 8003986:	687b      	ldr	r3, [r7, #4]
 8003988:	1c18      	adds	r0, r3, #0
 800398a:	2100      	movs	r1, #0
 800398c:	f001 fc46 	bl	800521c <DCD_EP_Stall>
}
 8003990:	46bd      	mov	sp, r7
 8003992:	b002      	add	sp, #8
 8003994:	bd80      	pop	{r7, pc}
 8003996:	46c0      	nop			; (mov r8, r8)

08003998 <USBD_GetString>:
  * @param  unicode : Formatted string buffer (unicode)
  * @param  len : descriptor length
  * @retval None
  */
void USBD_GetString(uint8_t *desc, uint8_t *unicode, uint16_t *len)
{
 8003998:	b580      	push	{r7, lr}
 800399a:	b086      	sub	sp, #24
 800399c:	af00      	add	r7, sp, #0
 800399e:	60f8      	str	r0, [r7, #12]
 80039a0:	60b9      	str	r1, [r7, #8]
 80039a2:	607a      	str	r2, [r7, #4]
  uint8_t idx = 0;
 80039a4:	1c3b      	adds	r3, r7, #0
 80039a6:	3317      	adds	r3, #23
 80039a8:	2200      	movs	r2, #0
 80039aa:	701a      	strb	r2, [r3, #0]
  
  if (desc != NULL) 
 80039ac:	68fb      	ldr	r3, [r7, #12]
 80039ae:	2b00      	cmp	r3, #0
 80039b0:	d040      	beq.n	8003a34 <USBD_GetString+0x9c>
  {
    *len =  USBD_GetLen(desc) * 2 + 2;    
 80039b2:	68fb      	ldr	r3, [r7, #12]
 80039b4:	1c18      	adds	r0, r3, #0
 80039b6:	f000 f841 	bl	8003a3c <USBD_GetLen>
 80039ba:	1c03      	adds	r3, r0, #0
 80039bc:	3301      	adds	r3, #1
 80039be:	b29b      	uxth	r3, r3
 80039c0:	18db      	adds	r3, r3, r3
 80039c2:	b29a      	uxth	r2, r3
 80039c4:	687b      	ldr	r3, [r7, #4]
 80039c6:	801a      	strh	r2, [r3, #0]
    unicode[idx++] = *len;
 80039c8:	1c3b      	adds	r3, r7, #0
 80039ca:	3317      	adds	r3, #23
 80039cc:	781b      	ldrb	r3, [r3, #0]
 80039ce:	1c3a      	adds	r2, r7, #0
 80039d0:	3217      	adds	r2, #23
 80039d2:	1c59      	adds	r1, r3, #1
 80039d4:	7011      	strb	r1, [r2, #0]
 80039d6:	68ba      	ldr	r2, [r7, #8]
 80039d8:	18d3      	adds	r3, r2, r3
 80039da:	687a      	ldr	r2, [r7, #4]
 80039dc:	8812      	ldrh	r2, [r2, #0]
 80039de:	b2d2      	uxtb	r2, r2
 80039e0:	701a      	strb	r2, [r3, #0]
    unicode[idx++] =  USB_DESC_TYPE_STRING;
 80039e2:	1c3b      	adds	r3, r7, #0
 80039e4:	3317      	adds	r3, #23
 80039e6:	781b      	ldrb	r3, [r3, #0]
 80039e8:	1c3a      	adds	r2, r7, #0
 80039ea:	3217      	adds	r2, #23
 80039ec:	1c59      	adds	r1, r3, #1
 80039ee:	7011      	strb	r1, [r2, #0]
 80039f0:	68ba      	ldr	r2, [r7, #8]
 80039f2:	18d3      	adds	r3, r2, r3
 80039f4:	2203      	movs	r2, #3
 80039f6:	701a      	strb	r2, [r3, #0]
    
    while (*desc != NULL) 
 80039f8:	e018      	b.n	8003a2c <USBD_GetString+0x94>
    {
      unicode[idx++] = *desc++;
 80039fa:	1c3b      	adds	r3, r7, #0
 80039fc:	3317      	adds	r3, #23
 80039fe:	781b      	ldrb	r3, [r3, #0]
 8003a00:	1c3a      	adds	r2, r7, #0
 8003a02:	3217      	adds	r2, #23
 8003a04:	1c59      	adds	r1, r3, #1
 8003a06:	7011      	strb	r1, [r2, #0]
 8003a08:	68ba      	ldr	r2, [r7, #8]
 8003a0a:	18d2      	adds	r2, r2, r3
 8003a0c:	68fb      	ldr	r3, [r7, #12]
 8003a0e:	1c59      	adds	r1, r3, #1
 8003a10:	60f9      	str	r1, [r7, #12]
 8003a12:	781b      	ldrb	r3, [r3, #0]
 8003a14:	7013      	strb	r3, [r2, #0]
      unicode[idx++] =  0x00;
 8003a16:	1c3b      	adds	r3, r7, #0
 8003a18:	3317      	adds	r3, #23
 8003a1a:	781b      	ldrb	r3, [r3, #0]
 8003a1c:	1c3a      	adds	r2, r7, #0
 8003a1e:	3217      	adds	r2, #23
 8003a20:	1c59      	adds	r1, r3, #1
 8003a22:	7011      	strb	r1, [r2, #0]
 8003a24:	68ba      	ldr	r2, [r7, #8]
 8003a26:	18d3      	adds	r3, r2, r3
 8003a28:	2200      	movs	r2, #0
 8003a2a:	701a      	strb	r2, [r3, #0]
  {
    *len =  USBD_GetLen(desc) * 2 + 2;    
    unicode[idx++] = *len;
    unicode[idx++] =  USB_DESC_TYPE_STRING;
    
    while (*desc != NULL) 
 8003a2c:	68fb      	ldr	r3, [r7, #12]
 8003a2e:	781b      	ldrb	r3, [r3, #0]
 8003a30:	2b00      	cmp	r3, #0
 8003a32:	d1e2      	bne.n	80039fa <USBD_GetString+0x62>
    {
      unicode[idx++] = *desc++;
      unicode[idx++] =  0x00;
    }
  } 
}
 8003a34:	46bd      	mov	sp, r7
 8003a36:	b006      	add	sp, #24
 8003a38:	bd80      	pop	{r7, pc}
 8003a3a:	46c0      	nop			; (mov r8, r8)

08003a3c <USBD_GetLen>:
  *         return the string length
   * @param  buf : pointer to the ascii string buffer
  * @retval string length
  */
static uint8_t USBD_GetLen(uint8_t *buf)
{
 8003a3c:	b580      	push	{r7, lr}
 8003a3e:	b084      	sub	sp, #16
 8003a40:	af00      	add	r7, sp, #0
 8003a42:	6078      	str	r0, [r7, #4]
    uint8_t  len = 0;
 8003a44:	1c3b      	adds	r3, r7, #0
 8003a46:	330f      	adds	r3, #15
 8003a48:	2200      	movs	r2, #0
 8003a4a:	701a      	strb	r2, [r3, #0]

    while (*buf != NULL) 
 8003a4c:	e009      	b.n	8003a62 <USBD_GetLen+0x26>
    {
        len++;
 8003a4e:	1c3b      	adds	r3, r7, #0
 8003a50:	330f      	adds	r3, #15
 8003a52:	781a      	ldrb	r2, [r3, #0]
 8003a54:	1c3b      	adds	r3, r7, #0
 8003a56:	330f      	adds	r3, #15
 8003a58:	3201      	adds	r2, #1
 8003a5a:	701a      	strb	r2, [r3, #0]
        buf++;
 8003a5c:	687b      	ldr	r3, [r7, #4]
 8003a5e:	3301      	adds	r3, #1
 8003a60:	607b      	str	r3, [r7, #4]
  */
static uint8_t USBD_GetLen(uint8_t *buf)
{
    uint8_t  len = 0;

    while (*buf != NULL) 
 8003a62:	687b      	ldr	r3, [r7, #4]
 8003a64:	781b      	ldrb	r3, [r3, #0]
 8003a66:	2b00      	cmp	r3, #0
 8003a68:	d1f1      	bne.n	8003a4e <USBD_GetLen+0x12>
    {
        len++;
        buf++;
    }

    return len;
 8003a6a:	1c3b      	adds	r3, r7, #0
 8003a6c:	330f      	adds	r3, #15
 8003a6e:	781b      	ldrb	r3, [r3, #0]
}
 8003a70:	1c18      	adds	r0, r3, #0
 8003a72:	46bd      	mov	sp, r7
 8003a74:	b004      	add	sp, #16
 8003a76:	bd80      	pop	{r7, pc}

08003a78 <USBD_CtlSendData>:
  * @retval status
  */
USBD_Status  USBD_CtlSendData (USB_CORE_HANDLE  *pdev, 
                               uint8_t *pbuf,
                               uint16_t len)
{
 8003a78:	b580      	push	{r7, lr}
 8003a7a:	b086      	sub	sp, #24
 8003a7c:	af00      	add	r7, sp, #0
 8003a7e:	60f8      	str	r0, [r7, #12]
 8003a80:	60b9      	str	r1, [r7, #8]
 8003a82:	1dbb      	adds	r3, r7, #6
 8003a84:	801a      	strh	r2, [r3, #0]
  USBD_Status ret = USBD_OK;
 8003a86:	1c3b      	adds	r3, r7, #0
 8003a88:	3317      	adds	r3, #23
 8003a8a:	2200      	movs	r2, #0
 8003a8c:	701a      	strb	r2, [r3, #0]
  
  pdev->dev.in_ep[0].total_data_len = len;
 8003a8e:	1dbb      	adds	r3, r7, #6
 8003a90:	881a      	ldrh	r2, [r3, #0]
 8003a92:	68fb      	ldr	r3, [r7, #12]
 8003a94:	639a      	str	r2, [r3, #56]	; 0x38
  pdev->dev.in_ep[0].rem_data_len   = len;
 8003a96:	1dbb      	adds	r3, r7, #6
 8003a98:	881a      	ldrh	r2, [r3, #0]
 8003a9a:	68fb      	ldr	r3, [r7, #12]
 8003a9c:	635a      	str	r2, [r3, #52]	; 0x34
  pdev->dev.device_state = USB_EP0_DATA_IN;
 8003a9e:	68fb      	ldr	r3, [r7, #12]
 8003aa0:	2202      	movs	r2, #2
 8003aa2:	705a      	strb	r2, [r3, #1]

  DCD_EP_Tx (pdev, 0, pbuf, len);
 8003aa4:	1dbb      	adds	r3, r7, #6
 8003aa6:	881b      	ldrh	r3, [r3, #0]
 8003aa8:	68f9      	ldr	r1, [r7, #12]
 8003aaa:	68ba      	ldr	r2, [r7, #8]
 8003aac:	1c08      	adds	r0, r1, #0
 8003aae:	2100      	movs	r1, #0
 8003ab0:	f001 fb18 	bl	80050e4 <DCD_EP_Tx>
 
  return ret;
 8003ab4:	1c3b      	adds	r3, r7, #0
 8003ab6:	3317      	adds	r3, #23
 8003ab8:	781b      	ldrb	r3, [r3, #0]
}
 8003aba:	1c18      	adds	r0, r3, #0
 8003abc:	46bd      	mov	sp, r7
 8003abe:	b006      	add	sp, #24
 8003ac0:	bd80      	pop	{r7, pc}
 8003ac2:	46c0      	nop			; (mov r8, r8)

08003ac4 <USBD_CtlContinueSendData>:
  * @retval status
  */
USBD_Status  USBD_CtlContinueSendData (USB_CORE_HANDLE  *pdev, 
                                       uint8_t *pbuf,
                                       uint16_t len)
{
 8003ac4:	b580      	push	{r7, lr}
 8003ac6:	b086      	sub	sp, #24
 8003ac8:	af00      	add	r7, sp, #0
 8003aca:	60f8      	str	r0, [r7, #12]
 8003acc:	60b9      	str	r1, [r7, #8]
 8003ace:	1dbb      	adds	r3, r7, #6
 8003ad0:	801a      	strh	r2, [r3, #0]
  USBD_Status ret = USBD_OK;
 8003ad2:	1c3b      	adds	r3, r7, #0
 8003ad4:	3317      	adds	r3, #23
 8003ad6:	2200      	movs	r2, #0
 8003ad8:	701a      	strb	r2, [r3, #0]
  
  DCD_EP_Tx (pdev, 0, pbuf, len);
 8003ada:	1dbb      	adds	r3, r7, #6
 8003adc:	881b      	ldrh	r3, [r3, #0]
 8003ade:	68f9      	ldr	r1, [r7, #12]
 8003ae0:	68ba      	ldr	r2, [r7, #8]
 8003ae2:	1c08      	adds	r0, r1, #0
 8003ae4:	2100      	movs	r1, #0
 8003ae6:	f001 fafd 	bl	80050e4 <DCD_EP_Tx>
  
  
  return ret;
 8003aea:	1c3b      	adds	r3, r7, #0
 8003aec:	3317      	adds	r3, #23
 8003aee:	781b      	ldrb	r3, [r3, #0]
}
 8003af0:	1c18      	adds	r0, r3, #0
 8003af2:	46bd      	mov	sp, r7
 8003af4:	b006      	add	sp, #24
 8003af6:	bd80      	pop	{r7, pc}

08003af8 <USBD_CtlPrepareRx>:
  * @retval status
  */
USBD_Status  USBD_CtlPrepareRx (USB_CORE_HANDLE  *pdev,
                                  uint8_t *pbuf,                                  
                                  uint16_t len)
{
 8003af8:	b580      	push	{r7, lr}
 8003afa:	b086      	sub	sp, #24
 8003afc:	af00      	add	r7, sp, #0
 8003afe:	60f8      	str	r0, [r7, #12]
 8003b00:	60b9      	str	r1, [r7, #8]
 8003b02:	1dbb      	adds	r3, r7, #6
 8003b04:	801a      	strh	r2, [r3, #0]
  USBD_Status ret = USBD_OK;
 8003b06:	1c3b      	adds	r3, r7, #0
 8003b08:	3317      	adds	r3, #23
 8003b0a:	2200      	movs	r2, #0
 8003b0c:	701a      	strb	r2, [r3, #0]
  
  pdev->dev.out_ep[0].total_data_len = len;
 8003b0e:	1dbb      	adds	r3, r7, #6
 8003b10:	8819      	ldrh	r1, [r3, #0]
 8003b12:	68fa      	ldr	r2, [r7, #12]
 8003b14:	23d8      	movs	r3, #216	; 0xd8
 8003b16:	50d1      	str	r1, [r2, r3]
  pdev->dev.out_ep[0].rem_data_len   = len;
 8003b18:	1dbb      	adds	r3, r7, #6
 8003b1a:	8819      	ldrh	r1, [r3, #0]
 8003b1c:	68fa      	ldr	r2, [r7, #12]
 8003b1e:	23d4      	movs	r3, #212	; 0xd4
 8003b20:	50d1      	str	r1, [r2, r3]
  pdev->dev.device_state = USB_EP0_DATA_OUT;
 8003b22:	68fb      	ldr	r3, [r7, #12]
 8003b24:	2203      	movs	r2, #3
 8003b26:	705a      	strb	r2, [r3, #1]
  
  DCD_EP_PrepareRx (pdev,
 8003b28:	68f9      	ldr	r1, [r7, #12]
 8003b2a:	68ba      	ldr	r2, [r7, #8]
 8003b2c:	1dbb      	adds	r3, r7, #6
 8003b2e:	881b      	ldrh	r3, [r3, #0]
 8003b30:	1c08      	adds	r0, r1, #0
 8003b32:	2100      	movs	r1, #0
 8003b34:	f001 fa74 	bl	8005020 <DCD_EP_PrepareRx>
                    0,
                    pbuf,
                    len);
  

  return ret;
 8003b38:	1c3b      	adds	r3, r7, #0
 8003b3a:	3317      	adds	r3, #23
 8003b3c:	781b      	ldrb	r3, [r3, #0]
}
 8003b3e:	1c18      	adds	r0, r3, #0
 8003b40:	46bd      	mov	sp, r7
 8003b42:	b006      	add	sp, #24
 8003b44:	bd80      	pop	{r7, pc}
 8003b46:	46c0      	nop			; (mov r8, r8)

08003b48 <USBD_CtlContinueRx>:
  * @retval status
  */
USBD_Status  USBD_CtlContinueRx (USB_CORE_HANDLE  *pdev, 
                                          uint8_t *pbuf,                                          
                                          uint16_t len)
{
 8003b48:	b580      	push	{r7, lr}
 8003b4a:	b086      	sub	sp, #24
 8003b4c:	af00      	add	r7, sp, #0
 8003b4e:	60f8      	str	r0, [r7, #12]
 8003b50:	60b9      	str	r1, [r7, #8]
 8003b52:	1dbb      	adds	r3, r7, #6
 8003b54:	801a      	strh	r2, [r3, #0]
  USBD_Status ret = USBD_OK;
 8003b56:	1c3b      	adds	r3, r7, #0
 8003b58:	3317      	adds	r3, #23
 8003b5a:	2200      	movs	r2, #0
 8003b5c:	701a      	strb	r2, [r3, #0]
  
  DCD_EP_PrepareRx (pdev,
 8003b5e:	68f9      	ldr	r1, [r7, #12]
 8003b60:	68ba      	ldr	r2, [r7, #8]
 8003b62:	1dbb      	adds	r3, r7, #6
 8003b64:	881b      	ldrh	r3, [r3, #0]
 8003b66:	1c08      	adds	r0, r1, #0
 8003b68:	2100      	movs	r1, #0
 8003b6a:	f001 fa59 	bl	8005020 <DCD_EP_PrepareRx>
                    0,                     
                    pbuf,                         
                    len);
  return ret;
 8003b6e:	1c3b      	adds	r3, r7, #0
 8003b70:	3317      	adds	r3, #23
 8003b72:	781b      	ldrb	r3, [r3, #0]
}
 8003b74:	1c18      	adds	r0, r3, #0
 8003b76:	46bd      	mov	sp, r7
 8003b78:	b006      	add	sp, #24
 8003b7a:	bd80      	pop	{r7, pc}

08003b7c <USBD_CtlSendStatus>:
  *         send zero length packet on the ctl pipe
  * @param  pdev: USB device instance
  * @retval status
  */
USBD_Status  USBD_CtlSendStatus (USB_CORE_HANDLE  *pdev)
{
 8003b7c:	b580      	push	{r7, lr}
 8003b7e:	b084      	sub	sp, #16
 8003b80:	af00      	add	r7, sp, #0
 8003b82:	6078      	str	r0, [r7, #4]
  USBD_Status ret = USBD_OK;
 8003b84:	1c3b      	adds	r3, r7, #0
 8003b86:	330f      	adds	r3, #15
 8003b88:	2200      	movs	r2, #0
 8003b8a:	701a      	strb	r2, [r3, #0]
  pdev->dev.device_state = USB_EP0_STATUS_IN;
 8003b8c:	687b      	ldr	r3, [r7, #4]
 8003b8e:	2204      	movs	r2, #4
 8003b90:	705a      	strb	r2, [r3, #1]
  DCD_EP_Tx (pdev,
 8003b92:	687b      	ldr	r3, [r7, #4]
 8003b94:	1c18      	adds	r0, r3, #0
 8003b96:	2100      	movs	r1, #0
 8003b98:	2200      	movs	r2, #0
 8003b9a:	2300      	movs	r3, #0
 8003b9c:	f001 faa2 	bl	80050e4 <DCD_EP_Tx>
             0,
             NULL, 
             0); 
  return ret;
 8003ba0:	1c3b      	adds	r3, r7, #0
 8003ba2:	330f      	adds	r3, #15
 8003ba4:	781b      	ldrb	r3, [r3, #0]
}
 8003ba6:	1c18      	adds	r0, r3, #0
 8003ba8:	46bd      	mov	sp, r7
 8003baa:	b004      	add	sp, #16
 8003bac:	bd80      	pop	{r7, pc}
 8003bae:	46c0      	nop			; (mov r8, r8)

08003bb0 <USBD_CtlReceiveStatus>:
  *         receive zero length packet on the ctl pipe
  * @param  pdev: USB device instance
  * @retval status
  */
USBD_Status  USBD_CtlReceiveStatus (USB_CORE_HANDLE  *pdev)
{
 8003bb0:	b580      	push	{r7, lr}
 8003bb2:	b084      	sub	sp, #16
 8003bb4:	af00      	add	r7, sp, #0
 8003bb6:	6078      	str	r0, [r7, #4]
  USBD_Status ret = USBD_OK;
 8003bb8:	1c3b      	adds	r3, r7, #0
 8003bba:	330f      	adds	r3, #15
 8003bbc:	2200      	movs	r2, #0
 8003bbe:	701a      	strb	r2, [r3, #0]
  pdev->dev.device_state = USB_EP0_STATUS_OUT;  
 8003bc0:	687b      	ldr	r3, [r7, #4]
 8003bc2:	2205      	movs	r2, #5
 8003bc4:	705a      	strb	r2, [r3, #1]
  DCD_EP_PrepareRx ( pdev,
 8003bc6:	687b      	ldr	r3, [r7, #4]
 8003bc8:	1c18      	adds	r0, r3, #0
 8003bca:	2100      	movs	r1, #0
 8003bcc:	2200      	movs	r2, #0
 8003bce:	2300      	movs	r3, #0
 8003bd0:	f001 fa26 	bl	8005020 <DCD_EP_PrepareRx>
                    0,
                    NULL,
                    0); 
  
  return ret;
 8003bd4:	1c3b      	adds	r3, r7, #0
 8003bd6:	330f      	adds	r3, #15
 8003bd8:	781b      	ldrb	r3, [r3, #0]
}
 8003bda:	1c18      	adds	r0, r3, #0
 8003bdc:	46bd      	mov	sp, r7
 8003bde:	b004      	add	sp, #16
 8003be0:	bd80      	pop	{r7, pc}
 8003be2:	46c0      	nop			; (mov r8, r8)

08003be4 <USBD_Init>:
  */
void USBD_Init(USB_CORE_HANDLE *pdev,
               USBD_DEVICE *pDevice,                  
               USBD_Class_cb_TypeDef *class_cb, 
               USBD_Usr_cb_TypeDef *usr_cb)
{
 8003be4:	b580      	push	{r7, lr}
 8003be6:	b084      	sub	sp, #16
 8003be8:	af00      	add	r7, sp, #0
 8003bea:	60f8      	str	r0, [r7, #12]
 8003bec:	60b9      	str	r1, [r7, #8]
 8003bee:	607a      	str	r2, [r7, #4]
 8003bf0:	603b      	str	r3, [r7, #0]
  /* Hardware Init */
  USB_BSP_Init(pdev);  
 8003bf2:	68fb      	ldr	r3, [r7, #12]
 8003bf4:	1c18      	adds	r0, r3, #0
 8003bf6:	f7fc fe7b 	bl	80008f0 <USB_BSP_Init>
  
  USBD_DeInit(pdev);
 8003bfa:	68fb      	ldr	r3, [r7, #12]
 8003bfc:	1c18      	adds	r0, r3, #0
 8003bfe:	f000 f827 	bl	8003c50 <USBD_DeInit>
  
  /*Register class and user callbacks */
  pdev->dev.class_cb = class_cb;
 8003c02:	68fa      	ldr	r2, [r7, #12]
 8003c04:	23ac      	movs	r3, #172	; 0xac
 8003c06:	005b      	lsls	r3, r3, #1
 8003c08:	6879      	ldr	r1, [r7, #4]
 8003c0a:	50d1      	str	r1, [r2, r3]
  pdev->dev.usr_cb = usr_cb;  
 8003c0c:	68fa      	ldr	r2, [r7, #12]
 8003c0e:	23ae      	movs	r3, #174	; 0xae
 8003c10:	005b      	lsls	r3, r3, #1
 8003c12:	6839      	ldr	r1, [r7, #0]
 8003c14:	50d1      	str	r1, [r2, r3]
  pdev->dev.usr_device = pDevice;    
 8003c16:	68fa      	ldr	r2, [r7, #12]
 8003c18:	23b0      	movs	r3, #176	; 0xb0
 8003c1a:	005b      	lsls	r3, r3, #1
 8003c1c:	68b9      	ldr	r1, [r7, #8]
 8003c1e:	50d1      	str	r1, [r2, r3]
  
  /* Update the serial number string descriptor with the data from the unique ID*/
  Get_SerialNum();
 8003c20:	f7fc fdee 	bl	8000800 <Get_SerialNum>
  
  /* set USB DEVICE core params */
  DCD_Init(pdev);
 8003c24:	68fb      	ldr	r3, [r7, #12]
 8003c26:	1c18      	adds	r0, r3, #0
 8003c28:	f000 ffe0 	bl	8004bec <DCD_Init>
  
  /* Upon Init call usr callback */
  pdev->dev.usr_cb->Init();
 8003c2c:	68fa      	ldr	r2, [r7, #12]
 8003c2e:	23ae      	movs	r3, #174	; 0xae
 8003c30:	005b      	lsls	r3, r3, #1
 8003c32:	58d3      	ldr	r3, [r2, r3]
 8003c34:	681b      	ldr	r3, [r3, #0]
 8003c36:	4798      	blx	r3
//  dbgLED_off();
//  delay(500);


  /* Enable Interrupts */
  USB_BSP_EnableInterrupt(pdev);
 8003c38:	68fb      	ldr	r3, [r7, #12]
 8003c3a:	1c18      	adds	r0, r3, #0
 8003c3c:	f7fc fe6a 	bl	8000914 <USB_BSP_EnableInterrupt>
//  delay(500);
  //TODO: Program flow works till here!

  /* Enable the pull-up */
//#ifdef INTERNAL_PULLUP
  DCD_DevConnect(pdev);
 8003c40:	68fb      	ldr	r3, [r7, #12]
 8003c42:	1c18      	adds	r0, r3, #0
 8003c44:	f001 fbe0 	bl	8005408 <DCD_DevConnect>
//  dbgLED_on();
//#else
// USB_BSP_DevConnect(pdev);
//#endif
  //TODO: but it's already stuck here!
}
 8003c48:	46bd      	mov	sp, r7
 8003c4a:	b004      	add	sp, #16
 8003c4c:	bd80      	pop	{r7, pc}
 8003c4e:	46c0      	nop			; (mov r8, r8)

08003c50 <USBD_DeInit>:
  *         Re-Initialize th device library
  * @param  pdev: device instance
  * @retval status: status
  */
USBD_Status USBD_DeInit(USB_CORE_HANDLE *pdev)
{
 8003c50:	b580      	push	{r7, lr}
 8003c52:	b082      	sub	sp, #8
 8003c54:	af00      	add	r7, sp, #0
 8003c56:	6078      	str	r0, [r7, #4]
  /* Software Init */
  
  return USBD_OK;
 8003c58:	2300      	movs	r3, #0
}
 8003c5a:	1c18      	adds	r0, r3, #0
 8003c5c:	46bd      	mov	sp, r7
 8003c5e:	b002      	add	sp, #8
 8003c60:	bd80      	pop	{r7, pc}
 8003c62:	46c0      	nop			; (mov r8, r8)

08003c64 <USBD_SetupStage>:
  *         Handle the setup stage
  * @param  pdev: device instance
  * @retval status
  */
static uint8_t USBD_SetupStage(USB_CORE_HANDLE *pdev)
{
 8003c64:	b580      	push	{r7, lr}
 8003c66:	b084      	sub	sp, #16
 8003c68:	af00      	add	r7, sp, #0
 8003c6a:	6078      	str	r0, [r7, #4]
  USB_SETUP_REQ req;
  
  USBD_ParseSetupRequest(pdev , &req);
 8003c6c:	687a      	ldr	r2, [r7, #4]
 8003c6e:	1c3b      	adds	r3, r7, #0
 8003c70:	3308      	adds	r3, #8
 8003c72:	1c10      	adds	r0, r2, #0
 8003c74:	1c19      	adds	r1, r3, #0
 8003c76:	f7ff fe47 	bl	8003908 <USBD_ParseSetupRequest>
  
  switch (req.bmRequest & 0x1F) 
 8003c7a:	1c3b      	adds	r3, r7, #0
 8003c7c:	3308      	adds	r3, #8
 8003c7e:	781b      	ldrb	r3, [r3, #0]
 8003c80:	1c1a      	adds	r2, r3, #0
 8003c82:	231f      	movs	r3, #31
 8003c84:	4013      	ands	r3, r2
 8003c86:	2b01      	cmp	r3, #1
 8003c88:	d00b      	beq.n	8003ca2 <USBD_SetupStage+0x3e>
 8003c8a:	2b02      	cmp	r3, #2
 8003c8c:	d011      	beq.n	8003cb2 <USBD_SetupStage+0x4e>
 8003c8e:	2b00      	cmp	r3, #0
 8003c90:	d117      	bne.n	8003cc2 <USBD_SetupStage+0x5e>
  {
  case USB_REQ_RECIPIENT_DEVICE:   
    USBD_StdDevReq (pdev, &req);
 8003c92:	687a      	ldr	r2, [r7, #4]
 8003c94:	1c3b      	adds	r3, r7, #0
 8003c96:	3308      	adds	r3, #8
 8003c98:	1c10      	adds	r0, r2, #0
 8003c9a:	1c19      	adds	r1, r3, #0
 8003c9c:	f7ff fa2e 	bl	80030fc <USBD_StdDevReq>
    break;
 8003ca0:	e01b      	b.n	8003cda <USBD_SetupStage+0x76>
    
  case USB_REQ_RECIPIENT_INTERFACE:     
    USBD_StdItfReq(pdev, &req);
 8003ca2:	687a      	ldr	r2, [r7, #4]
 8003ca4:	1c3b      	adds	r3, r7, #0
 8003ca6:	3308      	adds	r3, #8
 8003ca8:	1c10      	adds	r0, r2, #0
 8003caa:	1c19      	adds	r1, r3, #0
 8003cac:	f7ff fa7a 	bl	80031a4 <USBD_StdItfReq>
    break;
 8003cb0:	e013      	b.n	8003cda <USBD_SetupStage+0x76>
    
  case USB_REQ_RECIPIENT_ENDPOINT:        
    USBD_StdEPReq(pdev, &req);   
 8003cb2:	687a      	ldr	r2, [r7, #4]
 8003cb4:	1c3b      	adds	r3, r7, #0
 8003cb6:	3308      	adds	r3, #8
 8003cb8:	1c10      	adds	r0, r2, #0
 8003cba:	1c19      	adds	r1, r3, #0
 8003cbc:	f7ff fab6 	bl	800322c <USBD_StdEPReq>
    break;
 8003cc0:	e00b      	b.n	8003cda <USBD_SetupStage+0x76>
    
  default:           
    DCD_EP_Stall(pdev , req.bmRequest & 0x80);
 8003cc2:	1c3b      	adds	r3, r7, #0
 8003cc4:	3308      	adds	r3, #8
 8003cc6:	781b      	ldrb	r3, [r3, #0]
 8003cc8:	227f      	movs	r2, #127	; 0x7f
 8003cca:	4393      	bics	r3, r2
 8003ccc:	b2db      	uxtb	r3, r3
 8003cce:	687a      	ldr	r2, [r7, #4]
 8003cd0:	1c10      	adds	r0, r2, #0
 8003cd2:	1c19      	adds	r1, r3, #0
 8003cd4:	f001 faa2 	bl	800521c <DCD_EP_Stall>
    break;
 8003cd8:	46c0      	nop			; (mov r8, r8)
  }  
  return USBD_OK;
 8003cda:	2300      	movs	r3, #0
}
 8003cdc:	1c18      	adds	r0, r3, #0
 8003cde:	46bd      	mov	sp, r7
 8003ce0:	b004      	add	sp, #16
 8003ce2:	bd80      	pop	{r7, pc}

08003ce4 <USBD_DataOutStage>:
  * @param  pdev: device instance
  * @param  epnum: endpoint index
  * @retval status
  */
static uint8_t USBD_DataOutStage(USB_CORE_HANDLE *pdev , uint8_t epnum)
{
 8003ce4:	b580      	push	{r7, lr}
 8003ce6:	b084      	sub	sp, #16
 8003ce8:	af00      	add	r7, sp, #0
 8003cea:	6078      	str	r0, [r7, #4]
 8003cec:	1c0a      	adds	r2, r1, #0
 8003cee:	1cfb      	adds	r3, r7, #3
 8003cf0:	701a      	strb	r2, [r3, #0]
  USB_EP *ep;
  
  if(epnum == 0) 
 8003cf2:	1cfb      	adds	r3, r7, #3
 8003cf4:	781b      	ldrb	r3, [r3, #0]
 8003cf6:	2b00      	cmp	r3, #0
 8003cf8:	d13c      	bne.n	8003d74 <USBD_DataOutStage+0x90>
  {
    ep = &pdev->dev.out_ep[0];
 8003cfa:	687b      	ldr	r3, [r7, #4]
 8003cfc:	33b8      	adds	r3, #184	; 0xb8
 8003cfe:	60fb      	str	r3, [r7, #12]
    if ( pdev->dev.device_state == USB_EP0_DATA_OUT)
 8003d00:	687b      	ldr	r3, [r7, #4]
 8003d02:	785b      	ldrb	r3, [r3, #1]
 8003d04:	2b03      	cmp	r3, #3
 8003d06:	d14b      	bne.n	8003da0 <USBD_DataOutStage+0xbc>
    {
      if(ep->rem_data_len > ep->maxpacket)
 8003d08:	68fb      	ldr	r3, [r7, #12]
 8003d0a:	69da      	ldr	r2, [r3, #28]
 8003d0c:	68fb      	ldr	r3, [r7, #12]
 8003d0e:	68db      	ldr	r3, [r3, #12]
 8003d10:	429a      	cmp	r2, r3
 8003d12:	d917      	bls.n	8003d44 <USBD_DataOutStage+0x60>
      {
        ep->rem_data_len -=  ep->maxpacket;
 8003d14:	68fb      	ldr	r3, [r7, #12]
 8003d16:	69da      	ldr	r2, [r3, #28]
 8003d18:	68fb      	ldr	r3, [r7, #12]
 8003d1a:	68db      	ldr	r3, [r3, #12]
 8003d1c:	1ad2      	subs	r2, r2, r3
 8003d1e:	68fb      	ldr	r3, [r7, #12]
 8003d20:	61da      	str	r2, [r3, #28]
                
        USBD_CtlContinueRx (pdev, 
 8003d22:	68fb      	ldr	r3, [r7, #12]
 8003d24:	6919      	ldr	r1, [r3, #16]
                            ep->xfer_buff,
                            MIN(ep->rem_data_len ,ep->maxpacket));
 8003d26:	68fb      	ldr	r3, [r7, #12]
 8003d28:	68d8      	ldr	r0, [r3, #12]
 8003d2a:	68fb      	ldr	r3, [r7, #12]
 8003d2c:	69da      	ldr	r2, [r3, #28]
 8003d2e:	1c03      	adds	r3, r0, #0
 8003d30:	4293      	cmp	r3, r2
 8003d32:	d900      	bls.n	8003d36 <USBD_DataOutStage+0x52>
 8003d34:	1c13      	adds	r3, r2, #0
    {
      if(ep->rem_data_len > ep->maxpacket)
      {
        ep->rem_data_len -=  ep->maxpacket;
                
        USBD_CtlContinueRx (pdev, 
 8003d36:	b29b      	uxth	r3, r3
 8003d38:	687a      	ldr	r2, [r7, #4]
 8003d3a:	1c10      	adds	r0, r2, #0
 8003d3c:	1c1a      	adds	r2, r3, #0
 8003d3e:	f7ff ff03 	bl	8003b48 <USBD_CtlContinueRx>
 8003d42:	e02d      	b.n	8003da0 <USBD_DataOutStage+0xbc>
                            ep->xfer_buff,
                            MIN(ep->rem_data_len ,ep->maxpacket));
      }
      else
      {
        if((pdev->dev.class_cb->EP0_RxReady != NULL)&&
 8003d44:	687a      	ldr	r2, [r7, #4]
 8003d46:	23ac      	movs	r3, #172	; 0xac
 8003d48:	005b      	lsls	r3, r3, #1
 8003d4a:	58d3      	ldr	r3, [r2, r3]
 8003d4c:	691b      	ldr	r3, [r3, #16]
 8003d4e:	2b00      	cmp	r3, #0
 8003d50:	d00b      	beq.n	8003d6a <USBD_DataOutStage+0x86>
           (pdev->dev.device_status == USB_CONFIGURED))
 8003d52:	687b      	ldr	r3, [r7, #4]
 8003d54:	789b      	ldrb	r3, [r3, #2]
                            ep->xfer_buff,
                            MIN(ep->rem_data_len ,ep->maxpacket));
      }
      else
      {
        if((pdev->dev.class_cb->EP0_RxReady != NULL)&&
 8003d56:	2b03      	cmp	r3, #3
 8003d58:	d107      	bne.n	8003d6a <USBD_DataOutStage+0x86>
           (pdev->dev.device_status == USB_CONFIGURED))
        {
          pdev->dev.class_cb->EP0_RxReady(pdev); 
 8003d5a:	687a      	ldr	r2, [r7, #4]
 8003d5c:	23ac      	movs	r3, #172	; 0xac
 8003d5e:	005b      	lsls	r3, r3, #1
 8003d60:	58d3      	ldr	r3, [r2, r3]
 8003d62:	691b      	ldr	r3, [r3, #16]
 8003d64:	687a      	ldr	r2, [r7, #4]
 8003d66:	1c10      	adds	r0, r2, #0
 8003d68:	4798      	blx	r3
        }
        USBD_CtlSendStatus(pdev);
 8003d6a:	687b      	ldr	r3, [r7, #4]
 8003d6c:	1c18      	adds	r0, r3, #0
 8003d6e:	f7ff ff05 	bl	8003b7c <USBD_CtlSendStatus>
 8003d72:	e015      	b.n	8003da0 <USBD_DataOutStage+0xbc>
      }
    }
  }
  else if((pdev->dev.class_cb->DataOut != NULL)&&
 8003d74:	687a      	ldr	r2, [r7, #4]
 8003d76:	23ac      	movs	r3, #172	; 0xac
 8003d78:	005b      	lsls	r3, r3, #1
 8003d7a:	58d3      	ldr	r3, [r2, r3]
 8003d7c:	699b      	ldr	r3, [r3, #24]
 8003d7e:	2b00      	cmp	r3, #0
 8003d80:	d00e      	beq.n	8003da0 <USBD_DataOutStage+0xbc>
          (pdev->dev.device_status == USB_CONFIGURED))
 8003d82:	687b      	ldr	r3, [r7, #4]
 8003d84:	789b      	ldrb	r3, [r3, #2]
        }
        USBD_CtlSendStatus(pdev);
      }
    }
  }
  else if((pdev->dev.class_cb->DataOut != NULL)&&
 8003d86:	2b03      	cmp	r3, #3
 8003d88:	d10a      	bne.n	8003da0 <USBD_DataOutStage+0xbc>
          (pdev->dev.device_status == USB_CONFIGURED))
  {
    pdev->dev.class_cb->DataOut(pdev, epnum); 
 8003d8a:	687a      	ldr	r2, [r7, #4]
 8003d8c:	23ac      	movs	r3, #172	; 0xac
 8003d8e:	005b      	lsls	r3, r3, #1
 8003d90:	58d3      	ldr	r3, [r2, r3]
 8003d92:	699b      	ldr	r3, [r3, #24]
 8003d94:	6879      	ldr	r1, [r7, #4]
 8003d96:	1cfa      	adds	r2, r7, #3
 8003d98:	7812      	ldrb	r2, [r2, #0]
 8003d9a:	1c08      	adds	r0, r1, #0
 8003d9c:	1c11      	adds	r1, r2, #0
 8003d9e:	4798      	blx	r3
  }  
  return USBD_OK;
 8003da0:	2300      	movs	r3, #0
}
 8003da2:	1c18      	adds	r0, r3, #0
 8003da4:	46bd      	mov	sp, r7
 8003da6:	b004      	add	sp, #16
 8003da8:	bd80      	pop	{r7, pc}
 8003daa:	46c0      	nop			; (mov r8, r8)

08003dac <USBD_DataInStage>:
  * @param  pdev: device instance
  * @param  epnum: endpoint index
  * @retval status
  */
static uint8_t USBD_DataInStage(USB_CORE_HANDLE *pdev , uint8_t epnum)
{
 8003dac:	b580      	push	{r7, lr}
 8003dae:	b084      	sub	sp, #16
 8003db0:	af00      	add	r7, sp, #0
 8003db2:	6078      	str	r0, [r7, #4]
 8003db4:	1c0a      	adds	r2, r1, #0
 8003db6:	1cfb      	adds	r3, r7, #3
 8003db8:	701a      	strb	r2, [r3, #0]
  USB_EP *ep;
  
  if(epnum == 0) 
 8003dba:	1cfb      	adds	r3, r7, #3
 8003dbc:	781b      	ldrb	r3, [r3, #0]
 8003dbe:	2b00      	cmp	r3, #0
 8003dc0:	d000      	beq.n	8003dc4 <USBD_DataInStage+0x18>
 8003dc2:	e06c      	b.n	8003e9e <USBD_DataInStage+0xf2>
  {
    ep = &pdev->dev.in_ep[0];
 8003dc4:	687b      	ldr	r3, [r7, #4]
 8003dc6:	3318      	adds	r3, #24
 8003dc8:	60fb      	str	r3, [r7, #12]
    if ( pdev->dev.device_state == USB_EP0_DATA_IN)
 8003dca:	687b      	ldr	r3, [r7, #4]
 8003dcc:	785b      	ldrb	r3, [r3, #1]
 8003dce:	2b02      	cmp	r3, #2
 8003dd0:	d151      	bne.n	8003e76 <USBD_DataInStage+0xca>
    {
      if(ep->rem_data_len > ep->maxpacket)
 8003dd2:	68fb      	ldr	r3, [r7, #12]
 8003dd4:	69da      	ldr	r2, [r3, #28]
 8003dd6:	68fb      	ldr	r3, [r7, #12]
 8003dd8:	68db      	ldr	r3, [r3, #12]
 8003dda:	429a      	cmp	r2, r3
 8003ddc:	d912      	bls.n	8003e04 <USBD_DataInStage+0x58>
      {
        ep->rem_data_len -=  ep->maxpacket;
 8003dde:	68fb      	ldr	r3, [r7, #12]
 8003de0:	69da      	ldr	r2, [r3, #28]
 8003de2:	68fb      	ldr	r3, [r7, #12]
 8003de4:	68db      	ldr	r3, [r3, #12]
 8003de6:	1ad2      	subs	r2, r2, r3
 8003de8:	68fb      	ldr	r3, [r7, #12]
 8003dea:	61da      	str	r2, [r3, #28]
        USBD_CtlContinueSendData (pdev, 
 8003dec:	68fb      	ldr	r3, [r7, #12]
 8003dee:	691a      	ldr	r2, [r3, #16]
                                  ep->xfer_buff, 
                                  ep->rem_data_len);
 8003df0:	68fb      	ldr	r3, [r7, #12]
 8003df2:	69db      	ldr	r3, [r3, #28]
    if ( pdev->dev.device_state == USB_EP0_DATA_IN)
    {
      if(ep->rem_data_len > ep->maxpacket)
      {
        ep->rem_data_len -=  ep->maxpacket;
        USBD_CtlContinueSendData (pdev, 
 8003df4:	b29b      	uxth	r3, r3
 8003df6:	6879      	ldr	r1, [r7, #4]
 8003df8:	1c08      	adds	r0, r1, #0
 8003dfa:	1c11      	adds	r1, r2, #0
 8003dfc:	1c1a      	adds	r2, r3, #0
 8003dfe:	f7ff fe61 	bl	8003ac4 <USBD_CtlContinueSendData>
 8003e02:	e062      	b.n	8003eca <USBD_DataInStage+0x11e>
                                  ep->xfer_buff, 
                                  ep->rem_data_len);
      }
      else
      { /* last packet is MPS multiple, so send ZLP packet */
        if((ep->total_data_len % ep->maxpacket == 0) &&
 8003e04:	68fb      	ldr	r3, [r7, #12]
 8003e06:	6a1a      	ldr	r2, [r3, #32]
 8003e08:	68fb      	ldr	r3, [r7, #12]
 8003e0a:	68db      	ldr	r3, [r3, #12]
 8003e0c:	1c10      	adds	r0, r2, #0
 8003e0e:	1c19      	adds	r1, r3, #0
 8003e10:	f7fc f9be 	bl	8000190 <__aeabi_uidivmod>
 8003e14:	1c0b      	adds	r3, r1, #0
 8003e16:	2b00      	cmp	r3, #0
 8003e18:	d115      	bne.n	8003e46 <USBD_DataInStage+0x9a>
           (ep->total_data_len >= ep->maxpacket) &&
 8003e1a:	68fb      	ldr	r3, [r7, #12]
 8003e1c:	6a1a      	ldr	r2, [r3, #32]
 8003e1e:	68fb      	ldr	r3, [r7, #12]
 8003e20:	68db      	ldr	r3, [r3, #12]
                                  ep->xfer_buff, 
                                  ep->rem_data_len);
      }
      else
      { /* last packet is MPS multiple, so send ZLP packet */
        if((ep->total_data_len % ep->maxpacket == 0) &&
 8003e22:	429a      	cmp	r2, r3
 8003e24:	d30f      	bcc.n	8003e46 <USBD_DataInStage+0x9a>
           (ep->total_data_len >= ep->maxpacket) &&
             (ep->total_data_len < ep->ctl_data_len ))
 8003e26:	68fb      	ldr	r3, [r7, #12]
 8003e28:	6a1a      	ldr	r2, [r3, #32]
 8003e2a:	68fb      	ldr	r3, [r7, #12]
 8003e2c:	6a5b      	ldr	r3, [r3, #36]	; 0x24
                                  ep->rem_data_len);
      }
      else
      { /* last packet is MPS multiple, so send ZLP packet */
        if((ep->total_data_len % ep->maxpacket == 0) &&
           (ep->total_data_len >= ep->maxpacket) &&
 8003e2e:	429a      	cmp	r2, r3
 8003e30:	d209      	bcs.n	8003e46 <USBD_DataInStage+0x9a>
             (ep->total_data_len < ep->ctl_data_len ))
        {
          
          USBD_CtlContinueSendData(pdev , NULL, 0);
 8003e32:	687b      	ldr	r3, [r7, #4]
 8003e34:	1c18      	adds	r0, r3, #0
 8003e36:	2100      	movs	r1, #0
 8003e38:	2200      	movs	r2, #0
 8003e3a:	f7ff fe43 	bl	8003ac4 <USBD_CtlContinueSendData>
          ep->ctl_data_len = 0;
 8003e3e:	68fb      	ldr	r3, [r7, #12]
 8003e40:	2200      	movs	r2, #0
 8003e42:	625a      	str	r2, [r3, #36]	; 0x24
 8003e44:	e041      	b.n	8003eca <USBD_DataInStage+0x11e>
        }
        else
        {
          if((pdev->dev.class_cb->EP0_TxSent != NULL)&&
 8003e46:	687a      	ldr	r2, [r7, #4]
 8003e48:	23ac      	movs	r3, #172	; 0xac
 8003e4a:	005b      	lsls	r3, r3, #1
 8003e4c:	58d3      	ldr	r3, [r2, r3]
 8003e4e:	68db      	ldr	r3, [r3, #12]
 8003e50:	2b00      	cmp	r3, #0
 8003e52:	d00b      	beq.n	8003e6c <USBD_DataInStage+0xc0>
             (pdev->dev.device_status == USB_CONFIGURED))
 8003e54:	687b      	ldr	r3, [r7, #4]
 8003e56:	789b      	ldrb	r3, [r3, #2]
          USBD_CtlContinueSendData(pdev , NULL, 0);
          ep->ctl_data_len = 0;
        }
        else
        {
          if((pdev->dev.class_cb->EP0_TxSent != NULL)&&
 8003e58:	2b03      	cmp	r3, #3
 8003e5a:	d107      	bne.n	8003e6c <USBD_DataInStage+0xc0>
             (pdev->dev.device_status == USB_CONFIGURED))
          {
            pdev->dev.class_cb->EP0_TxSent(pdev); 
 8003e5c:	687a      	ldr	r2, [r7, #4]
 8003e5e:	23ac      	movs	r3, #172	; 0xac
 8003e60:	005b      	lsls	r3, r3, #1
 8003e62:	58d3      	ldr	r3, [r2, r3]
 8003e64:	68db      	ldr	r3, [r3, #12]
 8003e66:	687a      	ldr	r2, [r7, #4]
 8003e68:	1c10      	adds	r0, r2, #0
 8003e6a:	4798      	blx	r3
          }          
          USBD_CtlReceiveStatus(pdev);
 8003e6c:	687b      	ldr	r3, [r7, #4]
 8003e6e:	1c18      	adds	r0, r3, #0
 8003e70:	f7ff fe9e 	bl	8003bb0 <USBD_CtlReceiveStatus>
 8003e74:	e029      	b.n	8003eca <USBD_DataInStage+0x11e>
        }
      }
    }
    else  if ((pdev->dev.device_state == USB_EP0_STATUS_IN)&& (ADDRESS!=0))
 8003e76:	687b      	ldr	r3, [r7, #4]
 8003e78:	785b      	ldrb	r3, [r3, #1]
 8003e7a:	2b04      	cmp	r3, #4
 8003e7c:	d125      	bne.n	8003eca <USBD_DataInStage+0x11e>
 8003e7e:	4b15      	ldr	r3, [pc, #84]	; (8003ed4 <USBD_DataInStage+0x128>)
 8003e80:	681b      	ldr	r3, [r3, #0]
 8003e82:	2b00      	cmp	r3, #0
 8003e84:	d021      	beq.n	8003eca <USBD_DataInStage+0x11e>
    {
      
      DCD_EP_SetAddress(pdev, ADDRESS); 
 8003e86:	4b13      	ldr	r3, [pc, #76]	; (8003ed4 <USBD_DataInStage+0x128>)
 8003e88:	681b      	ldr	r3, [r3, #0]
 8003e8a:	b2db      	uxtb	r3, r3
 8003e8c:	687a      	ldr	r2, [r7, #4]
 8003e8e:	1c10      	adds	r0, r2, #0
 8003e90:	1c19      	adds	r1, r3, #0
 8003e92:	f001 fa7b 	bl	800538c <DCD_EP_SetAddress>
      ADDRESS = 0;
 8003e96:	4b0f      	ldr	r3, [pc, #60]	; (8003ed4 <USBD_DataInStage+0x128>)
 8003e98:	2200      	movs	r2, #0
 8003e9a:	601a      	str	r2, [r3, #0]
 8003e9c:	e015      	b.n	8003eca <USBD_DataInStage+0x11e>
    }
  }
  else if((pdev->dev.class_cb->DataIn != NULL)&& 
 8003e9e:	687a      	ldr	r2, [r7, #4]
 8003ea0:	23ac      	movs	r3, #172	; 0xac
 8003ea2:	005b      	lsls	r3, r3, #1
 8003ea4:	58d3      	ldr	r3, [r2, r3]
 8003ea6:	695b      	ldr	r3, [r3, #20]
 8003ea8:	2b00      	cmp	r3, #0
 8003eaa:	d00e      	beq.n	8003eca <USBD_DataInStage+0x11e>
          (pdev->dev.device_status == USB_CONFIGURED))
 8003eac:	687b      	ldr	r3, [r7, #4]
 8003eae:	789b      	ldrb	r3, [r3, #2]
      
      DCD_EP_SetAddress(pdev, ADDRESS); 
      ADDRESS = 0;
    }
  }
  else if((pdev->dev.class_cb->DataIn != NULL)&& 
 8003eb0:	2b03      	cmp	r3, #3
 8003eb2:	d10a      	bne.n	8003eca <USBD_DataInStage+0x11e>
          (pdev->dev.device_status == USB_CONFIGURED))
  {
    pdev->dev.class_cb->DataIn(pdev, epnum); 
 8003eb4:	687a      	ldr	r2, [r7, #4]
 8003eb6:	23ac      	movs	r3, #172	; 0xac
 8003eb8:	005b      	lsls	r3, r3, #1
 8003eba:	58d3      	ldr	r3, [r2, r3]
 8003ebc:	695b      	ldr	r3, [r3, #20]
 8003ebe:	6879      	ldr	r1, [r7, #4]
 8003ec0:	1cfa      	adds	r2, r7, #3
 8003ec2:	7812      	ldrb	r2, [r2, #0]
 8003ec4:	1c08      	adds	r0, r1, #0
 8003ec6:	1c11      	adds	r1, r2, #0
 8003ec8:	4798      	blx	r3
  }  
  return USBD_OK;
 8003eca:	2300      	movs	r3, #0
}
 8003ecc:	1c18      	adds	r0, r3, #0
 8003ece:	46bd      	mov	sp, r7
 8003ed0:	b004      	add	sp, #16
 8003ed2:	bd80      	pop	{r7, pc}
 8003ed4:	20000150 	.word	0x20000150

08003ed8 <USBD_Reset>:
  * @param  pdev: device instance
  * @retval status
  */

static uint8_t USBD_Reset(USB_CORE_HANDLE  *pdev)
{
 8003ed8:	b580      	push	{r7, lr}
 8003eda:	b082      	sub	sp, #8
 8003edc:	af00      	add	r7, sp, #0
 8003ede:	6078      	str	r0, [r7, #4]

  DCD_PMA_Config(pdev , 0x00 ,USB_SNG_BUF, ENDP0_RX_ADDRESS);
 8003ee0:	687b      	ldr	r3, [r7, #4]
 8003ee2:	1c18      	adds	r0, r3, #0
 8003ee4:	2100      	movs	r1, #0
 8003ee6:	2200      	movs	r2, #0
 8003ee8:	2340      	movs	r3, #64	; 0x40
 8003eea:	f000 feab 	bl	8004c44 <DCD_PMA_Config>
  DCD_PMA_Config(pdev , 0x80 ,USB_SNG_BUF, ENDP0_TX_ADDRESS);
 8003eee:	687b      	ldr	r3, [r7, #4]
 8003ef0:	1c18      	adds	r0, r3, #0
 8003ef2:	2180      	movs	r1, #128	; 0x80
 8003ef4:	2200      	movs	r2, #0
 8003ef6:	2380      	movs	r3, #128	; 0x80
 8003ef8:	f000 fea4 	bl	8004c44 <DCD_PMA_Config>

  /* Open EP0 OUT */
  DCD_EP_Open(pdev,
 8003efc:	687b      	ldr	r3, [r7, #4]
 8003efe:	1c18      	adds	r0, r3, #0
 8003f00:	2100      	movs	r1, #0
 8003f02:	2240      	movs	r2, #64	; 0x40
 8003f04:	2300      	movs	r3, #0
 8003f06:	f000 fee7 	bl	8004cd8 <DCD_EP_Open>
              0x00,
              USB_MAX_EP0_SIZE,
              EP_TYPE_CTRL);
  
  /* Open EP0 IN */
  DCD_EP_Open(pdev,
 8003f0a:	687b      	ldr	r3, [r7, #4]
 8003f0c:	1c18      	adds	r0, r3, #0
 8003f0e:	2180      	movs	r1, #128	; 0x80
 8003f10:	2240      	movs	r2, #64	; 0x40
 8003f12:	2300      	movs	r3, #0
 8003f14:	f000 fee0 	bl	8004cd8 <DCD_EP_Open>
              0x80,
              USB_MAX_EP0_SIZE,
              EP_TYPE_CTRL);
  
  /* Upon Reset call user call back */
  pdev->dev.device_status = USB_DEFAULT;
 8003f18:	687b      	ldr	r3, [r7, #4]
 8003f1a:	2201      	movs	r2, #1
 8003f1c:	709a      	strb	r2, [r3, #2]
  pdev->dev.usr_cb->DeviceReset(pdev->dev.speed);
 8003f1e:	687a      	ldr	r2, [r7, #4]
 8003f20:	23ae      	movs	r3, #174	; 0xae
 8003f22:	005b      	lsls	r3, r3, #1
 8003f24:	58d3      	ldr	r3, [r2, r3]
 8003f26:	685a      	ldr	r2, [r3, #4]
 8003f28:	687b      	ldr	r3, [r7, #4]
 8003f2a:	68db      	ldr	r3, [r3, #12]
 8003f2c:	b2db      	uxtb	r3, r3
 8003f2e:	1c18      	adds	r0, r3, #0
 8003f30:	4790      	blx	r2
  
  return USBD_OK;
 8003f32:	2300      	movs	r3, #0
}
 8003f34:	1c18      	adds	r0, r3, #0
 8003f36:	46bd      	mov	sp, r7
 8003f38:	b002      	add	sp, #8
 8003f3a:	bd80      	pop	{r7, pc}

08003f3c <USBD_Resume>:
  * @param  pdev: device instance
  * @retval status
  */

static uint8_t USBD_Resume(USB_CORE_HANDLE  *pdev)
{
 8003f3c:	b580      	push	{r7, lr}
 8003f3e:	b082      	sub	sp, #8
 8003f40:	af00      	add	r7, sp, #0
 8003f42:	6078      	str	r0, [r7, #4]
  /* Upon Resume call user call back */
  pdev->dev.usr_cb->DeviceResumed(); 
 8003f44:	687a      	ldr	r2, [r7, #4]
 8003f46:	23ae      	movs	r3, #174	; 0xae
 8003f48:	005b      	lsls	r3, r3, #1
 8003f4a:	58d3      	ldr	r3, [r2, r3]
 8003f4c:	691b      	ldr	r3, [r3, #16]
 8003f4e:	4798      	blx	r3
  pdev->dev.device_status = pdev->dev.device_old_status;   
 8003f50:	687b      	ldr	r3, [r7, #4]
 8003f52:	78da      	ldrb	r2, [r3, #3]
 8003f54:	687b      	ldr	r3, [r7, #4]
 8003f56:	709a      	strb	r2, [r3, #2]
  return USBD_OK;
 8003f58:	2300      	movs	r3, #0
}
 8003f5a:	1c18      	adds	r0, r3, #0
 8003f5c:	46bd      	mov	sp, r7
 8003f5e:	b002      	add	sp, #8
 8003f60:	bd80      	pop	{r7, pc}
 8003f62:	46c0      	nop			; (mov r8, r8)

08003f64 <USBD_Suspend>:
  * @param  pdev: device instance
  * @retval status
  */

static uint8_t USBD_Suspend(USB_CORE_HANDLE  *pdev)
{
 8003f64:	b580      	push	{r7, lr}
 8003f66:	b082      	sub	sp, #8
 8003f68:	af00      	add	r7, sp, #0
 8003f6a:	6078      	str	r0, [r7, #4]
  pdev->dev.device_old_status = pdev->dev.device_status;
 8003f6c:	687b      	ldr	r3, [r7, #4]
 8003f6e:	789a      	ldrb	r2, [r3, #2]
 8003f70:	687b      	ldr	r3, [r7, #4]
 8003f72:	70da      	strb	r2, [r3, #3]
  /*Device is in Suspended State*/
  pdev->dev.device_status  = USB_SUSPENDED;
 8003f74:	687b      	ldr	r3, [r7, #4]
 8003f76:	2204      	movs	r2, #4
 8003f78:	709a      	strb	r2, [r3, #2]
  /* Upon Resume call user call back */
  pdev->dev.usr_cb->DeviceSuspended(); 
 8003f7a:	687a      	ldr	r2, [r7, #4]
 8003f7c:	23ae      	movs	r3, #174	; 0xae
 8003f7e:	005b      	lsls	r3, r3, #1
 8003f80:	58d3      	ldr	r3, [r2, r3]
 8003f82:	68db      	ldr	r3, [r3, #12]
 8003f84:	4798      	blx	r3
  return USBD_OK;
 8003f86:	2300      	movs	r3, #0
}
 8003f88:	1c18      	adds	r0, r3, #0
 8003f8a:	46bd      	mov	sp, r7
 8003f8c:	b002      	add	sp, #8
 8003f8e:	bd80      	pop	{r7, pc}

08003f90 <USBD_SOF>:
  * @param  pdev: device instance
  * @retval status
  */

static uint8_t USBD_SOF(USB_CORE_HANDLE  *pdev)
{
 8003f90:	b580      	push	{r7, lr}
 8003f92:	b082      	sub	sp, #8
 8003f94:	af00      	add	r7, sp, #0
 8003f96:	6078      	str	r0, [r7, #4]
  if(pdev->dev.class_cb->SOF)
 8003f98:	687a      	ldr	r2, [r7, #4]
 8003f9a:	23ac      	movs	r3, #172	; 0xac
 8003f9c:	005b      	lsls	r3, r3, #1
 8003f9e:	58d3      	ldr	r3, [r2, r3]
 8003fa0:	69db      	ldr	r3, [r3, #28]
 8003fa2:	2b00      	cmp	r3, #0
 8003fa4:	d007      	beq.n	8003fb6 <USBD_SOF+0x26>
  {
    pdev->dev.class_cb->SOF(pdev); 
 8003fa6:	687a      	ldr	r2, [r7, #4]
 8003fa8:	23ac      	movs	r3, #172	; 0xac
 8003faa:	005b      	lsls	r3, r3, #1
 8003fac:	58d3      	ldr	r3, [r2, r3]
 8003fae:	69db      	ldr	r3, [r3, #28]
 8003fb0:	687a      	ldr	r2, [r7, #4]
 8003fb2:	1c10      	adds	r0, r2, #0
 8003fb4:	4798      	blx	r3
  }
  return USBD_OK;
 8003fb6:	2300      	movs	r3, #0
}
 8003fb8:	1c18      	adds	r0, r3, #0
 8003fba:	46bd      	mov	sp, r7
 8003fbc:	b002      	add	sp, #8
 8003fbe:	bd80      	pop	{r7, pc}

08003fc0 <USBD_SetCfg>:
  * @param  cfgidx: configuration index
  * @retval status
  */

USBD_Status USBD_SetCfg(USB_CORE_HANDLE  *pdev, uint8_t cfgidx)
{
 8003fc0:	b580      	push	{r7, lr}
 8003fc2:	b082      	sub	sp, #8
 8003fc4:	af00      	add	r7, sp, #0
 8003fc6:	6078      	str	r0, [r7, #4]
 8003fc8:	1c0a      	adds	r2, r1, #0
 8003fca:	1cfb      	adds	r3, r7, #3
 8003fcc:	701a      	strb	r2, [r3, #0]
  pdev->dev.class_cb->Init(pdev, cfgidx); 
 8003fce:	687a      	ldr	r2, [r7, #4]
 8003fd0:	23ac      	movs	r3, #172	; 0xac
 8003fd2:	005b      	lsls	r3, r3, #1
 8003fd4:	58d3      	ldr	r3, [r2, r3]
 8003fd6:	681b      	ldr	r3, [r3, #0]
 8003fd8:	6879      	ldr	r1, [r7, #4]
 8003fda:	1cfa      	adds	r2, r7, #3
 8003fdc:	7812      	ldrb	r2, [r2, #0]
 8003fde:	1c08      	adds	r0, r1, #0
 8003fe0:	1c11      	adds	r1, r2, #0
 8003fe2:	4798      	blx	r3
  
  /* Upon set config call user call back */
  pdev->dev.usr_cb->DeviceConfigured();
 8003fe4:	687a      	ldr	r2, [r7, #4]
 8003fe6:	23ae      	movs	r3, #174	; 0xae
 8003fe8:	005b      	lsls	r3, r3, #1
 8003fea:	58d3      	ldr	r3, [r2, r3]
 8003fec:	689b      	ldr	r3, [r3, #8]
 8003fee:	4798      	blx	r3
  return USBD_OK; 
 8003ff0:	2300      	movs	r3, #0
}
 8003ff2:	1c18      	adds	r0, r3, #0
 8003ff4:	46bd      	mov	sp, r7
 8003ff6:	b002      	add	sp, #8
 8003ff8:	bd80      	pop	{r7, pc}
 8003ffa:	46c0      	nop			; (mov r8, r8)

08003ffc <USBD_ClrCfg>:
  * @param  pdev: device instance
  * @param  cfgidx: configuration index
  * @retval status: USBD_Status
  */
USBD_Status USBD_ClrCfg(USB_CORE_HANDLE  *pdev, uint8_t cfgidx)
{
 8003ffc:	b580      	push	{r7, lr}
 8003ffe:	b082      	sub	sp, #8
 8004000:	af00      	add	r7, sp, #0
 8004002:	6078      	str	r0, [r7, #4]
 8004004:	1c0a      	adds	r2, r1, #0
 8004006:	1cfb      	adds	r3, r7, #3
 8004008:	701a      	strb	r2, [r3, #0]
  pdev->dev.class_cb->DeInit(pdev, cfgidx);   
 800400a:	687a      	ldr	r2, [r7, #4]
 800400c:	23ac      	movs	r3, #172	; 0xac
 800400e:	005b      	lsls	r3, r3, #1
 8004010:	58d3      	ldr	r3, [r2, r3]
 8004012:	685b      	ldr	r3, [r3, #4]
 8004014:	6879      	ldr	r1, [r7, #4]
 8004016:	1cfa      	adds	r2, r7, #3
 8004018:	7812      	ldrb	r2, [r2, #0]
 800401a:	1c08      	adds	r0, r1, #0
 800401c:	1c11      	adds	r1, r2, #0
 800401e:	4798      	blx	r3
  return USBD_OK;
 8004020:	2300      	movs	r3, #0
}
 8004022:	1c18      	adds	r0, r3, #0
 8004024:	46bd      	mov	sp, r7
 8004026:	b002      	add	sp, #8
 8004028:	bd80      	pop	{r7, pc}
 800402a:	46c0      	nop			; (mov r8, r8)

0800402c <usbd_cdc_Init>:
  * @param  cfgidx: Configuration index
  * @retval status
  */
uint8_t  usbd_cdc_Init (void  *pdev, 
                               uint8_t cfgidx)
{
 800402c:	b580      	push	{r7, lr}
 800402e:	b082      	sub	sp, #8
 8004030:	af00      	add	r7, sp, #0
 8004032:	6078      	str	r0, [r7, #4]
 8004034:	1c0a      	adds	r2, r1, #0
 8004036:	1cfb      	adds	r3, r7, #3
 8004038:	701a      	strb	r2, [r3, #0]
  DCD_PMA_Config(pdev , CDC_IN_EP,USB_SNG_BUF,BULK_IN_TX_ADDRESS);
 800403a:	687b      	ldr	r3, [r7, #4]
 800403c:	1c18      	adds	r0, r3, #0
 800403e:	2181      	movs	r1, #129	; 0x81
 8004040:	2200      	movs	r2, #0
 8004042:	23c0      	movs	r3, #192	; 0xc0
 8004044:	f000 fdfe 	bl	8004c44 <DCD_PMA_Config>
  DCD_PMA_Config(pdev , CDC_CMD_EP,USB_SNG_BUF,INT_IN_TX_ADDRESS);
 8004048:	687a      	ldr	r2, [r7, #4]
 800404a:	2380      	movs	r3, #128	; 0x80
 800404c:	005b      	lsls	r3, r3, #1
 800404e:	1c10      	adds	r0, r2, #0
 8004050:	2182      	movs	r1, #130	; 0x82
 8004052:	2200      	movs	r2, #0
 8004054:	f000 fdf6 	bl	8004c44 <DCD_PMA_Config>
  DCD_PMA_Config(pdev , CDC_OUT_EP,USB_SNG_BUF,BULK_OUT_RX_ADDRESS);
 8004058:	687a      	ldr	r2, [r7, #4]
 800405a:	2388      	movs	r3, #136	; 0x88
 800405c:	005b      	lsls	r3, r3, #1
 800405e:	1c10      	adds	r0, r2, #0
 8004060:	2103      	movs	r1, #3
 8004062:	2200      	movs	r2, #0
 8004064:	f000 fdee 	bl	8004c44 <DCD_PMA_Config>

  /* Open EP IN */
  DCD_EP_Open(pdev,
 8004068:	687b      	ldr	r3, [r7, #4]
 800406a:	1c18      	adds	r0, r3, #0
 800406c:	2181      	movs	r1, #129	; 0x81
 800406e:	2240      	movs	r2, #64	; 0x40
 8004070:	2302      	movs	r3, #2
 8004072:	f000 fe31 	bl	8004cd8 <DCD_EP_Open>
              CDC_IN_EP,
              CDC_DATA_IN_PACKET_SIZE,
              USB_EP_BULK);
  
  /* Open EP OUT */
  DCD_EP_Open(pdev,
 8004076:	687b      	ldr	r3, [r7, #4]
 8004078:	1c18      	adds	r0, r3, #0
 800407a:	2103      	movs	r1, #3
 800407c:	2240      	movs	r2, #64	; 0x40
 800407e:	2302      	movs	r3, #2
 8004080:	f000 fe2a 	bl	8004cd8 <DCD_EP_Open>
              CDC_OUT_EP,
              CDC_DATA_OUT_PACKET_SIZE,
              USB_EP_BULK);
  
  /* Open Command IN EP */
  DCD_EP_Open(pdev,
 8004084:	687b      	ldr	r3, [r7, #4]
 8004086:	1c18      	adds	r0, r3, #0
 8004088:	2182      	movs	r1, #130	; 0x82
 800408a:	2208      	movs	r2, #8
 800408c:	2303      	movs	r3, #3
 800408e:	f000 fe23 	bl	8004cd8 <DCD_EP_Open>
              USB_EP_INT);
  

  
  /* Initialize the Interface physical components */
  APP_FOPS.pIf_Init();
 8004092:	4b08      	ldr	r3, [pc, #32]	; (80040b4 <usbd_cdc_Init+0x88>)
 8004094:	681b      	ldr	r3, [r3, #0]
 8004096:	4798      	blx	r3

  /* Prepare Out endpoint to receive next packet */
  DCD_EP_PrepareRx(pdev,
 8004098:	687a      	ldr	r2, [r7, #4]
 800409a:	4b07      	ldr	r3, [pc, #28]	; (80040b8 <usbd_cdc_Init+0x8c>)
 800409c:	1c10      	adds	r0, r2, #0
 800409e:	2103      	movs	r1, #3
 80040a0:	1c1a      	adds	r2, r3, #0
 80040a2:	2340      	movs	r3, #64	; 0x40
 80040a4:	f000 ffbc 	bl	8005020 <DCD_EP_PrepareRx>
                   CDC_OUT_EP,
                   (uint8_t*)(USB_Rx_Buffer),
                   CDC_DATA_OUT_PACKET_SIZE);
  
  return USBD_OK;
 80040a8:	2300      	movs	r3, #0
}
 80040aa:	1c18      	adds	r0, r3, #0
 80040ac:	46bd      	mov	sp, r7
 80040ae:	b002      	add	sp, #8
 80040b0:	bd80      	pop	{r7, pc}
 80040b2:	46c0      	nop			; (mov r8, r8)
 80040b4:	20000060 	.word	0x20000060
 80040b8:	2000069c 	.word	0x2000069c

080040bc <usbd_cdc_DeInit>:
  * @param  cfgidx: Configuration index
  * @retval status
  */
uint8_t  usbd_cdc_DeInit (void  *pdev, 
                                 uint8_t cfgidx)
{
 80040bc:	b580      	push	{r7, lr}
 80040be:	b082      	sub	sp, #8
 80040c0:	af00      	add	r7, sp, #0
 80040c2:	6078      	str	r0, [r7, #4]
 80040c4:	1c0a      	adds	r2, r1, #0
 80040c6:	1cfb      	adds	r3, r7, #3
 80040c8:	701a      	strb	r2, [r3, #0]
  /* Open EP IN */
  DCD_EP_Close(pdev,
 80040ca:	687b      	ldr	r3, [r7, #4]
 80040cc:	1c18      	adds	r0, r3, #0
 80040ce:	2181      	movs	r1, #129	; 0x81
 80040d0:	f000 ff20 	bl	8004f14 <DCD_EP_Close>
              CDC_IN_EP);
  
  /* Open EP OUT */
  DCD_EP_Close(pdev,
 80040d4:	687b      	ldr	r3, [r7, #4]
 80040d6:	1c18      	adds	r0, r3, #0
 80040d8:	2103      	movs	r1, #3
 80040da:	f000 ff1b 	bl	8004f14 <DCD_EP_Close>
              CDC_OUT_EP);
  
  /* Open Command IN EP */
  DCD_EP_Close(pdev,
 80040de:	687b      	ldr	r3, [r7, #4]
 80040e0:	1c18      	adds	r0, r3, #0
 80040e2:	2182      	movs	r1, #130	; 0x82
 80040e4:	f000 ff16 	bl	8004f14 <DCD_EP_Close>
              CDC_CMD_EP);

  /* Restore default state of the Interface physical components */
  APP_FOPS.pIf_DeInit();
 80040e8:	4b03      	ldr	r3, [pc, #12]	; (80040f8 <usbd_cdc_DeInit+0x3c>)
 80040ea:	685b      	ldr	r3, [r3, #4]
 80040ec:	4798      	blx	r3
  
  return USBD_OK;
 80040ee:	2300      	movs	r3, #0
}
 80040f0:	1c18      	adds	r0, r3, #0
 80040f2:	46bd      	mov	sp, r7
 80040f4:	b002      	add	sp, #8
 80040f6:	bd80      	pop	{r7, pc}
 80040f8:	20000060 	.word	0x20000060

080040fc <usbd_cdc_Setup>:
  * @param  req: usb requests
  * @retval status
  */
uint8_t  usbd_cdc_Setup (void  *pdev, 
                                USB_SETUP_REQ *req)
{
 80040fc:	b580      	push	{r7, lr}
 80040fe:	b084      	sub	sp, #16
 8004100:	af00      	add	r7, sp, #0
 8004102:	6078      	str	r0, [r7, #4]
 8004104:	6039      	str	r1, [r7, #0]
  uint16_t len=USB_CDC_DESC_SIZ;
 8004106:	1c3b      	adds	r3, r7, #0
 8004108:	330e      	adds	r3, #14
 800410a:	223a      	movs	r2, #58	; 0x3a
 800410c:	801a      	strh	r2, [r3, #0]
  uint8_t  *pbuf= (uint8_t*)usbd_cdc_CfgDesc + 9;
 800410e:	4b48      	ldr	r3, [pc, #288]	; (8004230 <usbd_cdc_Setup+0x134>)
 8004110:	60bb      	str	r3, [r7, #8]
  
  switch (req->bmRequest & USB_REQ_TYPE_MASK)
 8004112:	683b      	ldr	r3, [r7, #0]
 8004114:	781b      	ldrb	r3, [r3, #0]
 8004116:	1c1a      	adds	r2, r3, #0
 8004118:	2360      	movs	r3, #96	; 0x60
 800411a:	4013      	ands	r3, r2
 800411c:	d044      	beq.n	80041a8 <usbd_cdc_Setup+0xac>
 800411e:	2b20      	cmp	r3, #32
 8004120:	d13a      	bne.n	8004198 <usbd_cdc_Setup+0x9c>
  {
    /* CDC Class Requests -------------------------------*/
  case USB_REQ_TYPE_CLASS :
      /* Check if the request is a data setup packet */
      if (req->wLength)
 8004122:	683b      	ldr	r3, [r7, #0]
 8004124:	88db      	ldrh	r3, [r3, #6]
 8004126:	2b00      	cmp	r3, #0
 8004128:	d02c      	beq.n	8004184 <usbd_cdc_Setup+0x88>
      {
        /* Check if the request is Device-to-Host */
        if (req->bmRequest & 0x80)
 800412a:	683b      	ldr	r3, [r7, #0]
 800412c:	781b      	ldrb	r3, [r3, #0]
 800412e:	b2db      	uxtb	r3, r3
 8004130:	b25b      	sxtb	r3, r3
 8004132:	2b00      	cmp	r3, #0
 8004134:	da12      	bge.n	800415c <usbd_cdc_Setup+0x60>
        {
          /* Get the data to be sent to Host from interface layer */
          APP_FOPS.pIf_Ctrl(req->bRequest, CmdBuff, req->wLength);
 8004136:	4b3f      	ldr	r3, [pc, #252]	; (8004234 <usbd_cdc_Setup+0x138>)
 8004138:	689b      	ldr	r3, [r3, #8]
 800413a:	683a      	ldr	r2, [r7, #0]
 800413c:	7852      	ldrb	r2, [r2, #1]
 800413e:	1c10      	adds	r0, r2, #0
 8004140:	683a      	ldr	r2, [r7, #0]
 8004142:	88d2      	ldrh	r2, [r2, #6]
 8004144:	493c      	ldr	r1, [pc, #240]	; (8004238 <usbd_cdc_Setup+0x13c>)
 8004146:	4798      	blx	r3
          
          /* Send the data to the host */
          USBD_CtlSendData (pdev, 
 8004148:	683b      	ldr	r3, [r7, #0]
 800414a:	88db      	ldrh	r3, [r3, #6]
 800414c:	6879      	ldr	r1, [r7, #4]
 800414e:	4a3a      	ldr	r2, [pc, #232]	; (8004238 <usbd_cdc_Setup+0x13c>)
 8004150:	1c08      	adds	r0, r1, #0
 8004152:	1c11      	adds	r1, r2, #0
 8004154:	1c1a      	adds	r2, r3, #0
 8004156:	f7ff fc8f 	bl	8003a78 <USBD_CtlSendData>
 800415a:	e01b      	b.n	8004194 <usbd_cdc_Setup+0x98>
                            req->wLength);          
        }
        else /* Host-to-Device requeset */
        {
          /* Set the value of the current command to be processed */
          cdcCmd = req->bRequest;
 800415c:	683b      	ldr	r3, [r7, #0]
 800415e:	785b      	ldrb	r3, [r3, #1]
 8004160:	1c1a      	adds	r2, r3, #0
 8004162:	4b36      	ldr	r3, [pc, #216]	; (800423c <usbd_cdc_Setup+0x140>)
 8004164:	601a      	str	r2, [r3, #0]
          cdcLen = req->wLength;
 8004166:	683b      	ldr	r3, [r7, #0]
 8004168:	88db      	ldrh	r3, [r3, #6]
 800416a:	1c1a      	adds	r2, r3, #0
 800416c:	4b34      	ldr	r3, [pc, #208]	; (8004240 <usbd_cdc_Setup+0x144>)
 800416e:	601a      	str	r2, [r3, #0]
          
          /* Prepare the reception of the buffer over EP0
          Next step: the received data will be managed in usbd_cdc_EP0_TxSent() 
          function. */
          USBD_CtlPrepareRx (pdev,
 8004170:	683b      	ldr	r3, [r7, #0]
 8004172:	88db      	ldrh	r3, [r3, #6]
 8004174:	6879      	ldr	r1, [r7, #4]
 8004176:	4a30      	ldr	r2, [pc, #192]	; (8004238 <usbd_cdc_Setup+0x13c>)
 8004178:	1c08      	adds	r0, r1, #0
 800417a:	1c11      	adds	r1, r2, #0
 800417c:	1c1a      	adds	r2, r3, #0
 800417e:	f7ff fcbb 	bl	8003af8 <USBD_CtlPrepareRx>
 8004182:	e007      	b.n	8004194 <usbd_cdc_Setup+0x98>
        }
      }
      else /* No Data request */
      {
        /* Transfer the command to the interface layer */
        APP_FOPS.pIf_Ctrl(req->bRequest, NULL, 0);
 8004184:	4b2b      	ldr	r3, [pc, #172]	; (8004234 <usbd_cdc_Setup+0x138>)
 8004186:	689b      	ldr	r3, [r3, #8]
 8004188:	683a      	ldr	r2, [r7, #0]
 800418a:	7852      	ldrb	r2, [r2, #1]
 800418c:	1c10      	adds	r0, r2, #0
 800418e:	2100      	movs	r1, #0
 8004190:	2200      	movs	r2, #0
 8004192:	4798      	blx	r3
      }
      
      return USBD_OK;
 8004194:	2300      	movs	r3, #0
 8004196:	e047      	b.n	8004228 <usbd_cdc_Setup+0x12c>
      
    default:
      USBD_CtlError (pdev, req);
 8004198:	687a      	ldr	r2, [r7, #4]
 800419a:	683b      	ldr	r3, [r7, #0]
 800419c:	1c10      	adds	r0, r2, #0
 800419e:	1c19      	adds	r1, r3, #0
 80041a0:	f7ff fbec 	bl	800397c <USBD_CtlError>
      return USBD_FAIL;
 80041a4:	2302      	movs	r3, #2
 80041a6:	e03f      	b.n	8004228 <usbd_cdc_Setup+0x12c>
    
      
      
    /* Standard Requests -------------------------------*/
  case USB_REQ_TYPE_STANDARD:
    switch (req->bRequest)
 80041a8:	683b      	ldr	r3, [r7, #0]
 80041aa:	785b      	ldrb	r3, [r3, #1]
 80041ac:	2b0a      	cmp	r3, #10
 80041ae:	d01f      	beq.n	80041f0 <usbd_cdc_Setup+0xf4>
 80041b0:	2b0b      	cmp	r3, #11
 80041b2:	d025      	beq.n	8004200 <usbd_cdc_Setup+0x104>
 80041b4:	2b06      	cmp	r3, #6
 80041b6:	d136      	bne.n	8004226 <usbd_cdc_Setup+0x12a>
    {
    case USB_REQ_GET_DESCRIPTOR: 
      if( (req->wValue >> 8) == CDC_DESCRIPTOR_TYPE)
 80041b8:	683b      	ldr	r3, [r7, #0]
 80041ba:	885b      	ldrh	r3, [r3, #2]
 80041bc:	0a1b      	lsrs	r3, r3, #8
 80041be:	b29b      	uxth	r3, r3
 80041c0:	2b21      	cmp	r3, #33	; 0x21
 80041c2:	d10a      	bne.n	80041da <usbd_cdc_Setup+0xde>
      {
        pbuf = (uint8_t*)usbd_cdc_CfgDesc + 9 + (9 * USBD_ITF_MAX_NUM);
 80041c4:	4b1f      	ldr	r3, [pc, #124]	; (8004244 <usbd_cdc_Setup+0x148>)
 80041c6:	60bb      	str	r3, [r7, #8]
        len = MIN(USB_CDC_DESC_SIZ , req->wLength);
 80041c8:	683b      	ldr	r3, [r7, #0]
 80041ca:	88db      	ldrh	r3, [r3, #6]
 80041cc:	1c3a      	adds	r2, r7, #0
 80041ce:	320e      	adds	r2, #14
 80041d0:	b299      	uxth	r1, r3
 80041d2:	293a      	cmp	r1, #58	; 0x3a
 80041d4:	d900      	bls.n	80041d8 <usbd_cdc_Setup+0xdc>
 80041d6:	233a      	movs	r3, #58	; 0x3a
 80041d8:	8013      	strh	r3, [r2, #0]
      }
      
      USBD_CtlSendData (pdev, 
 80041da:	6879      	ldr	r1, [r7, #4]
 80041dc:	68ba      	ldr	r2, [r7, #8]
 80041de:	1c3b      	adds	r3, r7, #0
 80041e0:	330e      	adds	r3, #14
 80041e2:	881b      	ldrh	r3, [r3, #0]
 80041e4:	1c08      	adds	r0, r1, #0
 80041e6:	1c11      	adds	r1, r2, #0
 80041e8:	1c1a      	adds	r2, r3, #0
 80041ea:	f7ff fc45 	bl	8003a78 <USBD_CtlSendData>
                        pbuf,
                        len);
      break;
 80041ee:	e01a      	b.n	8004226 <usbd_cdc_Setup+0x12a>
      
    case USB_REQ_GET_INTERFACE :
      USBD_CtlSendData (pdev,
 80041f0:	687a      	ldr	r2, [r7, #4]
 80041f2:	4b15      	ldr	r3, [pc, #84]	; (8004248 <usbd_cdc_Setup+0x14c>)
 80041f4:	1c10      	adds	r0, r2, #0
 80041f6:	1c19      	adds	r1, r3, #0
 80041f8:	2201      	movs	r2, #1
 80041fa:	f7ff fc3d 	bl	8003a78 <USBD_CtlSendData>
                        (uint8_t *)&usbd_cdc_AltSet,
                        1);
      break;
 80041fe:	e012      	b.n	8004226 <usbd_cdc_Setup+0x12a>
      
    case USB_REQ_SET_INTERFACE :
      if ((uint8_t)(req->wValue) < USBD_ITF_MAX_NUM)
 8004200:	683b      	ldr	r3, [r7, #0]
 8004202:	885b      	ldrh	r3, [r3, #2]
 8004204:	b2db      	uxtb	r3, r3
 8004206:	2b00      	cmp	r3, #0
 8004208:	d106      	bne.n	8004218 <usbd_cdc_Setup+0x11c>
      {
        usbd_cdc_AltSet = (uint8_t)(req->wValue);
 800420a:	683b      	ldr	r3, [r7, #0]
 800420c:	885b      	ldrh	r3, [r3, #2]
 800420e:	b2db      	uxtb	r3, r3
 8004210:	1c1a      	adds	r2, r3, #0
 8004212:	4b0d      	ldr	r3, [pc, #52]	; (8004248 <usbd_cdc_Setup+0x14c>)
 8004214:	601a      	str	r2, [r3, #0]
      else
      {
        /* Call the error management function (command will be nacked */
        USBD_CtlError (pdev, req);
      }
      break;
 8004216:	e005      	b.n	8004224 <usbd_cdc_Setup+0x128>
        usbd_cdc_AltSet = (uint8_t)(req->wValue);
      }
      else
      {
        /* Call the error management function (command will be nacked */
        USBD_CtlError (pdev, req);
 8004218:	687a      	ldr	r2, [r7, #4]
 800421a:	683b      	ldr	r3, [r7, #0]
 800421c:	1c10      	adds	r0, r2, #0
 800421e:	1c19      	adds	r1, r3, #0
 8004220:	f7ff fbac 	bl	800397c <USBD_CtlError>
      }
      break;
 8004224:	46c0      	nop			; (mov r8, r8)
    }
  }
  return USBD_OK;
 8004226:	2300      	movs	r3, #0
}
 8004228:	1c18      	adds	r0, r3, #0
 800422a:	46bd      	mov	sp, r7
 800422c:	b004      	add	sp, #16
 800422e:	bd80      	pop	{r7, pc}
 8004230:	08007539 	.word	0x08007539
 8004234:	20000060 	.word	0x20000060
 8004238:	200006dc 	.word	0x200006dc
 800423c:	20000094 	.word	0x20000094
 8004240:	20000170 	.word	0x20000170
 8004244:	08007542 	.word	0x08007542
 8004248:	20000158 	.word	0x20000158

0800424c <usbd_cdc_EP0_RxReady>:
  *         Data received on control endpoint
  * @param  pdev: device device instance
  * @retval status
  */
uint8_t  usbd_cdc_EP0_RxReady (void  *pdev)
{ 
 800424c:	b590      	push	{r4, r7, lr}
 800424e:	b083      	sub	sp, #12
 8004250:	af00      	add	r7, sp, #0
 8004252:	6078      	str	r0, [r7, #4]
  if (cdcCmd != NO_CMD)
 8004254:	4b0b      	ldr	r3, [pc, #44]	; (8004284 <usbd_cdc_EP0_RxReady+0x38>)
 8004256:	681b      	ldr	r3, [r3, #0]
 8004258:	2bff      	cmp	r3, #255	; 0xff
 800425a:	d00d      	beq.n	8004278 <usbd_cdc_EP0_RxReady+0x2c>
  {
    /* Process the data */
    APP_FOPS.pIf_Ctrl(cdcCmd, CmdBuff, cdcLen);
 800425c:	4b0a      	ldr	r3, [pc, #40]	; (8004288 <usbd_cdc_EP0_RxReady+0x3c>)
 800425e:	689c      	ldr	r4, [r3, #8]
 8004260:	4b08      	ldr	r3, [pc, #32]	; (8004284 <usbd_cdc_EP0_RxReady+0x38>)
 8004262:	6819      	ldr	r1, [r3, #0]
 8004264:	4b09      	ldr	r3, [pc, #36]	; (800428c <usbd_cdc_EP0_RxReady+0x40>)
 8004266:	681b      	ldr	r3, [r3, #0]
 8004268:	4a09      	ldr	r2, [pc, #36]	; (8004290 <usbd_cdc_EP0_RxReady+0x44>)
 800426a:	1c08      	adds	r0, r1, #0
 800426c:	1c11      	adds	r1, r2, #0
 800426e:	1c1a      	adds	r2, r3, #0
 8004270:	47a0      	blx	r4
    
    /* Reset the command variable to default value */
    cdcCmd = NO_CMD;
 8004272:	4b04      	ldr	r3, [pc, #16]	; (8004284 <usbd_cdc_EP0_RxReady+0x38>)
 8004274:	22ff      	movs	r2, #255	; 0xff
 8004276:	601a      	str	r2, [r3, #0]
  }
  
  return USBD_OK;
 8004278:	2300      	movs	r3, #0
}
 800427a:	1c18      	adds	r0, r3, #0
 800427c:	46bd      	mov	sp, r7
 800427e:	b003      	add	sp, #12
 8004280:	bd90      	pop	{r4, r7, pc}
 8004282:	46c0      	nop			; (mov r8, r8)
 8004284:	20000094 	.word	0x20000094
 8004288:	20000060 	.word	0x20000060
 800428c:	20000170 	.word	0x20000170
 8004290:	200006dc 	.word	0x200006dc

08004294 <usbd_cdc_DataIn>:
  * @param  pdev: device instance
  * @param  epnum: endpoint number
  * @retval status
  */
uint8_t  usbd_cdc_DataIn (void *pdev, uint8_t epnum)
{
 8004294:	b580      	push	{r7, lr}
 8004296:	b084      	sub	sp, #16
 8004298:	af00      	add	r7, sp, #0
 800429a:	6078      	str	r0, [r7, #4]
 800429c:	1c0a      	adds	r2, r1, #0
 800429e:	1cfb      	adds	r3, r7, #3
 80042a0:	701a      	strb	r2, [r3, #0]
  uint16_t USB_Tx_ptr;
  uint16_t USB_Tx_length;
  
  if (USB_Tx_State == 1)
 80042a2:	4b31      	ldr	r3, [pc, #196]	; (8004368 <usbd_cdc_DataIn+0xd4>)
 80042a4:	781b      	ldrb	r3, [r3, #0]
 80042a6:	2b01      	cmp	r3, #1
 80042a8:	d158      	bne.n	800435c <usbd_cdc_DataIn+0xc8>
  {
    if (APP_Rx_length == 0) 
 80042aa:	4b30      	ldr	r3, [pc, #192]	; (800436c <usbd_cdc_DataIn+0xd8>)
 80042ac:	681b      	ldr	r3, [r3, #0]
 80042ae:	2b00      	cmp	r3, #0
 80042b0:	d112      	bne.n	80042d8 <usbd_cdc_DataIn+0x44>
    {
      if (last_packet ==1)
 80042b2:	4b2f      	ldr	r3, [pc, #188]	; (8004370 <usbd_cdc_DataIn+0xdc>)
 80042b4:	681b      	ldr	r3, [r3, #0]
 80042b6:	2b01      	cmp	r3, #1
 80042b8:	d10a      	bne.n	80042d0 <usbd_cdc_DataIn+0x3c>
      {
        last_packet =0;
 80042ba:	4b2d      	ldr	r3, [pc, #180]	; (8004370 <usbd_cdc_DataIn+0xdc>)
 80042bc:	2200      	movs	r2, #0
 80042be:	601a      	str	r2, [r3, #0]
        
        /*Send zero-length packet*/
        DCD_EP_Tx (pdev, CDC_IN_EP, 0, 0);
 80042c0:	687b      	ldr	r3, [r7, #4]
 80042c2:	1c18      	adds	r0, r3, #0
 80042c4:	2181      	movs	r1, #129	; 0x81
 80042c6:	2200      	movs	r2, #0
 80042c8:	2300      	movs	r3, #0
 80042ca:	f000 ff0b 	bl	80050e4 <DCD_EP_Tx>
 80042ce:	e045      	b.n	800435c <usbd_cdc_DataIn+0xc8>
      }
      else
      {
        USB_Tx_State = 0;
 80042d0:	4b25      	ldr	r3, [pc, #148]	; (8004368 <usbd_cdc_DataIn+0xd4>)
 80042d2:	2200      	movs	r2, #0
 80042d4:	701a      	strb	r2, [r3, #0]
 80042d6:	e041      	b.n	800435c <usbd_cdc_DataIn+0xc8>
      }
    }
    else 
    {
      if (APP_Rx_length > CDC_DATA_IN_PACKET_SIZE){
 80042d8:	4b24      	ldr	r3, [pc, #144]	; (800436c <usbd_cdc_DataIn+0xd8>)
 80042da:	681b      	ldr	r3, [r3, #0]
 80042dc:	2b40      	cmp	r3, #64	; 0x40
 80042de:	d915      	bls.n	800430c <usbd_cdc_DataIn+0x78>
        USB_Tx_ptr = APP_Rx_ptr_out;
 80042e0:	4b24      	ldr	r3, [pc, #144]	; (8004374 <usbd_cdc_DataIn+0xe0>)
 80042e2:	681a      	ldr	r2, [r3, #0]
 80042e4:	1c3b      	adds	r3, r7, #0
 80042e6:	330e      	adds	r3, #14
 80042e8:	801a      	strh	r2, [r3, #0]
        USB_Tx_length = CDC_DATA_IN_PACKET_SIZE;
 80042ea:	1c3b      	adds	r3, r7, #0
 80042ec:	330c      	adds	r3, #12
 80042ee:	2240      	movs	r2, #64	; 0x40
 80042f0:	801a      	strh	r2, [r3, #0]
        
        APP_Rx_ptr_out += CDC_DATA_IN_PACKET_SIZE;
 80042f2:	4b20      	ldr	r3, [pc, #128]	; (8004374 <usbd_cdc_DataIn+0xe0>)
 80042f4:	681b      	ldr	r3, [r3, #0]
 80042f6:	1c1a      	adds	r2, r3, #0
 80042f8:	3240      	adds	r2, #64	; 0x40
 80042fa:	4b1e      	ldr	r3, [pc, #120]	; (8004374 <usbd_cdc_DataIn+0xe0>)
 80042fc:	601a      	str	r2, [r3, #0]
        APP_Rx_length -= CDC_DATA_IN_PACKET_SIZE;    
 80042fe:	4b1b      	ldr	r3, [pc, #108]	; (800436c <usbd_cdc_DataIn+0xd8>)
 8004300:	681b      	ldr	r3, [r3, #0]
 8004302:	1c1a      	adds	r2, r3, #0
 8004304:	3a40      	subs	r2, #64	; 0x40
 8004306:	4b19      	ldr	r3, [pc, #100]	; (800436c <usbd_cdc_DataIn+0xd8>)
 8004308:	601a      	str	r2, [r3, #0]
 800430a:	e01a      	b.n	8004342 <usbd_cdc_DataIn+0xae>
      }
      else 
      {
        USB_Tx_ptr = APP_Rx_ptr_out;
 800430c:	4b19      	ldr	r3, [pc, #100]	; (8004374 <usbd_cdc_DataIn+0xe0>)
 800430e:	681a      	ldr	r2, [r3, #0]
 8004310:	1c3b      	adds	r3, r7, #0
 8004312:	330e      	adds	r3, #14
 8004314:	801a      	strh	r2, [r3, #0]
        USB_Tx_length = APP_Rx_length;
 8004316:	4b15      	ldr	r3, [pc, #84]	; (800436c <usbd_cdc_DataIn+0xd8>)
 8004318:	681a      	ldr	r2, [r3, #0]
 800431a:	1c3b      	adds	r3, r7, #0
 800431c:	330c      	adds	r3, #12
 800431e:	801a      	strh	r2, [r3, #0]
        
        APP_Rx_ptr_out += APP_Rx_length;
 8004320:	4b14      	ldr	r3, [pc, #80]	; (8004374 <usbd_cdc_DataIn+0xe0>)
 8004322:	681a      	ldr	r2, [r3, #0]
 8004324:	4b11      	ldr	r3, [pc, #68]	; (800436c <usbd_cdc_DataIn+0xd8>)
 8004326:	681b      	ldr	r3, [r3, #0]
 8004328:	18d2      	adds	r2, r2, r3
 800432a:	4b12      	ldr	r3, [pc, #72]	; (8004374 <usbd_cdc_DataIn+0xe0>)
 800432c:	601a      	str	r2, [r3, #0]
        APP_Rx_length = 0;
 800432e:	4b0f      	ldr	r3, [pc, #60]	; (800436c <usbd_cdc_DataIn+0xd8>)
 8004330:	2200      	movs	r2, #0
 8004332:	601a      	str	r2, [r3, #0]
        if (APP_Rx_length == CDC_DATA_IN_PACKET_SIZE) last_packet = 1;
 8004334:	4b0d      	ldr	r3, [pc, #52]	; (800436c <usbd_cdc_DataIn+0xd8>)
 8004336:	681b      	ldr	r3, [r3, #0]
 8004338:	2b40      	cmp	r3, #64	; 0x40
 800433a:	d102      	bne.n	8004342 <usbd_cdc_DataIn+0xae>
 800433c:	4b0c      	ldr	r3, [pc, #48]	; (8004370 <usbd_cdc_DataIn+0xdc>)
 800433e:	2201      	movs	r2, #1
 8004340:	601a      	str	r2, [r3, #0]
      }
      
      /* Prepare the available data buffer to be sent on IN endpoint */
      DCD_EP_Tx (pdev,
                 CDC_IN_EP,
                 (uint8_t*)&APP_Rx_Buffer[USB_Tx_ptr],
 8004342:	1c3b      	adds	r3, r7, #0
 8004344:	330e      	adds	r3, #14
 8004346:	881a      	ldrh	r2, [r3, #0]
        APP_Rx_length = 0;
        if (APP_Rx_length == CDC_DATA_IN_PACKET_SIZE) last_packet = 1;
      }
      
      /* Prepare the available data buffer to be sent on IN endpoint */
      DCD_EP_Tx (pdev,
 8004348:	4b0b      	ldr	r3, [pc, #44]	; (8004378 <usbd_cdc_DataIn+0xe4>)
 800434a:	18d2      	adds	r2, r2, r3
 800434c:	1c3b      	adds	r3, r7, #0
 800434e:	330c      	adds	r3, #12
 8004350:	881b      	ldrh	r3, [r3, #0]
 8004352:	6879      	ldr	r1, [r7, #4]
 8004354:	1c08      	adds	r0, r1, #0
 8004356:	2181      	movs	r1, #129	; 0x81
 8004358:	f000 fec4 	bl	80050e4 <DCD_EP_Tx>
                 (uint8_t*)&APP_Rx_Buffer[USB_Tx_ptr],
                 USB_Tx_length);
    }
  }  
  
  return USBD_OK;
 800435c:	2300      	movs	r3, #0
}
 800435e:	1c18      	adds	r0, r3, #0
 8004360:	46bd      	mov	sp, r7
 8004362:	b004      	add	sp, #16
 8004364:	bd80      	pop	{r7, pc}
 8004366:	46c0      	nop			; (mov r8, r8)
 8004368:	2000016c 	.word	0x2000016c
 800436c:	20000168 	.word	0x20000168
 8004370:	2000015c 	.word	0x2000015c
 8004374:	20000164 	.word	0x20000164
 8004378:	200006e4 	.word	0x200006e4

0800437c <usbd_cdc_DataOut>:
  * @param  pdev: device instance
  * @param  epnum: endpoint number
  * @retval status
  */
uint8_t  usbd_cdc_DataOut (void *pdev, uint8_t epnum)
{      
 800437c:	b580      	push	{r7, lr}
 800437e:	b084      	sub	sp, #16
 8004380:	af00      	add	r7, sp, #0
 8004382:	6078      	str	r0, [r7, #4]
 8004384:	1c0a      	adds	r2, r1, #0
 8004386:	1cfb      	adds	r3, r7, #3
 8004388:	701a      	strb	r2, [r3, #0]
  uint16_t USB_Rx_Cnt;
  
  /* Get the received data buffer and update the counter */
  USB_Rx_Cnt = ((USB_CORE_HANDLE*)pdev)->dev.out_ep[epnum].xfer_count;
 800438a:	1cfb      	adds	r3, r7, #3
 800438c:	781a      	ldrb	r2, [r3, #0]
 800438e:	6878      	ldr	r0, [r7, #4]
 8004390:	21d0      	movs	r1, #208	; 0xd0
 8004392:	1c13      	adds	r3, r2, #0
 8004394:	009b      	lsls	r3, r3, #2
 8004396:	189b      	adds	r3, r3, r2
 8004398:	00db      	lsls	r3, r3, #3
 800439a:	18c3      	adds	r3, r0, r3
 800439c:	185b      	adds	r3, r3, r1
 800439e:	681a      	ldr	r2, [r3, #0]
 80043a0:	1c3b      	adds	r3, r7, #0
 80043a2:	330e      	adds	r3, #14
 80043a4:	801a      	strh	r2, [r3, #0]
  
  /* USB data will be immediately processed, this allow next USB traffic being 
     NAKed till the end of the application Xfer */
  APP_FOPS.pIf_DataRx(USB_Rx_Buffer, USB_Rx_Cnt);
 80043a6:	4b0b      	ldr	r3, [pc, #44]	; (80043d4 <usbd_cdc_DataOut+0x58>)
 80043a8:	691b      	ldr	r3, [r3, #16]
 80043aa:	1c3a      	adds	r2, r7, #0
 80043ac:	320e      	adds	r2, #14
 80043ae:	8812      	ldrh	r2, [r2, #0]
 80043b0:	4909      	ldr	r1, [pc, #36]	; (80043d8 <usbd_cdc_DataOut+0x5c>)
 80043b2:	1c08      	adds	r0, r1, #0
 80043b4:	1c11      	adds	r1, r2, #0
 80043b6:	4798      	blx	r3
  
  /* Prepare Out endpoint to receive next packet */
  DCD_EP_PrepareRx(pdev,
 80043b8:	687a      	ldr	r2, [r7, #4]
 80043ba:	4b07      	ldr	r3, [pc, #28]	; (80043d8 <usbd_cdc_DataOut+0x5c>)
 80043bc:	1c10      	adds	r0, r2, #0
 80043be:	2103      	movs	r1, #3
 80043c0:	1c1a      	adds	r2, r3, #0
 80043c2:	2340      	movs	r3, #64	; 0x40
 80043c4:	f000 fe2c 	bl	8005020 <DCD_EP_PrepareRx>
                   CDC_OUT_EP,
                   (uint8_t*)(USB_Rx_Buffer),
                   CDC_DATA_OUT_PACKET_SIZE);

  return USBD_OK;
 80043c8:	2300      	movs	r3, #0
}
 80043ca:	1c18      	adds	r0, r3, #0
 80043cc:	46bd      	mov	sp, r7
 80043ce:	b004      	add	sp, #16
 80043d0:	bd80      	pop	{r7, pc}
 80043d2:	46c0      	nop			; (mov r8, r8)
 80043d4:	20000060 	.word	0x20000060
 80043d8:	2000069c 	.word	0x2000069c

080043dc <usbd_cdc_SOF>:
  * @param  pdev: instance
  * @param  epnum: endpoint number
  * @retval status
  */
uint8_t  usbd_cdc_SOF (void *pdev)
{      
 80043dc:	b580      	push	{r7, lr}
 80043de:	b082      	sub	sp, #8
 80043e0:	af00      	add	r7, sp, #0
 80043e2:	6078      	str	r0, [r7, #4]
  static uint32_t FrameCount = 0;
  
  if (FrameCount++ == CDC_IN_FRAME_INTERVAL)
 80043e4:	4b09      	ldr	r3, [pc, #36]	; (800440c <usbd_cdc_SOF+0x30>)
 80043e6:	681b      	ldr	r3, [r3, #0]
 80043e8:	1c59      	adds	r1, r3, #1
 80043ea:	4a08      	ldr	r2, [pc, #32]	; (800440c <usbd_cdc_SOF+0x30>)
 80043ec:	6011      	str	r1, [r2, #0]
 80043ee:	2b05      	cmp	r3, #5
 80043f0:	d106      	bne.n	8004400 <usbd_cdc_SOF+0x24>
  {
    /* Reset the frame counter */
    FrameCount = 0;
 80043f2:	4b06      	ldr	r3, [pc, #24]	; (800440c <usbd_cdc_SOF+0x30>)
 80043f4:	2200      	movs	r2, #0
 80043f6:	601a      	str	r2, [r3, #0]
    
    /* Check the data to be sent through IN pipe */
    Handle_USBAsynchXfer(pdev);
 80043f8:	687b      	ldr	r3, [r7, #4]
 80043fa:	1c18      	adds	r0, r3, #0
 80043fc:	f000 f808 	bl	8004410 <Handle_USBAsynchXfer>
  }
  
  return USBD_OK;
 8004400:	2300      	movs	r3, #0
}
 8004402:	1c18      	adds	r0, r3, #0
 8004404:	46bd      	mov	sp, r7
 8004406:	b002      	add	sp, #8
 8004408:	bd80      	pop	{r7, pc}
 800440a:	46c0      	nop			; (mov r8, r8)
 800440c:	20000174 	.word	0x20000174

08004410 <Handle_USBAsynchXfer>:
  *         Send data to USB
  * @param  pdev: instance
  * @retval None
  */
static void Handle_USBAsynchXfer (void *pdev)
{
 8004410:	b580      	push	{r7, lr}
 8004412:	b084      	sub	sp, #16
 8004414:	af00      	add	r7, sp, #0
 8004416:	6078      	str	r0, [r7, #4]
  uint16_t USB_Tx_ptr;
  uint16_t USB_Tx_length;
  
  if(USB_Tx_State != 1)
 8004418:	4b3e      	ldr	r3, [pc, #248]	; (8004514 <Handle_USBAsynchXfer+0x104>)
 800441a:	781b      	ldrb	r3, [r3, #0]
 800441c:	2b01      	cmp	r3, #1
 800441e:	d100      	bne.n	8004422 <Handle_USBAsynchXfer+0x12>
 8004420:	e074      	b.n	800450c <Handle_USBAsynchXfer+0xfc>
  {
    if (APP_Rx_ptr_out == APP_RX_DATA_SIZE)
 8004422:	4b3d      	ldr	r3, [pc, #244]	; (8004518 <Handle_USBAsynchXfer+0x108>)
 8004424:	681a      	ldr	r2, [r3, #0]
 8004426:	2380      	movs	r3, #128	; 0x80
 8004428:	011b      	lsls	r3, r3, #4
 800442a:	429a      	cmp	r2, r3
 800442c:	d102      	bne.n	8004434 <Handle_USBAsynchXfer+0x24>
    {
      APP_Rx_ptr_out = 0;
 800442e:	4b3a      	ldr	r3, [pc, #232]	; (8004518 <Handle_USBAsynchXfer+0x108>)
 8004430:	2200      	movs	r2, #0
 8004432:	601a      	str	r2, [r3, #0]
    }
    
    if(APP_Rx_ptr_out == APP_Rx_ptr_in) 
 8004434:	4b38      	ldr	r3, [pc, #224]	; (8004518 <Handle_USBAsynchXfer+0x108>)
 8004436:	681a      	ldr	r2, [r3, #0]
 8004438:	4b38      	ldr	r3, [pc, #224]	; (800451c <Handle_USBAsynchXfer+0x10c>)
 800443a:	681b      	ldr	r3, [r3, #0]
 800443c:	429a      	cmp	r2, r3
 800443e:	d103      	bne.n	8004448 <Handle_USBAsynchXfer+0x38>
    {
      USB_Tx_State = 0; 
 8004440:	4b34      	ldr	r3, [pc, #208]	; (8004514 <Handle_USBAsynchXfer+0x104>)
 8004442:	2200      	movs	r2, #0
 8004444:	701a      	strb	r2, [r3, #0]
      return;
 8004446:	e061      	b.n	800450c <Handle_USBAsynchXfer+0xfc>
    }
    
    if(APP_Rx_ptr_out > APP_Rx_ptr_in) /* rollback */
 8004448:	4b33      	ldr	r3, [pc, #204]	; (8004518 <Handle_USBAsynchXfer+0x108>)
 800444a:	681a      	ldr	r2, [r3, #0]
 800444c:	4b33      	ldr	r3, [pc, #204]	; (800451c <Handle_USBAsynchXfer+0x10c>)
 800444e:	681b      	ldr	r3, [r3, #0]
 8004450:	429a      	cmp	r2, r3
 8004452:	d907      	bls.n	8004464 <Handle_USBAsynchXfer+0x54>
    { 
      APP_Rx_length = APP_RX_DATA_SIZE - APP_Rx_ptr_out;
 8004454:	4b30      	ldr	r3, [pc, #192]	; (8004518 <Handle_USBAsynchXfer+0x108>)
 8004456:	681b      	ldr	r3, [r3, #0]
 8004458:	2280      	movs	r2, #128	; 0x80
 800445a:	0112      	lsls	r2, r2, #4
 800445c:	1ad2      	subs	r2, r2, r3
 800445e:	4b30      	ldr	r3, [pc, #192]	; (8004520 <Handle_USBAsynchXfer+0x110>)
 8004460:	601a      	str	r2, [r3, #0]
 8004462:	e006      	b.n	8004472 <Handle_USBAsynchXfer+0x62>
      
    }
    else 
    {
      APP_Rx_length = APP_Rx_ptr_in - APP_Rx_ptr_out;
 8004464:	4b2d      	ldr	r3, [pc, #180]	; (800451c <Handle_USBAsynchXfer+0x10c>)
 8004466:	681a      	ldr	r2, [r3, #0]
 8004468:	4b2b      	ldr	r3, [pc, #172]	; (8004518 <Handle_USBAsynchXfer+0x108>)
 800446a:	681b      	ldr	r3, [r3, #0]
 800446c:	1ad2      	subs	r2, r2, r3
 800446e:	4b2c      	ldr	r3, [pc, #176]	; (8004520 <Handle_USBAsynchXfer+0x110>)
 8004470:	601a      	str	r2, [r3, #0]
      
    }
    
    if (APP_Rx_length > CDC_DATA_IN_PACKET_SIZE)
 8004472:	4b2b      	ldr	r3, [pc, #172]	; (8004520 <Handle_USBAsynchXfer+0x110>)
 8004474:	681b      	ldr	r3, [r3, #0]
 8004476:	2b40      	cmp	r3, #64	; 0x40
 8004478:	d915      	bls.n	80044a6 <Handle_USBAsynchXfer+0x96>
    {
      USB_Tx_ptr = APP_Rx_ptr_out;
 800447a:	4b27      	ldr	r3, [pc, #156]	; (8004518 <Handle_USBAsynchXfer+0x108>)
 800447c:	681a      	ldr	r2, [r3, #0]
 800447e:	1c3b      	adds	r3, r7, #0
 8004480:	330e      	adds	r3, #14
 8004482:	801a      	strh	r2, [r3, #0]
      USB_Tx_length = CDC_DATA_IN_PACKET_SIZE;
 8004484:	1c3b      	adds	r3, r7, #0
 8004486:	330c      	adds	r3, #12
 8004488:	2240      	movs	r2, #64	; 0x40
 800448a:	801a      	strh	r2, [r3, #0]
      
      APP_Rx_ptr_out += CDC_DATA_IN_PACKET_SIZE;	
 800448c:	4b22      	ldr	r3, [pc, #136]	; (8004518 <Handle_USBAsynchXfer+0x108>)
 800448e:	681b      	ldr	r3, [r3, #0]
 8004490:	1c1a      	adds	r2, r3, #0
 8004492:	3240      	adds	r2, #64	; 0x40
 8004494:	4b20      	ldr	r3, [pc, #128]	; (8004518 <Handle_USBAsynchXfer+0x108>)
 8004496:	601a      	str	r2, [r3, #0]
      APP_Rx_length -= CDC_DATA_IN_PACKET_SIZE;
 8004498:	4b21      	ldr	r3, [pc, #132]	; (8004520 <Handle_USBAsynchXfer+0x110>)
 800449a:	681b      	ldr	r3, [r3, #0]
 800449c:	1c1a      	adds	r2, r3, #0
 800449e:	3a40      	subs	r2, #64	; 0x40
 80044a0:	4b1f      	ldr	r3, [pc, #124]	; (8004520 <Handle_USBAsynchXfer+0x110>)
 80044a2:	601a      	str	r2, [r3, #0]
 80044a4:	e022      	b.n	80044ec <Handle_USBAsynchXfer+0xdc>
    }
    else
    {
      USB_Tx_ptr = APP_Rx_ptr_out;
 80044a6:	4b1c      	ldr	r3, [pc, #112]	; (8004518 <Handle_USBAsynchXfer+0x108>)
 80044a8:	681a      	ldr	r2, [r3, #0]
 80044aa:	1c3b      	adds	r3, r7, #0
 80044ac:	330e      	adds	r3, #14
 80044ae:	801a      	strh	r2, [r3, #0]
      USB_Tx_length = APP_Rx_length;
 80044b0:	4b1b      	ldr	r3, [pc, #108]	; (8004520 <Handle_USBAsynchXfer+0x110>)
 80044b2:	681a      	ldr	r2, [r3, #0]
 80044b4:	1c3b      	adds	r3, r7, #0
 80044b6:	330c      	adds	r3, #12
 80044b8:	801a      	strh	r2, [r3, #0]
      
      APP_Rx_ptr_out += APP_Rx_length;
 80044ba:	4b17      	ldr	r3, [pc, #92]	; (8004518 <Handle_USBAsynchXfer+0x108>)
 80044bc:	681a      	ldr	r2, [r3, #0]
 80044be:	4b18      	ldr	r3, [pc, #96]	; (8004520 <Handle_USBAsynchXfer+0x110>)
 80044c0:	681b      	ldr	r3, [r3, #0]
 80044c2:	18d2      	adds	r2, r2, r3
 80044c4:	4b14      	ldr	r3, [pc, #80]	; (8004518 <Handle_USBAsynchXfer+0x108>)
 80044c6:	601a      	str	r2, [r3, #0]
      APP_Rx_length = 0;
 80044c8:	4b15      	ldr	r3, [pc, #84]	; (8004520 <Handle_USBAsynchXfer+0x110>)
 80044ca:	2200      	movs	r2, #0
 80044cc:	601a      	str	r2, [r3, #0]
      if (USB_Tx_length == CDC_DATA_IN_PACKET_SIZE) last_packet = 1; //IBA
 80044ce:	1c3b      	adds	r3, r7, #0
 80044d0:	330c      	adds	r3, #12
 80044d2:	881b      	ldrh	r3, [r3, #0]
 80044d4:	2b40      	cmp	r3, #64	; 0x40
 80044d6:	d102      	bne.n	80044de <Handle_USBAsynchXfer+0xce>
 80044d8:	4b12      	ldr	r3, [pc, #72]	; (8004524 <Handle_USBAsynchXfer+0x114>)
 80044da:	2201      	movs	r2, #1
 80044dc:	601a      	str	r2, [r3, #0]
      if (APP_Rx_ptr_in == 64) APP_Rx_ptr_in=0;
 80044de:	4b0f      	ldr	r3, [pc, #60]	; (800451c <Handle_USBAsynchXfer+0x10c>)
 80044e0:	681b      	ldr	r3, [r3, #0]
 80044e2:	2b40      	cmp	r3, #64	; 0x40
 80044e4:	d102      	bne.n	80044ec <Handle_USBAsynchXfer+0xdc>
 80044e6:	4b0d      	ldr	r3, [pc, #52]	; (800451c <Handle_USBAsynchXfer+0x10c>)
 80044e8:	2200      	movs	r2, #0
 80044ea:	601a      	str	r2, [r3, #0]
    }
    USB_Tx_State = 1; 
 80044ec:	4b09      	ldr	r3, [pc, #36]	; (8004514 <Handle_USBAsynchXfer+0x104>)
 80044ee:	2201      	movs	r2, #1
 80044f0:	701a      	strb	r2, [r3, #0]
    
    DCD_EP_Tx (pdev,
               CDC_IN_EP,
               (uint8_t*)&APP_Rx_Buffer[USB_Tx_ptr],
 80044f2:	1c3b      	adds	r3, r7, #0
 80044f4:	330e      	adds	r3, #14
 80044f6:	881a      	ldrh	r2, [r3, #0]
      if (USB_Tx_length == CDC_DATA_IN_PACKET_SIZE) last_packet = 1; //IBA
      if (APP_Rx_ptr_in == 64) APP_Rx_ptr_in=0;
    }
    USB_Tx_State = 1; 
    
    DCD_EP_Tx (pdev,
 80044f8:	4b0b      	ldr	r3, [pc, #44]	; (8004528 <Handle_USBAsynchXfer+0x118>)
 80044fa:	18d2      	adds	r2, r2, r3
 80044fc:	1c3b      	adds	r3, r7, #0
 80044fe:	330c      	adds	r3, #12
 8004500:	881b      	ldrh	r3, [r3, #0]
 8004502:	6879      	ldr	r1, [r7, #4]
 8004504:	1c08      	adds	r0, r1, #0
 8004506:	2181      	movs	r1, #129	; 0x81
 8004508:	f000 fdec 	bl	80050e4 <DCD_EP_Tx>
               CDC_IN_EP,
               (uint8_t*)&APP_Rx_Buffer[USB_Tx_ptr],
               USB_Tx_length);
  }  
  
}
 800450c:	46bd      	mov	sp, r7
 800450e:	b004      	add	sp, #16
 8004510:	bd80      	pop	{r7, pc}
 8004512:	46c0      	nop			; (mov r8, r8)
 8004514:	2000016c 	.word	0x2000016c
 8004518:	20000164 	.word	0x20000164
 800451c:	20000160 	.word	0x20000160
 8004520:	20000168 	.word	0x20000168
 8004524:	2000015c 	.word	0x2000015c
 8004528:	200006e4 	.word	0x200006e4

0800452c <USBD_cdc_GetCfgDesc>:
  * @param  speed : current device speed
  * @param  length : pointer data length
  * @retval pointer to descriptor buffer
  */
static uint8_t  *USBD_cdc_GetCfgDesc (uint8_t speed, uint16_t *length)
{
 800452c:	b580      	push	{r7, lr}
 800452e:	b082      	sub	sp, #8
 8004530:	af00      	add	r7, sp, #0
 8004532:	1c02      	adds	r2, r0, #0
 8004534:	6039      	str	r1, [r7, #0]
 8004536:	1dfb      	adds	r3, r7, #7
 8004538:	701a      	strb	r2, [r3, #0]
  *length = sizeof (usbd_cdc_CfgDesc);
 800453a:	683b      	ldr	r3, [r7, #0]
 800453c:	2243      	movs	r2, #67	; 0x43
 800453e:	801a      	strh	r2, [r3, #0]
  return (uint8_t*)usbd_cdc_CfgDesc;
 8004540:	4b02      	ldr	r3, [pc, #8]	; (800454c <USBD_cdc_GetCfgDesc+0x20>)
}
 8004542:	1c18      	adds	r0, r3, #0
 8004544:	46bd      	mov	sp, r7
 8004546:	b002      	add	sp, #8
 8004548:	bd80      	pop	{r7, pc}
 800454a:	46c0      	nop			; (mov r8, r8)
 800454c:	08007530 	.word	0x08007530

08004550 <CTR>:
  * @brief  Correct Transfer interrupt's service
  * @param  None
  * @retval None
  */
void CTR(void)
{
 8004550:	b590      	push	{r4, r7, lr}
 8004552:	b087      	sub	sp, #28
 8004554:	af00      	add	r7, sp, #0
  USB_EP *ep;
  uint16_t count=0;
 8004556:	1c3b      	adds	r3, r7, #0
 8004558:	3316      	adds	r3, #22
 800455a:	2200      	movs	r2, #0
 800455c:	801a      	strh	r2, [r3, #0]
  uint8_t EPindex;
  volatile uint16_t wIstr;
  volatile uint16_t wEPVal = 0;
 800455e:	1d3b      	adds	r3, r7, #4
 8004560:	2200      	movs	r2, #0
 8004562:	801a      	strh	r2, [r3, #0]
  /* stay in loop while pending interrupts */
  while (((wIstr = _GetISTR()) & ISTR_CTR) != 0)
 8004564:	e282      	b.n	8004a6c <CTR+0x51c>
  {
    /* extract highest priority endpoint number */
    EPindex = (uint8_t)(wIstr & ISTR_EP_ID);
 8004566:	1dbb      	adds	r3, r7, #6
 8004568:	881b      	ldrh	r3, [r3, #0]
 800456a:	b29b      	uxth	r3, r3
 800456c:	b2d9      	uxtb	r1, r3
 800456e:	1c3b      	adds	r3, r7, #0
 8004570:	3313      	adds	r3, #19
 8004572:	220f      	movs	r2, #15
 8004574:	400a      	ands	r2, r1
 8004576:	701a      	strb	r2, [r3, #0]
    
    if (EPindex == 0)
 8004578:	1c3b      	adds	r3, r7, #0
 800457a:	3313      	adds	r3, #19
 800457c:	781b      	ldrb	r3, [r3, #0]
 800457e:	2b00      	cmp	r3, #0
 8004580:	d000      	beq.n	8004584 <CTR+0x34>
 8004582:	e0e6      	b.n	8004752 <CTR+0x202>
    {
      /* Decode and service control endpoint interrupt */
      
      /* DIR bit = origin of the interrupt */   
      if ((wIstr & ISTR_DIR) == 0)
 8004584:	1dbb      	adds	r3, r7, #6
 8004586:	881b      	ldrh	r3, [r3, #0]
 8004588:	b29b      	uxth	r3, r3
 800458a:	1c1a      	adds	r2, r3, #0
 800458c:	2310      	movs	r3, #16
 800458e:	4013      	ands	r3, r2
 8004590:	d121      	bne.n	80045d6 <CTR+0x86>
      {
        /* DIR = 0 */
        
        /* DIR = 0      => IN  int */
        /* DIR = 0 implies that (EP_CTR_TX = 1) always  */
        _ClearEP_CTR_TX(ENDP0);
 8004592:	4bcd      	ldr	r3, [pc, #820]	; (80048c8 <CTR+0x378>)
 8004594:	4acc      	ldr	r2, [pc, #816]	; (80048c8 <CTR+0x378>)
 8004596:	6812      	ldr	r2, [r2, #0]
 8004598:	b292      	uxth	r2, r2
 800459a:	1c11      	adds	r1, r2, #0
 800459c:	4acb      	ldr	r2, [pc, #812]	; (80048cc <CTR+0x37c>)
 800459e:	400a      	ands	r2, r1
 80045a0:	601a      	str	r2, [r3, #0]
        ep = &((&USB_Device_dev)->dev.in_ep[0]);
 80045a2:	4bcb      	ldr	r3, [pc, #812]	; (80048d0 <CTR+0x380>)
 80045a4:	60fb      	str	r3, [r7, #12]
        
        ep->xfer_count = GetEPTxCount(ep->num);
 80045a6:	68fb      	ldr	r3, [r7, #12]
 80045a8:	781b      	ldrb	r3, [r3, #0]
 80045aa:	1c18      	adds	r0, r3, #0
 80045ac:	f001 f99e 	bl	80058ec <GetEPTxCount>
 80045b0:	1c03      	adds	r3, r0, #0
 80045b2:	1c1a      	adds	r2, r3, #0
 80045b4:	68fb      	ldr	r3, [r7, #12]
 80045b6:	619a      	str	r2, [r3, #24]
        ep->xfer_buff += ep->xfer_count;
 80045b8:	68fb      	ldr	r3, [r7, #12]
 80045ba:	691a      	ldr	r2, [r3, #16]
 80045bc:	68fb      	ldr	r3, [r7, #12]
 80045be:	699b      	ldr	r3, [r3, #24]
 80045c0:	18d2      	adds	r2, r2, r3
 80045c2:	68fb      	ldr	r3, [r7, #12]
 80045c4:	611a      	str	r2, [r3, #16]
 
        /* TX COMPLETE */
        USBD_DCD_INT_fops->DataInStage(&USB_Device_dev, 0x00);
 80045c6:	4bc3      	ldr	r3, [pc, #780]	; (80048d4 <CTR+0x384>)
 80045c8:	681b      	ldr	r3, [r3, #0]
 80045ca:	685b      	ldr	r3, [r3, #4]
 80045cc:	4ac2      	ldr	r2, [pc, #776]	; (80048d8 <CTR+0x388>)
 80045ce:	1c10      	adds	r0, r2, #0
 80045d0:	2100      	movs	r1, #0
 80045d2:	4798      	blx	r3
 80045d4:	e24a      	b.n	8004a6c <CTR+0x51c>
      {
        /* DIR = 1 */
        
        /* DIR = 1 & CTR_RX       => SETUP or OUT int */
        /* DIR = 1 & (CTR_TX | CTR_RX) => 2 int pending */
        ep = &((&USB_Device_dev)->dev.out_ep[0]);
 80045d6:	4bc1      	ldr	r3, [pc, #772]	; (80048dc <CTR+0x38c>)
 80045d8:	60fb      	str	r3, [r7, #12]
        wEPVal = _GetENDPOINT(ENDP0);
 80045da:	4bbb      	ldr	r3, [pc, #748]	; (80048c8 <CTR+0x378>)
 80045dc:	681b      	ldr	r3, [r3, #0]
 80045de:	b29a      	uxth	r2, r3
 80045e0:	1d3b      	adds	r3, r7, #4
 80045e2:	801a      	strh	r2, [r3, #0]
        
        if ((wEPVal &EP_SETUP) != 0)
 80045e4:	1d3b      	adds	r3, r7, #4
 80045e6:	881b      	ldrh	r3, [r3, #0]
 80045e8:	b29b      	uxth	r3, r3
 80045ea:	1c1a      	adds	r2, r3, #0
 80045ec:	2380      	movs	r3, #128	; 0x80
 80045ee:	011b      	lsls	r3, r3, #4
 80045f0:	4013      	ands	r3, r2
 80045f2:	d022      	beq.n	800463a <CTR+0xea>
        {
          /* Get SETUP Packet*/
          ep->xfer_count = GetEPRxCount(ep->num);
 80045f4:	68fb      	ldr	r3, [r7, #12]
 80045f6:	781b      	ldrb	r3, [r3, #0]
 80045f8:	1c18      	adds	r0, r3, #0
 80045fa:	f001 f993 	bl	8005924 <GetEPRxCount>
 80045fe:	1c03      	adds	r3, r0, #0
 8004600:	1c1a      	adds	r2, r3, #0
 8004602:	68fb      	ldr	r3, [r7, #12]
 8004604:	619a      	str	r2, [r3, #24]
          PMAToUserBufferCopy(&((&USB_Device_dev)->dev.setup_packet[0]),ep->pmaadress , ep->xfer_count);       
 8004606:	68fb      	ldr	r3, [r7, #12]
 8004608:	889a      	ldrh	r2, [r3, #4]
 800460a:	68fb      	ldr	r3, [r7, #12]
 800460c:	699b      	ldr	r3, [r3, #24]
 800460e:	b29b      	uxth	r3, r3
 8004610:	49b3      	ldr	r1, [pc, #716]	; (80048e0 <CTR+0x390>)
 8004612:	1c08      	adds	r0, r1, #0
 8004614:	1c11      	adds	r1, r2, #0
 8004616:	1c1a      	adds	r2, r3, #0
 8004618:	f001 fb56 	bl	8005cc8 <PMAToUserBufferCopy>
          /* SETUP bit kept frozen while CTR_RX = 1*/ 
          _ClearEP_CTR_RX(ENDP0); 
 800461c:	4baa      	ldr	r3, [pc, #680]	; (80048c8 <CTR+0x378>)
 800461e:	4aaa      	ldr	r2, [pc, #680]	; (80048c8 <CTR+0x378>)
 8004620:	6812      	ldr	r2, [r2, #0]
 8004622:	b292      	uxth	r2, r2
 8004624:	1c11      	adds	r1, r2, #0
 8004626:	4aaf      	ldr	r2, [pc, #700]	; (80048e4 <CTR+0x394>)
 8004628:	400a      	ands	r2, r1
 800462a:	601a      	str	r2, [r3, #0]
          
          /* Process SETUP Packet*/
          USBD_DCD_INT_fops->SetupStage(&USB_Device_dev);
 800462c:	4ba9      	ldr	r3, [pc, #676]	; (80048d4 <CTR+0x384>)
 800462e:	681b      	ldr	r3, [r3, #0]
 8004630:	689b      	ldr	r3, [r3, #8]
 8004632:	4aa9      	ldr	r2, [pc, #676]	; (80048d8 <CTR+0x388>)
 8004634:	1c10      	adds	r0, r2, #0
 8004636:	4798      	blx	r3
 8004638:	e218      	b.n	8004a6c <CTR+0x51c>
        }
        
        else if ((wEPVal & EP_CTR_RX) != 0)
 800463a:	1d3b      	adds	r3, r7, #4
 800463c:	881b      	ldrh	r3, [r3, #0]
 800463e:	b29b      	uxth	r3, r3
 8004640:	b29b      	uxth	r3, r3
 8004642:	b21b      	sxth	r3, r3
 8004644:	2b00      	cmp	r3, #0
 8004646:	db00      	blt.n	800464a <CTR+0xfa>
 8004648:	e210      	b.n	8004a6c <CTR+0x51c>
        {
          _ClearEP_CTR_RX(ENDP0);
 800464a:	4b9f      	ldr	r3, [pc, #636]	; (80048c8 <CTR+0x378>)
 800464c:	4a9e      	ldr	r2, [pc, #632]	; (80048c8 <CTR+0x378>)
 800464e:	6812      	ldr	r2, [r2, #0]
 8004650:	b292      	uxth	r2, r2
 8004652:	1c11      	adds	r1, r2, #0
 8004654:	4aa3      	ldr	r2, [pc, #652]	; (80048e4 <CTR+0x394>)
 8004656:	400a      	ands	r2, r1
 8004658:	601a      	str	r2, [r3, #0]
          /* Get Control Data OUT Packet*/
          ep->xfer_count = GetEPRxCount(ep->num);
 800465a:	68fb      	ldr	r3, [r7, #12]
 800465c:	781b      	ldrb	r3, [r3, #0]
 800465e:	1c18      	adds	r0, r3, #0
 8004660:	f001 f960 	bl	8005924 <GetEPRxCount>
 8004664:	1c03      	adds	r3, r0, #0
 8004666:	1c1a      	adds	r2, r3, #0
 8004668:	68fb      	ldr	r3, [r7, #12]
 800466a:	619a      	str	r2, [r3, #24]
          
          if (ep->xfer_count != 0)
 800466c:	68fb      	ldr	r3, [r7, #12]
 800466e:	699b      	ldr	r3, [r3, #24]
 8004670:	2b00      	cmp	r3, #0
 8004672:	d012      	beq.n	800469a <CTR+0x14a>
          {
            PMAToUserBufferCopy(ep->xfer_buff, ep->pmaadress, ep->xfer_count);
 8004674:	68fb      	ldr	r3, [r7, #12]
 8004676:	6919      	ldr	r1, [r3, #16]
 8004678:	68fb      	ldr	r3, [r7, #12]
 800467a:	889a      	ldrh	r2, [r3, #4]
 800467c:	68fb      	ldr	r3, [r7, #12]
 800467e:	699b      	ldr	r3, [r3, #24]
 8004680:	b29b      	uxth	r3, r3
 8004682:	1c08      	adds	r0, r1, #0
 8004684:	1c11      	adds	r1, r2, #0
 8004686:	1c1a      	adds	r2, r3, #0
 8004688:	f001 fb1e 	bl	8005cc8 <PMAToUserBufferCopy>
            ep->xfer_buff+=ep->xfer_count;
 800468c:	68fb      	ldr	r3, [r7, #12]
 800468e:	691a      	ldr	r2, [r3, #16]
 8004690:	68fb      	ldr	r3, [r7, #12]
 8004692:	699b      	ldr	r3, [r3, #24]
 8004694:	18d2      	adds	r2, r2, r3
 8004696:	68fb      	ldr	r3, [r7, #12]
 8004698:	611a      	str	r2, [r3, #16]
          }
          
          /* Process Control Data OUT Packet*/
          USBD_DCD_INT_fops->DataOutStage(&USB_Device_dev, 0x00);
 800469a:	4b8e      	ldr	r3, [pc, #568]	; (80048d4 <CTR+0x384>)
 800469c:	681b      	ldr	r3, [r3, #0]
 800469e:	681b      	ldr	r3, [r3, #0]
 80046a0:	4a8d      	ldr	r2, [pc, #564]	; (80048d8 <CTR+0x388>)
 80046a2:	1c10      	adds	r0, r2, #0
 80046a4:	2100      	movs	r1, #0
 80046a6:	4798      	blx	r3
          
          _SetEPRxCount(ENDP0, ep->maxpacket);
 80046a8:	4b8f      	ldr	r3, [pc, #572]	; (80048e8 <CTR+0x398>)
 80046aa:	681b      	ldr	r3, [r3, #0]
 80046ac:	b29b      	uxth	r3, r3
 80046ae:	498f      	ldr	r1, [pc, #572]	; (80048ec <CTR+0x39c>)
 80046b0:	185b      	adds	r3, r3, r1
 80046b2:	60bb      	str	r3, [r7, #8]
 80046b4:	68fb      	ldr	r3, [r7, #12]
 80046b6:	68db      	ldr	r3, [r3, #12]
 80046b8:	2b3e      	cmp	r3, #62	; 0x3e
 80046ba:	d91d      	bls.n	80046f8 <CTR+0x1a8>
 80046bc:	68fb      	ldr	r3, [r7, #12]
 80046be:	68db      	ldr	r3, [r3, #12]
 80046c0:	095a      	lsrs	r2, r3, #5
 80046c2:	1c3b      	adds	r3, r7, #0
 80046c4:	3314      	adds	r3, #20
 80046c6:	801a      	strh	r2, [r3, #0]
 80046c8:	68fb      	ldr	r3, [r7, #12]
 80046ca:	68da      	ldr	r2, [r3, #12]
 80046cc:	231f      	movs	r3, #31
 80046ce:	4013      	ands	r3, r2
 80046d0:	d106      	bne.n	80046e0 <CTR+0x190>
 80046d2:	1c3b      	adds	r3, r7, #0
 80046d4:	3314      	adds	r3, #20
 80046d6:	881a      	ldrh	r2, [r3, #0]
 80046d8:	1c3b      	adds	r3, r7, #0
 80046da:	3314      	adds	r3, #20
 80046dc:	3a01      	subs	r2, #1
 80046de:	801a      	strh	r2, [r3, #0]
 80046e0:	1c3b      	adds	r3, r7, #0
 80046e2:	3314      	adds	r3, #20
 80046e4:	881b      	ldrh	r3, [r3, #0]
 80046e6:	029b      	lsls	r3, r3, #10
 80046e8:	b29b      	uxth	r3, r3
 80046ea:	4a81      	ldr	r2, [pc, #516]	; (80048f0 <CTR+0x3a0>)
 80046ec:	4313      	orrs	r3, r2
 80046ee:	b29b      	uxth	r3, r3
 80046f0:	b29a      	uxth	r2, r3
 80046f2:	68bb      	ldr	r3, [r7, #8]
 80046f4:	801a      	strh	r2, [r3, #0]
 80046f6:	e018      	b.n	800472a <CTR+0x1da>
 80046f8:	68fb      	ldr	r3, [r7, #12]
 80046fa:	68db      	ldr	r3, [r3, #12]
 80046fc:	085a      	lsrs	r2, r3, #1
 80046fe:	1c3b      	adds	r3, r7, #0
 8004700:	3314      	adds	r3, #20
 8004702:	801a      	strh	r2, [r3, #0]
 8004704:	68fb      	ldr	r3, [r7, #12]
 8004706:	68da      	ldr	r2, [r3, #12]
 8004708:	2301      	movs	r3, #1
 800470a:	4013      	ands	r3, r2
 800470c:	d006      	beq.n	800471c <CTR+0x1cc>
 800470e:	1c3b      	adds	r3, r7, #0
 8004710:	3314      	adds	r3, #20
 8004712:	881a      	ldrh	r2, [r3, #0]
 8004714:	1c3b      	adds	r3, r7, #0
 8004716:	3314      	adds	r3, #20
 8004718:	3201      	adds	r2, #1
 800471a:	801a      	strh	r2, [r3, #0]
 800471c:	1c3b      	adds	r3, r7, #0
 800471e:	3314      	adds	r3, #20
 8004720:	881b      	ldrh	r3, [r3, #0]
 8004722:	029b      	lsls	r3, r3, #10
 8004724:	b29a      	uxth	r2, r3
 8004726:	68bb      	ldr	r3, [r7, #8]
 8004728:	801a      	strh	r2, [r3, #0]
          _SetEPRxStatus(ENDP0,EP_RX_VALID);
 800472a:	4b67      	ldr	r3, [pc, #412]	; (80048c8 <CTR+0x378>)
 800472c:	681b      	ldr	r3, [r3, #0]
 800472e:	b29a      	uxth	r2, r3
 8004730:	4b70      	ldr	r3, [pc, #448]	; (80048f4 <CTR+0x3a4>)
 8004732:	4013      	ands	r3, r2
 8004734:	b29c      	uxth	r4, r3
 8004736:	2380      	movs	r3, #128	; 0x80
 8004738:	015b      	lsls	r3, r3, #5
 800473a:	4063      	eors	r3, r4
 800473c:	b29c      	uxth	r4, r3
 800473e:	2380      	movs	r3, #128	; 0x80
 8004740:	019b      	lsls	r3, r3, #6
 8004742:	4063      	eors	r3, r4
 8004744:	b29c      	uxth	r4, r3
 8004746:	4b60      	ldr	r3, [pc, #384]	; (80048c8 <CTR+0x378>)
 8004748:	4a6b      	ldr	r2, [pc, #428]	; (80048f8 <CTR+0x3a8>)
 800474a:	4322      	orrs	r2, r4
 800474c:	b292      	uxth	r2, r2
 800474e:	601a      	str	r2, [r3, #0]
 8004750:	e18c      	b.n	8004a6c <CTR+0x51c>
    {
      
      /* Decode and service non control endpoints interrupt  */
      
      /* process related endpoint register */
      wEPVal = _GetENDPOINT(EPindex);
 8004752:	1c3b      	adds	r3, r7, #0
 8004754:	3313      	adds	r3, #19
 8004756:	781b      	ldrb	r3, [r3, #0]
 8004758:	009b      	lsls	r3, r3, #2
 800475a:	4a5b      	ldr	r2, [pc, #364]	; (80048c8 <CTR+0x378>)
 800475c:	189b      	adds	r3, r3, r2
 800475e:	681b      	ldr	r3, [r3, #0]
 8004760:	b29a      	uxth	r2, r3
 8004762:	1d3b      	adds	r3, r7, #4
 8004764:	801a      	strh	r2, [r3, #0]
      if ((wEPVal & EP_CTR_RX) != 0)
 8004766:	1d3b      	adds	r3, r7, #4
 8004768:	881b      	ldrh	r3, [r3, #0]
 800476a:	b29b      	uxth	r3, r3
 800476c:	b29b      	uxth	r3, r3
 800476e:	b21b      	sxth	r3, r3
 8004770:	2b00      	cmp	r3, #0
 8004772:	db00      	blt.n	8004776 <CTR+0x226>
 8004774:	e0cc      	b.n	8004910 <CTR+0x3c0>
      {  
        /* clear int flag */
        _ClearEP_CTR_RX(EPindex);
 8004776:	1c3b      	adds	r3, r7, #0
 8004778:	3313      	adds	r3, #19
 800477a:	781b      	ldrb	r3, [r3, #0]
 800477c:	009b      	lsls	r3, r3, #2
 800477e:	4952      	ldr	r1, [pc, #328]	; (80048c8 <CTR+0x378>)
 8004780:	185b      	adds	r3, r3, r1
 8004782:	1c3a      	adds	r2, r7, #0
 8004784:	3213      	adds	r2, #19
 8004786:	7812      	ldrb	r2, [r2, #0]
 8004788:	0092      	lsls	r2, r2, #2
 800478a:	494f      	ldr	r1, [pc, #316]	; (80048c8 <CTR+0x378>)
 800478c:	1852      	adds	r2, r2, r1
 800478e:	6812      	ldr	r2, [r2, #0]
 8004790:	b292      	uxth	r2, r2
 8004792:	1c11      	adds	r1, r2, #0
 8004794:	4a53      	ldr	r2, [pc, #332]	; (80048e4 <CTR+0x394>)
 8004796:	400a      	ands	r2, r1
 8004798:	601a      	str	r2, [r3, #0]
        ep = &((&USB_Device_dev)->dev.out_ep[EPindex]);
 800479a:	1c3b      	adds	r3, r7, #0
 800479c:	3313      	adds	r3, #19
 800479e:	781a      	ldrb	r2, [r3, #0]
 80047a0:	1c13      	adds	r3, r2, #0
 80047a2:	009b      	lsls	r3, r3, #2
 80047a4:	189b      	adds	r3, r3, r2
 80047a6:	00db      	lsls	r3, r3, #3
 80047a8:	1c1a      	adds	r2, r3, #0
 80047aa:	32b8      	adds	r2, #184	; 0xb8
 80047ac:	4b4a      	ldr	r3, [pc, #296]	; (80048d8 <CTR+0x388>)
 80047ae:	18d3      	adds	r3, r2, r3
 80047b0:	60fb      	str	r3, [r7, #12]
        
        /* OUT double Buffering*/
        if (ep->doublebuffer == 0)
 80047b2:	68fb      	ldr	r3, [r7, #12]
 80047b4:	7a9b      	ldrb	r3, [r3, #10]
 80047b6:	2b00      	cmp	r3, #0
 80047b8:	d11a      	bne.n	80047f0 <CTR+0x2a0>
        {
          count = GetEPRxCount(ep->num);
 80047ba:	68fb      	ldr	r3, [r7, #12]
 80047bc:	781b      	ldrb	r3, [r3, #0]
 80047be:	1c3c      	adds	r4, r7, #0
 80047c0:	3416      	adds	r4, #22
 80047c2:	1c18      	adds	r0, r3, #0
 80047c4:	f001 f8ae 	bl	8005924 <GetEPRxCount>
 80047c8:	1c03      	adds	r3, r0, #0
 80047ca:	8023      	strh	r3, [r4, #0]
          if (count != 0)
 80047cc:	1c3b      	adds	r3, r7, #0
 80047ce:	3316      	adds	r3, #22
 80047d0:	881b      	ldrh	r3, [r3, #0]
 80047d2:	2b00      	cmp	r3, #0
 80047d4:	d052      	beq.n	800487c <CTR+0x32c>
          {
            PMAToUserBufferCopy(ep->xfer_buff, ep->pmaadress, count);
 80047d6:	68fb      	ldr	r3, [r7, #12]
 80047d8:	6919      	ldr	r1, [r3, #16]
 80047da:	68fb      	ldr	r3, [r7, #12]
 80047dc:	889a      	ldrh	r2, [r3, #4]
 80047de:	1c3b      	adds	r3, r7, #0
 80047e0:	3316      	adds	r3, #22
 80047e2:	881b      	ldrh	r3, [r3, #0]
 80047e4:	1c08      	adds	r0, r1, #0
 80047e6:	1c11      	adds	r1, r2, #0
 80047e8:	1c1a      	adds	r2, r3, #0
 80047ea:	f001 fa6d 	bl	8005cc8 <PMAToUserBufferCopy>
 80047ee:	e045      	b.n	800487c <CTR+0x32c>
          }
        }
        else
        {
          if (GetENDPOINT(ep->num) & EP_DTOG_RX)
 80047f0:	68fb      	ldr	r3, [r7, #12]
 80047f2:	781b      	ldrb	r3, [r3, #0]
 80047f4:	1c18      	adds	r0, r3, #0
 80047f6:	f000 fe4f 	bl	8005498 <GetENDPOINT>
 80047fa:	1c03      	adds	r3, r0, #0
 80047fc:	1c1a      	adds	r2, r3, #0
 80047fe:	2380      	movs	r3, #128	; 0x80
 8004800:	01db      	lsls	r3, r3, #7
 8004802:	4013      	ands	r3, r2
 8004804:	d01a      	beq.n	800483c <CTR+0x2ec>
          {
            /*read from endpoint BUF0Addr buffer*/
            count = GetEPDblBuf0Count(ep->num);
 8004806:	68fb      	ldr	r3, [r7, #12]
 8004808:	781b      	ldrb	r3, [r3, #0]
 800480a:	1c3c      	adds	r4, r7, #0
 800480c:	3416      	adds	r4, #22
 800480e:	1c18      	adds	r0, r3, #0
 8004810:	f001 f9a2 	bl	8005b58 <GetEPDblBuf0Count>
 8004814:	1c03      	adds	r3, r0, #0
 8004816:	8023      	strh	r3, [r4, #0]
            if (count != 0)
 8004818:	1c3b      	adds	r3, r7, #0
 800481a:	3316      	adds	r3, #22
 800481c:	881b      	ldrh	r3, [r3, #0]
 800481e:	2b00      	cmp	r3, #0
 8004820:	d026      	beq.n	8004870 <CTR+0x320>
            {
              PMAToUserBufferCopy(ep->xfer_buff, ep->pmaaddr0, count);
 8004822:	68fb      	ldr	r3, [r7, #12]
 8004824:	6919      	ldr	r1, [r3, #16]
 8004826:	68fb      	ldr	r3, [r7, #12]
 8004828:	88da      	ldrh	r2, [r3, #6]
 800482a:	1c3b      	adds	r3, r7, #0
 800482c:	3316      	adds	r3, #22
 800482e:	881b      	ldrh	r3, [r3, #0]
 8004830:	1c08      	adds	r0, r1, #0
 8004832:	1c11      	adds	r1, r2, #0
 8004834:	1c1a      	adds	r2, r3, #0
 8004836:	f001 fa47 	bl	8005cc8 <PMAToUserBufferCopy>
 800483a:	e019      	b.n	8004870 <CTR+0x320>
            }
          }
          else
          {
            /*read from endpoint BUF1Addr buffer*/
            count = GetEPDblBuf1Count(ep->num);
 800483c:	68fb      	ldr	r3, [r7, #12]
 800483e:	781b      	ldrb	r3, [r3, #0]
 8004840:	1c3c      	adds	r4, r7, #0
 8004842:	3416      	adds	r4, #22
 8004844:	1c18      	adds	r0, r3, #0
 8004846:	f001 f9a3 	bl	8005b90 <GetEPDblBuf1Count>
 800484a:	1c03      	adds	r3, r0, #0
 800484c:	8023      	strh	r3, [r4, #0]
            if (count != 0)
 800484e:	1c3b      	adds	r3, r7, #0
 8004850:	3316      	adds	r3, #22
 8004852:	881b      	ldrh	r3, [r3, #0]
 8004854:	2b00      	cmp	r3, #0
 8004856:	d00b      	beq.n	8004870 <CTR+0x320>
            {
              PMAToUserBufferCopy(ep->xfer_buff, ep->pmaaddr1, count);
 8004858:	68fb      	ldr	r3, [r7, #12]
 800485a:	6919      	ldr	r1, [r3, #16]
 800485c:	68fb      	ldr	r3, [r7, #12]
 800485e:	891a      	ldrh	r2, [r3, #8]
 8004860:	1c3b      	adds	r3, r7, #0
 8004862:	3316      	adds	r3, #22
 8004864:	881b      	ldrh	r3, [r3, #0]
 8004866:	1c08      	adds	r0, r1, #0
 8004868:	1c11      	adds	r1, r2, #0
 800486a:	1c1a      	adds	r2, r3, #0
 800486c:	f001 fa2c 	bl	8005cc8 <PMAToUserBufferCopy>
            }
          }
          FreeUserBuffer(ep->num, EP_DBUF_OUT);  
 8004870:	68fb      	ldr	r3, [r7, #12]
 8004872:	781b      	ldrb	r3, [r3, #0]
 8004874:	1c18      	adds	r0, r3, #0
 8004876:	2100      	movs	r1, #0
 8004878:	f001 f9a6 	bl	8005bc8 <FreeUserBuffer>
        }
        /*multi-packet on the NON control OUT endpoint*/
        ep->xfer_count+=count;
 800487c:	68fb      	ldr	r3, [r7, #12]
 800487e:	699a      	ldr	r2, [r3, #24]
 8004880:	1c3b      	adds	r3, r7, #0
 8004882:	3316      	adds	r3, #22
 8004884:	881b      	ldrh	r3, [r3, #0]
 8004886:	18d2      	adds	r2, r2, r3
 8004888:	68fb      	ldr	r3, [r7, #12]
 800488a:	619a      	str	r2, [r3, #24]
        ep->xfer_buff+=count;
 800488c:	68fb      	ldr	r3, [r7, #12]
 800488e:	691a      	ldr	r2, [r3, #16]
 8004890:	1c3b      	adds	r3, r7, #0
 8004892:	3316      	adds	r3, #22
 8004894:	881b      	ldrh	r3, [r3, #0]
 8004896:	18d2      	adds	r2, r2, r3
 8004898:	68fb      	ldr	r3, [r7, #12]
 800489a:	611a      	str	r2, [r3, #16]
       
        if ((ep->xfer_len == 0) || (count < ep->maxpacket))
 800489c:	68fb      	ldr	r3, [r7, #12]
 800489e:	695b      	ldr	r3, [r3, #20]
 80048a0:	2b00      	cmp	r3, #0
 80048a2:	d006      	beq.n	80048b2 <CTR+0x362>
 80048a4:	1c3b      	adds	r3, r7, #0
 80048a6:	3316      	adds	r3, #22
 80048a8:	881a      	ldrh	r2, [r3, #0]
 80048aa:	68fb      	ldr	r3, [r7, #12]
 80048ac:	68db      	ldr	r3, [r3, #12]
 80048ae:	429a      	cmp	r2, r3
 80048b0:	d224      	bcs.n	80048fc <CTR+0x3ac>
        {
          /* RX COMPLETE */
          USBD_DCD_INT_fops->DataOutStage(&USB_Device_dev, ep->num);
 80048b2:	4b08      	ldr	r3, [pc, #32]	; (80048d4 <CTR+0x384>)
 80048b4:	681b      	ldr	r3, [r3, #0]
 80048b6:	681b      	ldr	r3, [r3, #0]
 80048b8:	68fa      	ldr	r2, [r7, #12]
 80048ba:	7812      	ldrb	r2, [r2, #0]
 80048bc:	4906      	ldr	r1, [pc, #24]	; (80048d8 <CTR+0x388>)
 80048be:	1c08      	adds	r0, r1, #0
 80048c0:	1c11      	adds	r1, r2, #0
 80048c2:	4798      	blx	r3
 80048c4:	e024      	b.n	8004910 <CTR+0x3c0>
 80048c6:	46c0      	nop			; (mov r8, r8)
 80048c8:	40005c00 	.word	0x40005c00
 80048cc:	00008f0f 	.word	0x00008f0f
 80048d0:	20000274 	.word	0x20000274
 80048d4:	20000090 	.word	0x20000090
 80048d8:	2000025c 	.word	0x2000025c
 80048dc:	20000314 	.word	0x20000314
 80048e0:	2000026c 	.word	0x2000026c
 80048e4:	00000f8f 	.word	0x00000f8f
 80048e8:	40005c50 	.word	0x40005c50
 80048ec:	40006006 	.word	0x40006006
 80048f0:	ffff8000 	.word	0xffff8000
 80048f4:	ffffbf8f 	.word	0xffffbf8f
 80048f8:	ffff8080 	.word	0xffff8080
        }
        else
        {
          DCD_EP_PrepareRx (&USB_Device_dev,ep->num, ep->xfer_buff, ep->xfer_len);
 80048fc:	68fb      	ldr	r3, [r7, #12]
 80048fe:	7819      	ldrb	r1, [r3, #0]
 8004900:	68fb      	ldr	r3, [r7, #12]
 8004902:	691a      	ldr	r2, [r3, #16]
 8004904:	68fb      	ldr	r3, [r7, #12]
 8004906:	695b      	ldr	r3, [r3, #20]
 8004908:	b29b      	uxth	r3, r3
 800490a:	485f      	ldr	r0, [pc, #380]	; (8004a88 <CTR+0x538>)
 800490c:	f000 fb88 	bl	8005020 <DCD_EP_PrepareRx>
        }
        
      } /* if((wEPVal & EP_CTR_RX) */
      
      if ((wEPVal & EP_CTR_TX) != 0)
 8004910:	1d3b      	adds	r3, r7, #4
 8004912:	881b      	ldrh	r3, [r3, #0]
 8004914:	b29b      	uxth	r3, r3
 8004916:	1c1a      	adds	r2, r3, #0
 8004918:	2380      	movs	r3, #128	; 0x80
 800491a:	4013      	ands	r3, r2
 800491c:	d100      	bne.n	8004920 <CTR+0x3d0>
 800491e:	e0a5      	b.n	8004a6c <CTR+0x51c>
      {
        ep = &((&USB_Device_dev)->dev.in_ep[EPindex]);
 8004920:	1c3b      	adds	r3, r7, #0
 8004922:	3313      	adds	r3, #19
 8004924:	781a      	ldrb	r2, [r3, #0]
 8004926:	1c13      	adds	r3, r2, #0
 8004928:	009b      	lsls	r3, r3, #2
 800492a:	189b      	adds	r3, r3, r2
 800492c:	00db      	lsls	r3, r3, #3
 800492e:	1c1a      	adds	r2, r3, #0
 8004930:	3218      	adds	r2, #24
 8004932:	4b55      	ldr	r3, [pc, #340]	; (8004a88 <CTR+0x538>)
 8004934:	18d3      	adds	r3, r2, r3
 8004936:	60fb      	str	r3, [r7, #12]
        
        /* clear int flag */
        _ClearEP_CTR_TX(EPindex);
 8004938:	1c3b      	adds	r3, r7, #0
 800493a:	3313      	adds	r3, #19
 800493c:	781b      	ldrb	r3, [r3, #0]
 800493e:	009b      	lsls	r3, r3, #2
 8004940:	4a52      	ldr	r2, [pc, #328]	; (8004a8c <CTR+0x53c>)
 8004942:	189b      	adds	r3, r3, r2
 8004944:	1c3a      	adds	r2, r7, #0
 8004946:	3213      	adds	r2, #19
 8004948:	7812      	ldrb	r2, [r2, #0]
 800494a:	0092      	lsls	r2, r2, #2
 800494c:	494f      	ldr	r1, [pc, #316]	; (8004a8c <CTR+0x53c>)
 800494e:	1852      	adds	r2, r2, r1
 8004950:	6812      	ldr	r2, [r2, #0]
 8004952:	b292      	uxth	r2, r2
 8004954:	1c11      	adds	r1, r2, #0
 8004956:	4a4e      	ldr	r2, [pc, #312]	; (8004a90 <CTR+0x540>)
 8004958:	400a      	ands	r2, r1
 800495a:	601a      	str	r2, [r3, #0]
        
        /* IN double Buffering*/
        if (ep->doublebuffer == 0)
 800495c:	68fb      	ldr	r3, [r7, #12]
 800495e:	7a9b      	ldrb	r3, [r3, #10]
 8004960:	2b00      	cmp	r3, #0
 8004962:	d119      	bne.n	8004998 <CTR+0x448>
        {
          ep->xfer_count = GetEPTxCount(ep->num);
 8004964:	68fb      	ldr	r3, [r7, #12]
 8004966:	781b      	ldrb	r3, [r3, #0]
 8004968:	1c18      	adds	r0, r3, #0
 800496a:	f000 ffbf 	bl	80058ec <GetEPTxCount>
 800496e:	1c03      	adds	r3, r0, #0
 8004970:	1c1a      	adds	r2, r3, #0
 8004972:	68fb      	ldr	r3, [r7, #12]
 8004974:	619a      	str	r2, [r3, #24]
          if (ep->xfer_count != 0)
 8004976:	68fb      	ldr	r3, [r7, #12]
 8004978:	699b      	ldr	r3, [r3, #24]
 800497a:	2b00      	cmp	r3, #0
 800497c:	d04f      	beq.n	8004a1e <CTR+0x4ce>
          {
            UserToPMABufferCopy(ep->xfer_buff, ep->pmaadress, ep->xfer_count);
 800497e:	68fb      	ldr	r3, [r7, #12]
 8004980:	6919      	ldr	r1, [r3, #16]
 8004982:	68fb      	ldr	r3, [r7, #12]
 8004984:	889a      	ldrh	r2, [r3, #4]
 8004986:	68fb      	ldr	r3, [r7, #12]
 8004988:	699b      	ldr	r3, [r3, #24]
 800498a:	b29b      	uxth	r3, r3
 800498c:	1c08      	adds	r0, r1, #0
 800498e:	1c11      	adds	r1, r2, #0
 8004990:	1c1a      	adds	r2, r3, #0
 8004992:	f001 f95b 	bl	8005c4c <UserToPMABufferCopy>
 8004996:	e042      	b.n	8004a1e <CTR+0x4ce>
          }
        }
        else
        {
          if (GetENDPOINT(ep->num) & EP_DTOG_TX)
 8004998:	68fb      	ldr	r3, [r7, #12]
 800499a:	781b      	ldrb	r3, [r3, #0]
 800499c:	1c18      	adds	r0, r3, #0
 800499e:	f000 fd7b 	bl	8005498 <GetENDPOINT>
 80049a2:	1c03      	adds	r3, r0, #0
 80049a4:	1c1a      	adds	r2, r3, #0
 80049a6:	2340      	movs	r3, #64	; 0x40
 80049a8:	4013      	ands	r3, r2
 80049aa:	d019      	beq.n	80049e0 <CTR+0x490>
          {
            /*read from endpoint BUF0Addr buffer*/
            ep->xfer_count = GetEPDblBuf0Count(ep->num);
 80049ac:	68fb      	ldr	r3, [r7, #12]
 80049ae:	781b      	ldrb	r3, [r3, #0]
 80049b0:	1c18      	adds	r0, r3, #0
 80049b2:	f001 f8d1 	bl	8005b58 <GetEPDblBuf0Count>
 80049b6:	1c03      	adds	r3, r0, #0
 80049b8:	1c1a      	adds	r2, r3, #0
 80049ba:	68fb      	ldr	r3, [r7, #12]
 80049bc:	619a      	str	r2, [r3, #24]
            if (ep->xfer_count != 0)
 80049be:	68fb      	ldr	r3, [r7, #12]
 80049c0:	699b      	ldr	r3, [r3, #24]
 80049c2:	2b00      	cmp	r3, #0
 80049c4:	d025      	beq.n	8004a12 <CTR+0x4c2>
            {
              UserToPMABufferCopy(ep->xfer_buff, ep->pmaaddr0, ep->xfer_count);
 80049c6:	68fb      	ldr	r3, [r7, #12]
 80049c8:	6919      	ldr	r1, [r3, #16]
 80049ca:	68fb      	ldr	r3, [r7, #12]
 80049cc:	88da      	ldrh	r2, [r3, #6]
 80049ce:	68fb      	ldr	r3, [r7, #12]
 80049d0:	699b      	ldr	r3, [r3, #24]
 80049d2:	b29b      	uxth	r3, r3
 80049d4:	1c08      	adds	r0, r1, #0
 80049d6:	1c11      	adds	r1, r2, #0
 80049d8:	1c1a      	adds	r2, r3, #0
 80049da:	f001 f937 	bl	8005c4c <UserToPMABufferCopy>
 80049de:	e018      	b.n	8004a12 <CTR+0x4c2>
            }
          }
          else
          {
            /*read from endpoint BUF1Addr buffer*/
            ep->xfer_count = GetEPDblBuf1Count(ep->num);
 80049e0:	68fb      	ldr	r3, [r7, #12]
 80049e2:	781b      	ldrb	r3, [r3, #0]
 80049e4:	1c18      	adds	r0, r3, #0
 80049e6:	f001 f8d3 	bl	8005b90 <GetEPDblBuf1Count>
 80049ea:	1c03      	adds	r3, r0, #0
 80049ec:	1c1a      	adds	r2, r3, #0
 80049ee:	68fb      	ldr	r3, [r7, #12]
 80049f0:	619a      	str	r2, [r3, #24]
            if (ep->xfer_count != 0)
 80049f2:	68fb      	ldr	r3, [r7, #12]
 80049f4:	699b      	ldr	r3, [r3, #24]
 80049f6:	2b00      	cmp	r3, #0
 80049f8:	d00b      	beq.n	8004a12 <CTR+0x4c2>
            {
              UserToPMABufferCopy(ep->xfer_buff, ep->pmaaddr1, ep->xfer_count);
 80049fa:	68fb      	ldr	r3, [r7, #12]
 80049fc:	6919      	ldr	r1, [r3, #16]
 80049fe:	68fb      	ldr	r3, [r7, #12]
 8004a00:	891a      	ldrh	r2, [r3, #8]
 8004a02:	68fb      	ldr	r3, [r7, #12]
 8004a04:	699b      	ldr	r3, [r3, #24]
 8004a06:	b29b      	uxth	r3, r3
 8004a08:	1c08      	adds	r0, r1, #0
 8004a0a:	1c11      	adds	r1, r2, #0
 8004a0c:	1c1a      	adds	r2, r3, #0
 8004a0e:	f001 f91d 	bl	8005c4c <UserToPMABufferCopy>
            }
          }
          FreeUserBuffer(ep->num, EP_DBUF_IN);  
 8004a12:	68fb      	ldr	r3, [r7, #12]
 8004a14:	781b      	ldrb	r3, [r3, #0]
 8004a16:	1c18      	adds	r0, r3, #0
 8004a18:	2101      	movs	r1, #1
 8004a1a:	f001 f8d5 	bl	8005bc8 <FreeUserBuffer>
        }
        /*multi-packet on the NON control IN endpoint*/
        ep->xfer_count =GetEPTxCount(ep->num);
 8004a1e:	68fb      	ldr	r3, [r7, #12]
 8004a20:	781b      	ldrb	r3, [r3, #0]
 8004a22:	1c18      	adds	r0, r3, #0
 8004a24:	f000 ff62 	bl	80058ec <GetEPTxCount>
 8004a28:	1c03      	adds	r3, r0, #0
 8004a2a:	1c1a      	adds	r2, r3, #0
 8004a2c:	68fb      	ldr	r3, [r7, #12]
 8004a2e:	619a      	str	r2, [r3, #24]
        ep->xfer_buff+=ep->xfer_count;
 8004a30:	68fb      	ldr	r3, [r7, #12]
 8004a32:	691a      	ldr	r2, [r3, #16]
 8004a34:	68fb      	ldr	r3, [r7, #12]
 8004a36:	699b      	ldr	r3, [r3, #24]
 8004a38:	18d2      	adds	r2, r2, r3
 8004a3a:	68fb      	ldr	r3, [r7, #12]
 8004a3c:	611a      	str	r2, [r3, #16]
       
        /* Zero Length Packet? */
        if (ep->xfer_len == 0)
 8004a3e:	68fb      	ldr	r3, [r7, #12]
 8004a40:	695b      	ldr	r3, [r3, #20]
 8004a42:	2b00      	cmp	r3, #0
 8004a44:	d109      	bne.n	8004a5a <CTR+0x50a>
        {
          /* TX COMPLETE */
          USBD_DCD_INT_fops->DataInStage(&USB_Device_dev, ep->num);
 8004a46:	4b13      	ldr	r3, [pc, #76]	; (8004a94 <CTR+0x544>)
 8004a48:	681b      	ldr	r3, [r3, #0]
 8004a4a:	685b      	ldr	r3, [r3, #4]
 8004a4c:	68fa      	ldr	r2, [r7, #12]
 8004a4e:	7812      	ldrb	r2, [r2, #0]
 8004a50:	490d      	ldr	r1, [pc, #52]	; (8004a88 <CTR+0x538>)
 8004a52:	1c08      	adds	r0, r1, #0
 8004a54:	1c11      	adds	r1, r2, #0
 8004a56:	4798      	blx	r3
 8004a58:	e008      	b.n	8004a6c <CTR+0x51c>
        }
        else
        {
          DCD_EP_Tx  (&USB_Device_dev,ep->num, ep->xfer_buff, ep->xfer_len);
 8004a5a:	68fb      	ldr	r3, [r7, #12]
 8004a5c:	7819      	ldrb	r1, [r3, #0]
 8004a5e:	68fb      	ldr	r3, [r7, #12]
 8004a60:	691a      	ldr	r2, [r3, #16]
 8004a62:	68fb      	ldr	r3, [r7, #12]
 8004a64:	695b      	ldr	r3, [r3, #20]
 8004a66:	4808      	ldr	r0, [pc, #32]	; (8004a88 <CTR+0x538>)
 8004a68:	f000 fb3c 	bl	80050e4 <DCD_EP_Tx>
  uint16_t count=0;
  uint8_t EPindex;
  volatile uint16_t wIstr;
  volatile uint16_t wEPVal = 0;
  /* stay in loop while pending interrupts */
  while (((wIstr = _GetISTR()) & ISTR_CTR) != 0)
 8004a6c:	4b0a      	ldr	r3, [pc, #40]	; (8004a98 <CTR+0x548>)
 8004a6e:	681b      	ldr	r3, [r3, #0]
 8004a70:	b29b      	uxth	r3, r3
 8004a72:	1dba      	adds	r2, r7, #6
 8004a74:	1c19      	adds	r1, r3, #0
 8004a76:	8011      	strh	r1, [r2, #0]
 8004a78:	b29b      	uxth	r3, r3
 8004a7a:	b21b      	sxth	r3, r3
 8004a7c:	2b00      	cmp	r3, #0
 8004a7e:	da00      	bge.n	8004a82 <CTR+0x532>
 8004a80:	e571      	b.n	8004566 <CTR+0x16>
      } /* if((wEPVal & EP_CTR_TX) != 0) */
      
    }/* if(EPindex == 0) else */
    
  }/* while(...) */
}
 8004a82:	46bd      	mov	sp, r7
 8004a84:	b007      	add	sp, #28
 8004a86:	bd90      	pop	{r4, r7, pc}
 8004a88:	2000025c 	.word	0x2000025c
 8004a8c:	40005c00 	.word	0x40005c00
 8004a90:	00008f0f 	.word	0x00008f0f
 8004a94:	20000090 	.word	0x20000090
 8004a98:	40005c44 	.word	0x40005c44

08004a9c <USB_Istr>:
  * @brief ISTR events interrupt service routine
  * @param  None
  * @retval None
  */
void USB_Istr(void)
{
 8004a9c:	b580      	push	{r7, lr}
 8004a9e:	b082      	sub	sp, #8
 8004aa0:	af00      	add	r7, sp, #0
  volatile uint16_t wIstr = 0;
 8004aa2:	1dbb      	adds	r3, r7, #6
 8004aa4:	2200      	movs	r2, #0
 8004aa6:	801a      	strh	r2, [r3, #0]
  
  wIstr = _GetISTR();
 8004aa8:	4b46      	ldr	r3, [pc, #280]	; (8004bc4 <USB_Istr+0x128>)
 8004aaa:	681b      	ldr	r3, [r3, #0]
 8004aac:	b29a      	uxth	r2, r3
 8004aae:	1dbb      	adds	r3, r7, #6
 8004ab0:	801a      	strh	r2, [r3, #0]
  
#if (IMR_MSK & ISTR_CTR)
  if (wIstr & ISTR_CTR & wInterrupt_Mask)
 8004ab2:	1dbb      	adds	r3, r7, #6
 8004ab4:	881b      	ldrh	r3, [r3, #0]
 8004ab6:	b29b      	uxth	r3, r3
 8004ab8:	1c1a      	adds	r2, r3, #0
 8004aba:	4b43      	ldr	r3, [pc, #268]	; (8004bc8 <USB_Istr+0x12c>)
 8004abc:	681b      	ldr	r3, [r3, #0]
 8004abe:	401a      	ands	r2, r3
 8004ac0:	2380      	movs	r3, #128	; 0x80
 8004ac2:	021b      	lsls	r3, r3, #8
 8004ac4:	4013      	ands	r3, r2
 8004ac6:	d001      	beq.n	8004acc <USB_Istr+0x30>
  {
    /* servicing of the endpoint correct transfer interrupt */
    /* clear of the CTR flag into the sub */
    CTR();
 8004ac8:	f7ff fd42 	bl	8004550 <CTR>
  }
#endif  
  /*-*-*-*-*-*-*-*-*-*-*-*-*-*-*-*-*-*-*-*-*-*-*-*-*-*-*-*-*-*-*-*-*-*-*/
#if (IMR_MSK & ISTR_RESET)
  if (wIstr & ISTR_RESET & wInterrupt_Mask)
 8004acc:	1dbb      	adds	r3, r7, #6
 8004ace:	881b      	ldrh	r3, [r3, #0]
 8004ad0:	b29b      	uxth	r3, r3
 8004ad2:	1c1a      	adds	r2, r3, #0
 8004ad4:	4b3c      	ldr	r3, [pc, #240]	; (8004bc8 <USB_Istr+0x12c>)
 8004ad6:	681b      	ldr	r3, [r3, #0]
 8004ad8:	401a      	ands	r2, r3
 8004ada:	2380      	movs	r3, #128	; 0x80
 8004adc:	00db      	lsls	r3, r3, #3
 8004ade:	4013      	ands	r3, r2
 8004ae0:	d00d      	beq.n	8004afe <USB_Istr+0x62>
  {
    _SetISTR((uint16_t)CLR_RESET);
 8004ae2:	4b38      	ldr	r3, [pc, #224]	; (8004bc4 <USB_Istr+0x128>)
 8004ae4:	4a39      	ldr	r2, [pc, #228]	; (8004bcc <USB_Istr+0x130>)
 8004ae6:	601a      	str	r2, [r3, #0]
    USBD_DCD_INT_fops->Reset(&USB_Device_dev);
 8004ae8:	4b39      	ldr	r3, [pc, #228]	; (8004bd0 <USB_Istr+0x134>)
 8004aea:	681b      	ldr	r3, [r3, #0]
 8004aec:	691b      	ldr	r3, [r3, #16]
 8004aee:	4a39      	ldr	r2, [pc, #228]	; (8004bd4 <USB_Istr+0x138>)
 8004af0:	1c10      	adds	r0, r2, #0
 8004af2:	4798      	blx	r3
    DCD_EP_SetAddress(&USB_Device_dev, 0);
 8004af4:	4b37      	ldr	r3, [pc, #220]	; (8004bd4 <USB_Istr+0x138>)
 8004af6:	1c18      	adds	r0, r3, #0
 8004af8:	2100      	movs	r1, #0
 8004afa:	f000 fc47 	bl	800538c <DCD_EP_SetAddress>
    _SetISTR((uint16_t)CLR_DOVR);
  }
#endif
  /*-*-*-*-*-*-*-*-*-*-*-*-*-*-*-*-*-*-*-*-*-*-*-*-*-*-*-*-*-*-*-*-*-*-*/
#if (IMR_MSK & ISTR_ERR)
  if (wIstr & ISTR_ERR & wInterrupt_Mask)
 8004afe:	1dbb      	adds	r3, r7, #6
 8004b00:	881b      	ldrh	r3, [r3, #0]
 8004b02:	b29b      	uxth	r3, r3
 8004b04:	1c1a      	adds	r2, r3, #0
 8004b06:	4b30      	ldr	r3, [pc, #192]	; (8004bc8 <USB_Istr+0x12c>)
 8004b08:	681b      	ldr	r3, [r3, #0]
 8004b0a:	401a      	ands	r2, r3
 8004b0c:	2380      	movs	r3, #128	; 0x80
 8004b0e:	019b      	lsls	r3, r3, #6
 8004b10:	4013      	ands	r3, r2
 8004b12:	d002      	beq.n	8004b1a <USB_Istr+0x7e>
  {
    _SetISTR((uint16_t)CLR_ERR);
 8004b14:	4b2b      	ldr	r3, [pc, #172]	; (8004bc4 <USB_Istr+0x128>)
 8004b16:	4a30      	ldr	r2, [pc, #192]	; (8004bd8 <USB_Istr+0x13c>)
 8004b18:	601a      	str	r2, [r3, #0]
  }
#endif
  /*-*-*-*-*-*-*-*-*-*-*-*-*-*-*-*-*-*-*-*-*-*-*-*-*-*-*-*-*-*-*-*-*-*-*/
#if (IMR_MSK & ISTR_WKUP)
  if (wIstr & ISTR_WKUP & wInterrupt_Mask)
 8004b1a:	1dbb      	adds	r3, r7, #6
 8004b1c:	881b      	ldrh	r3, [r3, #0]
 8004b1e:	b29b      	uxth	r3, r3
 8004b20:	1c1a      	adds	r2, r3, #0
 8004b22:	4b29      	ldr	r3, [pc, #164]	; (8004bc8 <USB_Istr+0x12c>)
 8004b24:	681b      	ldr	r3, [r3, #0]
 8004b26:	401a      	ands	r2, r3
 8004b28:	2380      	movs	r3, #128	; 0x80
 8004b2a:	015b      	lsls	r3, r3, #5
 8004b2c:	4013      	ands	r3, r2
 8004b2e:	d00b      	beq.n	8004b48 <USB_Istr+0xac>
  {
    _SetISTR((uint16_t)CLR_WKUP);
 8004b30:	4b24      	ldr	r3, [pc, #144]	; (8004bc4 <USB_Istr+0x128>)
 8004b32:	4a2a      	ldr	r2, [pc, #168]	; (8004bdc <USB_Istr+0x140>)
 8004b34:	601a      	str	r2, [r3, #0]
    
    USBD_DCD_INT_fops->Resume(&USB_Device_dev);
 8004b36:	4b26      	ldr	r3, [pc, #152]	; (8004bd0 <USB_Istr+0x134>)
 8004b38:	681b      	ldr	r3, [r3, #0]
 8004b3a:	699b      	ldr	r3, [r3, #24]
 8004b3c:	4a25      	ldr	r2, [pc, #148]	; (8004bd4 <USB_Istr+0x138>)
 8004b3e:	1c10      	adds	r0, r2, #0
 8004b40:	4798      	blx	r3
     
    /* Handle Resume state machine */  
    Resume(RESUME_EXTERNAL);
 8004b42:	2000      	movs	r0, #0
 8004b44:	f7fb fd30 	bl	80005a8 <Resume>
#endif
  }
#endif
  /*-*-*-*-*-*-*-*-*-*-*-*-*-*-*-*-*-*-*-*-*-*-*-*-*-*-*-*-*-*-*-*-*-*-*/
#if (IMR_MSK & ISTR_SUSP)
  if (wIstr & ISTR_SUSP & wInterrupt_Mask)
 8004b48:	1dbb      	adds	r3, r7, #6
 8004b4a:	881b      	ldrh	r3, [r3, #0]
 8004b4c:	b29b      	uxth	r3, r3
 8004b4e:	1c1a      	adds	r2, r3, #0
 8004b50:	4b1d      	ldr	r3, [pc, #116]	; (8004bc8 <USB_Istr+0x12c>)
 8004b52:	681b      	ldr	r3, [r3, #0]
 8004b54:	401a      	ands	r2, r3
 8004b56:	2380      	movs	r3, #128	; 0x80
 8004b58:	011b      	lsls	r3, r3, #4
 8004b5a:	4013      	ands	r3, r2
 8004b5c:	d00a      	beq.n	8004b74 <USB_Istr+0xd8>
  {
   /* clear of the ISTR bit must be done after setting of CNTR_FSUSP */
    _SetISTR((uint16_t)CLR_SUSP);
 8004b5e:	4b19      	ldr	r3, [pc, #100]	; (8004bc4 <USB_Istr+0x128>)
 8004b60:	4a1f      	ldr	r2, [pc, #124]	; (8004be0 <USB_Istr+0x144>)
 8004b62:	601a      	str	r2, [r3, #0]
    
    /* process library core layer suspend routine*/
    USBD_DCD_INT_fops->Suspend(&USB_Device_dev); 
 8004b64:	4b1a      	ldr	r3, [pc, #104]	; (8004bd0 <USB_Istr+0x134>)
 8004b66:	681b      	ldr	r3, [r3, #0]
 8004b68:	695b      	ldr	r3, [r3, #20]
 8004b6a:	4a1a      	ldr	r2, [pc, #104]	; (8004bd4 <USB_Istr+0x138>)
 8004b6c:	1c10      	adds	r0, r2, #0
 8004b6e:	4798      	blx	r3
    
    /* enter macrocell in suspend and system in low power mode when 
       USB_DEVICE_LOW_PWR_MGMT_SUPPORT defined in usb_conf.h */
    Suspend();   
 8004b70:	f7fb fcdc 	bl	800052c <Suspend>
  }
#endif
  /*-*-*-*-*-*-*-*-*-*-*-*-*-*-*-*-*-*-*-*-*-*-*-*-*-*-*-*-*-*-*-*-*-*-*/
#if (IMR_MSK & ISTR_SOF)
  if (wIstr & ISTR_SOF & wInterrupt_Mask)
 8004b74:	1dbb      	adds	r3, r7, #6
 8004b76:	881b      	ldrh	r3, [r3, #0]
 8004b78:	b29b      	uxth	r3, r3
 8004b7a:	1c1a      	adds	r2, r3, #0
 8004b7c:	4b12      	ldr	r3, [pc, #72]	; (8004bc8 <USB_Istr+0x12c>)
 8004b7e:	681b      	ldr	r3, [r3, #0]
 8004b80:	401a      	ands	r2, r3
 8004b82:	2380      	movs	r3, #128	; 0x80
 8004b84:	009b      	lsls	r3, r3, #2
 8004b86:	4013      	ands	r3, r2
 8004b88:	d008      	beq.n	8004b9c <USB_Istr+0x100>
  {
    _SetISTR((uint16_t)CLR_SOF);
 8004b8a:	4b0e      	ldr	r3, [pc, #56]	; (8004bc4 <USB_Istr+0x128>)
 8004b8c:	4a15      	ldr	r2, [pc, #84]	; (8004be4 <USB_Istr+0x148>)
 8004b8e:	601a      	str	r2, [r3, #0]
    USBD_DCD_INT_fops->SOF(&USB_Device_dev);
 8004b90:	4b0f      	ldr	r3, [pc, #60]	; (8004bd0 <USB_Istr+0x134>)
 8004b92:	681b      	ldr	r3, [r3, #0]
 8004b94:	68db      	ldr	r3, [r3, #12]
 8004b96:	4a0f      	ldr	r2, [pc, #60]	; (8004bd4 <USB_Istr+0x138>)
 8004b98:	1c10      	adds	r0, r2, #0
 8004b9a:	4798      	blx	r3
  }
#endif
  /*-*-*-*-*-*-*-*-*-*-*-*-*-*-*-*-*-*-*-*-*-*-*-*-*-*-*-*-*-*-*-*-*-*-*/
#if (IMR_MSK & ISTR_ESOF)
  if (wIstr & ISTR_ESOF & wInterrupt_Mask)
 8004b9c:	1dbb      	adds	r3, r7, #6
 8004b9e:	881b      	ldrh	r3, [r3, #0]
 8004ba0:	b29b      	uxth	r3, r3
 8004ba2:	1c1a      	adds	r2, r3, #0
 8004ba4:	4b08      	ldr	r3, [pc, #32]	; (8004bc8 <USB_Istr+0x12c>)
 8004ba6:	681b      	ldr	r3, [r3, #0]
 8004ba8:	401a      	ands	r2, r3
 8004baa:	2380      	movs	r3, #128	; 0x80
 8004bac:	005b      	lsls	r3, r3, #1
 8004bae:	4013      	ands	r3, r2
 8004bb0:	d005      	beq.n	8004bbe <USB_Istr+0x122>
  {
    /* clear ESOF flag in ISTR */
    _SetISTR((uint16_t)CLR_ESOF);
 8004bb2:	4b04      	ldr	r3, [pc, #16]	; (8004bc4 <USB_Istr+0x128>)
 8004bb4:	4a0c      	ldr	r2, [pc, #48]	; (8004be8 <USB_Istr+0x14c>)
 8004bb6:	601a      	str	r2, [r3, #0]
    
    /* resume handling timing is made with ESOFs */
    Resume(RESUME_ESOF); /* request without change of the machine state */
 8004bb8:	2007      	movs	r0, #7
 8004bba:	f7fb fcf5 	bl	80005a8 <Resume>
    STM32F072 can wakeup system from STOP mode in less than 50 us */
    Suspend();
  }
#endif
#endif
} /* USB_Istr */
 8004bbe:	46bd      	mov	sp, r7
 8004bc0:	b002      	add	sp, #8
 8004bc2:	bd80      	pop	{r7, pc}
 8004bc4:	40005c44 	.word	0x40005c44
 8004bc8:	20000178 	.word	0x20000178
 8004bcc:	0000fbff 	.word	0x0000fbff
 8004bd0:	20000090 	.word	0x20000090
 8004bd4:	2000025c 	.word	0x2000025c
 8004bd8:	0000dfff 	.word	0x0000dfff
 8004bdc:	0000efff 	.word	0x0000efff
 8004be0:	0000f7ff 	.word	0x0000f7ff
 8004be4:	0000fdff 	.word	0x0000fdff
 8004be8:	0000feff 	.word	0x0000feff

08004bec <DCD_Init>:
  * @brief Device Initialization
  * @param  pdev: device instance
  * @retval : None
  */
void DCD_Init(USB_CORE_HANDLE *pdev)
{
 8004bec:	b580      	push	{r7, lr}
 8004bee:	b082      	sub	sp, #8
 8004bf0:	af00      	add	r7, sp, #0
 8004bf2:	6078      	str	r0, [r7, #4]
  /*Device is in Default State*/
  pdev->dev.device_status = USB_DEFAULT;
 8004bf4:	687b      	ldr	r3, [r7, #4]
 8004bf6:	2201      	movs	r2, #1
 8004bf8:	709a      	strb	r2, [r3, #2]
  pdev->dev.device_address = 0;
 8004bfa:	687b      	ldr	r3, [r7, #4]
 8004bfc:	2200      	movs	r2, #0
 8004bfe:	711a      	strb	r2, [r3, #4]
  pdev->dev.DevRemoteWakeup = 0;
 8004c00:	687b      	ldr	r3, [r7, #4]
 8004c02:	2200      	movs	r2, #0
 8004c04:	609a      	str	r2, [r3, #8]
  
  pdev->dev.speed = USB_SPEED_FULL; /*kept for API compatibility reason*/
 8004c06:	687b      	ldr	r3, [r7, #4]
 8004c08:	2201      	movs	r2, #1
 8004c0a:	60da      	str	r2, [r3, #12]
  
  /*CNTR_FRES = 1*/
  SetCNTR(CNTR_FRES);
 8004c0c:	2001      	movs	r0, #1
 8004c0e:	f000 fc0f 	bl	8005430 <SetCNTR>
  
  /*CNTR_FRES = 0*/
  SetCNTR(0);
 8004c12:	2000      	movs	r0, #0
 8004c14:	f000 fc0c 	bl	8005430 <SetCNTR>
  
  /*Clear pending interrupts*/
  SetISTR(0);
 8004c18:	2000      	movs	r0, #0
 8004c1a:	f000 fc19 	bl	8005450 <SetISTR>
  
  /*Set Btable Address*/
  SetBTABLE(BTABLE_ADDRESS);
 8004c1e:	2000      	movs	r0, #0
 8004c20:	f000 fc26 	bl	8005470 <SetBTABLE>
  
  /*set wInterrupt_Mask global variable*/
  wInterrupt_Mask = CNTR_CTRM  | CNTR_WKUPM | CNTR_SUSPM | CNTR_ERRM  | CNTR_SOFM \
 8004c24:	4b06      	ldr	r3, [pc, #24]	; (8004c40 <DCD_Init+0x54>)
 8004c26:	22bf      	movs	r2, #191	; 0xbf
 8004c28:	0212      	lsls	r2, r2, #8
 8004c2a:	601a      	str	r2, [r3, #0]
  /* Enable LPM support and enable ACK answer to LPM request*/
  _SetLPMCSR(LPMCSR_LMPEN | LPMCSR_LPMACK);
#endif
 
  /*Set interrupt mask*/
  SetCNTR(wInterrupt_Mask); 
 8004c2c:	4b04      	ldr	r3, [pc, #16]	; (8004c40 <DCD_Init+0x54>)
 8004c2e:	681b      	ldr	r3, [r3, #0]
 8004c30:	b29b      	uxth	r3, r3
 8004c32:	1c18      	adds	r0, r3, #0
 8004c34:	f000 fbfc 	bl	8005430 <SetCNTR>
}
 8004c38:	46bd      	mov	sp, r7
 8004c3a:	b002      	add	sp, #8
 8004c3c:	bd80      	pop	{r7, pc}
 8004c3e:	46c0      	nop			; (mov r8, r8)
 8004c40:	20000178 	.word	0x20000178

08004c44 <DCD_PMA_Config>:
uint32_t DCD_PMA_Config(USB_CORE_HANDLE *pdev , 
                        uint16_t ep_addr,
                        uint16_t ep_kind,
                        uint32_t pmaadress)

{
 8004c44:	b580      	push	{r7, lr}
 8004c46:	b086      	sub	sp, #24
 8004c48:	af00      	add	r7, sp, #0
 8004c4a:	60f8      	str	r0, [r7, #12]
 8004c4c:	607b      	str	r3, [r7, #4]
 8004c4e:	1c3b      	adds	r3, r7, #0
 8004c50:	330a      	adds	r3, #10
 8004c52:	8019      	strh	r1, [r3, #0]
 8004c54:	1c3b      	adds	r3, r7, #0
 8004c56:	3308      	adds	r3, #8
 8004c58:	801a      	strh	r2, [r3, #0]
  USB_EP *ep;
  /* initialize ep structure*/
  if ((ep_addr & 0x80) == 0x80)
 8004c5a:	1c3b      	adds	r3, r7, #0
 8004c5c:	330a      	adds	r3, #10
 8004c5e:	881a      	ldrh	r2, [r3, #0]
 8004c60:	2380      	movs	r3, #128	; 0x80
 8004c62:	4013      	ands	r3, r2
 8004c64:	d00d      	beq.n	8004c82 <DCD_PMA_Config+0x3e>
  {
    ep = &pdev->dev.in_ep[ep_addr & 0x7F];
 8004c66:	1c3b      	adds	r3, r7, #0
 8004c68:	330a      	adds	r3, #10
 8004c6a:	881a      	ldrh	r2, [r3, #0]
 8004c6c:	237f      	movs	r3, #127	; 0x7f
 8004c6e:	401a      	ands	r2, r3
 8004c70:	1c13      	adds	r3, r2, #0
 8004c72:	009b      	lsls	r3, r3, #2
 8004c74:	189b      	adds	r3, r3, r2
 8004c76:	00db      	lsls	r3, r3, #3
 8004c78:	3318      	adds	r3, #24
 8004c7a:	68fa      	ldr	r2, [r7, #12]
 8004c7c:	18d3      	adds	r3, r2, r3
 8004c7e:	617b      	str	r3, [r7, #20]
 8004c80:	e00c      	b.n	8004c9c <DCD_PMA_Config+0x58>
  }
  else
  {
    ep = &pdev->dev.out_ep[ep_addr & 0x7F];
 8004c82:	1c3b      	adds	r3, r7, #0
 8004c84:	330a      	adds	r3, #10
 8004c86:	881a      	ldrh	r2, [r3, #0]
 8004c88:	237f      	movs	r3, #127	; 0x7f
 8004c8a:	401a      	ands	r2, r3
 8004c8c:	1c13      	adds	r3, r2, #0
 8004c8e:	009b      	lsls	r3, r3, #2
 8004c90:	189b      	adds	r3, r3, r2
 8004c92:	00db      	lsls	r3, r3, #3
 8004c94:	33b8      	adds	r3, #184	; 0xb8
 8004c96:	68fa      	ldr	r2, [r7, #12]
 8004c98:	18d3      	adds	r3, r2, r3
 8004c9a:	617b      	str	r3, [r7, #20]
  }
  
  /* Here we check if the endpoint is single or double Buffer*/
  if (ep_kind == USB_SNG_BUF)
 8004c9c:	1c3b      	adds	r3, r7, #0
 8004c9e:	3308      	adds	r3, #8
 8004ca0:	881b      	ldrh	r3, [r3, #0]
 8004ca2:	2b00      	cmp	r3, #0
 8004ca4:	d107      	bne.n	8004cb6 <DCD_PMA_Config+0x72>
  {
    /*Single Buffer*/
    ep->doublebuffer = 0;
 8004ca6:	697b      	ldr	r3, [r7, #20]
 8004ca8:	2200      	movs	r2, #0
 8004caa:	729a      	strb	r2, [r3, #10]
    /*Configure te PMA*/
    ep->pmaadress = (uint16_t)pmaadress;
 8004cac:	687b      	ldr	r3, [r7, #4]
 8004cae:	b29a      	uxth	r2, r3
 8004cb0:	697b      	ldr	r3, [r7, #20]
 8004cb2:	809a      	strh	r2, [r3, #4]
 8004cb4:	e00b      	b.n	8004cce <DCD_PMA_Config+0x8a>
  }
  else /*USB_DBL_BUF*/
  {
    /*Double Buffer Endpoint*/
    ep->doublebuffer = 1;
 8004cb6:	697b      	ldr	r3, [r7, #20]
 8004cb8:	2201      	movs	r2, #1
 8004cba:	729a      	strb	r2, [r3, #10]
    /*Configure the PMA*/
    ep->pmaaddr0 =  pmaadress & 0xFFFF;
 8004cbc:	687b      	ldr	r3, [r7, #4]
 8004cbe:	b29a      	uxth	r2, r3
 8004cc0:	697b      	ldr	r3, [r7, #20]
 8004cc2:	80da      	strh	r2, [r3, #6]
    ep->pmaaddr1 =  (pmaadress & 0xFFFF0000) >> 16;
 8004cc4:	687b      	ldr	r3, [r7, #4]
 8004cc6:	0c1b      	lsrs	r3, r3, #16
 8004cc8:	b29a      	uxth	r2, r3
 8004cca:	697b      	ldr	r3, [r7, #20]
 8004ccc:	811a      	strh	r2, [r3, #8]
  }
  
  return USB_OK; 
 8004cce:	2300      	movs	r3, #0
}
 8004cd0:	1c18      	adds	r0, r3, #0
 8004cd2:	46bd      	mov	sp, r7
 8004cd4:	b006      	add	sp, #24
 8004cd6:	bd80      	pop	{r7, pc}

08004cd8 <DCD_EP_Open>:
  */
uint32_t DCD_EP_Open(USB_CORE_HANDLE *pdev , 
                     uint16_t ep_addr,
                     uint16_t ep_mps,
                     uint8_t ep_type)
{
 8004cd8:	b580      	push	{r7, lr}
 8004cda:	b086      	sub	sp, #24
 8004cdc:	af00      	add	r7, sp, #0
 8004cde:	60f8      	str	r0, [r7, #12]
 8004ce0:	1c08      	adds	r0, r1, #0
 8004ce2:	1c11      	adds	r1, r2, #0
 8004ce4:	1c1a      	adds	r2, r3, #0
 8004ce6:	1c3b      	adds	r3, r7, #0
 8004ce8:	330a      	adds	r3, #10
 8004cea:	8018      	strh	r0, [r3, #0]
 8004cec:	1c3b      	adds	r3, r7, #0
 8004cee:	3308      	adds	r3, #8
 8004cf0:	8019      	strh	r1, [r3, #0]
 8004cf2:	1dfb      	adds	r3, r7, #7
 8004cf4:	701a      	strb	r2, [r3, #0]
  
  USB_EP *ep;
  
  /* initialize ep structure*/
  if ((ep_addr & 0x80) == 0x80)
 8004cf6:	1c3b      	adds	r3, r7, #0
 8004cf8:	330a      	adds	r3, #10
 8004cfa:	881a      	ldrh	r2, [r3, #0]
 8004cfc:	2380      	movs	r3, #128	; 0x80
 8004cfe:	4013      	ands	r3, r2
 8004d00:	d010      	beq.n	8004d24 <DCD_EP_Open+0x4c>
  {
    ep = &pdev->dev.in_ep[ep_addr & 0x7F];
 8004d02:	1c3b      	adds	r3, r7, #0
 8004d04:	330a      	adds	r3, #10
 8004d06:	881a      	ldrh	r2, [r3, #0]
 8004d08:	237f      	movs	r3, #127	; 0x7f
 8004d0a:	401a      	ands	r2, r3
 8004d0c:	1c13      	adds	r3, r2, #0
 8004d0e:	009b      	lsls	r3, r3, #2
 8004d10:	189b      	adds	r3, r3, r2
 8004d12:	00db      	lsls	r3, r3, #3
 8004d14:	3318      	adds	r3, #24
 8004d16:	68fa      	ldr	r2, [r7, #12]
 8004d18:	18d3      	adds	r3, r2, r3
 8004d1a:	617b      	str	r3, [r7, #20]
    ep->is_in = 1;
 8004d1c:	697b      	ldr	r3, [r7, #20]
 8004d1e:	2201      	movs	r2, #1
 8004d20:	705a      	strb	r2, [r3, #1]
 8004d22:	e00f      	b.n	8004d44 <DCD_EP_Open+0x6c>
  }
  else
  {
    ep = &pdev->dev.out_ep[ep_addr & 0x7F];
 8004d24:	1c3b      	adds	r3, r7, #0
 8004d26:	330a      	adds	r3, #10
 8004d28:	881a      	ldrh	r2, [r3, #0]
 8004d2a:	237f      	movs	r3, #127	; 0x7f
 8004d2c:	401a      	ands	r2, r3
 8004d2e:	1c13      	adds	r3, r2, #0
 8004d30:	009b      	lsls	r3, r3, #2
 8004d32:	189b      	adds	r3, r3, r2
 8004d34:	00db      	lsls	r3, r3, #3
 8004d36:	33b8      	adds	r3, #184	; 0xb8
 8004d38:	68fa      	ldr	r2, [r7, #12]
 8004d3a:	18d3      	adds	r3, r2, r3
 8004d3c:	617b      	str	r3, [r7, #20]
    ep->is_in = 0;
 8004d3e:	697b      	ldr	r3, [r7, #20]
 8004d40:	2200      	movs	r2, #0
 8004d42:	705a      	strb	r2, [r3, #1]
  }
  
  ep->maxpacket = ep_mps;
 8004d44:	1c3b      	adds	r3, r7, #0
 8004d46:	3308      	adds	r3, #8
 8004d48:	881a      	ldrh	r2, [r3, #0]
 8004d4a:	697b      	ldr	r3, [r7, #20]
 8004d4c:	60da      	str	r2, [r3, #12]
  ep->type = ep_type;
 8004d4e:	697b      	ldr	r3, [r7, #20]
 8004d50:	1dfa      	adds	r2, r7, #7
 8004d52:	7812      	ldrb	r2, [r2, #0]
 8004d54:	70da      	strb	r2, [r3, #3]
  ep->num   = ep_addr & 0x7F;
 8004d56:	1c3b      	adds	r3, r7, #0
 8004d58:	330a      	adds	r3, #10
 8004d5a:	881b      	ldrh	r3, [r3, #0]
 8004d5c:	b2da      	uxtb	r2, r3
 8004d5e:	237f      	movs	r3, #127	; 0x7f
 8004d60:	4013      	ands	r3, r2
 8004d62:	b2da      	uxtb	r2, r3
 8004d64:	697b      	ldr	r3, [r7, #20]
 8004d66:	701a      	strb	r2, [r3, #0]
  
  if (ep->num == 0)
 8004d68:	697b      	ldr	r3, [r7, #20]
 8004d6a:	781b      	ldrb	r3, [r3, #0]
 8004d6c:	2b00      	cmp	r3, #0
 8004d6e:	d108      	bne.n	8004d82 <DCD_EP_Open+0xaa>
  {
    /* Initialize the control transfer variables*/ 
    ep->ctl_data_len =0;
 8004d70:	697b      	ldr	r3, [r7, #20]
 8004d72:	2200      	movs	r2, #0
 8004d74:	625a      	str	r2, [r3, #36]	; 0x24
    ep->rem_data_len = 0;
 8004d76:	697b      	ldr	r3, [r7, #20]
 8004d78:	2200      	movs	r2, #0
 8004d7a:	61da      	str	r2, [r3, #28]
    ep->total_data_len = 0;
 8004d7c:	697b      	ldr	r3, [r7, #20]
 8004d7e:	2200      	movs	r2, #0
 8004d80:	621a      	str	r2, [r3, #32]
  }
  
  /* Initialize the transaction level variables */
  ep->xfer_buff = 0;
 8004d82:	697b      	ldr	r3, [r7, #20]
 8004d84:	2200      	movs	r2, #0
 8004d86:	611a      	str	r2, [r3, #16]
  ep->xfer_len = 0;
 8004d88:	697b      	ldr	r3, [r7, #20]
 8004d8a:	2200      	movs	r2, #0
 8004d8c:	615a      	str	r2, [r3, #20]
  ep->xfer_count = 0;
 8004d8e:	697b      	ldr	r3, [r7, #20]
 8004d90:	2200      	movs	r2, #0
 8004d92:	619a      	str	r2, [r3, #24]
  ep->is_stall = 0;
 8004d94:	697b      	ldr	r3, [r7, #20]
 8004d96:	2200      	movs	r2, #0
 8004d98:	709a      	strb	r2, [r3, #2]
  
  /* initialize HW */
  switch (ep->type)
 8004d9a:	697b      	ldr	r3, [r7, #20]
 8004d9c:	78db      	ldrb	r3, [r3, #3]
 8004d9e:	2b01      	cmp	r3, #1
 8004da0:	d021      	beq.n	8004de6 <DCD_EP_Open+0x10e>
 8004da2:	dc02      	bgt.n	8004daa <DCD_EP_Open+0xd2>
 8004da4:	2b00      	cmp	r3, #0
 8004da6:	d005      	beq.n	8004db4 <DCD_EP_Open+0xdc>
 8004da8:	e026      	b.n	8004df8 <DCD_EP_Open+0x120>
 8004daa:	2b02      	cmp	r3, #2
 8004dac:	d00b      	beq.n	8004dc6 <DCD_EP_Open+0xee>
 8004dae:	2b03      	cmp	r3, #3
 8004db0:	d010      	beq.n	8004dd4 <DCD_EP_Open+0xfc>
 8004db2:	e021      	b.n	8004df8 <DCD_EP_Open+0x120>
  {
  case USB_EP_CONTROL:
    SetEPType(ep->num, EP_CONTROL);
 8004db4:	697b      	ldr	r3, [r7, #20]
 8004db6:	781a      	ldrb	r2, [r3, #0]
 8004db8:	2380      	movs	r3, #128	; 0x80
 8004dba:	009b      	lsls	r3, r3, #2
 8004dbc:	1c10      	adds	r0, r2, #0
 8004dbe:	1c19      	adds	r1, r3, #0
 8004dc0:	f000 fb7e 	bl	80054c0 <SetEPType>
    break;
 8004dc4:	e018      	b.n	8004df8 <DCD_EP_Open+0x120>
  case USB_EP_BULK:
    SetEPType(ep->num, EP_BULK);
 8004dc6:	697b      	ldr	r3, [r7, #20]
 8004dc8:	781b      	ldrb	r3, [r3, #0]
 8004dca:	1c18      	adds	r0, r3, #0
 8004dcc:	2100      	movs	r1, #0
 8004dce:	f000 fb77 	bl	80054c0 <SetEPType>
    break;
 8004dd2:	e011      	b.n	8004df8 <DCD_EP_Open+0x120>
  case USB_EP_INT:
    SetEPType(ep->num, EP_INTERRUPT);
 8004dd4:	697b      	ldr	r3, [r7, #20]
 8004dd6:	781a      	ldrb	r2, [r3, #0]
 8004dd8:	23c0      	movs	r3, #192	; 0xc0
 8004dda:	00db      	lsls	r3, r3, #3
 8004ddc:	1c10      	adds	r0, r2, #0
 8004dde:	1c19      	adds	r1, r3, #0
 8004de0:	f000 fb6e 	bl	80054c0 <SetEPType>
    break;
 8004de4:	e008      	b.n	8004df8 <DCD_EP_Open+0x120>
  case USB_EP_ISOC:
    SetEPType(ep->num, EP_ISOCHRONOUS);
 8004de6:	697b      	ldr	r3, [r7, #20]
 8004de8:	781a      	ldrb	r2, [r3, #0]
 8004dea:	2380      	movs	r3, #128	; 0x80
 8004dec:	00db      	lsls	r3, r3, #3
 8004dee:	1c10      	adds	r0, r2, #0
 8004df0:	1c19      	adds	r1, r3, #0
 8004df2:	f000 fb65 	bl	80054c0 <SetEPType>
    break;
 8004df6:	46c0      	nop			; (mov r8, r8)
  } 
  
  if (ep->doublebuffer == 0) 
 8004df8:	697b      	ldr	r3, [r7, #20]
 8004dfa:	7a9b      	ldrb	r3, [r3, #10]
 8004dfc:	2b00      	cmp	r3, #0
 8004dfe:	d136      	bne.n	8004e6e <DCD_EP_Open+0x196>
  {
    if (ep->is_in)
 8004e00:	697b      	ldr	r3, [r7, #20]
 8004e02:	785b      	ldrb	r3, [r3, #1]
 8004e04:	2b00      	cmp	r3, #0
 8004e06:	d013      	beq.n	8004e30 <DCD_EP_Open+0x158>
    {
      /*Set the endpoint Transmit buffer address */
      SetEPTxAddr(ep->num, ep->pmaadress);
 8004e08:	697b      	ldr	r3, [r7, #20]
 8004e0a:	781a      	ldrb	r2, [r3, #0]
 8004e0c:	697b      	ldr	r3, [r7, #20]
 8004e0e:	889b      	ldrh	r3, [r3, #4]
 8004e10:	1c10      	adds	r0, r2, #0
 8004e12:	1c19      	adds	r1, r3, #0
 8004e14:	f000 fcb4 	bl	8005780 <SetEPTxAddr>
      ClearDTOG_TX(ep->num);
 8004e18:	697b      	ldr	r3, [r7, #20]
 8004e1a:	781b      	ldrb	r3, [r3, #0]
 8004e1c:	1c18      	adds	r0, r3, #0
 8004e1e:	f000 fc83 	bl	8005728 <ClearDTOG_TX>
      /* Configure NAK status for the Endpoint*/
      SetEPTxStatus(ep->num, EP_TX_NAK); 
 8004e22:	697b      	ldr	r3, [r7, #20]
 8004e24:	781b      	ldrb	r3, [r3, #0]
 8004e26:	1c18      	adds	r0, r3, #0
 8004e28:	2120      	movs	r1, #32
 8004e2a:	f000 fb6f 	bl	800550c <SetEPTxStatus>
 8004e2e:	e06b      	b.n	8004f08 <DCD_EP_Open+0x230>
    }
    else
    {
      /*Set the endpoint Receive buffer address */
      SetEPRxAddr(ep->num, ep->pmaadress);
 8004e30:	697b      	ldr	r3, [r7, #20]
 8004e32:	781a      	ldrb	r2, [r3, #0]
 8004e34:	697b      	ldr	r3, [r7, #20]
 8004e36:	889b      	ldrh	r3, [r3, #4]
 8004e38:	1c10      	adds	r0, r2, #0
 8004e3a:	1c19      	adds	r1, r3, #0
 8004e3c:	f000 fcc0 	bl	80057c0 <SetEPRxAddr>
      /*Set the endpoint Receive buffer counter*/
      SetEPRxCount(ep->num, ep->maxpacket);
 8004e40:	697b      	ldr	r3, [r7, #20]
 8004e42:	781a      	ldrb	r2, [r3, #0]
 8004e44:	697b      	ldr	r3, [r7, #20]
 8004e46:	68db      	ldr	r3, [r3, #12]
 8004e48:	b29b      	uxth	r3, r3
 8004e4a:	1c10      	adds	r0, r2, #0
 8004e4c:	1c19      	adds	r1, r3, #0
 8004e4e:	f000 fcf5 	bl	800583c <SetEPRxCount>
      ClearDTOG_RX(ep->num);
 8004e52:	697b      	ldr	r3, [r7, #20]
 8004e54:	781b      	ldrb	r3, [r3, #0]
 8004e56:	1c18      	adds	r0, r3, #0
 8004e58:	f000 fc38 	bl	80056cc <ClearDTOG_RX>
      /* Configure VALID status for the Endpoint*/
      SetEPRxStatus(ep->num, EP_RX_VALID);
 8004e5c:	697b      	ldr	r3, [r7, #20]
 8004e5e:	781a      	ldrb	r2, [r3, #0]
 8004e60:	23c0      	movs	r3, #192	; 0xc0
 8004e62:	019b      	lsls	r3, r3, #6
 8004e64:	1c10      	adds	r0, r2, #0
 8004e66:	1c19      	adds	r1, r3, #0
 8004e68:	f000 fb8a 	bl	8005580 <SetEPRxStatus>
 8004e6c:	e04c      	b.n	8004f08 <DCD_EP_Open+0x230>
  }
  /*Double Buffer*/
  else
  {
    /*Set the endpoint as double buffered*/
    SetEPDoubleBuff(ep->num);
 8004e6e:	697b      	ldr	r3, [r7, #20]
 8004e70:	781b      	ldrb	r3, [r3, #0]
 8004e72:	1c18      	adds	r0, r3, #0
 8004e74:	f000 fbc2 	bl	80055fc <SetEPDoubleBuff>
    /*Set buffer address for double buffered mode*/
    SetEPDblBuffAddr(ep->num,ep->pmaaddr0, ep->pmaaddr1);
 8004e78:	697b      	ldr	r3, [r7, #20]
 8004e7a:	7819      	ldrb	r1, [r3, #0]
 8004e7c:	697b      	ldr	r3, [r7, #20]
 8004e7e:	88da      	ldrh	r2, [r3, #6]
 8004e80:	697b      	ldr	r3, [r7, #20]
 8004e82:	891b      	ldrh	r3, [r3, #8]
 8004e84:	1c08      	adds	r0, r1, #0
 8004e86:	1c11      	adds	r1, r2, #0
 8004e88:	1c1a      	adds	r2, r3, #0
 8004e8a:	f000 fd67 	bl	800595c <SetEPDblBuffAddr>
    
    if (ep->is_in==0)
 8004e8e:	697b      	ldr	r3, [r7, #20]
 8004e90:	785b      	ldrb	r3, [r3, #1]
 8004e92:	2b00      	cmp	r3, #0
 8004e94:	d11d      	bne.n	8004ed2 <DCD_EP_Open+0x1fa>
    {
      /* Clear the data toggle bits for the endpoint IN/OUT*/
      ClearDTOG_RX(ep->num);
 8004e96:	697b      	ldr	r3, [r7, #20]
 8004e98:	781b      	ldrb	r3, [r3, #0]
 8004e9a:	1c18      	adds	r0, r3, #0
 8004e9c:	f000 fc16 	bl	80056cc <ClearDTOG_RX>
      ClearDTOG_TX(ep->num);
 8004ea0:	697b      	ldr	r3, [r7, #20]
 8004ea2:	781b      	ldrb	r3, [r3, #0]
 8004ea4:	1c18      	adds	r0, r3, #0
 8004ea6:	f000 fc3f 	bl	8005728 <ClearDTOG_TX>
      
      /* Reset value of the data toggle bits for the endpoint out*/
      ToggleDTOG_TX(ep->num);
 8004eaa:	697b      	ldr	r3, [r7, #20]
 8004eac:	781b      	ldrb	r3, [r3, #0]
 8004eae:	1c18      	adds	r0, r3, #0
 8004eb0:	f000 fbea 	bl	8005688 <ToggleDTOG_TX>
      
      SetEPRxStatus(ep->num, EP_RX_VALID);
 8004eb4:	697b      	ldr	r3, [r7, #20]
 8004eb6:	781a      	ldrb	r2, [r3, #0]
 8004eb8:	23c0      	movs	r3, #192	; 0xc0
 8004eba:	019b      	lsls	r3, r3, #6
 8004ebc:	1c10      	adds	r0, r2, #0
 8004ebe:	1c19      	adds	r1, r3, #0
 8004ec0:	f000 fb5e 	bl	8005580 <SetEPRxStatus>
      SetEPTxStatus(ep->num, EP_TX_DIS);
 8004ec4:	697b      	ldr	r3, [r7, #20]
 8004ec6:	781b      	ldrb	r3, [r3, #0]
 8004ec8:	1c18      	adds	r0, r3, #0
 8004eca:	2100      	movs	r1, #0
 8004ecc:	f000 fb1e 	bl	800550c <SetEPTxStatus>
 8004ed0:	e01a      	b.n	8004f08 <DCD_EP_Open+0x230>
    }
    else
    {
      /* Clear the data toggle bits for the endpoint IN/OUT*/
      ClearDTOG_RX(ep->num);
 8004ed2:	697b      	ldr	r3, [r7, #20]
 8004ed4:	781b      	ldrb	r3, [r3, #0]
 8004ed6:	1c18      	adds	r0, r3, #0
 8004ed8:	f000 fbf8 	bl	80056cc <ClearDTOG_RX>
      ClearDTOG_TX(ep->num);
 8004edc:	697b      	ldr	r3, [r7, #20]
 8004ede:	781b      	ldrb	r3, [r3, #0]
 8004ee0:	1c18      	adds	r0, r3, #0
 8004ee2:	f000 fc21 	bl	8005728 <ClearDTOG_TX>
      ToggleDTOG_RX(ep->num);
 8004ee6:	697b      	ldr	r3, [r7, #20]
 8004ee8:	781b      	ldrb	r3, [r3, #0]
 8004eea:	1c18      	adds	r0, r3, #0
 8004eec:	f000 fbaa 	bl	8005644 <ToggleDTOG_RX>
      /* Configure DISABLE status for the Endpoint*/
      SetEPTxStatus(ep->num, EP_TX_DIS);
 8004ef0:	697b      	ldr	r3, [r7, #20]
 8004ef2:	781b      	ldrb	r3, [r3, #0]
 8004ef4:	1c18      	adds	r0, r3, #0
 8004ef6:	2100      	movs	r1, #0
 8004ef8:	f000 fb08 	bl	800550c <SetEPTxStatus>
      SetEPRxStatus(ep->num, EP_RX_DIS);
 8004efc:	697b      	ldr	r3, [r7, #20]
 8004efe:	781b      	ldrb	r3, [r3, #0]
 8004f00:	1c18      	adds	r0, r3, #0
 8004f02:	2100      	movs	r1, #0
 8004f04:	f000 fb3c 	bl	8005580 <SetEPRxStatus>
    }
  } 
  return USB_OK; 
 8004f08:	2300      	movs	r3, #0
}
 8004f0a:	1c18      	adds	r0, r3, #0
 8004f0c:	46bd      	mov	sp, r7
 8004f0e:	b006      	add	sp, #24
 8004f10:	bd80      	pop	{r7, pc}
 8004f12:	46c0      	nop			; (mov r8, r8)

08004f14 <DCD_EP_Close>:
  * @param  pdev: device instance
  * @param  ep_addr: endpoint address
  * @retval : status
  */
uint32_t DCD_EP_Close(USB_CORE_HANDLE *pdev , uint8_t  ep_addr)
{
 8004f14:	b580      	push	{r7, lr}
 8004f16:	b084      	sub	sp, #16
 8004f18:	af00      	add	r7, sp, #0
 8004f1a:	6078      	str	r0, [r7, #4]
 8004f1c:	1c0a      	adds	r2, r1, #0
 8004f1e:	1cfb      	adds	r3, r7, #3
 8004f20:	701a      	strb	r2, [r3, #0]
  USB_EP *ep;
  
  if ((ep_addr&0x80) == 0x80)
 8004f22:	1cfb      	adds	r3, r7, #3
 8004f24:	781b      	ldrb	r3, [r3, #0]
 8004f26:	b25b      	sxtb	r3, r3
 8004f28:	2b00      	cmp	r3, #0
 8004f2a:	da0c      	bge.n	8004f46 <DCD_EP_Close+0x32>
  {
    ep = &pdev->dev.in_ep[ep_addr & 0x7F];
 8004f2c:	1cfb      	adds	r3, r7, #3
 8004f2e:	781a      	ldrb	r2, [r3, #0]
 8004f30:	237f      	movs	r3, #127	; 0x7f
 8004f32:	401a      	ands	r2, r3
 8004f34:	1c13      	adds	r3, r2, #0
 8004f36:	009b      	lsls	r3, r3, #2
 8004f38:	189b      	adds	r3, r3, r2
 8004f3a:	00db      	lsls	r3, r3, #3
 8004f3c:	3318      	adds	r3, #24
 8004f3e:	687a      	ldr	r2, [r7, #4]
 8004f40:	18d3      	adds	r3, r2, r3
 8004f42:	60fb      	str	r3, [r7, #12]
 8004f44:	e00b      	b.n	8004f5e <DCD_EP_Close+0x4a>
  }
  else
  {
    ep = &pdev->dev.out_ep[ep_addr & 0x7F];
 8004f46:	1cfb      	adds	r3, r7, #3
 8004f48:	781a      	ldrb	r2, [r3, #0]
 8004f4a:	237f      	movs	r3, #127	; 0x7f
 8004f4c:	401a      	ands	r2, r3
 8004f4e:	1c13      	adds	r3, r2, #0
 8004f50:	009b      	lsls	r3, r3, #2
 8004f52:	189b      	adds	r3, r3, r2
 8004f54:	00db      	lsls	r3, r3, #3
 8004f56:	33b8      	adds	r3, #184	; 0xb8
 8004f58:	687a      	ldr	r2, [r7, #4]
 8004f5a:	18d3      	adds	r3, r2, r3
 8004f5c:	60fb      	str	r3, [r7, #12]
  }
  
  if (ep->doublebuffer == 0) 
 8004f5e:	68fb      	ldr	r3, [r7, #12]
 8004f60:	7a9b      	ldrb	r3, [r3, #10]
 8004f62:	2b00      	cmp	r3, #0
 8004f64:	d11b      	bne.n	8004f9e <DCD_EP_Close+0x8a>
  {
    if (ep->is_in)
 8004f66:	68fb      	ldr	r3, [r7, #12]
 8004f68:	785b      	ldrb	r3, [r3, #1]
 8004f6a:	2b00      	cmp	r3, #0
 8004f6c:	d00b      	beq.n	8004f86 <DCD_EP_Close+0x72>
    {
      ClearDTOG_TX(ep->num);
 8004f6e:	68fb      	ldr	r3, [r7, #12]
 8004f70:	781b      	ldrb	r3, [r3, #0]
 8004f72:	1c18      	adds	r0, r3, #0
 8004f74:	f000 fbd8 	bl	8005728 <ClearDTOG_TX>
      /* Configure DISABLE status for the Endpoint*/
      SetEPTxStatus(ep->num, EP_TX_DIS); 
 8004f78:	68fb      	ldr	r3, [r7, #12]
 8004f7a:	781b      	ldrb	r3, [r3, #0]
 8004f7c:	1c18      	adds	r0, r3, #0
 8004f7e:	2100      	movs	r1, #0
 8004f80:	f000 fac4 	bl	800550c <SetEPTxStatus>
 8004f84:	e046      	b.n	8005014 <DCD_EP_Close+0x100>
    }
    else
    {
      ClearDTOG_RX(ep->num);
 8004f86:	68fb      	ldr	r3, [r7, #12]
 8004f88:	781b      	ldrb	r3, [r3, #0]
 8004f8a:	1c18      	adds	r0, r3, #0
 8004f8c:	f000 fb9e 	bl	80056cc <ClearDTOG_RX>
      /* Configure DISABLE status for the Endpoint*/
      SetEPRxStatus(ep->num, EP_RX_DIS);
 8004f90:	68fb      	ldr	r3, [r7, #12]
 8004f92:	781b      	ldrb	r3, [r3, #0]
 8004f94:	1c18      	adds	r0, r3, #0
 8004f96:	2100      	movs	r1, #0
 8004f98:	f000 faf2 	bl	8005580 <SetEPRxStatus>
 8004f9c:	e03a      	b.n	8005014 <DCD_EP_Close+0x100>
    }
  }
  /*Double Buffer*/
  else
  { 
    if (ep->is_in==0)
 8004f9e:	68fb      	ldr	r3, [r7, #12]
 8004fa0:	785b      	ldrb	r3, [r3, #1]
 8004fa2:	2b00      	cmp	r3, #0
 8004fa4:	d11b      	bne.n	8004fde <DCD_EP_Close+0xca>
    {
      /* Clear the data toggle bits for the endpoint IN/OUT*/
      ClearDTOG_RX(ep->num);
 8004fa6:	68fb      	ldr	r3, [r7, #12]
 8004fa8:	781b      	ldrb	r3, [r3, #0]
 8004faa:	1c18      	adds	r0, r3, #0
 8004fac:	f000 fb8e 	bl	80056cc <ClearDTOG_RX>
      ClearDTOG_TX(ep->num);
 8004fb0:	68fb      	ldr	r3, [r7, #12]
 8004fb2:	781b      	ldrb	r3, [r3, #0]
 8004fb4:	1c18      	adds	r0, r3, #0
 8004fb6:	f000 fbb7 	bl	8005728 <ClearDTOG_TX>
      
      /* Reset value of the data toggle bits for the endpoint out*/
      ToggleDTOG_TX(ep->num);
 8004fba:	68fb      	ldr	r3, [r7, #12]
 8004fbc:	781b      	ldrb	r3, [r3, #0]
 8004fbe:	1c18      	adds	r0, r3, #0
 8004fc0:	f000 fb62 	bl	8005688 <ToggleDTOG_TX>
      
      SetEPRxStatus(ep->num, EP_RX_DIS);
 8004fc4:	68fb      	ldr	r3, [r7, #12]
 8004fc6:	781b      	ldrb	r3, [r3, #0]
 8004fc8:	1c18      	adds	r0, r3, #0
 8004fca:	2100      	movs	r1, #0
 8004fcc:	f000 fad8 	bl	8005580 <SetEPRxStatus>
      SetEPTxStatus(ep->num, EP_TX_DIS);
 8004fd0:	68fb      	ldr	r3, [r7, #12]
 8004fd2:	781b      	ldrb	r3, [r3, #0]
 8004fd4:	1c18      	adds	r0, r3, #0
 8004fd6:	2100      	movs	r1, #0
 8004fd8:	f000 fa98 	bl	800550c <SetEPTxStatus>
 8004fdc:	e01a      	b.n	8005014 <DCD_EP_Close+0x100>
    }
    else
    {
      /* Clear the data toggle bits for the endpoint IN/OUT*/
      ClearDTOG_RX(ep->num);
 8004fde:	68fb      	ldr	r3, [r7, #12]
 8004fe0:	781b      	ldrb	r3, [r3, #0]
 8004fe2:	1c18      	adds	r0, r3, #0
 8004fe4:	f000 fb72 	bl	80056cc <ClearDTOG_RX>
      ClearDTOG_TX(ep->num);
 8004fe8:	68fb      	ldr	r3, [r7, #12]
 8004fea:	781b      	ldrb	r3, [r3, #0]
 8004fec:	1c18      	adds	r0, r3, #0
 8004fee:	f000 fb9b 	bl	8005728 <ClearDTOG_TX>
      ToggleDTOG_RX(ep->num);
 8004ff2:	68fb      	ldr	r3, [r7, #12]
 8004ff4:	781b      	ldrb	r3, [r3, #0]
 8004ff6:	1c18      	adds	r0, r3, #0
 8004ff8:	f000 fb24 	bl	8005644 <ToggleDTOG_RX>
      /* Configure DISABLE status for the Endpoint*/
      SetEPTxStatus(ep->num, EP_TX_DIS);
 8004ffc:	68fb      	ldr	r3, [r7, #12]
 8004ffe:	781b      	ldrb	r3, [r3, #0]
 8005000:	1c18      	adds	r0, r3, #0
 8005002:	2100      	movs	r1, #0
 8005004:	f000 fa82 	bl	800550c <SetEPTxStatus>
      SetEPRxStatus(ep->num, EP_RX_DIS);
 8005008:	68fb      	ldr	r3, [r7, #12]
 800500a:	781b      	ldrb	r3, [r3, #0]
 800500c:	1c18      	adds	r0, r3, #0
 800500e:	2100      	movs	r1, #0
 8005010:	f000 fab6 	bl	8005580 <SetEPRxStatus>
    }
  } 
  return USB_OK;
 8005014:	2300      	movs	r3, #0
}
 8005016:	1c18      	adds	r0, r3, #0
 8005018:	46bd      	mov	sp, r7
 800501a:	b004      	add	sp, #16
 800501c:	bd80      	pop	{r7, pc}
 800501e:	46c0      	nop			; (mov r8, r8)

08005020 <DCD_EP_PrepareRx>:
  */
uint32_t DCD_EP_PrepareRx( USB_CORE_HANDLE *pdev,
                          uint8_t   ep_addr,
                          uint8_t *pbuf,                        
                          uint16_t  buf_len)
{
 8005020:	b580      	push	{r7, lr}
 8005022:	b086      	sub	sp, #24
 8005024:	af00      	add	r7, sp, #0
 8005026:	60f8      	str	r0, [r7, #12]
 8005028:	607a      	str	r2, [r7, #4]
 800502a:	1c1a      	adds	r2, r3, #0
 800502c:	1c3b      	adds	r3, r7, #0
 800502e:	330b      	adds	r3, #11
 8005030:	7019      	strb	r1, [r3, #0]
 8005032:	1c3b      	adds	r3, r7, #0
 8005034:	3308      	adds	r3, #8
 8005036:	801a      	strh	r2, [r3, #0]
  volatile uint32_t len = 0;
 8005038:	2300      	movs	r3, #0
 800503a:	613b      	str	r3, [r7, #16]
  USB_EP *ep;
  
  ep = &pdev->dev.out_ep[ep_addr & 0x7F];
 800503c:	1c3b      	adds	r3, r7, #0
 800503e:	330b      	adds	r3, #11
 8005040:	781a      	ldrb	r2, [r3, #0]
 8005042:	237f      	movs	r3, #127	; 0x7f
 8005044:	401a      	ands	r2, r3
 8005046:	1c13      	adds	r3, r2, #0
 8005048:	009b      	lsls	r3, r3, #2
 800504a:	189b      	adds	r3, r3, r2
 800504c:	00db      	lsls	r3, r3, #3
 800504e:	33b8      	adds	r3, #184	; 0xb8
 8005050:	68fa      	ldr	r2, [r7, #12]
 8005052:	18d3      	adds	r3, r2, r3
 8005054:	617b      	str	r3, [r7, #20]
  
  /*setup and start the Xfer */
  ep->xfer_buff = pbuf;  
 8005056:	697b      	ldr	r3, [r7, #20]
 8005058:	687a      	ldr	r2, [r7, #4]
 800505a:	611a      	str	r2, [r3, #16]
  ep->xfer_len = buf_len;
 800505c:	1c3b      	adds	r3, r7, #0
 800505e:	3308      	adds	r3, #8
 8005060:	881a      	ldrh	r2, [r3, #0]
 8005062:	697b      	ldr	r3, [r7, #20]
 8005064:	615a      	str	r2, [r3, #20]
  ep->xfer_count = 0; 
 8005066:	697b      	ldr	r3, [r7, #20]
 8005068:	2200      	movs	r2, #0
 800506a:	619a      	str	r2, [r3, #24]
  
  /*Multi packet transfer*/
  if (ep->xfer_len > ep->maxpacket)
 800506c:	697b      	ldr	r3, [r7, #20]
 800506e:	695a      	ldr	r2, [r3, #20]
 8005070:	697b      	ldr	r3, [r7, #20]
 8005072:	68db      	ldr	r3, [r3, #12]
 8005074:	429a      	cmp	r2, r3
 8005076:	d909      	bls.n	800508c <DCD_EP_PrepareRx+0x6c>
  {
    len=ep->maxpacket;
 8005078:	697b      	ldr	r3, [r7, #20]
 800507a:	68db      	ldr	r3, [r3, #12]
 800507c:	613b      	str	r3, [r7, #16]
    ep->xfer_len-=len; 
 800507e:	697b      	ldr	r3, [r7, #20]
 8005080:	695a      	ldr	r2, [r3, #20]
 8005082:	693b      	ldr	r3, [r7, #16]
 8005084:	1ad2      	subs	r2, r2, r3
 8005086:	697b      	ldr	r3, [r7, #20]
 8005088:	615a      	str	r2, [r3, #20]
 800508a:	e005      	b.n	8005098 <DCD_EP_PrepareRx+0x78>
  }
  else
  {
    len=ep->xfer_len;
 800508c:	697b      	ldr	r3, [r7, #20]
 800508e:	695b      	ldr	r3, [r3, #20]
 8005090:	613b      	str	r3, [r7, #16]
    ep->xfer_len =0;
 8005092:	697b      	ldr	r3, [r7, #20]
 8005094:	2200      	movs	r2, #0
 8005096:	615a      	str	r2, [r3, #20]
  }
  
  /* configure and validate Rx endpoint */
  if (ep->doublebuffer == 0) 
 8005098:	697b      	ldr	r3, [r7, #20]
 800509a:	7a9b      	ldrb	r3, [r3, #10]
 800509c:	2b00      	cmp	r3, #0
 800509e:	d108      	bne.n	80050b2 <DCD_EP_PrepareRx+0x92>
  {
    /*Set RX buffer count*/
    SetEPRxCount(ep->num, len);
 80050a0:	697b      	ldr	r3, [r7, #20]
 80050a2:	781a      	ldrb	r2, [r3, #0]
 80050a4:	693b      	ldr	r3, [r7, #16]
 80050a6:	b29b      	uxth	r3, r3
 80050a8:	1c10      	adds	r0, r2, #0
 80050aa:	1c19      	adds	r1, r3, #0
 80050ac:	f000 fbc6 	bl	800583c <SetEPRxCount>
 80050b0:	e00a      	b.n	80050c8 <DCD_EP_PrepareRx+0xa8>
  }
  else
  {
    /*Set the Double buffer counter*/
    SetEPDblBuffCount(ep->num, ep->is_in, len);
 80050b2:	697b      	ldr	r3, [r7, #20]
 80050b4:	7819      	ldrb	r1, [r3, #0]
 80050b6:	697b      	ldr	r3, [r7, #20]
 80050b8:	785a      	ldrb	r2, [r3, #1]
 80050ba:	693b      	ldr	r3, [r7, #16]
 80050bc:	b29b      	uxth	r3, r3
 80050be:	1c08      	adds	r0, r1, #0
 80050c0:	1c11      	adds	r1, r2, #0
 80050c2:	1c1a      	adds	r2, r3, #0
 80050c4:	f000 fc7c 	bl	80059c0 <SetEPDblBuffCount>
  } 
  
  SetEPRxStatus(ep->num, EP_RX_VALID);
 80050c8:	697b      	ldr	r3, [r7, #20]
 80050ca:	781a      	ldrb	r2, [r3, #0]
 80050cc:	23c0      	movs	r3, #192	; 0xc0
 80050ce:	019b      	lsls	r3, r3, #6
 80050d0:	1c10      	adds	r0, r2, #0
 80050d2:	1c19      	adds	r1, r3, #0
 80050d4:	f000 fa54 	bl	8005580 <SetEPRxStatus>
  
  return USB_OK;
 80050d8:	2300      	movs	r3, #0
}
 80050da:	1c18      	adds	r0, r3, #0
 80050dc:	46bd      	mov	sp, r7
 80050de:	b006      	add	sp, #24
 80050e0:	bd80      	pop	{r7, pc}
 80050e2:	46c0      	nop			; (mov r8, r8)

080050e4 <DCD_EP_Tx>:
  */
uint32_t  DCD_EP_Tx ( USB_CORE_HANDLE *pdev,
                     uint8_t   ep_addr,
                     uint8_t   *pbuf,
                     uint32_t   buf_len)
{
 80050e4:	b580      	push	{r7, lr}
 80050e6:	b088      	sub	sp, #32
 80050e8:	af00      	add	r7, sp, #0
 80050ea:	60f8      	str	r0, [r7, #12]
 80050ec:	607a      	str	r2, [r7, #4]
 80050ee:	603b      	str	r3, [r7, #0]
 80050f0:	1c3b      	adds	r3, r7, #0
 80050f2:	330b      	adds	r3, #11
 80050f4:	1c0a      	adds	r2, r1, #0
 80050f6:	701a      	strb	r2, [r3, #0]
  volatile uint32_t len = 0;
 80050f8:	2300      	movs	r3, #0
 80050fa:	617b      	str	r3, [r7, #20]
  USB_EP *ep;
  
  ep = &pdev->dev.in_ep[ep_addr & 0x7F];
 80050fc:	1c3b      	adds	r3, r7, #0
 80050fe:	330b      	adds	r3, #11
 8005100:	781a      	ldrb	r2, [r3, #0]
 8005102:	237f      	movs	r3, #127	; 0x7f
 8005104:	401a      	ands	r2, r3
 8005106:	1c13      	adds	r3, r2, #0
 8005108:	009b      	lsls	r3, r3, #2
 800510a:	189b      	adds	r3, r3, r2
 800510c:	00db      	lsls	r3, r3, #3
 800510e:	3318      	adds	r3, #24
 8005110:	68fa      	ldr	r2, [r7, #12]
 8005112:	18d3      	adds	r3, r2, r3
 8005114:	61bb      	str	r3, [r7, #24]
  
  /*setup and start the Xfer */
  ep->num = ep_addr & 0x7F; 
 8005116:	1c3b      	adds	r3, r7, #0
 8005118:	330b      	adds	r3, #11
 800511a:	781a      	ldrb	r2, [r3, #0]
 800511c:	237f      	movs	r3, #127	; 0x7f
 800511e:	4013      	ands	r3, r2
 8005120:	b2da      	uxtb	r2, r3
 8005122:	69bb      	ldr	r3, [r7, #24]
 8005124:	701a      	strb	r2, [r3, #0]
  ep->xfer_buff = pbuf;  
 8005126:	69bb      	ldr	r3, [r7, #24]
 8005128:	687a      	ldr	r2, [r7, #4]
 800512a:	611a      	str	r2, [r3, #16]
  ep->xfer_len = buf_len;
 800512c:	69bb      	ldr	r3, [r7, #24]
 800512e:	683a      	ldr	r2, [r7, #0]
 8005130:	615a      	str	r2, [r3, #20]
  ep->xfer_count = 0; 
 8005132:	69bb      	ldr	r3, [r7, #24]
 8005134:	2200      	movs	r2, #0
 8005136:	619a      	str	r2, [r3, #24]
  
  /*Multi packet transfer*/
  if (ep->xfer_len > ep->maxpacket)
 8005138:	69bb      	ldr	r3, [r7, #24]
 800513a:	695a      	ldr	r2, [r3, #20]
 800513c:	69bb      	ldr	r3, [r7, #24]
 800513e:	68db      	ldr	r3, [r3, #12]
 8005140:	429a      	cmp	r2, r3
 8005142:	d909      	bls.n	8005158 <DCD_EP_Tx+0x74>
  {
    len=ep->maxpacket;
 8005144:	69bb      	ldr	r3, [r7, #24]
 8005146:	68db      	ldr	r3, [r3, #12]
 8005148:	617b      	str	r3, [r7, #20]
    ep->xfer_len-=len; 
 800514a:	69bb      	ldr	r3, [r7, #24]
 800514c:	695a      	ldr	r2, [r3, #20]
 800514e:	697b      	ldr	r3, [r7, #20]
 8005150:	1ad2      	subs	r2, r2, r3
 8005152:	69bb      	ldr	r3, [r7, #24]
 8005154:	615a      	str	r2, [r3, #20]
 8005156:	e005      	b.n	8005164 <DCD_EP_Tx+0x80>
  }
  else
  {
    len=ep->xfer_len;
 8005158:	69bb      	ldr	r3, [r7, #24]
 800515a:	695b      	ldr	r3, [r3, #20]
 800515c:	617b      	str	r3, [r7, #20]
    ep->xfer_len =0;
 800515e:	69bb      	ldr	r3, [r7, #24]
 8005160:	2200      	movs	r2, #0
 8005162:	615a      	str	r2, [r3, #20]
  }
  
  /* configure and validate Tx endpoint */
  if (ep->doublebuffer == 0) 
 8005164:	69bb      	ldr	r3, [r7, #24]
 8005166:	7a9b      	ldrb	r3, [r3, #10]
 8005168:	2b00      	cmp	r3, #0
 800516a:	d113      	bne.n	8005194 <DCD_EP_Tx+0xb0>
  {
    UserToPMABufferCopy(ep->xfer_buff, ep->pmaadress, len);
 800516c:	69bb      	ldr	r3, [r7, #24]
 800516e:	6919      	ldr	r1, [r3, #16]
 8005170:	69bb      	ldr	r3, [r7, #24]
 8005172:	889a      	ldrh	r2, [r3, #4]
 8005174:	697b      	ldr	r3, [r7, #20]
 8005176:	b29b      	uxth	r3, r3
 8005178:	1c08      	adds	r0, r1, #0
 800517a:	1c11      	adds	r1, r2, #0
 800517c:	1c1a      	adds	r2, r3, #0
 800517e:	f000 fd65 	bl	8005c4c <UserToPMABufferCopy>
    SetEPTxCount(ep->num, len);
 8005182:	69bb      	ldr	r3, [r7, #24]
 8005184:	781a      	ldrb	r2, [r3, #0]
 8005186:	697b      	ldr	r3, [r7, #20]
 8005188:	b29b      	uxth	r3, r3
 800518a:	1c10      	adds	r0, r2, #0
 800518c:	1c19      	adds	r1, r3, #0
 800518e:	f000 fb37 	bl	8005800 <SetEPTxCount>
 8005192:	e037      	b.n	8005204 <DCD_EP_Tx+0x120>
  }
  else
  {
    uint16_t pmabuffer=0;
 8005194:	1c3b      	adds	r3, r7, #0
 8005196:	331e      	adds	r3, #30
 8005198:	2200      	movs	r2, #0
 800519a:	801a      	strh	r2, [r3, #0]
    /*Set the Double buffer counter*/
    SetEPDblBuffCount(ep->num, ep->is_in, len);
 800519c:	69bb      	ldr	r3, [r7, #24]
 800519e:	7819      	ldrb	r1, [r3, #0]
 80051a0:	69bb      	ldr	r3, [r7, #24]
 80051a2:	785a      	ldrb	r2, [r3, #1]
 80051a4:	697b      	ldr	r3, [r7, #20]
 80051a6:	b29b      	uxth	r3, r3
 80051a8:	1c08      	adds	r0, r1, #0
 80051aa:	1c11      	adds	r1, r2, #0
 80051ac:	1c1a      	adds	r2, r3, #0
 80051ae:	f000 fc07 	bl	80059c0 <SetEPDblBuffCount>
    
    /*Write the data to the USB endpoint*/
    if (GetENDPOINT(ep->num)&EP_DTOG_TX)
 80051b2:	69bb      	ldr	r3, [r7, #24]
 80051b4:	781b      	ldrb	r3, [r3, #0]
 80051b6:	1c18      	adds	r0, r3, #0
 80051b8:	f000 f96e 	bl	8005498 <GetENDPOINT>
 80051bc:	1c03      	adds	r3, r0, #0
 80051be:	1c1a      	adds	r2, r3, #0
 80051c0:	2340      	movs	r3, #64	; 0x40
 80051c2:	4013      	ands	r3, r2
 80051c4:	d005      	beq.n	80051d2 <DCD_EP_Tx+0xee>
    {
      pmabuffer = ep->pmaaddr1;
 80051c6:	1c3b      	adds	r3, r7, #0
 80051c8:	331e      	adds	r3, #30
 80051ca:	69ba      	ldr	r2, [r7, #24]
 80051cc:	8912      	ldrh	r2, [r2, #8]
 80051ce:	801a      	strh	r2, [r3, #0]
 80051d0:	e004      	b.n	80051dc <DCD_EP_Tx+0xf8>
    }
    else
    {
      pmabuffer = ep->pmaaddr0;
 80051d2:	1c3b      	adds	r3, r7, #0
 80051d4:	331e      	adds	r3, #30
 80051d6:	69ba      	ldr	r2, [r7, #24]
 80051d8:	88d2      	ldrh	r2, [r2, #6]
 80051da:	801a      	strh	r2, [r3, #0]
    }
    UserToPMABufferCopy(ep->xfer_buff, pmabuffer, len);
 80051dc:	69bb      	ldr	r3, [r7, #24]
 80051de:	6919      	ldr	r1, [r3, #16]
 80051e0:	697b      	ldr	r3, [r7, #20]
 80051e2:	b29b      	uxth	r3, r3
 80051e4:	1c3a      	adds	r2, r7, #0
 80051e6:	321e      	adds	r2, #30
 80051e8:	8812      	ldrh	r2, [r2, #0]
 80051ea:	1c08      	adds	r0, r1, #0
 80051ec:	1c11      	adds	r1, r2, #0
 80051ee:	1c1a      	adds	r2, r3, #0
 80051f0:	f000 fd2c 	bl	8005c4c <UserToPMABufferCopy>
    FreeUserBuffer(ep->num, ep->is_in);
 80051f4:	69bb      	ldr	r3, [r7, #24]
 80051f6:	781a      	ldrb	r2, [r3, #0]
 80051f8:	69bb      	ldr	r3, [r7, #24]
 80051fa:	785b      	ldrb	r3, [r3, #1]
 80051fc:	1c10      	adds	r0, r2, #0
 80051fe:	1c19      	adds	r1, r3, #0
 8005200:	f000 fce2 	bl	8005bc8 <FreeUserBuffer>
  }
  
  SetEPTxStatus(ep->num, EP_TX_VALID);
 8005204:	69bb      	ldr	r3, [r7, #24]
 8005206:	781b      	ldrb	r3, [r3, #0]
 8005208:	1c18      	adds	r0, r3, #0
 800520a:	2130      	movs	r1, #48	; 0x30
 800520c:	f000 f97e 	bl	800550c <SetEPTxStatus>
  
  return USB_OK; 
 8005210:	2300      	movs	r3, #0
}
 8005212:	1c18      	adds	r0, r3, #0
 8005214:	46bd      	mov	sp, r7
 8005216:	b008      	add	sp, #32
 8005218:	bd80      	pop	{r7, pc}
 800521a:	46c0      	nop			; (mov r8, r8)

0800521c <DCD_EP_Stall>:
  * @param  pdev: device instance
  * @param  epnum: endpoint address
  * @retval : status
  */
uint32_t  DCD_EP_Stall (USB_CORE_HANDLE *pdev, uint8_t   epnum)
{
 800521c:	b590      	push	{r4, r7, lr}
 800521e:	b085      	sub	sp, #20
 8005220:	af00      	add	r7, sp, #0
 8005222:	6078      	str	r0, [r7, #4]
 8005224:	1c0a      	adds	r2, r1, #0
 8005226:	1cfb      	adds	r3, r7, #3
 8005228:	701a      	strb	r2, [r3, #0]
  USB_EP *ep;
  if ((0x80 & epnum) == 0x80)
 800522a:	1cfb      	adds	r3, r7, #3
 800522c:	781b      	ldrb	r3, [r3, #0]
 800522e:	b25b      	sxtb	r3, r3
 8005230:	2b00      	cmp	r3, #0
 8005232:	da0c      	bge.n	800524e <DCD_EP_Stall+0x32>
  {
    ep = &pdev->dev.in_ep[epnum & 0x7F];    
 8005234:	1cfb      	adds	r3, r7, #3
 8005236:	781a      	ldrb	r2, [r3, #0]
 8005238:	237f      	movs	r3, #127	; 0x7f
 800523a:	401a      	ands	r2, r3
 800523c:	1c13      	adds	r3, r2, #0
 800523e:	009b      	lsls	r3, r3, #2
 8005240:	189b      	adds	r3, r3, r2
 8005242:	00db      	lsls	r3, r3, #3
 8005244:	3318      	adds	r3, #24
 8005246:	687a      	ldr	r2, [r7, #4]
 8005248:	18d3      	adds	r3, r2, r3
 800524a:	60fb      	str	r3, [r7, #12]
 800524c:	e009      	b.n	8005262 <DCD_EP_Stall+0x46>
  }
  else
  {
    ep = &pdev->dev.out_ep[epnum];
 800524e:	1cfb      	adds	r3, r7, #3
 8005250:	781a      	ldrb	r2, [r3, #0]
 8005252:	1c13      	adds	r3, r2, #0
 8005254:	009b      	lsls	r3, r3, #2
 8005256:	189b      	adds	r3, r3, r2
 8005258:	00db      	lsls	r3, r3, #3
 800525a:	33b8      	adds	r3, #184	; 0xb8
 800525c:	687a      	ldr	r2, [r7, #4]
 800525e:	18d3      	adds	r3, r2, r3
 8005260:	60fb      	str	r3, [r7, #12]
  }
  
  if (ep->num ==0)
 8005262:	68fb      	ldr	r3, [r7, #12]
 8005264:	781b      	ldrb	r3, [r3, #0]
 8005266:	2b00      	cmp	r3, #0
 8005268:	d120      	bne.n	80052ac <DCD_EP_Stall+0x90>
  {
    /* This macro sets STALL status for RX & TX*/ 
    _SetEPRxTxStatus(ep->num,EP_RX_STALL,EP_TX_STALL); 
 800526a:	68fb      	ldr	r3, [r7, #12]
 800526c:	781b      	ldrb	r3, [r3, #0]
 800526e:	009b      	lsls	r3, r3, #2
 8005270:	4a1d      	ldr	r2, [pc, #116]	; (80052e8 <DCD_EP_Stall+0xcc>)
 8005272:	189b      	adds	r3, r3, r2
 8005274:	681b      	ldr	r3, [r3, #0]
 8005276:	b29b      	uxth	r3, r3
 8005278:	1c1a      	adds	r2, r3, #0
 800527a:	4b1c      	ldr	r3, [pc, #112]	; (80052ec <DCD_EP_Stall+0xd0>)
 800527c:	1c14      	adds	r4, r2, #0
 800527e:	401c      	ands	r4, r3
 8005280:	2380      	movs	r3, #128	; 0x80
 8005282:	015b      	lsls	r3, r3, #5
 8005284:	4063      	eors	r3, r4
 8005286:	1c1c      	adds	r4, r3, #0
 8005288:	2310      	movs	r3, #16
 800528a:	4063      	eors	r3, r4
 800528c:	1c1c      	adds	r4, r3, #0
 800528e:	68fb      	ldr	r3, [r7, #12]
 8005290:	781b      	ldrb	r3, [r3, #0]
 8005292:	009b      	lsls	r3, r3, #2
 8005294:	4a14      	ldr	r2, [pc, #80]	; (80052e8 <DCD_EP_Stall+0xcc>)
 8005296:	189b      	adds	r3, r3, r2
 8005298:	b2a2      	uxth	r2, r4
 800529a:	4915      	ldr	r1, [pc, #84]	; (80052f0 <DCD_EP_Stall+0xd4>)
 800529c:	430a      	orrs	r2, r1
 800529e:	b292      	uxth	r2, r2
 80052a0:	601a      	str	r2, [r3, #0]
    /*Endpoint is stalled */
    ep->is_stall = 1;
 80052a2:	68fb      	ldr	r3, [r7, #12]
 80052a4:	2201      	movs	r2, #1
 80052a6:	709a      	strb	r2, [r3, #2]
    return USB_OK;
 80052a8:	2300      	movs	r3, #0
 80052aa:	e019      	b.n	80052e0 <DCD_EP_Stall+0xc4>
  }
  if (ep->is_in)
 80052ac:	68fb      	ldr	r3, [r7, #12]
 80052ae:	785b      	ldrb	r3, [r3, #1]
 80052b0:	2b00      	cmp	r3, #0
 80052b2:	d009      	beq.n	80052c8 <DCD_EP_Stall+0xac>
  {  
    /* IN endpoint */
    ep->is_stall = 1;
 80052b4:	68fb      	ldr	r3, [r7, #12]
 80052b6:	2201      	movs	r2, #1
 80052b8:	709a      	strb	r2, [r3, #2]
    /* IN Endpoint stalled */
   SetEPTxStatus(ep->num , EP_TX_STALL); 
 80052ba:	68fb      	ldr	r3, [r7, #12]
 80052bc:	781b      	ldrb	r3, [r3, #0]
 80052be:	1c18      	adds	r0, r3, #0
 80052c0:	2110      	movs	r1, #16
 80052c2:	f000 f923 	bl	800550c <SetEPTxStatus>
 80052c6:	e00a      	b.n	80052de <DCD_EP_Stall+0xc2>
  }
  else
  { 
    ep->is_stall = 1;
 80052c8:	68fb      	ldr	r3, [r7, #12]
 80052ca:	2201      	movs	r2, #1
 80052cc:	709a      	strb	r2, [r3, #2]
    /* OUT Endpoint stalled */
    SetEPRxStatus(ep->num , EP_RX_STALL);
 80052ce:	68fb      	ldr	r3, [r7, #12]
 80052d0:	781a      	ldrb	r2, [r3, #0]
 80052d2:	2380      	movs	r3, #128	; 0x80
 80052d4:	015b      	lsls	r3, r3, #5
 80052d6:	1c10      	adds	r0, r2, #0
 80052d8:	1c19      	adds	r1, r3, #0
 80052da:	f000 f951 	bl	8005580 <SetEPRxStatus>
  }
  
  return USB_OK;
 80052de:	2300      	movs	r3, #0
}
 80052e0:	1c18      	adds	r0, r3, #0
 80052e2:	46bd      	mov	sp, r7
 80052e4:	b005      	add	sp, #20
 80052e6:	bd90      	pop	{r4, r7, pc}
 80052e8:	40005c00 	.word	0x40005c00
 80052ec:	0000bfbf 	.word	0x0000bfbf
 80052f0:	ffff8080 	.word	0xffff8080

080052f4 <DCD_EP_ClrStall>:
  * @param  pdev: device instance
  * @param  epnum: endpoint address
  * @retval : status
  */
uint32_t  DCD_EP_ClrStall (USB_CORE_HANDLE *pdev, uint8_t epnum)
{
 80052f4:	b580      	push	{r7, lr}
 80052f6:	b084      	sub	sp, #16
 80052f8:	af00      	add	r7, sp, #0
 80052fa:	6078      	str	r0, [r7, #4]
 80052fc:	1c0a      	adds	r2, r1, #0
 80052fe:	1cfb      	adds	r3, r7, #3
 8005300:	701a      	strb	r2, [r3, #0]
  USB_EP *ep;
  if ((0x80 & epnum) == 0x80)
 8005302:	1cfb      	adds	r3, r7, #3
 8005304:	781b      	ldrb	r3, [r3, #0]
 8005306:	b25b      	sxtb	r3, r3
 8005308:	2b00      	cmp	r3, #0
 800530a:	da0c      	bge.n	8005326 <DCD_EP_ClrStall+0x32>
  {
    ep = &pdev->dev.in_ep[epnum & 0x7F];    
 800530c:	1cfb      	adds	r3, r7, #3
 800530e:	781a      	ldrb	r2, [r3, #0]
 8005310:	237f      	movs	r3, #127	; 0x7f
 8005312:	401a      	ands	r2, r3
 8005314:	1c13      	adds	r3, r2, #0
 8005316:	009b      	lsls	r3, r3, #2
 8005318:	189b      	adds	r3, r3, r2
 800531a:	00db      	lsls	r3, r3, #3
 800531c:	3318      	adds	r3, #24
 800531e:	687a      	ldr	r2, [r7, #4]
 8005320:	18d3      	adds	r3, r2, r3
 8005322:	60fb      	str	r3, [r7, #12]
 8005324:	e009      	b.n	800533a <DCD_EP_ClrStall+0x46>
  }
  else
  {
    ep = &pdev->dev.out_ep[epnum];
 8005326:	1cfb      	adds	r3, r7, #3
 8005328:	781a      	ldrb	r2, [r3, #0]
 800532a:	1c13      	adds	r3, r2, #0
 800532c:	009b      	lsls	r3, r3, #2
 800532e:	189b      	adds	r3, r3, r2
 8005330:	00db      	lsls	r3, r3, #3
 8005332:	33b8      	adds	r3, #184	; 0xb8
 8005334:	687a      	ldr	r2, [r7, #4]
 8005336:	18d3      	adds	r3, r2, r3
 8005338:	60fb      	str	r3, [r7, #12]
  } 
  
  if (ep->is_in)
 800533a:	68fb      	ldr	r3, [r7, #12]
 800533c:	785b      	ldrb	r3, [r3, #1]
 800533e:	2b00      	cmp	r3, #0
 8005340:	d00e      	beq.n	8005360 <DCD_EP_ClrStall+0x6c>
  {
    ClearDTOG_TX(ep->num);
 8005342:	68fb      	ldr	r3, [r7, #12]
 8005344:	781b      	ldrb	r3, [r3, #0]
 8005346:	1c18      	adds	r0, r3, #0
 8005348:	f000 f9ee 	bl	8005728 <ClearDTOG_TX>
    SetEPTxStatus(ep->num, EP_TX_VALID);
 800534c:	68fb      	ldr	r3, [r7, #12]
 800534e:	781b      	ldrb	r3, [r3, #0]
 8005350:	1c18      	adds	r0, r3, #0
 8005352:	2130      	movs	r1, #48	; 0x30
 8005354:	f000 f8da 	bl	800550c <SetEPTxStatus>
    ep->is_stall = 0;  
 8005358:	68fb      	ldr	r3, [r7, #12]
 800535a:	2200      	movs	r2, #0
 800535c:	709a      	strb	r2, [r3, #2]
 800535e:	e00f      	b.n	8005380 <DCD_EP_ClrStall+0x8c>
  }
  else
  {
    ClearDTOG_RX(ep->num);
 8005360:	68fb      	ldr	r3, [r7, #12]
 8005362:	781b      	ldrb	r3, [r3, #0]
 8005364:	1c18      	adds	r0, r3, #0
 8005366:	f000 f9b1 	bl	80056cc <ClearDTOG_RX>
    SetEPRxStatus(ep->num, EP_RX_VALID);
 800536a:	68fb      	ldr	r3, [r7, #12]
 800536c:	781a      	ldrb	r2, [r3, #0]
 800536e:	23c0      	movs	r3, #192	; 0xc0
 8005370:	019b      	lsls	r3, r3, #6
 8005372:	1c10      	adds	r0, r2, #0
 8005374:	1c19      	adds	r1, r3, #0
 8005376:	f000 f903 	bl	8005580 <SetEPRxStatus>
    ep->is_stall = 0;  
 800537a:	68fb      	ldr	r3, [r7, #12]
 800537c:	2200      	movs	r2, #0
 800537e:	709a      	strb	r2, [r3, #2]
  }
  
  return USB_OK;
 8005380:	2300      	movs	r3, #0
}
 8005382:	1c18      	adds	r0, r3, #0
 8005384:	46bd      	mov	sp, r7
 8005386:	b004      	add	sp, #16
 8005388:	bd80      	pop	{r7, pc}
 800538a:	46c0      	nop			; (mov r8, r8)

0800538c <DCD_EP_SetAddress>:
  * @brief This Function set USB device address
  * @param  pdev: device instance
  * @param  address: new device address
  */
void  DCD_EP_SetAddress (USB_CORE_HANDLE *pdev, uint8_t address)
{
 800538c:	b580      	push	{r7, lr}
 800538e:	b084      	sub	sp, #16
 8005390:	af00      	add	r7, sp, #0
 8005392:	6078      	str	r0, [r7, #4]
 8005394:	1c0a      	adds	r2, r1, #0
 8005396:	1cfb      	adds	r3, r7, #3
 8005398:	701a      	strb	r2, [r3, #0]
  uint32_t i=0;
 800539a:	2300      	movs	r3, #0
 800539c:	60fb      	str	r3, [r7, #12]
  pdev->dev.device_address = address;
 800539e:	687b      	ldr	r3, [r7, #4]
 80053a0:	1cfa      	adds	r2, r7, #3
 80053a2:	7812      	ldrb	r2, [r2, #0]
 80053a4:	711a      	strb	r2, [r3, #4]
  
  /* set address in every used endpoint */
  for (i = 0; i < EP_NUM; i++)
 80053a6:	2300      	movs	r3, #0
 80053a8:	60fb      	str	r3, [r7, #12]
 80053aa:	e017      	b.n	80053dc <DCD_EP_SetAddress+0x50>
  {
    _SetEPAddress((uint8_t)i, (uint8_t)i);
 80053ac:	68fb      	ldr	r3, [r7, #12]
 80053ae:	b2db      	uxtb	r3, r3
 80053b0:	009b      	lsls	r3, r3, #2
 80053b2:	4911      	ldr	r1, [pc, #68]	; (80053f8 <DCD_EP_SetAddress+0x6c>)
 80053b4:	185b      	adds	r3, r3, r1
 80053b6:	68fa      	ldr	r2, [r7, #12]
 80053b8:	b2d2      	uxtb	r2, r2
 80053ba:	0092      	lsls	r2, r2, #2
 80053bc:	490e      	ldr	r1, [pc, #56]	; (80053f8 <DCD_EP_SetAddress+0x6c>)
 80053be:	1852      	adds	r2, r2, r1
 80053c0:	6812      	ldr	r2, [r2, #0]
 80053c2:	b292      	uxth	r2, r2
 80053c4:	1c11      	adds	r1, r2, #0
 80053c6:	4a0d      	ldr	r2, [pc, #52]	; (80053fc <DCD_EP_SetAddress+0x70>)
 80053c8:	400a      	ands	r2, r1
 80053ca:	490d      	ldr	r1, [pc, #52]	; (8005400 <DCD_EP_SetAddress+0x74>)
 80053cc:	4311      	orrs	r1, r2
 80053ce:	68fa      	ldr	r2, [r7, #12]
 80053d0:	b2d2      	uxtb	r2, r2
 80053d2:	430a      	orrs	r2, r1
 80053d4:	601a      	str	r2, [r3, #0]
{
  uint32_t i=0;
  pdev->dev.device_address = address;
  
  /* set address in every used endpoint */
  for (i = 0; i < EP_NUM; i++)
 80053d6:	68fb      	ldr	r3, [r7, #12]
 80053d8:	3301      	adds	r3, #1
 80053da:	60fb      	str	r3, [r7, #12]
 80053dc:	68fb      	ldr	r3, [r7, #12]
 80053de:	2b03      	cmp	r3, #3
 80053e0:	d9e4      	bls.n	80053ac <DCD_EP_SetAddress+0x20>
  {
    _SetEPAddress((uint8_t)i, (uint8_t)i);
  } /* set device address and enable function */
  _SetDADDR(address | DADDR_EF); 
 80053e2:	4b08      	ldr	r3, [pc, #32]	; (8005404 <DCD_EP_SetAddress+0x78>)
 80053e4:	1cfa      	adds	r2, r7, #3
 80053e6:	7812      	ldrb	r2, [r2, #0]
 80053e8:	2180      	movs	r1, #128	; 0x80
 80053ea:	4249      	negs	r1, r1
 80053ec:	430a      	orrs	r2, r1
 80053ee:	b2d2      	uxtb	r2, r2
 80053f0:	601a      	str	r2, [r3, #0]
}
 80053f2:	46bd      	mov	sp, r7
 80053f4:	b004      	add	sp, #16
 80053f6:	bd80      	pop	{r7, pc}
 80053f8:	40005c00 	.word	0x40005c00
 80053fc:	00000f0f 	.word	0x00000f0f
 8005400:	00008080 	.word	0x00008080
 8005404:	40005c4c 	.word	0x40005c4c

08005408 <DCD_DevConnect>:
  * @brief Connect device (enable internal pull-up)
  * @param  pdev: device instance
  * @retval : None
  */
void  DCD_DevConnect (USB_CORE_HANDLE *pdev)
{
 8005408:	b580      	push	{r7, lr}
 800540a:	b082      	sub	sp, #8
 800540c:	af00      	add	r7, sp, #0
 800540e:	6078      	str	r0, [r7, #4]
  /* Enabling DP Pull-Down bit to Connect internal pull-up on USB DP line */
  *BCDR |= BCDR_DPPU;
 8005410:	4b06      	ldr	r3, [pc, #24]	; (800542c <DCD_DevConnect+0x24>)
 8005412:	4a06      	ldr	r2, [pc, #24]	; (800542c <DCD_DevConnect+0x24>)
 8005414:	6812      	ldr	r2, [r2, #0]
 8005416:	2180      	movs	r1, #128	; 0x80
 8005418:	0209      	lsls	r1, r1, #8
 800541a:	430a      	orrs	r2, r1
 800541c:	601a      	str	r2, [r3, #0]
  /*Device is in default state*/
  pdev->dev.device_status  = USB_DEFAULT;
 800541e:	687b      	ldr	r3, [r7, #4]
 8005420:	2201      	movs	r2, #1
 8005422:	709a      	strb	r2, [r3, #2]
}
 8005424:	46bd      	mov	sp, r7
 8005426:	b002      	add	sp, #8
 8005428:	bd80      	pop	{r7, pc}
 800542a:	46c0      	nop			; (mov r8, r8)
 800542c:	40005c58 	.word	0x40005c58

08005430 <SetCNTR>:
  * @brief Set the CNTR register value 
  * @param   wRegValue: new register value
  * @retval None
  */
void SetCNTR(uint16_t wRegValue)
{
 8005430:	b580      	push	{r7, lr}
 8005432:	b082      	sub	sp, #8
 8005434:	af00      	add	r7, sp, #0
 8005436:	1c02      	adds	r2, r0, #0
 8005438:	1dbb      	adds	r3, r7, #6
 800543a:	801a      	strh	r2, [r3, #0]
  _SetCNTR(wRegValue);
 800543c:	4b03      	ldr	r3, [pc, #12]	; (800544c <SetCNTR+0x1c>)
 800543e:	1dba      	adds	r2, r7, #6
 8005440:	8812      	ldrh	r2, [r2, #0]
 8005442:	601a      	str	r2, [r3, #0]
}
 8005444:	46bd      	mov	sp, r7
 8005446:	b002      	add	sp, #8
 8005448:	bd80      	pop	{r7, pc}
 800544a:	46c0      	nop			; (mov r8, r8)
 800544c:	40005c40 	.word	0x40005c40

08005450 <SetISTR>:
  * @brief Set the ISTR register value 
  * @param   wRegValue: new register value
  * @retval None
  */
void SetISTR(uint16_t wRegValue)
{
 8005450:	b580      	push	{r7, lr}
 8005452:	b082      	sub	sp, #8
 8005454:	af00      	add	r7, sp, #0
 8005456:	1c02      	adds	r2, r0, #0
 8005458:	1dbb      	adds	r3, r7, #6
 800545a:	801a      	strh	r2, [r3, #0]
  _SetISTR(wRegValue);
 800545c:	4b03      	ldr	r3, [pc, #12]	; (800546c <SetISTR+0x1c>)
 800545e:	1dba      	adds	r2, r7, #6
 8005460:	8812      	ldrh	r2, [r2, #0]
 8005462:	601a      	str	r2, [r3, #0]
}
 8005464:	46bd      	mov	sp, r7
 8005466:	b002      	add	sp, #8
 8005468:	bd80      	pop	{r7, pc}
 800546a:	46c0      	nop			; (mov r8, r8)
 800546c:	40005c44 	.word	0x40005c44

08005470 <SetBTABLE>:
  * @brief Set the BTABLE.
  * @param   wRegValue: New register value
  * @retval None
  */
void SetBTABLE(uint16_t wRegValue)
{
 8005470:	b580      	push	{r7, lr}
 8005472:	b082      	sub	sp, #8
 8005474:	af00      	add	r7, sp, #0
 8005476:	1c02      	adds	r2, r0, #0
 8005478:	1dbb      	adds	r3, r7, #6
 800547a:	801a      	strh	r2, [r3, #0]
  _SetBTABLE(wRegValue);
 800547c:	4b04      	ldr	r3, [pc, #16]	; (8005490 <SetBTABLE+0x20>)
 800547e:	1dba      	adds	r2, r7, #6
 8005480:	8811      	ldrh	r1, [r2, #0]
 8005482:	4a04      	ldr	r2, [pc, #16]	; (8005494 <SetBTABLE+0x24>)
 8005484:	400a      	ands	r2, r1
 8005486:	601a      	str	r2, [r3, #0]
}
 8005488:	46bd      	mov	sp, r7
 800548a:	b002      	add	sp, #8
 800548c:	bd80      	pop	{r7, pc}
 800548e:	46c0      	nop			; (mov r8, r8)
 8005490:	40005c50 	.word	0x40005c50
 8005494:	0000fff8 	.word	0x0000fff8

08005498 <GetENDPOINT>:
  * @brief Return the Endpoint register value.
  * @param   bEpNum: Endpoint Number
  * @retval Endpoint register value.
  */
uint16_t GetENDPOINT(uint8_t bEpNum)
{
 8005498:	b580      	push	{r7, lr}
 800549a:	b082      	sub	sp, #8
 800549c:	af00      	add	r7, sp, #0
 800549e:	1c02      	adds	r2, r0, #0
 80054a0:	1dfb      	adds	r3, r7, #7
 80054a2:	701a      	strb	r2, [r3, #0]
  return(_GetENDPOINT(bEpNum));
 80054a4:	1dfb      	adds	r3, r7, #7
 80054a6:	781b      	ldrb	r3, [r3, #0]
 80054a8:	009b      	lsls	r3, r3, #2
 80054aa:	4a04      	ldr	r2, [pc, #16]	; (80054bc <GetENDPOINT+0x24>)
 80054ac:	189b      	adds	r3, r3, r2
 80054ae:	681b      	ldr	r3, [r3, #0]
 80054b0:	b29b      	uxth	r3, r3
}
 80054b2:	1c18      	adds	r0, r3, #0
 80054b4:	46bd      	mov	sp, r7
 80054b6:	b002      	add	sp, #8
 80054b8:	bd80      	pop	{r7, pc}
 80054ba:	46c0      	nop			; (mov r8, r8)
 80054bc:	40005c00 	.word	0x40005c00

080054c0 <SetEPType>:
  * @param   bEpNum: Endpoint Number
  * @param   wType: type definition
  * @retval None.
  */
void SetEPType(uint8_t bEpNum, uint16_t wType)
{
 80054c0:	b580      	push	{r7, lr}
 80054c2:	b082      	sub	sp, #8
 80054c4:	af00      	add	r7, sp, #0
 80054c6:	1c0a      	adds	r2, r1, #0
 80054c8:	1dfb      	adds	r3, r7, #7
 80054ca:	1c01      	adds	r1, r0, #0
 80054cc:	7019      	strb	r1, [r3, #0]
 80054ce:	1d3b      	adds	r3, r7, #4
 80054d0:	801a      	strh	r2, [r3, #0]
  _SetEPType(bEpNum, wType);
 80054d2:	1dfb      	adds	r3, r7, #7
 80054d4:	781b      	ldrb	r3, [r3, #0]
 80054d6:	009b      	lsls	r3, r3, #2
 80054d8:	490a      	ldr	r1, [pc, #40]	; (8005504 <SetEPType+0x44>)
 80054da:	185b      	adds	r3, r3, r1
 80054dc:	1dfa      	adds	r2, r7, #7
 80054de:	7812      	ldrb	r2, [r2, #0]
 80054e0:	0092      	lsls	r2, r2, #2
 80054e2:	4908      	ldr	r1, [pc, #32]	; (8005504 <SetEPType+0x44>)
 80054e4:	1852      	adds	r2, r2, r1
 80054e6:	6812      	ldr	r2, [r2, #0]
 80054e8:	b292      	uxth	r2, r2
 80054ea:	1c11      	adds	r1, r2, #0
 80054ec:	4a06      	ldr	r2, [pc, #24]	; (8005508 <SetEPType+0x48>)
 80054ee:	400a      	ands	r2, r1
 80054f0:	b291      	uxth	r1, r2
 80054f2:	1d3a      	adds	r2, r7, #4
 80054f4:	8812      	ldrh	r2, [r2, #0]
 80054f6:	430a      	orrs	r2, r1
 80054f8:	b292      	uxth	r2, r2
 80054fa:	b292      	uxth	r2, r2
 80054fc:	601a      	str	r2, [r3, #0]
}
 80054fe:	46bd      	mov	sp, r7
 8005500:	b002      	add	sp, #8
 8005502:	bd80      	pop	{r7, pc}
 8005504:	40005c00 	.word	0x40005c00
 8005508:	ffff898f 	.word	0xffff898f

0800550c <SetEPTxStatus>:
  * @param   bEpNum: Endpoint Number
  * @param   wState: new state.
  * @retval None
  */
void SetEPTxStatus(uint8_t bEpNum, uint16_t wState)
{
 800550c:	b590      	push	{r4, r7, lr}
 800550e:	b083      	sub	sp, #12
 8005510:	af00      	add	r7, sp, #0
 8005512:	1c0a      	adds	r2, r1, #0
 8005514:	1dfb      	adds	r3, r7, #7
 8005516:	1c01      	adds	r1, r0, #0
 8005518:	7019      	strb	r1, [r3, #0]
 800551a:	1d3b      	adds	r3, r7, #4
 800551c:	801a      	strh	r2, [r3, #0]
  _SetEPTxStatus(bEpNum, wState);   
 800551e:	1dfb      	adds	r3, r7, #7
 8005520:	781b      	ldrb	r3, [r3, #0]
 8005522:	009b      	lsls	r3, r3, #2
 8005524:	4a13      	ldr	r2, [pc, #76]	; (8005574 <SetEPTxStatus+0x68>)
 8005526:	189b      	adds	r3, r3, r2
 8005528:	681b      	ldr	r3, [r3, #0]
 800552a:	b29a      	uxth	r2, r3
 800552c:	4b12      	ldr	r3, [pc, #72]	; (8005578 <SetEPTxStatus+0x6c>)
 800552e:	4013      	ands	r3, r2
 8005530:	b29c      	uxth	r4, r3
 8005532:	1d3b      	adds	r3, r7, #4
 8005534:	881a      	ldrh	r2, [r3, #0]
 8005536:	2310      	movs	r3, #16
 8005538:	4013      	ands	r3, r2
 800553a:	b29b      	uxth	r3, r3
 800553c:	2b00      	cmp	r3, #0
 800553e:	d002      	beq.n	8005546 <SetEPTxStatus+0x3a>
 8005540:	2310      	movs	r3, #16
 8005542:	4063      	eors	r3, r4
 8005544:	b29c      	uxth	r4, r3
 8005546:	1d3b      	adds	r3, r7, #4
 8005548:	881a      	ldrh	r2, [r3, #0]
 800554a:	2320      	movs	r3, #32
 800554c:	4013      	ands	r3, r2
 800554e:	b29b      	uxth	r3, r3
 8005550:	2b00      	cmp	r3, #0
 8005552:	d002      	beq.n	800555a <SetEPTxStatus+0x4e>
 8005554:	2320      	movs	r3, #32
 8005556:	4063      	eors	r3, r4
 8005558:	b29c      	uxth	r4, r3
 800555a:	1dfb      	adds	r3, r7, #7
 800555c:	781b      	ldrb	r3, [r3, #0]
 800555e:	009b      	lsls	r3, r3, #2
 8005560:	4a04      	ldr	r2, [pc, #16]	; (8005574 <SetEPTxStatus+0x68>)
 8005562:	189b      	adds	r3, r3, r2
 8005564:	4a05      	ldr	r2, [pc, #20]	; (800557c <SetEPTxStatus+0x70>)
 8005566:	4322      	orrs	r2, r4
 8005568:	b292      	uxth	r2, r2
 800556a:	601a      	str	r2, [r3, #0]
}
 800556c:	46bd      	mov	sp, r7
 800556e:	b003      	add	sp, #12
 8005570:	bd90      	pop	{r4, r7, pc}
 8005572:	46c0      	nop			; (mov r8, r8)
 8005574:	40005c00 	.word	0x40005c00
 8005578:	ffff8fbf 	.word	0xffff8fbf
 800557c:	ffff8080 	.word	0xffff8080

08005580 <SetEPRxStatus>:
  * @param   bEpNum: Endpoint Number
  * @param   wState: new state.
  * @retval None
  */
void SetEPRxStatus(uint8_t bEpNum, uint16_t wState)
{
 8005580:	b590      	push	{r4, r7, lr}
 8005582:	b083      	sub	sp, #12
 8005584:	af00      	add	r7, sp, #0
 8005586:	1c0a      	adds	r2, r1, #0
 8005588:	1dfb      	adds	r3, r7, #7
 800558a:	1c01      	adds	r1, r0, #0
 800558c:	7019      	strb	r1, [r3, #0]
 800558e:	1d3b      	adds	r3, r7, #4
 8005590:	801a      	strh	r2, [r3, #0]
  _SetEPRxStatus(bEpNum, wState);
 8005592:	1dfb      	adds	r3, r7, #7
 8005594:	781b      	ldrb	r3, [r3, #0]
 8005596:	009b      	lsls	r3, r3, #2
 8005598:	4a15      	ldr	r2, [pc, #84]	; (80055f0 <SetEPRxStatus+0x70>)
 800559a:	189b      	adds	r3, r3, r2
 800559c:	681b      	ldr	r3, [r3, #0]
 800559e:	b29a      	uxth	r2, r3
 80055a0:	4b14      	ldr	r3, [pc, #80]	; (80055f4 <SetEPRxStatus+0x74>)
 80055a2:	4013      	ands	r3, r2
 80055a4:	b29c      	uxth	r4, r3
 80055a6:	1d3b      	adds	r3, r7, #4
 80055a8:	881a      	ldrh	r2, [r3, #0]
 80055aa:	2380      	movs	r3, #128	; 0x80
 80055ac:	015b      	lsls	r3, r3, #5
 80055ae:	4013      	ands	r3, r2
 80055b0:	b29b      	uxth	r3, r3
 80055b2:	2b00      	cmp	r3, #0
 80055b4:	d003      	beq.n	80055be <SetEPRxStatus+0x3e>
 80055b6:	2380      	movs	r3, #128	; 0x80
 80055b8:	015b      	lsls	r3, r3, #5
 80055ba:	4063      	eors	r3, r4
 80055bc:	b29c      	uxth	r4, r3
 80055be:	1d3b      	adds	r3, r7, #4
 80055c0:	881a      	ldrh	r2, [r3, #0]
 80055c2:	2380      	movs	r3, #128	; 0x80
 80055c4:	019b      	lsls	r3, r3, #6
 80055c6:	4013      	ands	r3, r2
 80055c8:	b29b      	uxth	r3, r3
 80055ca:	2b00      	cmp	r3, #0
 80055cc:	d003      	beq.n	80055d6 <SetEPRxStatus+0x56>
 80055ce:	2380      	movs	r3, #128	; 0x80
 80055d0:	019b      	lsls	r3, r3, #6
 80055d2:	4063      	eors	r3, r4
 80055d4:	b29c      	uxth	r4, r3
 80055d6:	1dfb      	adds	r3, r7, #7
 80055d8:	781b      	ldrb	r3, [r3, #0]
 80055da:	009b      	lsls	r3, r3, #2
 80055dc:	4a04      	ldr	r2, [pc, #16]	; (80055f0 <SetEPRxStatus+0x70>)
 80055de:	189b      	adds	r3, r3, r2
 80055e0:	4a05      	ldr	r2, [pc, #20]	; (80055f8 <SetEPRxStatus+0x78>)
 80055e2:	4322      	orrs	r2, r4
 80055e4:	b292      	uxth	r2, r2
 80055e6:	601a      	str	r2, [r3, #0]
}
 80055e8:	46bd      	mov	sp, r7
 80055ea:	b003      	add	sp, #12
 80055ec:	bd90      	pop	{r4, r7, pc}
 80055ee:	46c0      	nop			; (mov r8, r8)
 80055f0:	40005c00 	.word	0x40005c00
 80055f4:	ffffbf8f 	.word	0xffffbf8f
 80055f8:	ffff8080 	.word	0xffff8080

080055fc <SetEPDoubleBuff>:
  * @brief Enable the double buffer feature for the endpoint.
  * @param   bEpNum: Endpoint Number
  * @retval None
  */
void SetEPDoubleBuff(uint8_t bEpNum)
{
 80055fc:	b580      	push	{r7, lr}
 80055fe:	b082      	sub	sp, #8
 8005600:	af00      	add	r7, sp, #0
 8005602:	1c02      	adds	r2, r0, #0
 8005604:	1dfb      	adds	r3, r7, #7
 8005606:	701a      	strb	r2, [r3, #0]
  _SetEP_KIND(bEpNum);
 8005608:	1dfb      	adds	r3, r7, #7
 800560a:	781b      	ldrb	r3, [r3, #0]
 800560c:	009b      	lsls	r3, r3, #2
 800560e:	490a      	ldr	r1, [pc, #40]	; (8005638 <SetEPDoubleBuff+0x3c>)
 8005610:	185b      	adds	r3, r3, r1
 8005612:	1dfa      	adds	r2, r7, #7
 8005614:	7812      	ldrb	r2, [r2, #0]
 8005616:	0092      	lsls	r2, r2, #2
 8005618:	4907      	ldr	r1, [pc, #28]	; (8005638 <SetEPDoubleBuff+0x3c>)
 800561a:	1852      	adds	r2, r2, r1
 800561c:	6812      	ldr	r2, [r2, #0]
 800561e:	b292      	uxth	r2, r2
 8005620:	1c11      	adds	r1, r2, #0
 8005622:	4a06      	ldr	r2, [pc, #24]	; (800563c <SetEPDoubleBuff+0x40>)
 8005624:	400a      	ands	r2, r1
 8005626:	b292      	uxth	r2, r2
 8005628:	4905      	ldr	r1, [pc, #20]	; (8005640 <SetEPDoubleBuff+0x44>)
 800562a:	430a      	orrs	r2, r1
 800562c:	b292      	uxth	r2, r2
 800562e:	b292      	uxth	r2, r2
 8005630:	601a      	str	r2, [r3, #0]
}
 8005632:	46bd      	mov	sp, r7
 8005634:	b002      	add	sp, #8
 8005636:	bd80      	pop	{r7, pc}
 8005638:	40005c00 	.word	0x40005c00
 800563c:	00000e0f 	.word	0x00000e0f
 8005640:	ffff8180 	.word	0xffff8180

08005644 <ToggleDTOG_RX>:
  * @brief Toggle the DTOG_RX bit.
  * @param   bEpNum: Endpoint Number
  * @retval None
  */
void ToggleDTOG_RX(uint8_t bEpNum)
{
 8005644:	b580      	push	{r7, lr}
 8005646:	b082      	sub	sp, #8
 8005648:	af00      	add	r7, sp, #0
 800564a:	1c02      	adds	r2, r0, #0
 800564c:	1dfb      	adds	r3, r7, #7
 800564e:	701a      	strb	r2, [r3, #0]
  _ToggleDTOG_RX(bEpNum);
 8005650:	1dfb      	adds	r3, r7, #7
 8005652:	781b      	ldrb	r3, [r3, #0]
 8005654:	009b      	lsls	r3, r3, #2
 8005656:	4909      	ldr	r1, [pc, #36]	; (800567c <ToggleDTOG_RX+0x38>)
 8005658:	185b      	adds	r3, r3, r1
 800565a:	1dfa      	adds	r2, r7, #7
 800565c:	7812      	ldrb	r2, [r2, #0]
 800565e:	0092      	lsls	r2, r2, #2
 8005660:	4906      	ldr	r1, [pc, #24]	; (800567c <ToggleDTOG_RX+0x38>)
 8005662:	1852      	adds	r2, r2, r1
 8005664:	6812      	ldr	r2, [r2, #0]
 8005666:	b292      	uxth	r2, r2
 8005668:	1c11      	adds	r1, r2, #0
 800566a:	4a05      	ldr	r2, [pc, #20]	; (8005680 <ToggleDTOG_RX+0x3c>)
 800566c:	400a      	ands	r2, r1
 800566e:	4905      	ldr	r1, [pc, #20]	; (8005684 <ToggleDTOG_RX+0x40>)
 8005670:	430a      	orrs	r2, r1
 8005672:	601a      	str	r2, [r3, #0]
}
 8005674:	46bd      	mov	sp, r7
 8005676:	b002      	add	sp, #8
 8005678:	bd80      	pop	{r7, pc}
 800567a:	46c0      	nop			; (mov r8, r8)
 800567c:	40005c00 	.word	0x40005c00
 8005680:	00000f0f 	.word	0x00000f0f
 8005684:	0000c080 	.word	0x0000c080

08005688 <ToggleDTOG_TX>:
  * @brief Toggle the DTOG_TX bit.
  * @param   bEpNum: Endpoint Number
  * @retval None
  */
void ToggleDTOG_TX(uint8_t bEpNum)
{
 8005688:	b580      	push	{r7, lr}
 800568a:	b082      	sub	sp, #8
 800568c:	af00      	add	r7, sp, #0
 800568e:	1c02      	adds	r2, r0, #0
 8005690:	1dfb      	adds	r3, r7, #7
 8005692:	701a      	strb	r2, [r3, #0]
  _ToggleDTOG_TX(bEpNum);
 8005694:	1dfb      	adds	r3, r7, #7
 8005696:	781b      	ldrb	r3, [r3, #0]
 8005698:	009b      	lsls	r3, r3, #2
 800569a:	4909      	ldr	r1, [pc, #36]	; (80056c0 <ToggleDTOG_TX+0x38>)
 800569c:	185b      	adds	r3, r3, r1
 800569e:	1dfa      	adds	r2, r7, #7
 80056a0:	7812      	ldrb	r2, [r2, #0]
 80056a2:	0092      	lsls	r2, r2, #2
 80056a4:	4906      	ldr	r1, [pc, #24]	; (80056c0 <ToggleDTOG_TX+0x38>)
 80056a6:	1852      	adds	r2, r2, r1
 80056a8:	6812      	ldr	r2, [r2, #0]
 80056aa:	b292      	uxth	r2, r2
 80056ac:	1c11      	adds	r1, r2, #0
 80056ae:	4a05      	ldr	r2, [pc, #20]	; (80056c4 <ToggleDTOG_TX+0x3c>)
 80056b0:	400a      	ands	r2, r1
 80056b2:	4905      	ldr	r1, [pc, #20]	; (80056c8 <ToggleDTOG_TX+0x40>)
 80056b4:	430a      	orrs	r2, r1
 80056b6:	601a      	str	r2, [r3, #0]
}
 80056b8:	46bd      	mov	sp, r7
 80056ba:	b002      	add	sp, #8
 80056bc:	bd80      	pop	{r7, pc}
 80056be:	46c0      	nop			; (mov r8, r8)
 80056c0:	40005c00 	.word	0x40005c00
 80056c4:	00000f0f 	.word	0x00000f0f
 80056c8:	000080c0 	.word	0x000080c0

080056cc <ClearDTOG_RX>:
  * @brief Clear the DTOG_RX bit.
  * @param   bEpNum: Endpoint Number
  * @retval None
  */
void ClearDTOG_RX(uint8_t bEpNum)
{
 80056cc:	b580      	push	{r7, lr}
 80056ce:	b082      	sub	sp, #8
 80056d0:	af00      	add	r7, sp, #0
 80056d2:	1c02      	adds	r2, r0, #0
 80056d4:	1dfb      	adds	r3, r7, #7
 80056d6:	701a      	strb	r2, [r3, #0]
  _ClearDTOG_RX(bEpNum);
 80056d8:	1dfb      	adds	r3, r7, #7
 80056da:	781b      	ldrb	r3, [r3, #0]
 80056dc:	009b      	lsls	r3, r3, #2
 80056de:	490f      	ldr	r1, [pc, #60]	; (800571c <ClearDTOG_RX+0x50>)
 80056e0:	185b      	adds	r3, r3, r1
 80056e2:	681b      	ldr	r3, [r3, #0]
 80056e4:	b29b      	uxth	r3, r3
 80056e6:	1c1a      	adds	r2, r3, #0
 80056e8:	2380      	movs	r3, #128	; 0x80
 80056ea:	01db      	lsls	r3, r3, #7
 80056ec:	4013      	ands	r3, r2
 80056ee:	d011      	beq.n	8005714 <ClearDTOG_RX+0x48>
 80056f0:	1dfb      	adds	r3, r7, #7
 80056f2:	781b      	ldrb	r3, [r3, #0]
 80056f4:	009b      	lsls	r3, r3, #2
 80056f6:	4a09      	ldr	r2, [pc, #36]	; (800571c <ClearDTOG_RX+0x50>)
 80056f8:	189b      	adds	r3, r3, r2
 80056fa:	1dfa      	adds	r2, r7, #7
 80056fc:	7812      	ldrb	r2, [r2, #0]
 80056fe:	0092      	lsls	r2, r2, #2
 8005700:	4906      	ldr	r1, [pc, #24]	; (800571c <ClearDTOG_RX+0x50>)
 8005702:	1852      	adds	r2, r2, r1
 8005704:	6812      	ldr	r2, [r2, #0]
 8005706:	b292      	uxth	r2, r2
 8005708:	1c11      	adds	r1, r2, #0
 800570a:	4a05      	ldr	r2, [pc, #20]	; (8005720 <ClearDTOG_RX+0x54>)
 800570c:	400a      	ands	r2, r1
 800570e:	4905      	ldr	r1, [pc, #20]	; (8005724 <ClearDTOG_RX+0x58>)
 8005710:	430a      	orrs	r2, r1
 8005712:	601a      	str	r2, [r3, #0]
}
 8005714:	46bd      	mov	sp, r7
 8005716:	b002      	add	sp, #8
 8005718:	bd80      	pop	{r7, pc}
 800571a:	46c0      	nop			; (mov r8, r8)
 800571c:	40005c00 	.word	0x40005c00
 8005720:	00000f0f 	.word	0x00000f0f
 8005724:	0000c080 	.word	0x0000c080

08005728 <ClearDTOG_TX>:
  * @brief Clear the DTOG_TX bit.
  * @param   bEpNum: Endpoint Number
  * @retval None
  */
void ClearDTOG_TX(uint8_t bEpNum)
{
 8005728:	b580      	push	{r7, lr}
 800572a:	b082      	sub	sp, #8
 800572c:	af00      	add	r7, sp, #0
 800572e:	1c02      	adds	r2, r0, #0
 8005730:	1dfb      	adds	r3, r7, #7
 8005732:	701a      	strb	r2, [r3, #0]
  _ClearDTOG_TX(bEpNum);
 8005734:	1dfb      	adds	r3, r7, #7
 8005736:	781b      	ldrb	r3, [r3, #0]
 8005738:	009b      	lsls	r3, r3, #2
 800573a:	490e      	ldr	r1, [pc, #56]	; (8005774 <ClearDTOG_TX+0x4c>)
 800573c:	185b      	adds	r3, r3, r1
 800573e:	681b      	ldr	r3, [r3, #0]
 8005740:	b29b      	uxth	r3, r3
 8005742:	1c1a      	adds	r2, r3, #0
 8005744:	2340      	movs	r3, #64	; 0x40
 8005746:	4013      	ands	r3, r2
 8005748:	d011      	beq.n	800576e <ClearDTOG_TX+0x46>
 800574a:	1dfb      	adds	r3, r7, #7
 800574c:	781b      	ldrb	r3, [r3, #0]
 800574e:	009b      	lsls	r3, r3, #2
 8005750:	4a08      	ldr	r2, [pc, #32]	; (8005774 <ClearDTOG_TX+0x4c>)
 8005752:	189b      	adds	r3, r3, r2
 8005754:	1dfa      	adds	r2, r7, #7
 8005756:	7812      	ldrb	r2, [r2, #0]
 8005758:	0092      	lsls	r2, r2, #2
 800575a:	4906      	ldr	r1, [pc, #24]	; (8005774 <ClearDTOG_TX+0x4c>)
 800575c:	1852      	adds	r2, r2, r1
 800575e:	6812      	ldr	r2, [r2, #0]
 8005760:	b292      	uxth	r2, r2
 8005762:	1c11      	adds	r1, r2, #0
 8005764:	4a04      	ldr	r2, [pc, #16]	; (8005778 <ClearDTOG_TX+0x50>)
 8005766:	400a      	ands	r2, r1
 8005768:	4904      	ldr	r1, [pc, #16]	; (800577c <ClearDTOG_TX+0x54>)
 800576a:	430a      	orrs	r2, r1
 800576c:	601a      	str	r2, [r3, #0]
}
 800576e:	46bd      	mov	sp, r7
 8005770:	b002      	add	sp, #8
 8005772:	bd80      	pop	{r7, pc}
 8005774:	40005c00 	.word	0x40005c00
 8005778:	00000f0f 	.word	0x00000f0f
 800577c:	000080c0 	.word	0x000080c0

08005780 <SetEPTxAddr>:
  * @param   bEpNum: Endpoint Number
  * @param   wAddr: new address.
  * @retval Endpoint address.
  */
void SetEPTxAddr(uint8_t bEpNum, uint16_t wAddr)
{
 8005780:	b580      	push	{r7, lr}
 8005782:	b082      	sub	sp, #8
 8005784:	af00      	add	r7, sp, #0
 8005786:	1c0a      	adds	r2, r1, #0
 8005788:	1dfb      	adds	r3, r7, #7
 800578a:	1c01      	adds	r1, r0, #0
 800578c:	7019      	strb	r1, [r3, #0]
 800578e:	1d3b      	adds	r3, r7, #4
 8005790:	801a      	strh	r2, [r3, #0]
  _SetEPTxAddr(bEpNum, wAddr);
 8005792:	4b09      	ldr	r3, [pc, #36]	; (80057b8 <SetEPTxAddr+0x38>)
 8005794:	681b      	ldr	r3, [r3, #0]
 8005796:	b29b      	uxth	r3, r3
 8005798:	1c1a      	adds	r2, r3, #0
 800579a:	1dfb      	adds	r3, r7, #7
 800579c:	781b      	ldrb	r3, [r3, #0]
 800579e:	00db      	lsls	r3, r3, #3
 80057a0:	18d3      	adds	r3, r2, r3
 80057a2:	4a06      	ldr	r2, [pc, #24]	; (80057bc <SetEPTxAddr+0x3c>)
 80057a4:	189b      	adds	r3, r3, r2
 80057a6:	1d3a      	adds	r2, r7, #4
 80057a8:	8812      	ldrh	r2, [r2, #0]
 80057aa:	2101      	movs	r1, #1
 80057ac:	438a      	bics	r2, r1
 80057ae:	b292      	uxth	r2, r2
 80057b0:	801a      	strh	r2, [r3, #0]
}
 80057b2:	46bd      	mov	sp, r7
 80057b4:	b002      	add	sp, #8
 80057b6:	bd80      	pop	{r7, pc}
 80057b8:	40005c50 	.word	0x40005c50
 80057bc:	40006000 	.word	0x40006000

080057c0 <SetEPRxAddr>:
  * @param   bEpNum: Endpoint Number
  * @param   wAddr: new address.
  * @retval Endpoint address.
  */
void SetEPRxAddr(uint8_t bEpNum, uint16_t wAddr)
{
 80057c0:	b580      	push	{r7, lr}
 80057c2:	b082      	sub	sp, #8
 80057c4:	af00      	add	r7, sp, #0
 80057c6:	1c0a      	adds	r2, r1, #0
 80057c8:	1dfb      	adds	r3, r7, #7
 80057ca:	1c01      	adds	r1, r0, #0
 80057cc:	7019      	strb	r1, [r3, #0]
 80057ce:	1d3b      	adds	r3, r7, #4
 80057d0:	801a      	strh	r2, [r3, #0]
  _SetEPRxAddr(bEpNum, wAddr);
 80057d2:	4b09      	ldr	r3, [pc, #36]	; (80057f8 <SetEPRxAddr+0x38>)
 80057d4:	681b      	ldr	r3, [r3, #0]
 80057d6:	b29b      	uxth	r3, r3
 80057d8:	1c1a      	adds	r2, r3, #0
 80057da:	1dfb      	adds	r3, r7, #7
 80057dc:	781b      	ldrb	r3, [r3, #0]
 80057de:	00db      	lsls	r3, r3, #3
 80057e0:	18d3      	adds	r3, r2, r3
 80057e2:	4a06      	ldr	r2, [pc, #24]	; (80057fc <SetEPRxAddr+0x3c>)
 80057e4:	189b      	adds	r3, r3, r2
 80057e6:	1d3a      	adds	r2, r7, #4
 80057e8:	8812      	ldrh	r2, [r2, #0]
 80057ea:	2101      	movs	r1, #1
 80057ec:	438a      	bics	r2, r1
 80057ee:	b292      	uxth	r2, r2
 80057f0:	801a      	strh	r2, [r3, #0]
}
 80057f2:	46bd      	mov	sp, r7
 80057f4:	b002      	add	sp, #8
 80057f6:	bd80      	pop	{r7, pc}
 80057f8:	40005c50 	.word	0x40005c50
 80057fc:	40006004 	.word	0x40006004

08005800 <SetEPTxCount>:
  * @param   bEpNum: Endpoint Number
  * @param   wCount: new count value.
  * @retval Rx buffer address.
  */
void SetEPTxCount(uint8_t bEpNum, uint16_t wCount)
{
 8005800:	b580      	push	{r7, lr}
 8005802:	b082      	sub	sp, #8
 8005804:	af00      	add	r7, sp, #0
 8005806:	1c0a      	adds	r2, r1, #0
 8005808:	1dfb      	adds	r3, r7, #7
 800580a:	1c01      	adds	r1, r0, #0
 800580c:	7019      	strb	r1, [r3, #0]
 800580e:	1d3b      	adds	r3, r7, #4
 8005810:	801a      	strh	r2, [r3, #0]
  _SetEPTxCount(bEpNum, wCount);
 8005812:	4b08      	ldr	r3, [pc, #32]	; (8005834 <SetEPTxCount+0x34>)
 8005814:	681b      	ldr	r3, [r3, #0]
 8005816:	b29b      	uxth	r3, r3
 8005818:	1c1a      	adds	r2, r3, #0
 800581a:	1dfb      	adds	r3, r7, #7
 800581c:	781b      	ldrb	r3, [r3, #0]
 800581e:	00db      	lsls	r3, r3, #3
 8005820:	18d3      	adds	r3, r2, r3
 8005822:	4a05      	ldr	r2, [pc, #20]	; (8005838 <SetEPTxCount+0x38>)
 8005824:	189b      	adds	r3, r3, r2
 8005826:	1d3a      	adds	r2, r7, #4
 8005828:	8812      	ldrh	r2, [r2, #0]
 800582a:	801a      	strh	r2, [r3, #0]
}
 800582c:	46bd      	mov	sp, r7
 800582e:	b002      	add	sp, #8
 8005830:	bd80      	pop	{r7, pc}
 8005832:	46c0      	nop			; (mov r8, r8)
 8005834:	40005c50 	.word	0x40005c50
 8005838:	40006002 	.word	0x40006002

0800583c <SetEPRxCount>:
  * @param   bEpNum: Endpoint Number.
  * @param   wCount: the new register value.
  * @retval None
  */
void SetEPRxCount(uint8_t bEpNum, uint16_t wCount)
{
 800583c:	b580      	push	{r7, lr}
 800583e:	b084      	sub	sp, #16
 8005840:	af00      	add	r7, sp, #0
 8005842:	1c0a      	adds	r2, r1, #0
 8005844:	1dfb      	adds	r3, r7, #7
 8005846:	1c01      	adds	r1, r0, #0
 8005848:	7019      	strb	r1, [r3, #0]
 800584a:	1d3b      	adds	r3, r7, #4
 800584c:	801a      	strh	r2, [r3, #0]
  _SetEPRxCount(bEpNum, wCount);
 800584e:	4b24      	ldr	r3, [pc, #144]	; (80058e0 <SetEPRxCount+0xa4>)
 8005850:	681b      	ldr	r3, [r3, #0]
 8005852:	b29b      	uxth	r3, r3
 8005854:	1c1a      	adds	r2, r3, #0
 8005856:	1dfb      	adds	r3, r7, #7
 8005858:	781b      	ldrb	r3, [r3, #0]
 800585a:	00db      	lsls	r3, r3, #3
 800585c:	18d3      	adds	r3, r2, r3
 800585e:	4a21      	ldr	r2, [pc, #132]	; (80058e4 <SetEPRxCount+0xa8>)
 8005860:	189b      	adds	r3, r3, r2
 8005862:	60bb      	str	r3, [r7, #8]
 8005864:	1d3b      	adds	r3, r7, #4
 8005866:	881b      	ldrh	r3, [r3, #0]
 8005868:	2b3e      	cmp	r3, #62	; 0x3e
 800586a:	d91d      	bls.n	80058a8 <SetEPRxCount+0x6c>
 800586c:	1c3b      	adds	r3, r7, #0
 800586e:	330e      	adds	r3, #14
 8005870:	1d3a      	adds	r2, r7, #4
 8005872:	8812      	ldrh	r2, [r2, #0]
 8005874:	0952      	lsrs	r2, r2, #5
 8005876:	801a      	strh	r2, [r3, #0]
 8005878:	1d3b      	adds	r3, r7, #4
 800587a:	881a      	ldrh	r2, [r3, #0]
 800587c:	231f      	movs	r3, #31
 800587e:	4013      	ands	r3, r2
 8005880:	d106      	bne.n	8005890 <SetEPRxCount+0x54>
 8005882:	1c3b      	adds	r3, r7, #0
 8005884:	330e      	adds	r3, #14
 8005886:	881a      	ldrh	r2, [r3, #0]
 8005888:	1c3b      	adds	r3, r7, #0
 800588a:	330e      	adds	r3, #14
 800588c:	3a01      	subs	r2, #1
 800588e:	801a      	strh	r2, [r3, #0]
 8005890:	1c3b      	adds	r3, r7, #0
 8005892:	330e      	adds	r3, #14
 8005894:	881b      	ldrh	r3, [r3, #0]
 8005896:	029b      	lsls	r3, r3, #10
 8005898:	b29b      	uxth	r3, r3
 800589a:	4a13      	ldr	r2, [pc, #76]	; (80058e8 <SetEPRxCount+0xac>)
 800589c:	4313      	orrs	r3, r2
 800589e:	b29b      	uxth	r3, r3
 80058a0:	b29a      	uxth	r2, r3
 80058a2:	68bb      	ldr	r3, [r7, #8]
 80058a4:	801a      	strh	r2, [r3, #0]
 80058a6:	e018      	b.n	80058da <SetEPRxCount+0x9e>
 80058a8:	1c3b      	adds	r3, r7, #0
 80058aa:	330e      	adds	r3, #14
 80058ac:	1d3a      	adds	r2, r7, #4
 80058ae:	8812      	ldrh	r2, [r2, #0]
 80058b0:	0852      	lsrs	r2, r2, #1
 80058b2:	801a      	strh	r2, [r3, #0]
 80058b4:	1d3b      	adds	r3, r7, #4
 80058b6:	881a      	ldrh	r2, [r3, #0]
 80058b8:	2301      	movs	r3, #1
 80058ba:	4013      	ands	r3, r2
 80058bc:	d006      	beq.n	80058cc <SetEPRxCount+0x90>
 80058be:	1c3b      	adds	r3, r7, #0
 80058c0:	330e      	adds	r3, #14
 80058c2:	881a      	ldrh	r2, [r3, #0]
 80058c4:	1c3b      	adds	r3, r7, #0
 80058c6:	330e      	adds	r3, #14
 80058c8:	3201      	adds	r2, #1
 80058ca:	801a      	strh	r2, [r3, #0]
 80058cc:	1c3b      	adds	r3, r7, #0
 80058ce:	330e      	adds	r3, #14
 80058d0:	881b      	ldrh	r3, [r3, #0]
 80058d2:	029b      	lsls	r3, r3, #10
 80058d4:	b29a      	uxth	r2, r3
 80058d6:	68bb      	ldr	r3, [r7, #8]
 80058d8:	801a      	strh	r2, [r3, #0]
}
 80058da:	46bd      	mov	sp, r7
 80058dc:	b004      	add	sp, #16
 80058de:	bd80      	pop	{r7, pc}
 80058e0:	40005c50 	.word	0x40005c50
 80058e4:	40006006 	.word	0x40006006
 80058e8:	ffff8000 	.word	0xffff8000

080058ec <GetEPTxCount>:
  * @brief Get the Tx count.
  * @param   bEpNum: Endpoint Number.
  * @retval Tx count value.
  */
uint16_t GetEPTxCount(uint8_t bEpNum)
{
 80058ec:	b580      	push	{r7, lr}
 80058ee:	b082      	sub	sp, #8
 80058f0:	af00      	add	r7, sp, #0
 80058f2:	1c02      	adds	r2, r0, #0
 80058f4:	1dfb      	adds	r3, r7, #7
 80058f6:	701a      	strb	r2, [r3, #0]
  return(_GetEPTxCount(bEpNum));
 80058f8:	4b08      	ldr	r3, [pc, #32]	; (800591c <GetEPTxCount+0x30>)
 80058fa:	681b      	ldr	r3, [r3, #0]
 80058fc:	b29b      	uxth	r3, r3
 80058fe:	1c1a      	adds	r2, r3, #0
 8005900:	1dfb      	adds	r3, r7, #7
 8005902:	781b      	ldrb	r3, [r3, #0]
 8005904:	00db      	lsls	r3, r3, #3
 8005906:	18d3      	adds	r3, r2, r3
 8005908:	4a05      	ldr	r2, [pc, #20]	; (8005920 <GetEPTxCount+0x34>)
 800590a:	189b      	adds	r3, r3, r2
 800590c:	881b      	ldrh	r3, [r3, #0]
 800590e:	059b      	lsls	r3, r3, #22
 8005910:	0d9b      	lsrs	r3, r3, #22
 8005912:	b29b      	uxth	r3, r3
}
 8005914:	1c18      	adds	r0, r3, #0
 8005916:	46bd      	mov	sp, r7
 8005918:	b002      	add	sp, #8
 800591a:	bd80      	pop	{r7, pc}
 800591c:	40005c50 	.word	0x40005c50
 8005920:	40006002 	.word	0x40006002

08005924 <GetEPRxCount>:
  * @brief Get the Rx count.
  * @param   bEpNum: Endpoint Number.
  * @retval Rx count value.
  */
uint16_t GetEPRxCount(uint8_t bEpNum)
{
 8005924:	b580      	push	{r7, lr}
 8005926:	b082      	sub	sp, #8
 8005928:	af00      	add	r7, sp, #0
 800592a:	1c02      	adds	r2, r0, #0
 800592c:	1dfb      	adds	r3, r7, #7
 800592e:	701a      	strb	r2, [r3, #0]
  return(_GetEPRxCount(bEpNum));
 8005930:	4b08      	ldr	r3, [pc, #32]	; (8005954 <GetEPRxCount+0x30>)
 8005932:	681b      	ldr	r3, [r3, #0]
 8005934:	b29b      	uxth	r3, r3
 8005936:	1c1a      	adds	r2, r3, #0
 8005938:	1dfb      	adds	r3, r7, #7
 800593a:	781b      	ldrb	r3, [r3, #0]
 800593c:	00db      	lsls	r3, r3, #3
 800593e:	18d3      	adds	r3, r2, r3
 8005940:	4a05      	ldr	r2, [pc, #20]	; (8005958 <GetEPRxCount+0x34>)
 8005942:	189b      	adds	r3, r3, r2
 8005944:	881b      	ldrh	r3, [r3, #0]
 8005946:	059b      	lsls	r3, r3, #22
 8005948:	0d9b      	lsrs	r3, r3, #22
 800594a:	b29b      	uxth	r3, r3
}
 800594c:	1c18      	adds	r0, r3, #0
 800594e:	46bd      	mov	sp, r7
 8005950:	b002      	add	sp, #8
 8005952:	bd80      	pop	{r7, pc}
 8005954:	40005c50 	.word	0x40005c50
 8005958:	40006006 	.word	0x40006006

0800595c <SetEPDblBuffAddr>:
  * @param   wBuf0Addr: new address of buffer 0.
  * @param   wBuf1Addr: new address of buffer 1.
  * @retval None
  */
void SetEPDblBuffAddr(uint8_t bEpNum, uint16_t wBuf0Addr, uint16_t wBuf1Addr)
{
 800595c:	b580      	push	{r7, lr}
 800595e:	b082      	sub	sp, #8
 8005960:	af00      	add	r7, sp, #0
 8005962:	1dfb      	adds	r3, r7, #7
 8005964:	7018      	strb	r0, [r3, #0]
 8005966:	1d3b      	adds	r3, r7, #4
 8005968:	8019      	strh	r1, [r3, #0]
 800596a:	1cbb      	adds	r3, r7, #2
 800596c:	801a      	strh	r2, [r3, #0]
  _SetEPDblBuffAddr(bEpNum, wBuf0Addr, wBuf1Addr);
 800596e:	4b11      	ldr	r3, [pc, #68]	; (80059b4 <SetEPDblBuffAddr+0x58>)
 8005970:	681b      	ldr	r3, [r3, #0]
 8005972:	b29b      	uxth	r3, r3
 8005974:	1c1a      	adds	r2, r3, #0
 8005976:	1dfb      	adds	r3, r7, #7
 8005978:	781b      	ldrb	r3, [r3, #0]
 800597a:	00db      	lsls	r3, r3, #3
 800597c:	18d3      	adds	r3, r2, r3
 800597e:	4a0e      	ldr	r2, [pc, #56]	; (80059b8 <SetEPDblBuffAddr+0x5c>)
 8005980:	189b      	adds	r3, r3, r2
 8005982:	1d3a      	adds	r2, r7, #4
 8005984:	8812      	ldrh	r2, [r2, #0]
 8005986:	2101      	movs	r1, #1
 8005988:	438a      	bics	r2, r1
 800598a:	b292      	uxth	r2, r2
 800598c:	801a      	strh	r2, [r3, #0]
 800598e:	4b09      	ldr	r3, [pc, #36]	; (80059b4 <SetEPDblBuffAddr+0x58>)
 8005990:	681b      	ldr	r3, [r3, #0]
 8005992:	b29b      	uxth	r3, r3
 8005994:	1c1a      	adds	r2, r3, #0
 8005996:	1dfb      	adds	r3, r7, #7
 8005998:	781b      	ldrb	r3, [r3, #0]
 800599a:	00db      	lsls	r3, r3, #3
 800599c:	18d3      	adds	r3, r2, r3
 800599e:	4a07      	ldr	r2, [pc, #28]	; (80059bc <SetEPDblBuffAddr+0x60>)
 80059a0:	189b      	adds	r3, r3, r2
 80059a2:	1cba      	adds	r2, r7, #2
 80059a4:	8812      	ldrh	r2, [r2, #0]
 80059a6:	2101      	movs	r1, #1
 80059a8:	438a      	bics	r2, r1
 80059aa:	b292      	uxth	r2, r2
 80059ac:	801a      	strh	r2, [r3, #0]
}
 80059ae:	46bd      	mov	sp, r7
 80059b0:	b002      	add	sp, #8
 80059b2:	bd80      	pop	{r7, pc}
 80059b4:	40005c50 	.word	0x40005c50
 80059b8:	40006000 	.word	0x40006000
 80059bc:	40006004 	.word	0x40006004

080059c0 <SetEPDblBuffCount>:
  * @brief Set the number of bytes for a double Buffer
  * @param   bEpNum,bDir, wCount
  * @retval Address of the Buffer 1.
  */
void SetEPDblBuffCount(uint8_t bEpNum, uint8_t bDir, uint16_t wCount)
{
 80059c0:	b580      	push	{r7, lr}
 80059c2:	b086      	sub	sp, #24
 80059c4:	af00      	add	r7, sp, #0
 80059c6:	1dfb      	adds	r3, r7, #7
 80059c8:	7018      	strb	r0, [r3, #0]
 80059ca:	1dbb      	adds	r3, r7, #6
 80059cc:	7019      	strb	r1, [r3, #0]
 80059ce:	1d3b      	adds	r3, r7, #4
 80059d0:	801a      	strh	r2, [r3, #0]
  _SetEPDblBuffCount(bEpNum, bDir, wCount);
 80059d2:	1dbb      	adds	r3, r7, #6
 80059d4:	781b      	ldrb	r3, [r3, #0]
 80059d6:	2b00      	cmp	r3, #0
 80059d8:	d146      	bne.n	8005a68 <SetEPDblBuffCount+0xa8>
 80059da:	4b5b      	ldr	r3, [pc, #364]	; (8005b48 <SetEPDblBuffCount+0x188>)
 80059dc:	681b      	ldr	r3, [r3, #0]
 80059de:	b29b      	uxth	r3, r3
 80059e0:	1c1a      	adds	r2, r3, #0
 80059e2:	1dfb      	adds	r3, r7, #7
 80059e4:	781b      	ldrb	r3, [r3, #0]
 80059e6:	00db      	lsls	r3, r3, #3
 80059e8:	18d3      	adds	r3, r2, r3
 80059ea:	4a58      	ldr	r2, [pc, #352]	; (8005b4c <SetEPDblBuffCount+0x18c>)
 80059ec:	189b      	adds	r3, r3, r2
 80059ee:	613b      	str	r3, [r7, #16]
 80059f0:	1d3b      	adds	r3, r7, #4
 80059f2:	881b      	ldrh	r3, [r3, #0]
 80059f4:	2b3e      	cmp	r3, #62	; 0x3e
 80059f6:	d91d      	bls.n	8005a34 <SetEPDblBuffCount+0x74>
 80059f8:	1c3b      	adds	r3, r7, #0
 80059fa:	3316      	adds	r3, #22
 80059fc:	1d3a      	adds	r2, r7, #4
 80059fe:	8812      	ldrh	r2, [r2, #0]
 8005a00:	0952      	lsrs	r2, r2, #5
 8005a02:	801a      	strh	r2, [r3, #0]
 8005a04:	1d3b      	adds	r3, r7, #4
 8005a06:	881a      	ldrh	r2, [r3, #0]
 8005a08:	231f      	movs	r3, #31
 8005a0a:	4013      	ands	r3, r2
 8005a0c:	d106      	bne.n	8005a1c <SetEPDblBuffCount+0x5c>
 8005a0e:	1c3b      	adds	r3, r7, #0
 8005a10:	3316      	adds	r3, #22
 8005a12:	881a      	ldrh	r2, [r3, #0]
 8005a14:	1c3b      	adds	r3, r7, #0
 8005a16:	3316      	adds	r3, #22
 8005a18:	3a01      	subs	r2, #1
 8005a1a:	801a      	strh	r2, [r3, #0]
 8005a1c:	1c3b      	adds	r3, r7, #0
 8005a1e:	3316      	adds	r3, #22
 8005a20:	881b      	ldrh	r3, [r3, #0]
 8005a22:	029b      	lsls	r3, r3, #10
 8005a24:	b29b      	uxth	r3, r3
 8005a26:	4a4a      	ldr	r2, [pc, #296]	; (8005b50 <SetEPDblBuffCount+0x190>)
 8005a28:	4313      	orrs	r3, r2
 8005a2a:	b29b      	uxth	r3, r3
 8005a2c:	b29a      	uxth	r2, r3
 8005a2e:	693b      	ldr	r3, [r7, #16]
 8005a30:	801a      	strh	r2, [r3, #0]
 8005a32:	e02a      	b.n	8005a8a <SetEPDblBuffCount+0xca>
 8005a34:	1c3b      	adds	r3, r7, #0
 8005a36:	3316      	adds	r3, #22
 8005a38:	1d3a      	adds	r2, r7, #4
 8005a3a:	8812      	ldrh	r2, [r2, #0]
 8005a3c:	0852      	lsrs	r2, r2, #1
 8005a3e:	801a      	strh	r2, [r3, #0]
 8005a40:	1d3b      	adds	r3, r7, #4
 8005a42:	881a      	ldrh	r2, [r3, #0]
 8005a44:	2301      	movs	r3, #1
 8005a46:	4013      	ands	r3, r2
 8005a48:	d006      	beq.n	8005a58 <SetEPDblBuffCount+0x98>
 8005a4a:	1c3b      	adds	r3, r7, #0
 8005a4c:	3316      	adds	r3, #22
 8005a4e:	881a      	ldrh	r2, [r3, #0]
 8005a50:	1c3b      	adds	r3, r7, #0
 8005a52:	3316      	adds	r3, #22
 8005a54:	3201      	adds	r2, #1
 8005a56:	801a      	strh	r2, [r3, #0]
 8005a58:	1c3b      	adds	r3, r7, #0
 8005a5a:	3316      	adds	r3, #22
 8005a5c:	881b      	ldrh	r3, [r3, #0]
 8005a5e:	029b      	lsls	r3, r3, #10
 8005a60:	b29a      	uxth	r2, r3
 8005a62:	693b      	ldr	r3, [r7, #16]
 8005a64:	801a      	strh	r2, [r3, #0]
 8005a66:	e010      	b.n	8005a8a <SetEPDblBuffCount+0xca>
 8005a68:	1dbb      	adds	r3, r7, #6
 8005a6a:	781b      	ldrb	r3, [r3, #0]
 8005a6c:	2b01      	cmp	r3, #1
 8005a6e:	d10c      	bne.n	8005a8a <SetEPDblBuffCount+0xca>
 8005a70:	4b35      	ldr	r3, [pc, #212]	; (8005b48 <SetEPDblBuffCount+0x188>)
 8005a72:	681b      	ldr	r3, [r3, #0]
 8005a74:	b29b      	uxth	r3, r3
 8005a76:	1c1a      	adds	r2, r3, #0
 8005a78:	1dfb      	adds	r3, r7, #7
 8005a7a:	781b      	ldrb	r3, [r3, #0]
 8005a7c:	00db      	lsls	r3, r3, #3
 8005a7e:	18d3      	adds	r3, r2, r3
 8005a80:	4a32      	ldr	r2, [pc, #200]	; (8005b4c <SetEPDblBuffCount+0x18c>)
 8005a82:	189b      	adds	r3, r3, r2
 8005a84:	1d3a      	adds	r2, r7, #4
 8005a86:	8812      	ldrh	r2, [r2, #0]
 8005a88:	801a      	strh	r2, [r3, #0]
 8005a8a:	1dbb      	adds	r3, r7, #6
 8005a8c:	781b      	ldrb	r3, [r3, #0]
 8005a8e:	2b00      	cmp	r3, #0
 8005a90:	d146      	bne.n	8005b20 <SetEPDblBuffCount+0x160>
 8005a92:	4b2d      	ldr	r3, [pc, #180]	; (8005b48 <SetEPDblBuffCount+0x188>)
 8005a94:	681b      	ldr	r3, [r3, #0]
 8005a96:	b29b      	uxth	r3, r3
 8005a98:	1c1a      	adds	r2, r3, #0
 8005a9a:	1dfb      	adds	r3, r7, #7
 8005a9c:	781b      	ldrb	r3, [r3, #0]
 8005a9e:	00db      	lsls	r3, r3, #3
 8005aa0:	18d3      	adds	r3, r2, r3
 8005aa2:	4a2c      	ldr	r2, [pc, #176]	; (8005b54 <SetEPDblBuffCount+0x194>)
 8005aa4:	189b      	adds	r3, r3, r2
 8005aa6:	60fb      	str	r3, [r7, #12]
 8005aa8:	1d3b      	adds	r3, r7, #4
 8005aaa:	881b      	ldrh	r3, [r3, #0]
 8005aac:	2b3e      	cmp	r3, #62	; 0x3e
 8005aae:	d91d      	bls.n	8005aec <SetEPDblBuffCount+0x12c>
 8005ab0:	1c3b      	adds	r3, r7, #0
 8005ab2:	3314      	adds	r3, #20
 8005ab4:	1d3a      	adds	r2, r7, #4
 8005ab6:	8812      	ldrh	r2, [r2, #0]
 8005ab8:	0952      	lsrs	r2, r2, #5
 8005aba:	801a      	strh	r2, [r3, #0]
 8005abc:	1d3b      	adds	r3, r7, #4
 8005abe:	881a      	ldrh	r2, [r3, #0]
 8005ac0:	231f      	movs	r3, #31
 8005ac2:	4013      	ands	r3, r2
 8005ac4:	d106      	bne.n	8005ad4 <SetEPDblBuffCount+0x114>
 8005ac6:	1c3b      	adds	r3, r7, #0
 8005ac8:	3314      	adds	r3, #20
 8005aca:	881a      	ldrh	r2, [r3, #0]
 8005acc:	1c3b      	adds	r3, r7, #0
 8005ace:	3314      	adds	r3, #20
 8005ad0:	3a01      	subs	r2, #1
 8005ad2:	801a      	strh	r2, [r3, #0]
 8005ad4:	1c3b      	adds	r3, r7, #0
 8005ad6:	3314      	adds	r3, #20
 8005ad8:	881b      	ldrh	r3, [r3, #0]
 8005ada:	029b      	lsls	r3, r3, #10
 8005adc:	b29b      	uxth	r3, r3
 8005ade:	4a1c      	ldr	r2, [pc, #112]	; (8005b50 <SetEPDblBuffCount+0x190>)
 8005ae0:	4313      	orrs	r3, r2
 8005ae2:	b29b      	uxth	r3, r3
 8005ae4:	b29a      	uxth	r2, r3
 8005ae6:	68fb      	ldr	r3, [r7, #12]
 8005ae8:	801a      	strh	r2, [r3, #0]
 8005aea:	e02a      	b.n	8005b42 <SetEPDblBuffCount+0x182>
 8005aec:	1c3b      	adds	r3, r7, #0
 8005aee:	3314      	adds	r3, #20
 8005af0:	1d3a      	adds	r2, r7, #4
 8005af2:	8812      	ldrh	r2, [r2, #0]
 8005af4:	0852      	lsrs	r2, r2, #1
 8005af6:	801a      	strh	r2, [r3, #0]
 8005af8:	1d3b      	adds	r3, r7, #4
 8005afa:	881a      	ldrh	r2, [r3, #0]
 8005afc:	2301      	movs	r3, #1
 8005afe:	4013      	ands	r3, r2
 8005b00:	d006      	beq.n	8005b10 <SetEPDblBuffCount+0x150>
 8005b02:	1c3b      	adds	r3, r7, #0
 8005b04:	3314      	adds	r3, #20
 8005b06:	881a      	ldrh	r2, [r3, #0]
 8005b08:	1c3b      	adds	r3, r7, #0
 8005b0a:	3314      	adds	r3, #20
 8005b0c:	3201      	adds	r2, #1
 8005b0e:	801a      	strh	r2, [r3, #0]
 8005b10:	1c3b      	adds	r3, r7, #0
 8005b12:	3314      	adds	r3, #20
 8005b14:	881b      	ldrh	r3, [r3, #0]
 8005b16:	029b      	lsls	r3, r3, #10
 8005b18:	b29a      	uxth	r2, r3
 8005b1a:	68fb      	ldr	r3, [r7, #12]
 8005b1c:	801a      	strh	r2, [r3, #0]
 8005b1e:	e010      	b.n	8005b42 <SetEPDblBuffCount+0x182>
 8005b20:	1dbb      	adds	r3, r7, #6
 8005b22:	781b      	ldrb	r3, [r3, #0]
 8005b24:	2b01      	cmp	r3, #1
 8005b26:	d10c      	bne.n	8005b42 <SetEPDblBuffCount+0x182>
 8005b28:	4b07      	ldr	r3, [pc, #28]	; (8005b48 <SetEPDblBuffCount+0x188>)
 8005b2a:	681b      	ldr	r3, [r3, #0]
 8005b2c:	b29b      	uxth	r3, r3
 8005b2e:	1c1a      	adds	r2, r3, #0
 8005b30:	1dfb      	adds	r3, r7, #7
 8005b32:	781b      	ldrb	r3, [r3, #0]
 8005b34:	00db      	lsls	r3, r3, #3
 8005b36:	18d3      	adds	r3, r2, r3
 8005b38:	4a06      	ldr	r2, [pc, #24]	; (8005b54 <SetEPDblBuffCount+0x194>)
 8005b3a:	189b      	adds	r3, r3, r2
 8005b3c:	1d3a      	adds	r2, r7, #4
 8005b3e:	8812      	ldrh	r2, [r2, #0]
 8005b40:	801a      	strh	r2, [r3, #0]
}
 8005b42:	46bd      	mov	sp, r7
 8005b44:	b006      	add	sp, #24
 8005b46:	bd80      	pop	{r7, pc}
 8005b48:	40005c50 	.word	0x40005c50
 8005b4c:	40006002 	.word	0x40006002
 8005b50:	ffff8000 	.word	0xffff8000
 8005b54:	40006006 	.word	0x40006006

08005b58 <GetEPDblBuf0Count>:
  *         Buffer endpoint.
  * @param   bEpNum: Endpoint Number.
  * @retval Endpoint Buffer 0 count
  */
uint16_t GetEPDblBuf0Count(uint8_t bEpNum)
{
 8005b58:	b580      	push	{r7, lr}
 8005b5a:	b082      	sub	sp, #8
 8005b5c:	af00      	add	r7, sp, #0
 8005b5e:	1c02      	adds	r2, r0, #0
 8005b60:	1dfb      	adds	r3, r7, #7
 8005b62:	701a      	strb	r2, [r3, #0]
  return(_GetEPDblBuf0Count(bEpNum));
 8005b64:	4b08      	ldr	r3, [pc, #32]	; (8005b88 <GetEPDblBuf0Count+0x30>)
 8005b66:	681b      	ldr	r3, [r3, #0]
 8005b68:	b29b      	uxth	r3, r3
 8005b6a:	1c1a      	adds	r2, r3, #0
 8005b6c:	1dfb      	adds	r3, r7, #7
 8005b6e:	781b      	ldrb	r3, [r3, #0]
 8005b70:	00db      	lsls	r3, r3, #3
 8005b72:	18d3      	adds	r3, r2, r3
 8005b74:	4a05      	ldr	r2, [pc, #20]	; (8005b8c <GetEPDblBuf0Count+0x34>)
 8005b76:	189b      	adds	r3, r3, r2
 8005b78:	881b      	ldrh	r3, [r3, #0]
 8005b7a:	059b      	lsls	r3, r3, #22
 8005b7c:	0d9b      	lsrs	r3, r3, #22
 8005b7e:	b29b      	uxth	r3, r3
}
 8005b80:	1c18      	adds	r0, r3, #0
 8005b82:	46bd      	mov	sp, r7
 8005b84:	b002      	add	sp, #8
 8005b86:	bd80      	pop	{r7, pc}
 8005b88:	40005c50 	.word	0x40005c50
 8005b8c:	40006002 	.word	0x40006002

08005b90 <GetEPDblBuf1Count>:
  * @brief Returns the number of data received in the buffer 1 of a double
  * @param   bEpNum: Endpoint Number.
  * @retval Endpoint Buffer 1 count
  */
uint16_t GetEPDblBuf1Count(uint8_t bEpNum)
{
 8005b90:	b580      	push	{r7, lr}
 8005b92:	b082      	sub	sp, #8
 8005b94:	af00      	add	r7, sp, #0
 8005b96:	1c02      	adds	r2, r0, #0
 8005b98:	1dfb      	adds	r3, r7, #7
 8005b9a:	701a      	strb	r2, [r3, #0]
  return(_GetEPDblBuf1Count(bEpNum));
 8005b9c:	4b08      	ldr	r3, [pc, #32]	; (8005bc0 <GetEPDblBuf1Count+0x30>)
 8005b9e:	681b      	ldr	r3, [r3, #0]
 8005ba0:	b29b      	uxth	r3, r3
 8005ba2:	1c1a      	adds	r2, r3, #0
 8005ba4:	1dfb      	adds	r3, r7, #7
 8005ba6:	781b      	ldrb	r3, [r3, #0]
 8005ba8:	00db      	lsls	r3, r3, #3
 8005baa:	18d3      	adds	r3, r2, r3
 8005bac:	4a05      	ldr	r2, [pc, #20]	; (8005bc4 <GetEPDblBuf1Count+0x34>)
 8005bae:	189b      	adds	r3, r3, r2
 8005bb0:	881b      	ldrh	r3, [r3, #0]
 8005bb2:	059b      	lsls	r3, r3, #22
 8005bb4:	0d9b      	lsrs	r3, r3, #22
 8005bb6:	b29b      	uxth	r3, r3
}
 8005bb8:	1c18      	adds	r0, r3, #0
 8005bba:	46bd      	mov	sp, r7
 8005bbc:	b002      	add	sp, #8
 8005bbe:	bd80      	pop	{r7, pc}
 8005bc0:	40005c50 	.word	0x40005c50
 8005bc4:	40006006 	.word	0x40006006

08005bc8 <FreeUserBuffer>:
          toggles bit SW_BUF in the double buffered endpoint register
  * @param   bEpNum, bDir
  * @retval None
  */
void FreeUserBuffer(uint8_t bEpNum, uint8_t bDir)
{
 8005bc8:	b580      	push	{r7, lr}
 8005bca:	b082      	sub	sp, #8
 8005bcc:	af00      	add	r7, sp, #0
 8005bce:	1c0a      	adds	r2, r1, #0
 8005bd0:	1dfb      	adds	r3, r7, #7
 8005bd2:	1c01      	adds	r1, r0, #0
 8005bd4:	7019      	strb	r1, [r3, #0]
 8005bd6:	1dbb      	adds	r3, r7, #6
 8005bd8:	701a      	strb	r2, [r3, #0]
  if (bDir == EP_DBUF_OUT)
 8005bda:	1dbb      	adds	r3, r7, #6
 8005bdc:	781b      	ldrb	r3, [r3, #0]
 8005bde:	2b00      	cmp	r3, #0
 8005be0:	d112      	bne.n	8005c08 <FreeUserBuffer+0x40>
  { /* OUT double buffered endpoint */
    _ToggleDTOG_TX(bEpNum);
 8005be2:	1dfb      	adds	r3, r7, #7
 8005be4:	781b      	ldrb	r3, [r3, #0]
 8005be6:	009b      	lsls	r3, r3, #2
 8005be8:	4914      	ldr	r1, [pc, #80]	; (8005c3c <FreeUserBuffer+0x74>)
 8005bea:	185b      	adds	r3, r3, r1
 8005bec:	1dfa      	adds	r2, r7, #7
 8005bee:	7812      	ldrb	r2, [r2, #0]
 8005bf0:	0092      	lsls	r2, r2, #2
 8005bf2:	4912      	ldr	r1, [pc, #72]	; (8005c3c <FreeUserBuffer+0x74>)
 8005bf4:	1852      	adds	r2, r2, r1
 8005bf6:	6812      	ldr	r2, [r2, #0]
 8005bf8:	b292      	uxth	r2, r2
 8005bfa:	1c11      	adds	r1, r2, #0
 8005bfc:	4a10      	ldr	r2, [pc, #64]	; (8005c40 <FreeUserBuffer+0x78>)
 8005bfe:	400a      	ands	r2, r1
 8005c00:	4910      	ldr	r1, [pc, #64]	; (8005c44 <FreeUserBuffer+0x7c>)
 8005c02:	430a      	orrs	r2, r1
 8005c04:	601a      	str	r2, [r3, #0]
 8005c06:	e015      	b.n	8005c34 <FreeUserBuffer+0x6c>
  }
  else if (bDir == EP_DBUF_IN)
 8005c08:	1dbb      	adds	r3, r7, #6
 8005c0a:	781b      	ldrb	r3, [r3, #0]
 8005c0c:	2b01      	cmp	r3, #1
 8005c0e:	d111      	bne.n	8005c34 <FreeUserBuffer+0x6c>
  { /* IN double buffered endpoint */
    _ToggleDTOG_RX(bEpNum);
 8005c10:	1dfb      	adds	r3, r7, #7
 8005c12:	781b      	ldrb	r3, [r3, #0]
 8005c14:	009b      	lsls	r3, r3, #2
 8005c16:	4a09      	ldr	r2, [pc, #36]	; (8005c3c <FreeUserBuffer+0x74>)
 8005c18:	189b      	adds	r3, r3, r2
 8005c1a:	1dfa      	adds	r2, r7, #7
 8005c1c:	7812      	ldrb	r2, [r2, #0]
 8005c1e:	0092      	lsls	r2, r2, #2
 8005c20:	4906      	ldr	r1, [pc, #24]	; (8005c3c <FreeUserBuffer+0x74>)
 8005c22:	1852      	adds	r2, r2, r1
 8005c24:	6812      	ldr	r2, [r2, #0]
 8005c26:	b292      	uxth	r2, r2
 8005c28:	1c11      	adds	r1, r2, #0
 8005c2a:	4a05      	ldr	r2, [pc, #20]	; (8005c40 <FreeUserBuffer+0x78>)
 8005c2c:	400a      	ands	r2, r1
 8005c2e:	4906      	ldr	r1, [pc, #24]	; (8005c48 <FreeUserBuffer+0x80>)
 8005c30:	430a      	orrs	r2, r1
 8005c32:	601a      	str	r2, [r3, #0]
  }
}
 8005c34:	46bd      	mov	sp, r7
 8005c36:	b002      	add	sp, #8
 8005c38:	bd80      	pop	{r7, pc}
 8005c3a:	46c0      	nop			; (mov r8, r8)
 8005c3c:	40005c00 	.word	0x40005c00
 8005c40:	00000f0f 	.word	0x00000f0f
 8005c44:	000080c0 	.word	0x000080c0
 8005c48:	0000c080 	.word	0x0000c080

08005c4c <UserToPMABufferCopy>:
  * @param   wPMABufAddr: address into PMA.
  * @param   wNBytes: no. of bytes to be copied.
  * @retval None
  */
void UserToPMABufferCopy(uint8_t *pbUsrBuf, uint16_t wPMABufAddr, uint16_t wNBytes)
{
 8005c4c:	b580      	push	{r7, lr}
 8005c4e:	b086      	sub	sp, #24
 8005c50:	af00      	add	r7, sp, #0
 8005c52:	6078      	str	r0, [r7, #4]
 8005c54:	1cbb      	adds	r3, r7, #2
 8005c56:	8019      	strh	r1, [r3, #0]
 8005c58:	1c3b      	adds	r3, r7, #0
 8005c5a:	801a      	strh	r2, [r3, #0]
  uint32_t n = (wNBytes + 1) >> 1; 
 8005c5c:	1c3b      	adds	r3, r7, #0
 8005c5e:	881b      	ldrh	r3, [r3, #0]
 8005c60:	3301      	adds	r3, #1
 8005c62:	105b      	asrs	r3, r3, #1
 8005c64:	60fb      	str	r3, [r7, #12]
  uint32_t i;
  uint16_t temp1, temp2;
  uint16_t *pdwVal;
  pdwVal = (uint16_t *)(wPMABufAddr + PMAAddr);
 8005c66:	1cbb      	adds	r3, r7, #2
 8005c68:	881b      	ldrh	r3, [r3, #0]
 8005c6a:	4a16      	ldr	r2, [pc, #88]	; (8005cc4 <UserToPMABufferCopy+0x78>)
 8005c6c:	189b      	adds	r3, r3, r2
 8005c6e:	613b      	str	r3, [r7, #16]
  
  for (i = n; i != 0; i--)
 8005c70:	68fb      	ldr	r3, [r7, #12]
 8005c72:	617b      	str	r3, [r7, #20]
 8005c74:	e020      	b.n	8005cb8 <UserToPMABufferCopy+0x6c>
  {
    temp1 = (uint16_t) * pbUsrBuf;
 8005c76:	687b      	ldr	r3, [r7, #4]
 8005c78:	781a      	ldrb	r2, [r3, #0]
 8005c7a:	1c3b      	adds	r3, r7, #0
 8005c7c:	330a      	adds	r3, #10
 8005c7e:	801a      	strh	r2, [r3, #0]
    pbUsrBuf++;
 8005c80:	687b      	ldr	r3, [r7, #4]
 8005c82:	3301      	adds	r3, #1
 8005c84:	607b      	str	r3, [r7, #4]
    temp2 = temp1 | (uint16_t) * pbUsrBuf << 8;
 8005c86:	687b      	ldr	r3, [r7, #4]
 8005c88:	781b      	ldrb	r3, [r3, #0]
 8005c8a:	021b      	lsls	r3, r3, #8
 8005c8c:	b29a      	uxth	r2, r3
 8005c8e:	1c3b      	adds	r3, r7, #0
 8005c90:	330a      	adds	r3, #10
 8005c92:	881b      	ldrh	r3, [r3, #0]
 8005c94:	4313      	orrs	r3, r2
 8005c96:	b29a      	uxth	r2, r3
 8005c98:	1c3b      	adds	r3, r7, #0
 8005c9a:	3308      	adds	r3, #8
 8005c9c:	801a      	strh	r2, [r3, #0]
    *pdwVal++ = temp2;
 8005c9e:	693b      	ldr	r3, [r7, #16]
 8005ca0:	1c9a      	adds	r2, r3, #2
 8005ca2:	613a      	str	r2, [r7, #16]
 8005ca4:	1c3a      	adds	r2, r7, #0
 8005ca6:	3208      	adds	r2, #8
 8005ca8:	8812      	ldrh	r2, [r2, #0]
 8005caa:	801a      	strh	r2, [r3, #0]
    pbUsrBuf++;
 8005cac:	687b      	ldr	r3, [r7, #4]
 8005cae:	3301      	adds	r3, #1
 8005cb0:	607b      	str	r3, [r7, #4]
  uint32_t i;
  uint16_t temp1, temp2;
  uint16_t *pdwVal;
  pdwVal = (uint16_t *)(wPMABufAddr + PMAAddr);
  
  for (i = n; i != 0; i--)
 8005cb2:	697b      	ldr	r3, [r7, #20]
 8005cb4:	3b01      	subs	r3, #1
 8005cb6:	617b      	str	r3, [r7, #20]
 8005cb8:	697b      	ldr	r3, [r7, #20]
 8005cba:	2b00      	cmp	r3, #0
 8005cbc:	d1db      	bne.n	8005c76 <UserToPMABufferCopy+0x2a>
    pbUsrBuf++;
    temp2 = temp1 | (uint16_t) * pbUsrBuf << 8;
    *pdwVal++ = temp2;
    pbUsrBuf++;
  }
}
 8005cbe:	46bd      	mov	sp, r7
 8005cc0:	b006      	add	sp, #24
 8005cc2:	bd80      	pop	{r7, pc}
 8005cc4:	40006000 	.word	0x40006000

08005cc8 <PMAToUserBufferCopy>:
  * @param   wPMABufAddr: address into PMA.
  * @param   wNBytes: no. of bytes to be copied.
  * @retval None
  */
void PMAToUserBufferCopy(uint8_t *pbUsrBuf, uint16_t wPMABufAddr, uint16_t wNBytes)
{
 8005cc8:	b580      	push	{r7, lr}
 8005cca:	b086      	sub	sp, #24
 8005ccc:	af00      	add	r7, sp, #0
 8005cce:	6078      	str	r0, [r7, #4]
 8005cd0:	1cbb      	adds	r3, r7, #2
 8005cd2:	8019      	strh	r1, [r3, #0]
 8005cd4:	1c3b      	adds	r3, r7, #0
 8005cd6:	801a      	strh	r2, [r3, #0]
  uint32_t n = (wNBytes + 1) >> 1;
 8005cd8:	1c3b      	adds	r3, r7, #0
 8005cda:	881b      	ldrh	r3, [r3, #0]
 8005cdc:	3301      	adds	r3, #1
 8005cde:	105b      	asrs	r3, r3, #1
 8005ce0:	60fb      	str	r3, [r7, #12]
  uint32_t i;
  uint16_t *pdwVal;
  pdwVal = (uint16_t *)(wPMABufAddr + PMAAddr);
 8005ce2:	1cbb      	adds	r3, r7, #2
 8005ce4:	881b      	ldrh	r3, [r3, #0]
 8005ce6:	4a0d      	ldr	r2, [pc, #52]	; (8005d1c <PMAToUserBufferCopy+0x54>)
 8005ce8:	189b      	adds	r3, r3, r2
 8005cea:	613b      	str	r3, [r7, #16]
  for (i = n; i != 0; i--)
 8005cec:	68fb      	ldr	r3, [r7, #12]
 8005cee:	617b      	str	r3, [r7, #20]
 8005cf0:	e00d      	b.n	8005d0e <PMAToUserBufferCopy+0x46>
  {
    *(uint16_t*)pbUsrBuf++ = *pdwVal++;
 8005cf2:	687b      	ldr	r3, [r7, #4]
 8005cf4:	1c5a      	adds	r2, r3, #1
 8005cf6:	607a      	str	r2, [r7, #4]
 8005cf8:	693a      	ldr	r2, [r7, #16]
 8005cfa:	1c91      	adds	r1, r2, #2
 8005cfc:	6139      	str	r1, [r7, #16]
 8005cfe:	8812      	ldrh	r2, [r2, #0]
 8005d00:	801a      	strh	r2, [r3, #0]
    pbUsrBuf++;
 8005d02:	687b      	ldr	r3, [r7, #4]
 8005d04:	3301      	adds	r3, #1
 8005d06:	607b      	str	r3, [r7, #4]
{
  uint32_t n = (wNBytes + 1) >> 1;
  uint32_t i;
  uint16_t *pdwVal;
  pdwVal = (uint16_t *)(wPMABufAddr + PMAAddr);
  for (i = n; i != 0; i--)
 8005d08:	697b      	ldr	r3, [r7, #20]
 8005d0a:	3b01      	subs	r3, #1
 8005d0c:	617b      	str	r3, [r7, #20]
 8005d0e:	697b      	ldr	r3, [r7, #20]
 8005d10:	2b00      	cmp	r3, #0
 8005d12:	d1ee      	bne.n	8005cf2 <PMAToUserBufferCopy+0x2a>
  {
    *(uint16_t*)pbUsrBuf++ = *pdwVal++;
    pbUsrBuf++;
  }
}
 8005d14:	46bd      	mov	sp, r7
 8005d16:	b006      	add	sp, #24
 8005d18:	bd80      	pop	{r7, pc}
 8005d1a:	46c0      	nop			; (mov r8, r8)
 8005d1c:	40006000 	.word	0x40006000

08005d20 <SYSCFG_EXTILineConfig>:
  *         For STM32F072: (0..15) for GPIOA, GPIOB, GPIOC, GPIOD, GPIOE, (0..10) for GPIOF.
  *         For STM32F031: (0..15) for GPIOA, GPIOB, (13..15) for GPIOC and (0..1, 6..7) for GPIOF.
  * @retval None
  */
void SYSCFG_EXTILineConfig(uint8_t EXTI_PortSourceGPIOx, uint8_t EXTI_PinSourcex)
{
 8005d20:	b5b0      	push	{r4, r5, r7, lr}
 8005d22:	b084      	sub	sp, #16
 8005d24:	af00      	add	r7, sp, #0
 8005d26:	1c0a      	adds	r2, r1, #0
 8005d28:	1dfb      	adds	r3, r7, #7
 8005d2a:	1c01      	adds	r1, r0, #0
 8005d2c:	7019      	strb	r1, [r3, #0]
 8005d2e:	1dbb      	adds	r3, r7, #6
 8005d30:	701a      	strb	r2, [r3, #0]
  uint32_t tmp = 0x00;
 8005d32:	2300      	movs	r3, #0
 8005d34:	60fb      	str	r3, [r7, #12]

  /* Check the parameters */
  assert_param(IS_EXTI_PORT_SOURCE(EXTI_PortSourceGPIOx));
  assert_param(IS_EXTI_PIN_SOURCE(EXTI_PinSourcex));
  
  tmp = ((uint32_t)0x0F) << (0x04 * (EXTI_PinSourcex & (uint8_t)0x03));
 8005d36:	1dbb      	adds	r3, r7, #6
 8005d38:	781a      	ldrb	r2, [r3, #0]
 8005d3a:	2303      	movs	r3, #3
 8005d3c:	4013      	ands	r3, r2
 8005d3e:	009b      	lsls	r3, r3, #2
 8005d40:	220f      	movs	r2, #15
 8005d42:	1c11      	adds	r1, r2, #0
 8005d44:	4099      	lsls	r1, r3
 8005d46:	1c0b      	adds	r3, r1, #0
 8005d48:	60fb      	str	r3, [r7, #12]
  SYSCFG->EXTICR[EXTI_PinSourcex >> 0x02] &= ~tmp;
 8005d4a:	4b18      	ldr	r3, [pc, #96]	; (8005dac <SYSCFG_EXTILineConfig+0x8c>)
 8005d4c:	1dba      	adds	r2, r7, #6
 8005d4e:	7812      	ldrb	r2, [r2, #0]
 8005d50:	0892      	lsrs	r2, r2, #2
 8005d52:	b2d2      	uxtb	r2, r2
 8005d54:	4915      	ldr	r1, [pc, #84]	; (8005dac <SYSCFG_EXTILineConfig+0x8c>)
 8005d56:	1db8      	adds	r0, r7, #6
 8005d58:	7800      	ldrb	r0, [r0, #0]
 8005d5a:	0880      	lsrs	r0, r0, #2
 8005d5c:	b2c0      	uxtb	r0, r0
 8005d5e:	3002      	adds	r0, #2
 8005d60:	0080      	lsls	r0, r0, #2
 8005d62:	5841      	ldr	r1, [r0, r1]
 8005d64:	68f8      	ldr	r0, [r7, #12]
 8005d66:	43c0      	mvns	r0, r0
 8005d68:	4001      	ands	r1, r0
 8005d6a:	3202      	adds	r2, #2
 8005d6c:	0092      	lsls	r2, r2, #2
 8005d6e:	50d1      	str	r1, [r2, r3]
  SYSCFG->EXTICR[EXTI_PinSourcex >> 0x02] |= (((uint32_t)EXTI_PortSourceGPIOx) << (0x04 * (EXTI_PinSourcex & (uint8_t)0x03)));
 8005d70:	4b0e      	ldr	r3, [pc, #56]	; (8005dac <SYSCFG_EXTILineConfig+0x8c>)
 8005d72:	1dba      	adds	r2, r7, #6
 8005d74:	7812      	ldrb	r2, [r2, #0]
 8005d76:	0892      	lsrs	r2, r2, #2
 8005d78:	b2d2      	uxtb	r2, r2
 8005d7a:	490c      	ldr	r1, [pc, #48]	; (8005dac <SYSCFG_EXTILineConfig+0x8c>)
 8005d7c:	1db8      	adds	r0, r7, #6
 8005d7e:	7800      	ldrb	r0, [r0, #0]
 8005d80:	0880      	lsrs	r0, r0, #2
 8005d82:	b2c0      	uxtb	r0, r0
 8005d84:	3002      	adds	r0, #2
 8005d86:	0080      	lsls	r0, r0, #2
 8005d88:	5840      	ldr	r0, [r0, r1]
 8005d8a:	1df9      	adds	r1, r7, #7
 8005d8c:	780c      	ldrb	r4, [r1, #0]
 8005d8e:	1db9      	adds	r1, r7, #6
 8005d90:	780d      	ldrb	r5, [r1, #0]
 8005d92:	2103      	movs	r1, #3
 8005d94:	4029      	ands	r1, r5
 8005d96:	0089      	lsls	r1, r1, #2
 8005d98:	1c25      	adds	r5, r4, #0
 8005d9a:	408d      	lsls	r5, r1
 8005d9c:	1c29      	adds	r1, r5, #0
 8005d9e:	4301      	orrs	r1, r0
 8005da0:	3202      	adds	r2, #2
 8005da2:	0092      	lsls	r2, r2, #2
 8005da4:	50d1      	str	r1, [r2, r3]
}
 8005da6:	46bd      	mov	sp, r7
 8005da8:	b004      	add	sp, #16
 8005daa:	bdb0      	pop	{r4, r5, r7, pc}
 8005dac:	40010000 	.word	0x40010000

08005db0 <SPI_Init>:
  * @param  SPI_InitStruct: pointer to a SPI_InitTypeDef structure that
  *         contains the configuration information for the specified SPI peripheral.
  * @retval None
  */
void SPI_Init(SPI_TypeDef* SPIx, SPI_InitTypeDef* SPI_InitStruct)
{
 8005db0:	b580      	push	{r7, lr}
 8005db2:	b084      	sub	sp, #16
 8005db4:	af00      	add	r7, sp, #0
 8005db6:	6078      	str	r0, [r7, #4]
 8005db8:	6039      	str	r1, [r7, #0]
  uint16_t tmpreg = 0;
 8005dba:	1c3b      	adds	r3, r7, #0
 8005dbc:	330e      	adds	r3, #14
 8005dbe:	2200      	movs	r2, #0
 8005dc0:	801a      	strh	r2, [r3, #0]
  assert_param(IS_SPI_FIRST_BIT(SPI_InitStruct->SPI_FirstBit));
  assert_param(IS_SPI_CRC_POLYNOMIAL(SPI_InitStruct->SPI_CRCPolynomial));

  /*---------------------------- SPIx CR1 Configuration ------------------------*/
  /* Get the SPIx CR1 value */
  tmpreg = SPIx->CR1;
 8005dc2:	1c3b      	adds	r3, r7, #0
 8005dc4:	330e      	adds	r3, #14
 8005dc6:	687a      	ldr	r2, [r7, #4]
 8005dc8:	8812      	ldrh	r2, [r2, #0]
 8005dca:	801a      	strh	r2, [r3, #0]
  /* Clear BIDIMode, BIDIOE, RxONLY, SSM, SSI, LSBFirst, BR, CPOL and CPHA bits */
  tmpreg &= CR1_CLEAR_MASK;
 8005dcc:	1c3b      	adds	r3, r7, #0
 8005dce:	330e      	adds	r3, #14
 8005dd0:	1c3a      	adds	r2, r7, #0
 8005dd2:	320e      	adds	r2, #14
 8005dd4:	8811      	ldrh	r1, [r2, #0]
 8005dd6:	22c1      	movs	r2, #193	; 0xc1
 8005dd8:	0192      	lsls	r2, r2, #6
 8005dda:	400a      	ands	r2, r1
 8005ddc:	801a      	strh	r2, [r3, #0]
  /* Set SSM, SSI bit according to SPI_NSS values */
  /* Set LSBFirst bit according to SPI_FirstBit value */
  /* Set BR bits according to SPI_BaudRatePrescaler value */
  /* Set CPOL bit according to SPI_CPOL value */
  /* Set CPHA bit according to SPI_CPHA value */
  tmpreg |= (uint16_t)((uint32_t)SPI_InitStruct->SPI_Direction | SPI_InitStruct->SPI_FirstBit |
 8005dde:	683b      	ldr	r3, [r7, #0]
 8005de0:	881a      	ldrh	r2, [r3, #0]
 8005de2:	683b      	ldr	r3, [r7, #0]
 8005de4:	89db      	ldrh	r3, [r3, #14]
 8005de6:	4313      	orrs	r3, r2
 8005de8:	b29a      	uxth	r2, r3
                      SPI_InitStruct->SPI_CPOL | SPI_InitStruct->SPI_CPHA |
 8005dea:	683b      	ldr	r3, [r7, #0]
 8005dec:	88db      	ldrh	r3, [r3, #6]
  /* Set SSM, SSI bit according to SPI_NSS values */
  /* Set LSBFirst bit according to SPI_FirstBit value */
  /* Set BR bits according to SPI_BaudRatePrescaler value */
  /* Set CPOL bit according to SPI_CPOL value */
  /* Set CPHA bit according to SPI_CPHA value */
  tmpreg |= (uint16_t)((uint32_t)SPI_InitStruct->SPI_Direction | SPI_InitStruct->SPI_FirstBit |
 8005dee:	4313      	orrs	r3, r2
 8005df0:	b29a      	uxth	r2, r3
                      SPI_InitStruct->SPI_CPOL | SPI_InitStruct->SPI_CPHA |
 8005df2:	683b      	ldr	r3, [r7, #0]
 8005df4:	891b      	ldrh	r3, [r3, #8]
  /* Set SSM, SSI bit according to SPI_NSS values */
  /* Set LSBFirst bit according to SPI_FirstBit value */
  /* Set BR bits according to SPI_BaudRatePrescaler value */
  /* Set CPOL bit according to SPI_CPOL value */
  /* Set CPHA bit according to SPI_CPHA value */
  tmpreg |= (uint16_t)((uint32_t)SPI_InitStruct->SPI_Direction | SPI_InitStruct->SPI_FirstBit |
 8005df6:	4313      	orrs	r3, r2
 8005df8:	b29a      	uxth	r2, r3
                      SPI_InitStruct->SPI_CPOL | SPI_InitStruct->SPI_CPHA |
                      SPI_InitStruct->SPI_NSS | SPI_InitStruct->SPI_BaudRatePrescaler);  
 8005dfa:	683b      	ldr	r3, [r7, #0]
 8005dfc:	895b      	ldrh	r3, [r3, #10]
  /* Set SSM, SSI bit according to SPI_NSS values */
  /* Set LSBFirst bit according to SPI_FirstBit value */
  /* Set BR bits according to SPI_BaudRatePrescaler value */
  /* Set CPOL bit according to SPI_CPOL value */
  /* Set CPHA bit according to SPI_CPHA value */
  tmpreg |= (uint16_t)((uint32_t)SPI_InitStruct->SPI_Direction | SPI_InitStruct->SPI_FirstBit |
 8005dfe:	4313      	orrs	r3, r2
 8005e00:	b29a      	uxth	r2, r3
                      SPI_InitStruct->SPI_CPOL | SPI_InitStruct->SPI_CPHA |
                      SPI_InitStruct->SPI_NSS | SPI_InitStruct->SPI_BaudRatePrescaler);  
 8005e02:	683b      	ldr	r3, [r7, #0]
 8005e04:	899b      	ldrh	r3, [r3, #12]
  /* Set SSM, SSI bit according to SPI_NSS values */
  /* Set LSBFirst bit according to SPI_FirstBit value */
  /* Set BR bits according to SPI_BaudRatePrescaler value */
  /* Set CPOL bit according to SPI_CPOL value */
  /* Set CPHA bit according to SPI_CPHA value */
  tmpreg |= (uint16_t)((uint32_t)SPI_InitStruct->SPI_Direction | SPI_InitStruct->SPI_FirstBit |
 8005e06:	4313      	orrs	r3, r2
 8005e08:	b299      	uxth	r1, r3
 8005e0a:	1c3b      	adds	r3, r7, #0
 8005e0c:	330e      	adds	r3, #14
 8005e0e:	1c3a      	adds	r2, r7, #0
 8005e10:	320e      	adds	r2, #14
 8005e12:	8812      	ldrh	r2, [r2, #0]
 8005e14:	430a      	orrs	r2, r1
 8005e16:	801a      	strh	r2, [r3, #0]
                      SPI_InitStruct->SPI_CPOL | SPI_InitStruct->SPI_CPHA |
                      SPI_InitStruct->SPI_NSS | SPI_InitStruct->SPI_BaudRatePrescaler);  
  /* Write to SPIx CR1 */
  SPIx->CR1 = tmpreg;
 8005e18:	687b      	ldr	r3, [r7, #4]
 8005e1a:	1c3a      	adds	r2, r7, #0
 8005e1c:	320e      	adds	r2, #14
 8005e1e:	8812      	ldrh	r2, [r2, #0]
 8005e20:	801a      	strh	r2, [r3, #0]
  /*-------------------------Data Size Configuration -----------------------*/
  /* Get the SPIx CR2 value */
  tmpreg = SPIx->CR2;
 8005e22:	1c3b      	adds	r3, r7, #0
 8005e24:	330e      	adds	r3, #14
 8005e26:	687a      	ldr	r2, [r7, #4]
 8005e28:	8892      	ldrh	r2, [r2, #4]
 8005e2a:	801a      	strh	r2, [r3, #0]
  /* Clear DS[3:0] bits */
  tmpreg &=(uint16_t)~SPI_CR2_DS;
 8005e2c:	1c3b      	adds	r3, r7, #0
 8005e2e:	330e      	adds	r3, #14
 8005e30:	1c3a      	adds	r2, r7, #0
 8005e32:	320e      	adds	r2, #14
 8005e34:	8811      	ldrh	r1, [r2, #0]
 8005e36:	4a1d      	ldr	r2, [pc, #116]	; (8005eac <SPI_Init+0xfc>)
 8005e38:	400a      	ands	r2, r1
 8005e3a:	801a      	strh	r2, [r3, #0]
  /* Configure SPIx: Data Size */
  tmpreg |= (uint16_t)(SPI_InitStruct->SPI_DataSize);
 8005e3c:	683b      	ldr	r3, [r7, #0]
 8005e3e:	8899      	ldrh	r1, [r3, #4]
 8005e40:	1c3b      	adds	r3, r7, #0
 8005e42:	330e      	adds	r3, #14
 8005e44:	1c3a      	adds	r2, r7, #0
 8005e46:	320e      	adds	r2, #14
 8005e48:	8812      	ldrh	r2, [r2, #0]
 8005e4a:	430a      	orrs	r2, r1
 8005e4c:	801a      	strh	r2, [r3, #0]
  /* Write to SPIx CR2 */
  SPIx->CR2 = tmpreg;
 8005e4e:	687b      	ldr	r3, [r7, #4]
 8005e50:	1c3a      	adds	r2, r7, #0
 8005e52:	320e      	adds	r2, #14
 8005e54:	8812      	ldrh	r2, [r2, #0]
 8005e56:	809a      	strh	r2, [r3, #4]
  
  /*---------------------------- SPIx CRCPOLY Configuration --------------------*/
  /* Write to SPIx CRCPOLY */
  SPIx->CRCPR = SPI_InitStruct->SPI_CRCPolynomial;
 8005e58:	683b      	ldr	r3, [r7, #0]
 8005e5a:	8a1a      	ldrh	r2, [r3, #16]
 8005e5c:	687b      	ldr	r3, [r7, #4]
 8005e5e:	821a      	strh	r2, [r3, #16]
  
  /*---------------------------- SPIx CR1 Configuration ------------------------*/
  /* Get the SPIx CR1 value */
  tmpreg = SPIx->CR1;
 8005e60:	1c3b      	adds	r3, r7, #0
 8005e62:	330e      	adds	r3, #14
 8005e64:	687a      	ldr	r2, [r7, #4]
 8005e66:	8812      	ldrh	r2, [r2, #0]
 8005e68:	801a      	strh	r2, [r3, #0]
  /* Clear MSTR bit */
  tmpreg &= CR1_CLEAR_MASK2;
 8005e6a:	1c3b      	adds	r3, r7, #0
 8005e6c:	330e      	adds	r3, #14
 8005e6e:	1c3a      	adds	r2, r7, #0
 8005e70:	320e      	adds	r2, #14
 8005e72:	8812      	ldrh	r2, [r2, #0]
 8005e74:	2104      	movs	r1, #4
 8005e76:	438a      	bics	r2, r1
 8005e78:	801a      	strh	r2, [r3, #0]
  /* Configure SPIx: master/slave mode */  
  /* Set MSTR bit according to SPI_Mode */
  tmpreg |= (uint16_t)((uint32_t)SPI_InitStruct->SPI_Mode);  
 8005e7a:	683b      	ldr	r3, [r7, #0]
 8005e7c:	8859      	ldrh	r1, [r3, #2]
 8005e7e:	1c3b      	adds	r3, r7, #0
 8005e80:	330e      	adds	r3, #14
 8005e82:	1c3a      	adds	r2, r7, #0
 8005e84:	320e      	adds	r2, #14
 8005e86:	8812      	ldrh	r2, [r2, #0]
 8005e88:	430a      	orrs	r2, r1
 8005e8a:	801a      	strh	r2, [r3, #0]
  /* Write to SPIx CR1 */
  SPIx->CR1 = tmpreg;  
 8005e8c:	687b      	ldr	r3, [r7, #4]
 8005e8e:	1c3a      	adds	r2, r7, #0
 8005e90:	320e      	adds	r2, #14
 8005e92:	8812      	ldrh	r2, [r2, #0]
 8005e94:	801a      	strh	r2, [r3, #0]
  
  /* Activate the SPI mode (Reset I2SMOD bit in I2SCFGR register) */
  SPIx->I2SCFGR &= (uint16_t)~((uint16_t)SPI_I2SCFGR_I2SMOD);
 8005e96:	687b      	ldr	r3, [r7, #4]
 8005e98:	8b9b      	ldrh	r3, [r3, #28]
 8005e9a:	b29a      	uxth	r2, r3
 8005e9c:	4b04      	ldr	r3, [pc, #16]	; (8005eb0 <SPI_Init+0x100>)
 8005e9e:	4013      	ands	r3, r2
 8005ea0:	b29a      	uxth	r2, r3
 8005ea2:	687b      	ldr	r3, [r7, #4]
 8005ea4:	839a      	strh	r2, [r3, #28]
}
 8005ea6:	46bd      	mov	sp, r7
 8005ea8:	b004      	add	sp, #16
 8005eaa:	bd80      	pop	{r7, pc}
 8005eac:	fffff0ff 	.word	0xfffff0ff
 8005eb0:	fffff7ff 	.word	0xfffff7ff

08005eb4 <SPI_Cmd>:
  * @param  NewState: new state of the SPIx peripheral. 
  *          This parameter can be: ENABLE or DISABLE.
  * @retval None
  */
void SPI_Cmd(SPI_TypeDef* SPIx, FunctionalState NewState)
{
 8005eb4:	b580      	push	{r7, lr}
 8005eb6:	b082      	sub	sp, #8
 8005eb8:	af00      	add	r7, sp, #0
 8005eba:	6078      	str	r0, [r7, #4]
 8005ebc:	1c0a      	adds	r2, r1, #0
 8005ebe:	1cfb      	adds	r3, r7, #3
 8005ec0:	701a      	strb	r2, [r3, #0]
  /* Check the parameters */
  assert_param(IS_SPI_ALL_PERIPH(SPIx));
  assert_param(IS_FUNCTIONAL_STATE(NewState));

  if (NewState != DISABLE)
 8005ec2:	1cfb      	adds	r3, r7, #3
 8005ec4:	781b      	ldrb	r3, [r3, #0]
 8005ec6:	2b00      	cmp	r3, #0
 8005ec8:	d008      	beq.n	8005edc <SPI_Cmd+0x28>
  {
    /* Enable the selected SPI peripheral */
    SPIx->CR1 |= SPI_CR1_SPE;
 8005eca:	687b      	ldr	r3, [r7, #4]
 8005ecc:	881b      	ldrh	r3, [r3, #0]
 8005ece:	b29b      	uxth	r3, r3
 8005ed0:	2240      	movs	r2, #64	; 0x40
 8005ed2:	4313      	orrs	r3, r2
 8005ed4:	b29a      	uxth	r2, r3
 8005ed6:	687b      	ldr	r3, [r7, #4]
 8005ed8:	801a      	strh	r2, [r3, #0]
 8005eda:	e007      	b.n	8005eec <SPI_Cmd+0x38>
  }
  else
  {
    /* Disable the selected SPI peripheral */
    SPIx->CR1 &= (uint16_t)~((uint16_t)SPI_CR1_SPE);
 8005edc:	687b      	ldr	r3, [r7, #4]
 8005ede:	881b      	ldrh	r3, [r3, #0]
 8005ee0:	b29b      	uxth	r3, r3
 8005ee2:	2240      	movs	r2, #64	; 0x40
 8005ee4:	4393      	bics	r3, r2
 8005ee6:	b29a      	uxth	r2, r3
 8005ee8:	687b      	ldr	r3, [r7, #4]
 8005eea:	801a      	strh	r2, [r3, #0]
  }
}
 8005eec:	46bd      	mov	sp, r7
 8005eee:	b002      	add	sp, #8
 8005ef0:	bd80      	pop	{r7, pc}
 8005ef2:	46c0      	nop			; (mov r8, r8)

08005ef4 <SPI_I2S_DMACmd>:
  * @param  NewState: new state of the selected SPI DMA transfer request.
  *          This parameter can be: ENABLE or DISABLE.
  * @retval None
  */
void SPI_I2S_DMACmd(SPI_TypeDef* SPIx, uint16_t SPI_I2S_DMAReq, FunctionalState NewState)
{
 8005ef4:	b580      	push	{r7, lr}
 8005ef6:	b082      	sub	sp, #8
 8005ef8:	af00      	add	r7, sp, #0
 8005efa:	6078      	str	r0, [r7, #4]
 8005efc:	1cbb      	adds	r3, r7, #2
 8005efe:	8019      	strh	r1, [r3, #0]
 8005f00:	1c7b      	adds	r3, r7, #1
 8005f02:	701a      	strb	r2, [r3, #0]
  /* Check the parameters */
  assert_param(IS_SPI_ALL_PERIPH(SPIx));
  assert_param(IS_FUNCTIONAL_STATE(NewState));
  assert_param(IS_SPI_I2S_DMA_REQ(SPI_I2S_DMAReq));

  if (NewState != DISABLE)
 8005f04:	1c7b      	adds	r3, r7, #1
 8005f06:	781b      	ldrb	r3, [r3, #0]
 8005f08:	2b00      	cmp	r3, #0
 8005f0a:	d009      	beq.n	8005f20 <SPI_I2S_DMACmd+0x2c>
  {
    /* Enable the selected SPI DMA requests */
    SPIx->CR2 |= SPI_I2S_DMAReq;
 8005f0c:	687b      	ldr	r3, [r7, #4]
 8005f0e:	889b      	ldrh	r3, [r3, #4]
 8005f10:	b29a      	uxth	r2, r3
 8005f12:	1cbb      	adds	r3, r7, #2
 8005f14:	881b      	ldrh	r3, [r3, #0]
 8005f16:	4313      	orrs	r3, r2
 8005f18:	b29a      	uxth	r2, r3
 8005f1a:	687b      	ldr	r3, [r7, #4]
 8005f1c:	809a      	strh	r2, [r3, #4]
 8005f1e:	e00a      	b.n	8005f36 <SPI_I2S_DMACmd+0x42>
  }
  else
  {
    /* Disable the selected SPI DMA requests */
    SPIx->CR2 &= (uint16_t)~SPI_I2S_DMAReq;
 8005f20:	687b      	ldr	r3, [r7, #4]
 8005f22:	889b      	ldrh	r3, [r3, #4]
 8005f24:	b29b      	uxth	r3, r3
 8005f26:	1cba      	adds	r2, r7, #2
 8005f28:	8812      	ldrh	r2, [r2, #0]
 8005f2a:	43d2      	mvns	r2, r2
 8005f2c:	b292      	uxth	r2, r2
 8005f2e:	4013      	ands	r3, r2
 8005f30:	b29a      	uxth	r2, r3
 8005f32:	687b      	ldr	r3, [r7, #4]
 8005f34:	809a      	strh	r2, [r3, #4]
  }
}
 8005f36:	46bd      	mov	sp, r7
 8005f38:	b002      	add	sp, #8
 8005f3a:	bd80      	pop	{r7, pc}

08005f3c <RCC_USBCLKConfig>:
  *             @arg RCC_USBCLK_HSI48: USB clock = HSI48
  *             @arg RCC_USBCLK_PLLCLK: USB clock = PLL clock
  * @retval None
  */
void RCC_USBCLKConfig(uint32_t RCC_USBCLK)
{ 
 8005f3c:	b580      	push	{r7, lr}
 8005f3e:	b082      	sub	sp, #8
 8005f40:	af00      	add	r7, sp, #0
 8005f42:	6078      	str	r0, [r7, #4]
  /* Check the parameters */
  assert_param(IS_RCC_USBCLK(RCC_USBCLK));

  /* Clear USBSW bit */
  RCC->CFGR3 &= ~RCC_CFGR3_USBSW;
 8005f44:	4b07      	ldr	r3, [pc, #28]	; (8005f64 <RCC_USBCLKConfig+0x28>)
 8005f46:	4a07      	ldr	r2, [pc, #28]	; (8005f64 <RCC_USBCLKConfig+0x28>)
 8005f48:	6b12      	ldr	r2, [r2, #48]	; 0x30
 8005f4a:	2180      	movs	r1, #128	; 0x80
 8005f4c:	438a      	bics	r2, r1
 8005f4e:	631a      	str	r2, [r3, #48]	; 0x30
  /* Set USBSW bits according to RCC_USBCLK value */
  RCC->CFGR3 |= RCC_USBCLK;
 8005f50:	4b04      	ldr	r3, [pc, #16]	; (8005f64 <RCC_USBCLKConfig+0x28>)
 8005f52:	4a04      	ldr	r2, [pc, #16]	; (8005f64 <RCC_USBCLKConfig+0x28>)
 8005f54:	6b11      	ldr	r1, [r2, #48]	; 0x30
 8005f56:	687a      	ldr	r2, [r7, #4]
 8005f58:	430a      	orrs	r2, r1
 8005f5a:	631a      	str	r2, [r3, #48]	; 0x30
}
 8005f5c:	46bd      	mov	sp, r7
 8005f5e:	b002      	add	sp, #8
 8005f60:	bd80      	pop	{r7, pc}
 8005f62:	46c0      	nop			; (mov r8, r8)
 8005f64:	40021000 	.word	0x40021000

08005f68 <RCC_AHBPeriphClockCmd>:
  * @param  NewState: new state of the specified peripheral clock.
  *          This parameter can be: ENABLE or DISABLE.
  * @retval None
  */
void RCC_AHBPeriphClockCmd(uint32_t RCC_AHBPeriph, FunctionalState NewState)
{
 8005f68:	b580      	push	{r7, lr}
 8005f6a:	b082      	sub	sp, #8
 8005f6c:	af00      	add	r7, sp, #0
 8005f6e:	6078      	str	r0, [r7, #4]
 8005f70:	1c0a      	adds	r2, r1, #0
 8005f72:	1cfb      	adds	r3, r7, #3
 8005f74:	701a      	strb	r2, [r3, #0]
  /* Check the parameters */
  assert_param(IS_RCC_AHB_PERIPH(RCC_AHBPeriph));
  assert_param(IS_FUNCTIONAL_STATE(NewState));
  
  if (NewState != DISABLE)
 8005f76:	1cfb      	adds	r3, r7, #3
 8005f78:	781b      	ldrb	r3, [r3, #0]
 8005f7a:	2b00      	cmp	r3, #0
 8005f7c:	d006      	beq.n	8005f8c <RCC_AHBPeriphClockCmd+0x24>
  {
    RCC->AHBENR |= RCC_AHBPeriph;
 8005f7e:	4b08      	ldr	r3, [pc, #32]	; (8005fa0 <RCC_AHBPeriphClockCmd+0x38>)
 8005f80:	4a07      	ldr	r2, [pc, #28]	; (8005fa0 <RCC_AHBPeriphClockCmd+0x38>)
 8005f82:	6951      	ldr	r1, [r2, #20]
 8005f84:	687a      	ldr	r2, [r7, #4]
 8005f86:	430a      	orrs	r2, r1
 8005f88:	615a      	str	r2, [r3, #20]
 8005f8a:	e006      	b.n	8005f9a <RCC_AHBPeriphClockCmd+0x32>
  }
  else
  {
    RCC->AHBENR &= ~RCC_AHBPeriph;
 8005f8c:	4b04      	ldr	r3, [pc, #16]	; (8005fa0 <RCC_AHBPeriphClockCmd+0x38>)
 8005f8e:	4a04      	ldr	r2, [pc, #16]	; (8005fa0 <RCC_AHBPeriphClockCmd+0x38>)
 8005f90:	6952      	ldr	r2, [r2, #20]
 8005f92:	6879      	ldr	r1, [r7, #4]
 8005f94:	43c9      	mvns	r1, r1
 8005f96:	400a      	ands	r2, r1
 8005f98:	615a      	str	r2, [r3, #20]
  }
}
 8005f9a:	46bd      	mov	sp, r7
 8005f9c:	b002      	add	sp, #8
 8005f9e:	bd80      	pop	{r7, pc}
 8005fa0:	40021000 	.word	0x40021000

08005fa4 <RCC_APB2PeriphClockCmd>:
  * @param  NewState: new state of the specified peripheral clock.
  *          This parameter can be: ENABLE or DISABLE.
  * @retval None
  */
void RCC_APB2PeriphClockCmd(uint32_t RCC_APB2Periph, FunctionalState NewState)
{
 8005fa4:	b580      	push	{r7, lr}
 8005fa6:	b082      	sub	sp, #8
 8005fa8:	af00      	add	r7, sp, #0
 8005faa:	6078      	str	r0, [r7, #4]
 8005fac:	1c0a      	adds	r2, r1, #0
 8005fae:	1cfb      	adds	r3, r7, #3
 8005fb0:	701a      	strb	r2, [r3, #0]
  /* Check the parameters */
  assert_param(IS_RCC_APB2_PERIPH(RCC_APB2Periph));
  assert_param(IS_FUNCTIONAL_STATE(NewState));

  if (NewState != DISABLE)
 8005fb2:	1cfb      	adds	r3, r7, #3
 8005fb4:	781b      	ldrb	r3, [r3, #0]
 8005fb6:	2b00      	cmp	r3, #0
 8005fb8:	d006      	beq.n	8005fc8 <RCC_APB2PeriphClockCmd+0x24>
  {
    RCC->APB2ENR |= RCC_APB2Periph;
 8005fba:	4b08      	ldr	r3, [pc, #32]	; (8005fdc <RCC_APB2PeriphClockCmd+0x38>)
 8005fbc:	4a07      	ldr	r2, [pc, #28]	; (8005fdc <RCC_APB2PeriphClockCmd+0x38>)
 8005fbe:	6991      	ldr	r1, [r2, #24]
 8005fc0:	687a      	ldr	r2, [r7, #4]
 8005fc2:	430a      	orrs	r2, r1
 8005fc4:	619a      	str	r2, [r3, #24]
 8005fc6:	e006      	b.n	8005fd6 <RCC_APB2PeriphClockCmd+0x32>
  }
  else
  {
    RCC->APB2ENR &= ~RCC_APB2Periph;
 8005fc8:	4b04      	ldr	r3, [pc, #16]	; (8005fdc <RCC_APB2PeriphClockCmd+0x38>)
 8005fca:	4a04      	ldr	r2, [pc, #16]	; (8005fdc <RCC_APB2PeriphClockCmd+0x38>)
 8005fcc:	6992      	ldr	r2, [r2, #24]
 8005fce:	6879      	ldr	r1, [r7, #4]
 8005fd0:	43c9      	mvns	r1, r1
 8005fd2:	400a      	ands	r2, r1
 8005fd4:	619a      	str	r2, [r3, #24]
  }
}
 8005fd6:	46bd      	mov	sp, r7
 8005fd8:	b002      	add	sp, #8
 8005fda:	bd80      	pop	{r7, pc}
 8005fdc:	40021000 	.word	0x40021000

08005fe0 <RCC_APB1PeriphClockCmd>:
  * @param  NewState: new state of the specified peripheral clock.
  *          This parameter can be: ENABLE or DISABLE.
  * @retval None
  */
void RCC_APB1PeriphClockCmd(uint32_t RCC_APB1Periph, FunctionalState NewState)
{
 8005fe0:	b580      	push	{r7, lr}
 8005fe2:	b082      	sub	sp, #8
 8005fe4:	af00      	add	r7, sp, #0
 8005fe6:	6078      	str	r0, [r7, #4]
 8005fe8:	1c0a      	adds	r2, r1, #0
 8005fea:	1cfb      	adds	r3, r7, #3
 8005fec:	701a      	strb	r2, [r3, #0]
  /* Check the parameters */
  assert_param(IS_RCC_APB1_PERIPH(RCC_APB1Periph));
  assert_param(IS_FUNCTIONAL_STATE(NewState));

  if (NewState != DISABLE)
 8005fee:	1cfb      	adds	r3, r7, #3
 8005ff0:	781b      	ldrb	r3, [r3, #0]
 8005ff2:	2b00      	cmp	r3, #0
 8005ff4:	d006      	beq.n	8006004 <RCC_APB1PeriphClockCmd+0x24>
  {
    RCC->APB1ENR |= RCC_APB1Periph;
 8005ff6:	4b08      	ldr	r3, [pc, #32]	; (8006018 <RCC_APB1PeriphClockCmd+0x38>)
 8005ff8:	4a07      	ldr	r2, [pc, #28]	; (8006018 <RCC_APB1PeriphClockCmd+0x38>)
 8005ffa:	69d1      	ldr	r1, [r2, #28]
 8005ffc:	687a      	ldr	r2, [r7, #4]
 8005ffe:	430a      	orrs	r2, r1
 8006000:	61da      	str	r2, [r3, #28]
 8006002:	e006      	b.n	8006012 <RCC_APB1PeriphClockCmd+0x32>
  }
  else
  {
    RCC->APB1ENR &= ~RCC_APB1Periph;
 8006004:	4b04      	ldr	r3, [pc, #16]	; (8006018 <RCC_APB1PeriphClockCmd+0x38>)
 8006006:	4a04      	ldr	r2, [pc, #16]	; (8006018 <RCC_APB1PeriphClockCmd+0x38>)
 8006008:	69d2      	ldr	r2, [r2, #28]
 800600a:	6879      	ldr	r1, [r7, #4]
 800600c:	43c9      	mvns	r1, r1
 800600e:	400a      	ands	r2, r1
 8006010:	61da      	str	r2, [r3, #28]
  }
}
 8006012:	46bd      	mov	sp, r7
 8006014:	b002      	add	sp, #8
 8006016:	bd80      	pop	{r7, pc}
 8006018:	40021000 	.word	0x40021000

0800601c <NVIC_Init>:
  * @param  NVIC_InitStruct: pointer to a NVIC_InitTypeDef structure that contains
  *         the configuration information for the specified NVIC peripheral.
  * @retval None
  */
void NVIC_Init(NVIC_InitTypeDef* NVIC_InitStruct)
{
 800601c:	b580      	push	{r7, lr}
 800601e:	b084      	sub	sp, #16
 8006020:	af00      	add	r7, sp, #0
 8006022:	6078      	str	r0, [r7, #4]
  uint32_t tmppriority = 0x00;
 8006024:	2300      	movs	r3, #0
 8006026:	60fb      	str	r3, [r7, #12]
  
  /* Check the parameters */
  assert_param(IS_FUNCTIONAL_STATE(NVIC_InitStruct->NVIC_IRQChannelCmd));
  assert_param(IS_NVIC_PRIORITY(NVIC_InitStruct->NVIC_IRQChannelPriority));  
    
  if (NVIC_InitStruct->NVIC_IRQChannelCmd != DISABLE)
 8006028:	687b      	ldr	r3, [r7, #4]
 800602a:	789b      	ldrb	r3, [r3, #2]
 800602c:	2b00      	cmp	r3, #0
 800602e:	d03c      	beq.n	80060aa <NVIC_Init+0x8e>
  {
    /* Compute the Corresponding IRQ Priority --------------------------------*/    
    tmppriority = NVIC->IP[NVIC_InitStruct->NVIC_IRQChannel >> 0x02];
 8006030:	4b24      	ldr	r3, [pc, #144]	; (80060c4 <NVIC_Init+0xa8>)
 8006032:	687a      	ldr	r2, [r7, #4]
 8006034:	7812      	ldrb	r2, [r2, #0]
 8006036:	0892      	lsrs	r2, r2, #2
 8006038:	b2d2      	uxtb	r2, r2
 800603a:	32c0      	adds	r2, #192	; 0xc0
 800603c:	0092      	lsls	r2, r2, #2
 800603e:	58d3      	ldr	r3, [r2, r3]
 8006040:	60fb      	str	r3, [r7, #12]
    tmppriority &= (uint32_t)(~(((uint32_t)0xFF) << ((NVIC_InitStruct->NVIC_IRQChannel & 0x03) * 8)));
 8006042:	687b      	ldr	r3, [r7, #4]
 8006044:	781b      	ldrb	r3, [r3, #0]
 8006046:	1c1a      	adds	r2, r3, #0
 8006048:	2303      	movs	r3, #3
 800604a:	4013      	ands	r3, r2
 800604c:	00db      	lsls	r3, r3, #3
 800604e:	22ff      	movs	r2, #255	; 0xff
 8006050:	1c10      	adds	r0, r2, #0
 8006052:	4098      	lsls	r0, r3
 8006054:	1c03      	adds	r3, r0, #0
 8006056:	43da      	mvns	r2, r3
 8006058:	68fb      	ldr	r3, [r7, #12]
 800605a:	4013      	ands	r3, r2
 800605c:	60fb      	str	r3, [r7, #12]
    tmppriority |= (uint32_t)((((uint32_t)NVIC_InitStruct->NVIC_IRQChannelPriority << 6) & 0xFF) << ((NVIC_InitStruct->NVIC_IRQChannel & 0x03) * 8));    
 800605e:	687b      	ldr	r3, [r7, #4]
 8006060:	785b      	ldrb	r3, [r3, #1]
 8006062:	019a      	lsls	r2, r3, #6
 8006064:	23ff      	movs	r3, #255	; 0xff
 8006066:	401a      	ands	r2, r3
 8006068:	687b      	ldr	r3, [r7, #4]
 800606a:	781b      	ldrb	r3, [r3, #0]
 800606c:	1c19      	adds	r1, r3, #0
 800606e:	2303      	movs	r3, #3
 8006070:	400b      	ands	r3, r1
 8006072:	00db      	lsls	r3, r3, #3
 8006074:	1c11      	adds	r1, r2, #0
 8006076:	4099      	lsls	r1, r3
 8006078:	1c0b      	adds	r3, r1, #0
 800607a:	68fa      	ldr	r2, [r7, #12]
 800607c:	4313      	orrs	r3, r2
 800607e:	60fb      	str	r3, [r7, #12]
    
    NVIC->IP[NVIC_InitStruct->NVIC_IRQChannel >> 0x02] = tmppriority;
 8006080:	4b10      	ldr	r3, [pc, #64]	; (80060c4 <NVIC_Init+0xa8>)
 8006082:	687a      	ldr	r2, [r7, #4]
 8006084:	7812      	ldrb	r2, [r2, #0]
 8006086:	0892      	lsrs	r2, r2, #2
 8006088:	b2d2      	uxtb	r2, r2
 800608a:	32c0      	adds	r2, #192	; 0xc0
 800608c:	0092      	lsls	r2, r2, #2
 800608e:	68f9      	ldr	r1, [r7, #12]
 8006090:	50d1      	str	r1, [r2, r3]
    
    /* Enable the Selected IRQ Channels --------------------------------------*/
    NVIC->ISER[0] = (uint32_t)0x01 << (NVIC_InitStruct->NVIC_IRQChannel & (uint8_t)0x1F);
 8006092:	4b0c      	ldr	r3, [pc, #48]	; (80060c4 <NVIC_Init+0xa8>)
 8006094:	687a      	ldr	r2, [r7, #4]
 8006096:	7812      	ldrb	r2, [r2, #0]
 8006098:	1c11      	adds	r1, r2, #0
 800609a:	221f      	movs	r2, #31
 800609c:	400a      	ands	r2, r1
 800609e:	2101      	movs	r1, #1
 80060a0:	1c08      	adds	r0, r1, #0
 80060a2:	4090      	lsls	r0, r2
 80060a4:	1c02      	adds	r2, r0, #0
 80060a6:	601a      	str	r2, [r3, #0]
 80060a8:	e009      	b.n	80060be <NVIC_Init+0xa2>
  }
  else
  {
    /* Disable the Selected IRQ Channels -------------------------------------*/
    NVIC->ICER[0] = (uint32_t)0x01 << (NVIC_InitStruct->NVIC_IRQChannel & (uint8_t)0x1F);
 80060aa:	4a06      	ldr	r2, [pc, #24]	; (80060c4 <NVIC_Init+0xa8>)
 80060ac:	687b      	ldr	r3, [r7, #4]
 80060ae:	781b      	ldrb	r3, [r3, #0]
 80060b0:	1c19      	adds	r1, r3, #0
 80060b2:	231f      	movs	r3, #31
 80060b4:	400b      	ands	r3, r1
 80060b6:	2101      	movs	r1, #1
 80060b8:	4099      	lsls	r1, r3
 80060ba:	2380      	movs	r3, #128	; 0x80
 80060bc:	50d1      	str	r1, [r2, r3]
  }
}
 80060be:	46bd      	mov	sp, r7
 80060c0:	b004      	add	sp, #16
 80060c2:	bd80      	pop	{r7, pc}
 80060c4:	e000e100 	.word	0xe000e100

080060c8 <SysTick_CLKSourceConfig>:
  *            @arg SysTick_CLKSource_HCLK_Div8: AHB clock divided by 8 selected as SysTick clock source.
  *            @arg SysTick_CLKSource_HCLK: AHB clock selected as SysTick clock source.
  * @retval None
  */
void SysTick_CLKSourceConfig(uint32_t SysTick_CLKSource)
{
 80060c8:	b580      	push	{r7, lr}
 80060ca:	b082      	sub	sp, #8
 80060cc:	af00      	add	r7, sp, #0
 80060ce:	6078      	str	r0, [r7, #4]
  /* Check the parameters */
  assert_param(IS_SYSTICK_CLK_SOURCE(SysTick_CLKSource));
  
  if (SysTick_CLKSource == SysTick_CLKSource_HCLK)
 80060d0:	687b      	ldr	r3, [r7, #4]
 80060d2:	2b04      	cmp	r3, #4
 80060d4:	d106      	bne.n	80060e4 <SysTick_CLKSourceConfig+0x1c>
  {
    SysTick->CTRL |= SysTick_CLKSource_HCLK;
 80060d6:	4b08      	ldr	r3, [pc, #32]	; (80060f8 <SysTick_CLKSourceConfig+0x30>)
 80060d8:	4a07      	ldr	r2, [pc, #28]	; (80060f8 <SysTick_CLKSourceConfig+0x30>)
 80060da:	6812      	ldr	r2, [r2, #0]
 80060dc:	2104      	movs	r1, #4
 80060de:	430a      	orrs	r2, r1
 80060e0:	601a      	str	r2, [r3, #0]
 80060e2:	e005      	b.n	80060f0 <SysTick_CLKSourceConfig+0x28>
  }
  else
  {
    SysTick->CTRL &= SysTick_CLKSource_HCLK_Div8;
 80060e4:	4b04      	ldr	r3, [pc, #16]	; (80060f8 <SysTick_CLKSourceConfig+0x30>)
 80060e6:	4a04      	ldr	r2, [pc, #16]	; (80060f8 <SysTick_CLKSourceConfig+0x30>)
 80060e8:	6812      	ldr	r2, [r2, #0]
 80060ea:	2104      	movs	r1, #4
 80060ec:	438a      	bics	r2, r1
 80060ee:	601a      	str	r2, [r3, #0]
  }
}
 80060f0:	46bd      	mov	sp, r7
 80060f2:	b002      	add	sp, #8
 80060f4:	bd80      	pop	{r7, pc}
 80060f6:	46c0      	nop			; (mov r8, r8)
 80060f8:	e000e010 	.word	0xe000e010

080060fc <I2C_Init>:
  * @param  I2C_InitStruct: pointer to a I2C_InitTypeDef structure that
  *         contains the configuration information for the specified I2C peripheral.
  * @retval None
  */
void I2C_Init(I2C_TypeDef* I2Cx, I2C_InitTypeDef* I2C_InitStruct)
{
 80060fc:	b580      	push	{r7, lr}
 80060fe:	b084      	sub	sp, #16
 8006100:	af00      	add	r7, sp, #0
 8006102:	6078      	str	r0, [r7, #4]
 8006104:	6039      	str	r1, [r7, #0]
  uint32_t tmpreg = 0;
 8006106:	2300      	movs	r3, #0
 8006108:	60fb      	str	r3, [r7, #12]
  assert_param(IS_I2C_OWN_ADDRESS1(I2C_InitStruct->I2C_OwnAddress1));
  assert_param(IS_I2C_ACK(I2C_InitStruct->I2C_Ack));
  assert_param(IS_I2C_ACKNOWLEDGE_ADDRESS(I2C_InitStruct->I2C_AcknowledgedAddress));

  /* Disable I2Cx Peripheral */
  I2Cx->CR1 &= (uint32_t)~((uint32_t)I2C_CR1_PE);
 800610a:	687b      	ldr	r3, [r7, #4]
 800610c:	681b      	ldr	r3, [r3, #0]
 800610e:	2201      	movs	r2, #1
 8006110:	1c19      	adds	r1, r3, #0
 8006112:	4391      	bics	r1, r2
 8006114:	1c0a      	adds	r2, r1, #0
 8006116:	687b      	ldr	r3, [r7, #4]
 8006118:	601a      	str	r2, [r3, #0]

  /*---------------------------- I2Cx FILTERS Configuration ------------------*/
  /* Get the I2Cx CR1 value */
  tmpreg = I2Cx->CR1;
 800611a:	687b      	ldr	r3, [r7, #4]
 800611c:	681b      	ldr	r3, [r3, #0]
 800611e:	60fb      	str	r3, [r7, #12]
  /* Clear I2Cx CR1 register */
  tmpreg &= CR1_CLEAR_MASK;
 8006120:	68fa      	ldr	r2, [r7, #12]
 8006122:	4b27      	ldr	r3, [pc, #156]	; (80061c0 <I2C_Init+0xc4>)
 8006124:	4013      	ands	r3, r2
 8006126:	60fb      	str	r3, [r7, #12]
  /* Configure I2Cx: analog and digital filter */
  /* Set ANFOFF bit according to I2C_AnalogFilter value */
  /* Set DFN bits according to I2C_DigitalFilter value */
  tmpreg |= (uint32_t)I2C_InitStruct->I2C_AnalogFilter |(I2C_InitStruct->I2C_DigitalFilter << 8);
 8006128:	683b      	ldr	r3, [r7, #0]
 800612a:	685a      	ldr	r2, [r3, #4]
 800612c:	683b      	ldr	r3, [r7, #0]
 800612e:	689b      	ldr	r3, [r3, #8]
 8006130:	021b      	lsls	r3, r3, #8
 8006132:	4313      	orrs	r3, r2
 8006134:	68fa      	ldr	r2, [r7, #12]
 8006136:	4313      	orrs	r3, r2
 8006138:	60fb      	str	r3, [r7, #12]

  /* Write to I2Cx CR1 */
  I2Cx->CR1 = tmpreg;
 800613a:	687b      	ldr	r3, [r7, #4]
 800613c:	68fa      	ldr	r2, [r7, #12]
 800613e:	601a      	str	r2, [r3, #0]

  /*---------------------------- I2Cx TIMING Configuration -------------------*/
  /* Configure I2Cx: Timing */
  /* Set TIMINGR bits according to I2C_Timing */
  /* Write to I2Cx TIMING */
  I2Cx->TIMINGR = I2C_InitStruct->I2C_Timing & TIMING_CLEAR_MASK;
 8006140:	683b      	ldr	r3, [r7, #0]
 8006142:	681a      	ldr	r2, [r3, #0]
 8006144:	4b1f      	ldr	r3, [pc, #124]	; (80061c4 <I2C_Init+0xc8>)
 8006146:	401a      	ands	r2, r3
 8006148:	687b      	ldr	r3, [r7, #4]
 800614a:	611a      	str	r2, [r3, #16]

  /* Enable I2Cx Peripheral */
  I2Cx->CR1 |= I2C_CR1_PE;
 800614c:	687b      	ldr	r3, [r7, #4]
 800614e:	681b      	ldr	r3, [r3, #0]
 8006150:	2201      	movs	r2, #1
 8006152:	431a      	orrs	r2, r3
 8006154:	687b      	ldr	r3, [r7, #4]
 8006156:	601a      	str	r2, [r3, #0]

  /*---------------------------- I2Cx OAR1 Configuration ---------------------*/
  /* Clear tmpreg local variable */
  tmpreg = 0;
 8006158:	2300      	movs	r3, #0
 800615a:	60fb      	str	r3, [r7, #12]
  /* Clear OAR1 register */
  I2Cx->OAR1 = (uint32_t)tmpreg;
 800615c:	687b      	ldr	r3, [r7, #4]
 800615e:	68fa      	ldr	r2, [r7, #12]
 8006160:	609a      	str	r2, [r3, #8]
  /* Clear OAR2 register */
  I2Cx->OAR2 = (uint32_t)tmpreg;
 8006162:	687b      	ldr	r3, [r7, #4]
 8006164:	68fa      	ldr	r2, [r7, #12]
 8006166:	60da      	str	r2, [r3, #12]
  /* Configure I2Cx: Own Address1 and acknowledged address */
  /* Set OA1MODE bit according to I2C_AcknowledgedAddress value */
  /* Set OA1 bits according to I2C_OwnAddress1 value */
  tmpreg = (uint32_t)((uint32_t)I2C_InitStruct->I2C_AcknowledgedAddress | \
 8006168:	683b      	ldr	r3, [r7, #0]
 800616a:	699a      	ldr	r2, [r3, #24]
                      (uint32_t)I2C_InitStruct->I2C_OwnAddress1);
 800616c:	683b      	ldr	r3, [r7, #0]
 800616e:	691b      	ldr	r3, [r3, #16]
  /* Clear OAR2 register */
  I2Cx->OAR2 = (uint32_t)tmpreg;
  /* Configure I2Cx: Own Address1 and acknowledged address */
  /* Set OA1MODE bit according to I2C_AcknowledgedAddress value */
  /* Set OA1 bits according to I2C_OwnAddress1 value */
  tmpreg = (uint32_t)((uint32_t)I2C_InitStruct->I2C_AcknowledgedAddress | \
 8006170:	4313      	orrs	r3, r2
 8006172:	60fb      	str	r3, [r7, #12]
                      (uint32_t)I2C_InitStruct->I2C_OwnAddress1);
  /* Write to I2Cx OAR1 */
  I2Cx->OAR1 = tmpreg;
 8006174:	687b      	ldr	r3, [r7, #4]
 8006176:	68fa      	ldr	r2, [r7, #12]
 8006178:	609a      	str	r2, [r3, #8]
  /* Enable Own Address1 acknowledgement */
  I2Cx->OAR1 |= I2C_OAR1_OA1EN;
 800617a:	687b      	ldr	r3, [r7, #4]
 800617c:	689b      	ldr	r3, [r3, #8]
 800617e:	2280      	movs	r2, #128	; 0x80
 8006180:	0212      	lsls	r2, r2, #8
 8006182:	431a      	orrs	r2, r3
 8006184:	687b      	ldr	r3, [r7, #4]
 8006186:	609a      	str	r2, [r3, #8]

  /*---------------------------- I2Cx MODE Configuration ---------------------*/
  /* Configure I2Cx: mode */
  /* Set SMBDEN and SMBHEN bits according to I2C_Mode value */
  tmpreg = I2C_InitStruct->I2C_Mode;
 8006188:	683b      	ldr	r3, [r7, #0]
 800618a:	68db      	ldr	r3, [r3, #12]
 800618c:	60fb      	str	r3, [r7, #12]
  /* Write to I2Cx CR1 */
  I2Cx->CR1 |= tmpreg;
 800618e:	687b      	ldr	r3, [r7, #4]
 8006190:	681a      	ldr	r2, [r3, #0]
 8006192:	68fb      	ldr	r3, [r7, #12]
 8006194:	431a      	orrs	r2, r3
 8006196:	687b      	ldr	r3, [r7, #4]
 8006198:	601a      	str	r2, [r3, #0]

  /*---------------------------- I2Cx ACK Configuration ----------------------*/
  /* Get the I2Cx CR2 value */
  tmpreg = I2Cx->CR2;
 800619a:	687b      	ldr	r3, [r7, #4]
 800619c:	685b      	ldr	r3, [r3, #4]
 800619e:	60fb      	str	r3, [r7, #12]
  /* Clear I2Cx CR2 register */
  tmpreg &= CR2_CLEAR_MASK;
 80061a0:	68fa      	ldr	r2, [r7, #12]
 80061a2:	4b09      	ldr	r3, [pc, #36]	; (80061c8 <I2C_Init+0xcc>)
 80061a4:	4013      	ands	r3, r2
 80061a6:	60fb      	str	r3, [r7, #12]
  /* Configure I2Cx: acknowledgement */
  /* Set NACK bit according to I2C_Ack value */
  tmpreg |= I2C_InitStruct->I2C_Ack;
 80061a8:	683b      	ldr	r3, [r7, #0]
 80061aa:	695b      	ldr	r3, [r3, #20]
 80061ac:	68fa      	ldr	r2, [r7, #12]
 80061ae:	4313      	orrs	r3, r2
 80061b0:	60fb      	str	r3, [r7, #12]
  /* Write to I2Cx CR2 */
  I2Cx->CR2 = tmpreg;
 80061b2:	687b      	ldr	r3, [r7, #4]
 80061b4:	68fa      	ldr	r2, [r7, #12]
 80061b6:	605a      	str	r2, [r3, #4]
}
 80061b8:	46bd      	mov	sp, r7
 80061ba:	b004      	add	sp, #16
 80061bc:	bd80      	pop	{r7, pc}
 80061be:	46c0      	nop			; (mov r8, r8)
 80061c0:	00cfe0ff 	.word	0x00cfe0ff
 80061c4:	f0ffffff 	.word	0xf0ffffff
 80061c8:	07ff7fff 	.word	0x07ff7fff

080061cc <I2C_Cmd>:
  * @param  NewState: new state of the I2Cx peripheral. 
  *          This parameter can be: ENABLE or DISABLE.
  * @retval None
  */
void I2C_Cmd(I2C_TypeDef* I2Cx, FunctionalState NewState)
{
 80061cc:	b580      	push	{r7, lr}
 80061ce:	b082      	sub	sp, #8
 80061d0:	af00      	add	r7, sp, #0
 80061d2:	6078      	str	r0, [r7, #4]
 80061d4:	1c0a      	adds	r2, r1, #0
 80061d6:	1cfb      	adds	r3, r7, #3
 80061d8:	701a      	strb	r2, [r3, #0]
  /* Check the parameters */
  assert_param(IS_I2C_ALL_PERIPH(I2Cx));
  assert_param(IS_FUNCTIONAL_STATE(NewState));
  if (NewState != DISABLE)
 80061da:	1cfb      	adds	r3, r7, #3
 80061dc:	781b      	ldrb	r3, [r3, #0]
 80061de:	2b00      	cmp	r3, #0
 80061e0:	d006      	beq.n	80061f0 <I2C_Cmd+0x24>
  {
    /* Enable the selected I2C peripheral */
    I2Cx->CR1 |= I2C_CR1_PE;
 80061e2:	687b      	ldr	r3, [r7, #4]
 80061e4:	681b      	ldr	r3, [r3, #0]
 80061e6:	2201      	movs	r2, #1
 80061e8:	431a      	orrs	r2, r3
 80061ea:	687b      	ldr	r3, [r7, #4]
 80061ec:	601a      	str	r2, [r3, #0]
 80061ee:	e007      	b.n	8006200 <I2C_Cmd+0x34>
  }
  else
  {
    /* Disable the selected I2C peripheral */
    I2Cx->CR1 &= (uint32_t)~((uint32_t)I2C_CR1_PE);
 80061f0:	687b      	ldr	r3, [r7, #4]
 80061f2:	681b      	ldr	r3, [r3, #0]
 80061f4:	2201      	movs	r2, #1
 80061f6:	1c19      	adds	r1, r3, #0
 80061f8:	4391      	bics	r1, r2
 80061fa:	1c0a      	adds	r2, r1, #0
 80061fc:	687b      	ldr	r3, [r7, #4]
 80061fe:	601a      	str	r2, [r3, #0]
  }
}
 8006200:	46bd      	mov	sp, r7
 8006202:	b002      	add	sp, #8
 8006204:	bd80      	pop	{r7, pc}
 8006206:	46c0      	nop			; (mov r8, r8)

08006208 <I2C_TransferHandling>:
  *            @arg I2C_Generate_Start_Read: Generate Restart for read request.
  *            @arg I2C_Generate_Start_Write: Generate Restart for write request.
  * @retval None
  */
void I2C_TransferHandling(I2C_TypeDef* I2Cx, uint16_t Address, uint8_t Number_Bytes, uint32_t ReloadEndMode, uint32_t StartStopMode)
{
 8006208:	b580      	push	{r7, lr}
 800620a:	b086      	sub	sp, #24
 800620c:	af00      	add	r7, sp, #0
 800620e:	60f8      	str	r0, [r7, #12]
 8006210:	607b      	str	r3, [r7, #4]
 8006212:	1c3b      	adds	r3, r7, #0
 8006214:	330a      	adds	r3, #10
 8006216:	8019      	strh	r1, [r3, #0]
 8006218:	1c3b      	adds	r3, r7, #0
 800621a:	3309      	adds	r3, #9
 800621c:	701a      	strb	r2, [r3, #0]
  uint32_t tmpreg = 0;
 800621e:	2300      	movs	r3, #0
 8006220:	617b      	str	r3, [r7, #20]
  assert_param(IS_I2C_SLAVE_ADDRESS(Address));  
  assert_param(IS_RELOAD_END_MODE(ReloadEndMode));
  assert_param(IS_START_STOP_MODE(StartStopMode));
    
  /* Get the CR2 register value */
  tmpreg = I2Cx->CR2;
 8006222:	68fb      	ldr	r3, [r7, #12]
 8006224:	685b      	ldr	r3, [r3, #4]
 8006226:	617b      	str	r3, [r7, #20]
  
  /* clear tmpreg specific bits */
  tmpreg &= (uint32_t)~((uint32_t)(I2C_CR2_SADD | I2C_CR2_NBYTES | I2C_CR2_RELOAD | I2C_CR2_AUTOEND | I2C_CR2_RD_WRN | I2C_CR2_START | I2C_CR2_STOP));
 8006228:	697a      	ldr	r2, [r7, #20]
 800622a:	4b0e      	ldr	r3, [pc, #56]	; (8006264 <I2C_TransferHandling+0x5c>)
 800622c:	4013      	ands	r3, r2
 800622e:	617b      	str	r3, [r7, #20]
  
  /* update tmpreg */
  tmpreg |= (uint32_t)(((uint32_t)Address & I2C_CR2_SADD) | (((uint32_t)Number_Bytes << 16 ) & I2C_CR2_NBYTES) | \
 8006230:	1c3b      	adds	r3, r7, #0
 8006232:	330a      	adds	r3, #10
 8006234:	881b      	ldrh	r3, [r3, #0]
 8006236:	059b      	lsls	r3, r3, #22
 8006238:	0d9a      	lsrs	r2, r3, #22
 800623a:	1c3b      	adds	r3, r7, #0
 800623c:	3309      	adds	r3, #9
 800623e:	781b      	ldrb	r3, [r3, #0]
 8006240:	0419      	lsls	r1, r3, #16
 8006242:	23ff      	movs	r3, #255	; 0xff
 8006244:	041b      	lsls	r3, r3, #16
 8006246:	400b      	ands	r3, r1
 8006248:	431a      	orrs	r2, r3
 800624a:	687b      	ldr	r3, [r7, #4]
 800624c:	431a      	orrs	r2, r3
 800624e:	6a3b      	ldr	r3, [r7, #32]
 8006250:	4313      	orrs	r3, r2
 8006252:	697a      	ldr	r2, [r7, #20]
 8006254:	4313      	orrs	r3, r2
 8006256:	617b      	str	r3, [r7, #20]
            (uint32_t)ReloadEndMode | (uint32_t)StartStopMode);
  
  /* update CR2 register */
  I2Cx->CR2 = tmpreg;  
 8006258:	68fb      	ldr	r3, [r7, #12]
 800625a:	697a      	ldr	r2, [r7, #20]
 800625c:	605a      	str	r2, [r3, #4]
}
 800625e:	46bd      	mov	sp, r7
 8006260:	b006      	add	sp, #24
 8006262:	bd80      	pop	{r7, pc}
 8006264:	fc009800 	.word	0xfc009800

08006268 <I2C_SendData>:
  * @param  I2Cx: where x can be 1 or 2 to select the I2C peripheral.
  * @param  Data: Byte to be transmitted..
  * @retval None
  */
void I2C_SendData(I2C_TypeDef* I2Cx, uint8_t Data)
{
 8006268:	b580      	push	{r7, lr}
 800626a:	b082      	sub	sp, #8
 800626c:	af00      	add	r7, sp, #0
 800626e:	6078      	str	r0, [r7, #4]
 8006270:	1c0a      	adds	r2, r1, #0
 8006272:	1cfb      	adds	r3, r7, #3
 8006274:	701a      	strb	r2, [r3, #0]
  /* Check the parameters */
  assert_param(IS_I2C_ALL_PERIPH(I2Cx));
  
  /* Write in the DR register the data to be sent */
  I2Cx->TXDR = (uint8_t)Data;
 8006276:	1cfb      	adds	r3, r7, #3
 8006278:	781a      	ldrb	r2, [r3, #0]
 800627a:	687b      	ldr	r3, [r7, #4]
 800627c:	629a      	str	r2, [r3, #40]	; 0x28
}
 800627e:	46bd      	mov	sp, r7
 8006280:	b002      	add	sp, #8
 8006282:	bd80      	pop	{r7, pc}

08006284 <I2C_ReceiveData>:
  * @brief  Returns the most recent received data by the I2Cx peripheral.
  * @param  I2Cx: where x can be 1 or 2 to select the I2C peripheral.
  * @retval The value of the received data.
  */
uint8_t I2C_ReceiveData(I2C_TypeDef* I2Cx)
{
 8006284:	b580      	push	{r7, lr}
 8006286:	b082      	sub	sp, #8
 8006288:	af00      	add	r7, sp, #0
 800628a:	6078      	str	r0, [r7, #4]
  /* Check the parameters */
  assert_param(IS_I2C_ALL_PERIPH(I2Cx));
  
  /* Return the data in the DR register */
  return (uint8_t)I2Cx->RXDR;
 800628c:	687b      	ldr	r3, [r7, #4]
 800628e:	6a5b      	ldr	r3, [r3, #36]	; 0x24
 8006290:	b2db      	uxtb	r3, r3
}  
 8006292:	1c18      	adds	r0, r3, #0
 8006294:	46bd      	mov	sp, r7
 8006296:	b002      	add	sp, #8
 8006298:	bd80      	pop	{r7, pc}
 800629a:	46c0      	nop			; (mov r8, r8)

0800629c <I2C_GetFlagStatus>:
  *            @arg I2C_FLAG_ALERT: SMBus Alert
  *            @arg I2C_FLAG_BUSY: Bus busy
  * @retval The new state of I2C_FLAG (SET or RESET).
  */
FlagStatus I2C_GetFlagStatus(I2C_TypeDef* I2Cx, uint32_t I2C_FLAG)
{
 800629c:	b580      	push	{r7, lr}
 800629e:	b084      	sub	sp, #16
 80062a0:	af00      	add	r7, sp, #0
 80062a2:	6078      	str	r0, [r7, #4]
 80062a4:	6039      	str	r1, [r7, #0]
  uint32_t tmpreg = 0;
 80062a6:	2300      	movs	r3, #0
 80062a8:	60bb      	str	r3, [r7, #8]
  FlagStatus bitstatus = RESET;
 80062aa:	1c3b      	adds	r3, r7, #0
 80062ac:	330f      	adds	r3, #15
 80062ae:	2200      	movs	r2, #0
 80062b0:	701a      	strb	r2, [r3, #0]
  /* Check the parameters */
  assert_param(IS_I2C_ALL_PERIPH(I2Cx));
  assert_param(IS_I2C_GET_FLAG(I2C_FLAG));
  
  /* Get the ISR register value */
  tmpreg = I2Cx->ISR;
 80062b2:	687b      	ldr	r3, [r7, #4]
 80062b4:	699b      	ldr	r3, [r3, #24]
 80062b6:	60bb      	str	r3, [r7, #8]
  
  /* Get flag status */
  tmpreg &= I2C_FLAG;
 80062b8:	68bb      	ldr	r3, [r7, #8]
 80062ba:	683a      	ldr	r2, [r7, #0]
 80062bc:	4013      	ands	r3, r2
 80062be:	60bb      	str	r3, [r7, #8]
  
  if(tmpreg != 0)
 80062c0:	68bb      	ldr	r3, [r7, #8]
 80062c2:	2b00      	cmp	r3, #0
 80062c4:	d004      	beq.n	80062d0 <I2C_GetFlagStatus+0x34>
  {
    /* I2C_FLAG is set */
    bitstatus = SET;
 80062c6:	1c3b      	adds	r3, r7, #0
 80062c8:	330f      	adds	r3, #15
 80062ca:	2201      	movs	r2, #1
 80062cc:	701a      	strb	r2, [r3, #0]
 80062ce:	e003      	b.n	80062d8 <I2C_GetFlagStatus+0x3c>
  }
  else
  {
    /* I2C_FLAG is reset */
    bitstatus = RESET;
 80062d0:	1c3b      	adds	r3, r7, #0
 80062d2:	330f      	adds	r3, #15
 80062d4:	2200      	movs	r2, #0
 80062d6:	701a      	strb	r2, [r3, #0]
  }
  return bitstatus;
 80062d8:	1c3b      	adds	r3, r7, #0
 80062da:	330f      	adds	r3, #15
 80062dc:	781b      	ldrb	r3, [r3, #0]
} 
 80062de:	1c18      	adds	r0, r3, #0
 80062e0:	46bd      	mov	sp, r7
 80062e2:	b004      	add	sp, #16
 80062e4:	bd80      	pop	{r7, pc}
 80062e6:	46c0      	nop			; (mov r8, r8)

080062e8 <I2C_ClearFlag>:
  *            @arg I2C_FLAG_TIMEOUT: Timeout or Tlow detection flag
  *            @arg I2C_FLAG_ALERT: SMBus Alert
  * @retval The new state of I2C_FLAG (SET or RESET).
  */
void I2C_ClearFlag(I2C_TypeDef* I2Cx, uint32_t I2C_FLAG)
{ 
 80062e8:	b580      	push	{r7, lr}
 80062ea:	b082      	sub	sp, #8
 80062ec:	af00      	add	r7, sp, #0
 80062ee:	6078      	str	r0, [r7, #4]
 80062f0:	6039      	str	r1, [r7, #0]
  /* Check the parameters */
  assert_param(IS_I2C_ALL_PERIPH(I2Cx));
  assert_param(IS_I2C_CLEAR_FLAG(I2C_FLAG));

  /* Clear the selected flag */
  I2Cx->ICR = I2C_FLAG;
 80062f2:	687b      	ldr	r3, [r7, #4]
 80062f4:	683a      	ldr	r2, [r7, #0]
 80062f6:	61da      	str	r2, [r3, #28]
  }
 80062f8:	46bd      	mov	sp, r7
 80062fa:	b002      	add	sp, #8
 80062fc:	bd80      	pop	{r7, pc}
 80062fe:	46c0      	nop			; (mov r8, r8)

08006300 <GPIO_Init>:
  * @param  GPIO_InitStruct: pointer to a GPIO_InitTypeDef structure that contains
  *         the configuration information for the specified GPIO peripheral.
  * @retval None
  */
void GPIO_Init(GPIO_TypeDef* GPIOx, GPIO_InitTypeDef* GPIO_InitStruct)
{
 8006300:	b580      	push	{r7, lr}
 8006302:	b086      	sub	sp, #24
 8006304:	af00      	add	r7, sp, #0
 8006306:	6078      	str	r0, [r7, #4]
 8006308:	6039      	str	r1, [r7, #0]
  uint32_t pinpos = 0x00, pos = 0x00 , currentpin = 0x00;
 800630a:	2300      	movs	r3, #0
 800630c:	617b      	str	r3, [r7, #20]
 800630e:	2300      	movs	r3, #0
 8006310:	613b      	str	r3, [r7, #16]
 8006312:	2300      	movs	r3, #0
 8006314:	60fb      	str	r3, [r7, #12]
  assert_param(IS_GPIO_MODE(GPIO_InitStruct->GPIO_Mode));
  assert_param(IS_GPIO_PUPD(GPIO_InitStruct->GPIO_PuPd));

  /*-------------------------- Configure the port pins -----------------------*/
  /*-- GPIO Mode Configuration --*/
  for (pinpos = 0x00; pinpos < 0x10; pinpos++)
 8006316:	2300      	movs	r3, #0
 8006318:	617b      	str	r3, [r7, #20]
 800631a:	e085      	b.n	8006428 <GPIO_Init+0x128>
  {
    pos = ((uint32_t)0x01) << pinpos;
 800631c:	697b      	ldr	r3, [r7, #20]
 800631e:	2201      	movs	r2, #1
 8006320:	1c10      	adds	r0, r2, #0
 8006322:	4098      	lsls	r0, r3
 8006324:	1c03      	adds	r3, r0, #0
 8006326:	613b      	str	r3, [r7, #16]

    /* Get the port pins position */
    currentpin = (GPIO_InitStruct->GPIO_Pin) & pos;
 8006328:	683b      	ldr	r3, [r7, #0]
 800632a:	681b      	ldr	r3, [r3, #0]
 800632c:	693a      	ldr	r2, [r7, #16]
 800632e:	4013      	ands	r3, r2
 8006330:	60fb      	str	r3, [r7, #12]

    if (currentpin == pos)
 8006332:	68fa      	ldr	r2, [r7, #12]
 8006334:	693b      	ldr	r3, [r7, #16]
 8006336:	429a      	cmp	r2, r3
 8006338:	d173      	bne.n	8006422 <GPIO_Init+0x122>
    {
      if ((GPIO_InitStruct->GPIO_Mode == GPIO_Mode_OUT) || (GPIO_InitStruct->GPIO_Mode == GPIO_Mode_AF))
 800633a:	683b      	ldr	r3, [r7, #0]
 800633c:	791b      	ldrb	r3, [r3, #4]
 800633e:	2b01      	cmp	r3, #1
 8006340:	d003      	beq.n	800634a <GPIO_Init+0x4a>
 8006342:	683b      	ldr	r3, [r7, #0]
 8006344:	791b      	ldrb	r3, [r3, #4]
 8006346:	2b02      	cmp	r3, #2
 8006348:	d138      	bne.n	80063bc <GPIO_Init+0xbc>
      {
        /* Check Speed mode parameters */
        assert_param(IS_GPIO_SPEED(GPIO_InitStruct->GPIO_Speed));

        /* Speed mode configuration */
        GPIOx->OSPEEDR &= ~(GPIO_OSPEEDER_OSPEEDR0 << (pinpos * 2));
 800634a:	687b      	ldr	r3, [r7, #4]
 800634c:	689b      	ldr	r3, [r3, #8]
 800634e:	697a      	ldr	r2, [r7, #20]
 8006350:	0052      	lsls	r2, r2, #1
 8006352:	2103      	movs	r1, #3
 8006354:	1c08      	adds	r0, r1, #0
 8006356:	4090      	lsls	r0, r2
 8006358:	1c02      	adds	r2, r0, #0
 800635a:	43d2      	mvns	r2, r2
 800635c:	401a      	ands	r2, r3
 800635e:	687b      	ldr	r3, [r7, #4]
 8006360:	609a      	str	r2, [r3, #8]
        GPIOx->OSPEEDR |= ((uint32_t)(GPIO_InitStruct->GPIO_Speed) << (pinpos * 2));
 8006362:	687b      	ldr	r3, [r7, #4]
 8006364:	689a      	ldr	r2, [r3, #8]
 8006366:	683b      	ldr	r3, [r7, #0]
 8006368:	795b      	ldrb	r3, [r3, #5]
 800636a:	1c19      	adds	r1, r3, #0
 800636c:	697b      	ldr	r3, [r7, #20]
 800636e:	005b      	lsls	r3, r3, #1
 8006370:	1c08      	adds	r0, r1, #0
 8006372:	4098      	lsls	r0, r3
 8006374:	1c03      	adds	r3, r0, #0
 8006376:	431a      	orrs	r2, r3
 8006378:	687b      	ldr	r3, [r7, #4]
 800637a:	609a      	str	r2, [r3, #8]

        /* Check Output mode parameters */
        assert_param(IS_GPIO_OTYPE(GPIO_InitStruct->GPIO_OType));

        /* Output mode configuration */
        GPIOx->OTYPER &= ~((GPIO_OTYPER_OT_0) << ((uint16_t)pinpos));
 800637c:	687b      	ldr	r3, [r7, #4]
 800637e:	889b      	ldrh	r3, [r3, #4]
 8006380:	b29b      	uxth	r3, r3
 8006382:	697a      	ldr	r2, [r7, #20]
 8006384:	b292      	uxth	r2, r2
 8006386:	2101      	movs	r1, #1
 8006388:	1c08      	adds	r0, r1, #0
 800638a:	4090      	lsls	r0, r2
 800638c:	1c02      	adds	r2, r0, #0
 800638e:	b292      	uxth	r2, r2
 8006390:	43d2      	mvns	r2, r2
 8006392:	b292      	uxth	r2, r2
 8006394:	4013      	ands	r3, r2
 8006396:	b29a      	uxth	r2, r3
 8006398:	687b      	ldr	r3, [r7, #4]
 800639a:	809a      	strh	r2, [r3, #4]
        GPIOx->OTYPER |= (uint16_t)(((uint16_t)GPIO_InitStruct->GPIO_OType) << ((uint16_t)pinpos));
 800639c:	687b      	ldr	r3, [r7, #4]
 800639e:	889b      	ldrh	r3, [r3, #4]
 80063a0:	b29a      	uxth	r2, r3
 80063a2:	683b      	ldr	r3, [r7, #0]
 80063a4:	799b      	ldrb	r3, [r3, #6]
 80063a6:	1c19      	adds	r1, r3, #0
 80063a8:	697b      	ldr	r3, [r7, #20]
 80063aa:	b29b      	uxth	r3, r3
 80063ac:	1c08      	adds	r0, r1, #0
 80063ae:	4098      	lsls	r0, r3
 80063b0:	1c03      	adds	r3, r0, #0
 80063b2:	b29b      	uxth	r3, r3
 80063b4:	4313      	orrs	r3, r2
 80063b6:	b29a      	uxth	r2, r3
 80063b8:	687b      	ldr	r3, [r7, #4]
 80063ba:	809a      	strh	r2, [r3, #4]
      }

      GPIOx->MODER  &= ~(GPIO_MODER_MODER0 << (pinpos * 2));
 80063bc:	687b      	ldr	r3, [r7, #4]
 80063be:	681b      	ldr	r3, [r3, #0]
 80063c0:	697a      	ldr	r2, [r7, #20]
 80063c2:	0052      	lsls	r2, r2, #1
 80063c4:	2103      	movs	r1, #3
 80063c6:	1c08      	adds	r0, r1, #0
 80063c8:	4090      	lsls	r0, r2
 80063ca:	1c02      	adds	r2, r0, #0
 80063cc:	43d2      	mvns	r2, r2
 80063ce:	401a      	ands	r2, r3
 80063d0:	687b      	ldr	r3, [r7, #4]
 80063d2:	601a      	str	r2, [r3, #0]

      GPIOx->MODER |= (((uint32_t)GPIO_InitStruct->GPIO_Mode) << (pinpos * 2));
 80063d4:	687b      	ldr	r3, [r7, #4]
 80063d6:	681a      	ldr	r2, [r3, #0]
 80063d8:	683b      	ldr	r3, [r7, #0]
 80063da:	791b      	ldrb	r3, [r3, #4]
 80063dc:	1c19      	adds	r1, r3, #0
 80063de:	697b      	ldr	r3, [r7, #20]
 80063e0:	005b      	lsls	r3, r3, #1
 80063e2:	1c08      	adds	r0, r1, #0
 80063e4:	4098      	lsls	r0, r3
 80063e6:	1c03      	adds	r3, r0, #0
 80063e8:	431a      	orrs	r2, r3
 80063ea:	687b      	ldr	r3, [r7, #4]
 80063ec:	601a      	str	r2, [r3, #0]

      /* Pull-up Pull down resistor configuration */
      GPIOx->PUPDR &= ~(GPIO_PUPDR_PUPDR0 << ((uint16_t)pinpos * 2));
 80063ee:	687b      	ldr	r3, [r7, #4]
 80063f0:	68db      	ldr	r3, [r3, #12]
 80063f2:	697a      	ldr	r2, [r7, #20]
 80063f4:	b292      	uxth	r2, r2
 80063f6:	0052      	lsls	r2, r2, #1
 80063f8:	2103      	movs	r1, #3
 80063fa:	1c08      	adds	r0, r1, #0
 80063fc:	4090      	lsls	r0, r2
 80063fe:	1c02      	adds	r2, r0, #0
 8006400:	43d2      	mvns	r2, r2
 8006402:	401a      	ands	r2, r3
 8006404:	687b      	ldr	r3, [r7, #4]
 8006406:	60da      	str	r2, [r3, #12]
      GPIOx->PUPDR |= (((uint32_t)GPIO_InitStruct->GPIO_PuPd) << (pinpos * 2));
 8006408:	687b      	ldr	r3, [r7, #4]
 800640a:	68da      	ldr	r2, [r3, #12]
 800640c:	683b      	ldr	r3, [r7, #0]
 800640e:	79db      	ldrb	r3, [r3, #7]
 8006410:	1c19      	adds	r1, r3, #0
 8006412:	697b      	ldr	r3, [r7, #20]
 8006414:	005b      	lsls	r3, r3, #1
 8006416:	1c08      	adds	r0, r1, #0
 8006418:	4098      	lsls	r0, r3
 800641a:	1c03      	adds	r3, r0, #0
 800641c:	431a      	orrs	r2, r3
 800641e:	687b      	ldr	r3, [r7, #4]
 8006420:	60da      	str	r2, [r3, #12]
  assert_param(IS_GPIO_MODE(GPIO_InitStruct->GPIO_Mode));
  assert_param(IS_GPIO_PUPD(GPIO_InitStruct->GPIO_PuPd));

  /*-------------------------- Configure the port pins -----------------------*/
  /*-- GPIO Mode Configuration --*/
  for (pinpos = 0x00; pinpos < 0x10; pinpos++)
 8006422:	697b      	ldr	r3, [r7, #20]
 8006424:	3301      	adds	r3, #1
 8006426:	617b      	str	r3, [r7, #20]
 8006428:	697b      	ldr	r3, [r7, #20]
 800642a:	2b0f      	cmp	r3, #15
 800642c:	d800      	bhi.n	8006430 <GPIO_Init+0x130>
 800642e:	e775      	b.n	800631c <GPIO_Init+0x1c>
      /* Pull-up Pull down resistor configuration */
      GPIOx->PUPDR &= ~(GPIO_PUPDR_PUPDR0 << ((uint16_t)pinpos * 2));
      GPIOx->PUPDR |= (((uint32_t)GPIO_InitStruct->GPIO_PuPd) << (pinpos * 2));
    }
  }
}
 8006430:	46bd      	mov	sp, r7
 8006432:	b006      	add	sp, #24
 8006434:	bd80      	pop	{r7, pc}
 8006436:	46c0      	nop			; (mov r8, r8)

08006438 <GPIO_PinAFConfig>:
  *         for the detailed mapping of the system and peripherals'alternate 
  *         function I/O pins.
  * @retval None
  */
void GPIO_PinAFConfig(GPIO_TypeDef* GPIOx, uint16_t GPIO_PinSource, uint8_t GPIO_AF)
{
 8006438:	b590      	push	{r4, r7, lr}
 800643a:	b085      	sub	sp, #20
 800643c:	af00      	add	r7, sp, #0
 800643e:	6078      	str	r0, [r7, #4]
 8006440:	1cbb      	adds	r3, r7, #2
 8006442:	8019      	strh	r1, [r3, #0]
 8006444:	1c7b      	adds	r3, r7, #1
 8006446:	701a      	strb	r2, [r3, #0]
  uint32_t temp = 0x00;
 8006448:	2300      	movs	r3, #0
 800644a:	60fb      	str	r3, [r7, #12]
  uint32_t temp_2 = 0x00;
 800644c:	2300      	movs	r3, #0
 800644e:	60bb      	str	r3, [r7, #8]
  /* Check the parameters */
  assert_param(IS_GPIO_ALL_PERIPH(GPIOx));
  assert_param(IS_GPIO_PIN_SOURCE(GPIO_PinSource));
  assert_param(IS_GPIO_AF(GPIO_AF));

  temp = ((uint32_t)(GPIO_AF) << ((uint32_t)((uint32_t)GPIO_PinSource & (uint32_t)0x07) * 4));
 8006450:	1c7b      	adds	r3, r7, #1
 8006452:	781a      	ldrb	r2, [r3, #0]
 8006454:	1cbb      	adds	r3, r7, #2
 8006456:	8819      	ldrh	r1, [r3, #0]
 8006458:	2307      	movs	r3, #7
 800645a:	400b      	ands	r3, r1
 800645c:	009b      	lsls	r3, r3, #2
 800645e:	1c11      	adds	r1, r2, #0
 8006460:	4099      	lsls	r1, r3
 8006462:	1c0b      	adds	r3, r1, #0
 8006464:	60fb      	str	r3, [r7, #12]
  GPIOx->AFR[GPIO_PinSource >> 0x03] &= ~((uint32_t)0xF << ((uint32_t)((uint32_t)GPIO_PinSource & (uint32_t)0x07) * 4));
 8006466:	1cbb      	adds	r3, r7, #2
 8006468:	881b      	ldrh	r3, [r3, #0]
 800646a:	08db      	lsrs	r3, r3, #3
 800646c:	b29b      	uxth	r3, r3
 800646e:	1c1a      	adds	r2, r3, #0
 8006470:	1cbb      	adds	r3, r7, #2
 8006472:	881b      	ldrh	r3, [r3, #0]
 8006474:	08db      	lsrs	r3, r3, #3
 8006476:	b29b      	uxth	r3, r3
 8006478:	1c19      	adds	r1, r3, #0
 800647a:	687b      	ldr	r3, [r7, #4]
 800647c:	3108      	adds	r1, #8
 800647e:	0089      	lsls	r1, r1, #2
 8006480:	58cb      	ldr	r3, [r1, r3]
 8006482:	1cb9      	adds	r1, r7, #2
 8006484:	8808      	ldrh	r0, [r1, #0]
 8006486:	2107      	movs	r1, #7
 8006488:	4001      	ands	r1, r0
 800648a:	0089      	lsls	r1, r1, #2
 800648c:	200f      	movs	r0, #15
 800648e:	1c04      	adds	r4, r0, #0
 8006490:	408c      	lsls	r4, r1
 8006492:	1c21      	adds	r1, r4, #0
 8006494:	43c9      	mvns	r1, r1
 8006496:	4019      	ands	r1, r3
 8006498:	687b      	ldr	r3, [r7, #4]
 800649a:	3208      	adds	r2, #8
 800649c:	0092      	lsls	r2, r2, #2
 800649e:	50d1      	str	r1, [r2, r3]
  temp_2 = GPIOx->AFR[GPIO_PinSource >> 0x03] | temp;
 80064a0:	1cbb      	adds	r3, r7, #2
 80064a2:	881b      	ldrh	r3, [r3, #0]
 80064a4:	08db      	lsrs	r3, r3, #3
 80064a6:	b29b      	uxth	r3, r3
 80064a8:	1c1a      	adds	r2, r3, #0
 80064aa:	687b      	ldr	r3, [r7, #4]
 80064ac:	3208      	adds	r2, #8
 80064ae:	0092      	lsls	r2, r2, #2
 80064b0:	58d2      	ldr	r2, [r2, r3]
 80064b2:	68fb      	ldr	r3, [r7, #12]
 80064b4:	4313      	orrs	r3, r2
 80064b6:	60bb      	str	r3, [r7, #8]
  GPIOx->AFR[GPIO_PinSource >> 0x03] = temp_2;
 80064b8:	1cbb      	adds	r3, r7, #2
 80064ba:	881b      	ldrh	r3, [r3, #0]
 80064bc:	08db      	lsrs	r3, r3, #3
 80064be:	b29b      	uxth	r3, r3
 80064c0:	1c1a      	adds	r2, r3, #0
 80064c2:	687b      	ldr	r3, [r7, #4]
 80064c4:	3208      	adds	r2, #8
 80064c6:	0092      	lsls	r2, r2, #2
 80064c8:	68b9      	ldr	r1, [r7, #8]
 80064ca:	50d1      	str	r1, [r2, r3]
}
 80064cc:	46bd      	mov	sp, r7
 80064ce:	b005      	add	sp, #20
 80064d0:	bd90      	pop	{r4, r7, pc}
 80064d2:	46c0      	nop			; (mov r8, r8)

080064d4 <FLASH_Unlock>:
  * @brief  Unlocks the FLASH control register and program memory access.
  * @param  None
  * @retval None
  */
void FLASH_Unlock(void)
{
 80064d4:	b580      	push	{r7, lr}
 80064d6:	af00      	add	r7, sp, #0
  if((FLASH->CR & FLASH_CR_LOCK) != RESET)
 80064d8:	4b06      	ldr	r3, [pc, #24]	; (80064f4 <FLASH_Unlock+0x20>)
 80064da:	691a      	ldr	r2, [r3, #16]
 80064dc:	2380      	movs	r3, #128	; 0x80
 80064de:	4013      	ands	r3, r2
 80064e0:	d005      	beq.n	80064ee <FLASH_Unlock+0x1a>
  {
    /* Unlocking the program memory access */
    FLASH->KEYR = FLASH_FKEY1;
 80064e2:	4b04      	ldr	r3, [pc, #16]	; (80064f4 <FLASH_Unlock+0x20>)
 80064e4:	4a04      	ldr	r2, [pc, #16]	; (80064f8 <FLASH_Unlock+0x24>)
 80064e6:	605a      	str	r2, [r3, #4]
    FLASH->KEYR = FLASH_FKEY2;
 80064e8:	4b02      	ldr	r3, [pc, #8]	; (80064f4 <FLASH_Unlock+0x20>)
 80064ea:	4a04      	ldr	r2, [pc, #16]	; (80064fc <FLASH_Unlock+0x28>)
 80064ec:	605a      	str	r2, [r3, #4]
  }
}
 80064ee:	46bd      	mov	sp, r7
 80064f0:	bd80      	pop	{r7, pc}
 80064f2:	46c0      	nop			; (mov r8, r8)
 80064f4:	40022000 	.word	0x40022000
 80064f8:	45670123 	.word	0x45670123
 80064fc:	cdef89ab 	.word	0xcdef89ab

08006500 <FLASH_ErasePage>:
  *         is the start address of a page (multiple of 1024 bytes).
  * @retval FLASH Status: The returned value can be: 
  *         FLASH_ERROR_PROGRAM, FLASH_ERROR_WRP, FLASH_COMPLETE or FLASH_TIMEOUT.
  */
FLASH_Status FLASH_ErasePage(uint32_t Page_Address)
{
 8006500:	b590      	push	{r4, r7, lr}
 8006502:	b085      	sub	sp, #20
 8006504:	af00      	add	r7, sp, #0
 8006506:	6078      	str	r0, [r7, #4]
  FLASH_Status status = FLASH_COMPLETE;
 8006508:	1c3b      	adds	r3, r7, #0
 800650a:	330f      	adds	r3, #15
 800650c:	2204      	movs	r2, #4
 800650e:	701a      	strb	r2, [r3, #0]

  /* Check the parameters */
  assert_param(IS_FLASH_PROGRAM_ADDRESS(Page_Address));
 
  /* Wait for last operation to be completed */
  status = FLASH_WaitForLastOperation(FLASH_ER_PRG_TIMEOUT);
 8006510:	1c3c      	adds	r4, r7, #0
 8006512:	340f      	adds	r4, #15
 8006514:	23b0      	movs	r3, #176	; 0xb0
 8006516:	031b      	lsls	r3, r3, #12
 8006518:	1c18      	adds	r0, r3, #0
 800651a:	f000 f897 	bl	800664c <FLASH_WaitForLastOperation>
 800651e:	1c03      	adds	r3, r0, #0
 8006520:	7023      	strb	r3, [r4, #0]
  
  if(status == FLASH_COMPLETE)
 8006522:	1c3b      	adds	r3, r7, #0
 8006524:	330f      	adds	r3, #15
 8006526:	781b      	ldrb	r3, [r3, #0]
 8006528:	2b04      	cmp	r3, #4
 800652a:	d11d      	bne.n	8006568 <FLASH_ErasePage+0x68>
  { 
    /* If the previous operation is completed, proceed to erase the page */
    FLASH->CR |= FLASH_CR_PER;
 800652c:	4b12      	ldr	r3, [pc, #72]	; (8006578 <FLASH_ErasePage+0x78>)
 800652e:	4a12      	ldr	r2, [pc, #72]	; (8006578 <FLASH_ErasePage+0x78>)
 8006530:	6912      	ldr	r2, [r2, #16]
 8006532:	2102      	movs	r1, #2
 8006534:	430a      	orrs	r2, r1
 8006536:	611a      	str	r2, [r3, #16]
    FLASH->AR  = Page_Address;
 8006538:	4b0f      	ldr	r3, [pc, #60]	; (8006578 <FLASH_ErasePage+0x78>)
 800653a:	687a      	ldr	r2, [r7, #4]
 800653c:	615a      	str	r2, [r3, #20]
    FLASH->CR |= FLASH_CR_STRT;
 800653e:	4b0e      	ldr	r3, [pc, #56]	; (8006578 <FLASH_ErasePage+0x78>)
 8006540:	4a0d      	ldr	r2, [pc, #52]	; (8006578 <FLASH_ErasePage+0x78>)
 8006542:	6912      	ldr	r2, [r2, #16]
 8006544:	2140      	movs	r1, #64	; 0x40
 8006546:	430a      	orrs	r2, r1
 8006548:	611a      	str	r2, [r3, #16]
    
    /* Wait for last operation to be completed */
    status = FLASH_WaitForLastOperation(FLASH_ER_PRG_TIMEOUT);
 800654a:	1c3c      	adds	r4, r7, #0
 800654c:	340f      	adds	r4, #15
 800654e:	23b0      	movs	r3, #176	; 0xb0
 8006550:	031b      	lsls	r3, r3, #12
 8006552:	1c18      	adds	r0, r3, #0
 8006554:	f000 f87a 	bl	800664c <FLASH_WaitForLastOperation>
 8006558:	1c03      	adds	r3, r0, #0
 800655a:	7023      	strb	r3, [r4, #0]
    
    /* Disable the PER Bit */
    FLASH->CR &= ~FLASH_CR_PER;
 800655c:	4b06      	ldr	r3, [pc, #24]	; (8006578 <FLASH_ErasePage+0x78>)
 800655e:	4a06      	ldr	r2, [pc, #24]	; (8006578 <FLASH_ErasePage+0x78>)
 8006560:	6912      	ldr	r2, [r2, #16]
 8006562:	2102      	movs	r1, #2
 8006564:	438a      	bics	r2, r1
 8006566:	611a      	str	r2, [r3, #16]
  }
    
  /* Return the Erase Status */
  return status;
 8006568:	1c3b      	adds	r3, r7, #0
 800656a:	330f      	adds	r3, #15
 800656c:	781b      	ldrb	r3, [r3, #0]
}
 800656e:	1c18      	adds	r0, r3, #0
 8006570:	46bd      	mov	sp, r7
 8006572:	b005      	add	sp, #20
 8006574:	bd90      	pop	{r4, r7, pc}
 8006576:	46c0      	nop			; (mov r8, r8)
 8006578:	40022000 	.word	0x40022000

0800657c <FLASH_ProgramHalfWord>:
  * @param  Data: specifies the data to be programmed.
  * @retval FLASH Status: The returned value can be: FLASH_ERROR_PG,
  *         FLASH_ERROR_WRP, FLASH_COMPLETE or FLASH_TIMEOUT. 
  */
FLASH_Status FLASH_ProgramHalfWord(uint32_t Address, uint16_t Data)
{
 800657c:	b590      	push	{r4, r7, lr}
 800657e:	b085      	sub	sp, #20
 8006580:	af00      	add	r7, sp, #0
 8006582:	6078      	str	r0, [r7, #4]
 8006584:	1c0a      	adds	r2, r1, #0
 8006586:	1cbb      	adds	r3, r7, #2
 8006588:	801a      	strh	r2, [r3, #0]
  FLASH_Status status = FLASH_COMPLETE;
 800658a:	1c3b      	adds	r3, r7, #0
 800658c:	330f      	adds	r3, #15
 800658e:	2204      	movs	r2, #4
 8006590:	701a      	strb	r2, [r3, #0]

  /* Check the parameters */
  assert_param(IS_FLASH_PROGRAM_ADDRESS(Address));

  /* Wait for last operation to be completed */
  status = FLASH_WaitForLastOperation(FLASH_ER_PRG_TIMEOUT);
 8006592:	1c3c      	adds	r4, r7, #0
 8006594:	340f      	adds	r4, #15
 8006596:	23b0      	movs	r3, #176	; 0xb0
 8006598:	031b      	lsls	r3, r3, #12
 800659a:	1c18      	adds	r0, r3, #0
 800659c:	f000 f856 	bl	800664c <FLASH_WaitForLastOperation>
 80065a0:	1c03      	adds	r3, r0, #0
 80065a2:	7023      	strb	r3, [r4, #0]
  
  if(status == FLASH_COMPLETE)
 80065a4:	1c3b      	adds	r3, r7, #0
 80065a6:	330f      	adds	r3, #15
 80065a8:	781b      	ldrb	r3, [r3, #0]
 80065aa:	2b04      	cmp	r3, #4
 80065ac:	d118      	bne.n	80065e0 <FLASH_ProgramHalfWord+0x64>
  {
    /* If the previous operation is completed, proceed to program the new data */
    FLASH->CR |= FLASH_CR_PG;
 80065ae:	4b10      	ldr	r3, [pc, #64]	; (80065f0 <FLASH_ProgramHalfWord+0x74>)
 80065b0:	4a0f      	ldr	r2, [pc, #60]	; (80065f0 <FLASH_ProgramHalfWord+0x74>)
 80065b2:	6912      	ldr	r2, [r2, #16]
 80065b4:	2101      	movs	r1, #1
 80065b6:	430a      	orrs	r2, r1
 80065b8:	611a      	str	r2, [r3, #16]
  
    *(__IO uint16_t*)Address = Data;
 80065ba:	687b      	ldr	r3, [r7, #4]
 80065bc:	1cba      	adds	r2, r7, #2
 80065be:	8812      	ldrh	r2, [r2, #0]
 80065c0:	801a      	strh	r2, [r3, #0]

    /* Wait for last operation to be completed */
    status = FLASH_WaitForLastOperation(FLASH_ER_PRG_TIMEOUT);
 80065c2:	1c3c      	adds	r4, r7, #0
 80065c4:	340f      	adds	r4, #15
 80065c6:	23b0      	movs	r3, #176	; 0xb0
 80065c8:	031b      	lsls	r3, r3, #12
 80065ca:	1c18      	adds	r0, r3, #0
 80065cc:	f000 f83e 	bl	800664c <FLASH_WaitForLastOperation>
 80065d0:	1c03      	adds	r3, r0, #0
 80065d2:	7023      	strb	r3, [r4, #0]
    
    /* Disable the PG Bit */
    FLASH->CR &= ~FLASH_CR_PG;
 80065d4:	4b06      	ldr	r3, [pc, #24]	; (80065f0 <FLASH_ProgramHalfWord+0x74>)
 80065d6:	4a06      	ldr	r2, [pc, #24]	; (80065f0 <FLASH_ProgramHalfWord+0x74>)
 80065d8:	6912      	ldr	r2, [r2, #16]
 80065da:	2101      	movs	r1, #1
 80065dc:	438a      	bics	r2, r1
 80065de:	611a      	str	r2, [r3, #16]
  } 
  
  /* Return the Program Status */
  return status;
 80065e0:	1c3b      	adds	r3, r7, #0
 80065e2:	330f      	adds	r3, #15
 80065e4:	781b      	ldrb	r3, [r3, #0]
}
 80065e6:	1c18      	adds	r0, r3, #0
 80065e8:	46bd      	mov	sp, r7
 80065ea:	b005      	add	sp, #20
 80065ec:	bd90      	pop	{r4, r7, pc}
 80065ee:	46c0      	nop			; (mov r8, r8)
 80065f0:	40022000 	.word	0x40022000

080065f4 <FLASH_GetStatus>:
  * @param  None
  * @retval FLASH Status: The returned value can be: 
  *         FLASH_BUSY, FLASH_ERROR_PROGRAM, FLASH_ERROR_WRP or FLASH_COMPLETE.
  */
FLASH_Status FLASH_GetStatus(void)
{
 80065f4:	b580      	push	{r7, lr}
 80065f6:	b082      	sub	sp, #8
 80065f8:	af00      	add	r7, sp, #0
  FLASH_Status FLASHstatus = FLASH_COMPLETE;
 80065fa:	1dfb      	adds	r3, r7, #7
 80065fc:	2204      	movs	r2, #4
 80065fe:	701a      	strb	r2, [r3, #0]
  
  if((FLASH->SR & FLASH_FLAG_BSY) == FLASH_FLAG_BSY) 
 8006600:	4b11      	ldr	r3, [pc, #68]	; (8006648 <FLASH_GetStatus+0x54>)
 8006602:	68da      	ldr	r2, [r3, #12]
 8006604:	2301      	movs	r3, #1
 8006606:	4013      	ands	r3, r2
 8006608:	d003      	beq.n	8006612 <FLASH_GetStatus+0x1e>
  {
    FLASHstatus = FLASH_BUSY;
 800660a:	1dfb      	adds	r3, r7, #7
 800660c:	2201      	movs	r2, #1
 800660e:	701a      	strb	r2, [r3, #0]
 8006610:	e014      	b.n	800663c <FLASH_GetStatus+0x48>
  }
  else 
  {  
    if((FLASH->SR & (uint32_t)FLASH_FLAG_WRPERR)!= (uint32_t)0x00)
 8006612:	4b0d      	ldr	r3, [pc, #52]	; (8006648 <FLASH_GetStatus+0x54>)
 8006614:	68da      	ldr	r2, [r3, #12]
 8006616:	2310      	movs	r3, #16
 8006618:	4013      	ands	r3, r2
 800661a:	d003      	beq.n	8006624 <FLASH_GetStatus+0x30>
    { 
      FLASHstatus = FLASH_ERROR_WRP;
 800661c:	1dfb      	adds	r3, r7, #7
 800661e:	2202      	movs	r2, #2
 8006620:	701a      	strb	r2, [r3, #0]
 8006622:	e00b      	b.n	800663c <FLASH_GetStatus+0x48>
    }
    else 
    {
      if((FLASH->SR & (uint32_t)(FLASH_SR_PGERR)) != (uint32_t)0x00)
 8006624:	4b08      	ldr	r3, [pc, #32]	; (8006648 <FLASH_GetStatus+0x54>)
 8006626:	68da      	ldr	r2, [r3, #12]
 8006628:	2304      	movs	r3, #4
 800662a:	4013      	ands	r3, r2
 800662c:	d003      	beq.n	8006636 <FLASH_GetStatus+0x42>
      {
        FLASHstatus = FLASH_ERROR_PROGRAM; 
 800662e:	1dfb      	adds	r3, r7, #7
 8006630:	2203      	movs	r2, #3
 8006632:	701a      	strb	r2, [r3, #0]
 8006634:	e002      	b.n	800663c <FLASH_GetStatus+0x48>
      }
      else
      {
        FLASHstatus = FLASH_COMPLETE;
 8006636:	1dfb      	adds	r3, r7, #7
 8006638:	2204      	movs	r2, #4
 800663a:	701a      	strb	r2, [r3, #0]
      }
    }
  }
  /* Return the FLASH Status */
  return FLASHstatus;
 800663c:	1dfb      	adds	r3, r7, #7
 800663e:	781b      	ldrb	r3, [r3, #0]
}
 8006640:	1c18      	adds	r0, r3, #0
 8006642:	46bd      	mov	sp, r7
 8006644:	b002      	add	sp, #8
 8006646:	bd80      	pop	{r7, pc}
 8006648:	40022000 	.word	0x40022000

0800664c <FLASH_WaitForLastOperation>:
  * @param  Timeout: FLASH programming Timeout
  * @retval FLASH Status: The returned value can be: FLASH_BUSY, 
  *         FLASH_ERROR_PROGRAM, FLASH_ERROR_WRP, FLASH_COMPLETE or FLASH_TIMEOUT.
  */
FLASH_Status FLASH_WaitForLastOperation(uint32_t Timeout)
{ 
 800664c:	b590      	push	{r4, r7, lr}
 800664e:	b085      	sub	sp, #20
 8006650:	af00      	add	r7, sp, #0
 8006652:	6078      	str	r0, [r7, #4]
  FLASH_Status status = FLASH_COMPLETE;
 8006654:	1c3b      	adds	r3, r7, #0
 8006656:	330f      	adds	r3, #15
 8006658:	2204      	movs	r2, #4
 800665a:	701a      	strb	r2, [r3, #0]
   
  /* Check for the FLASH Status */
  status = FLASH_GetStatus();
 800665c:	1c3c      	adds	r4, r7, #0
 800665e:	340f      	adds	r4, #15
 8006660:	f7ff ffc8 	bl	80065f4 <FLASH_GetStatus>
 8006664:	1c03      	adds	r3, r0, #0
 8006666:	7023      	strb	r3, [r4, #0]
  
  /* Wait for a FLASH operation to complete or a TIMEOUT to occur */
  while((status == FLASH_BUSY) && (Timeout != 0x00))
 8006668:	e008      	b.n	800667c <FLASH_WaitForLastOperation+0x30>
  {
    status = FLASH_GetStatus();
 800666a:	1c3c      	adds	r4, r7, #0
 800666c:	340f      	adds	r4, #15
 800666e:	f7ff ffc1 	bl	80065f4 <FLASH_GetStatus>
 8006672:	1c03      	adds	r3, r0, #0
 8006674:	7023      	strb	r3, [r4, #0]
    Timeout--;
 8006676:	687b      	ldr	r3, [r7, #4]
 8006678:	3b01      	subs	r3, #1
 800667a:	607b      	str	r3, [r7, #4]
   
  /* Check for the FLASH Status */
  status = FLASH_GetStatus();
  
  /* Wait for a FLASH operation to complete or a TIMEOUT to occur */
  while((status == FLASH_BUSY) && (Timeout != 0x00))
 800667c:	1c3b      	adds	r3, r7, #0
 800667e:	330f      	adds	r3, #15
 8006680:	781b      	ldrb	r3, [r3, #0]
 8006682:	2b01      	cmp	r3, #1
 8006684:	d102      	bne.n	800668c <FLASH_WaitForLastOperation+0x40>
 8006686:	687b      	ldr	r3, [r7, #4]
 8006688:	2b00      	cmp	r3, #0
 800668a:	d1ee      	bne.n	800666a <FLASH_WaitForLastOperation+0x1e>
  {
    status = FLASH_GetStatus();
    Timeout--;
  }
  
  if(Timeout == 0x00 )
 800668c:	687b      	ldr	r3, [r7, #4]
 800668e:	2b00      	cmp	r3, #0
 8006690:	d103      	bne.n	800669a <FLASH_WaitForLastOperation+0x4e>
  {
    status = FLASH_TIMEOUT;
 8006692:	1c3b      	adds	r3, r7, #0
 8006694:	330f      	adds	r3, #15
 8006696:	2205      	movs	r2, #5
 8006698:	701a      	strb	r2, [r3, #0]
  }
  /* Return the operation status */
  return status;
 800669a:	1c3b      	adds	r3, r7, #0
 800669c:	330f      	adds	r3, #15
 800669e:	781b      	ldrb	r3, [r3, #0]
}
 80066a0:	1c18      	adds	r0, r3, #0
 80066a2:	46bd      	mov	sp, r7
 80066a4:	b005      	add	sp, #20
 80066a6:	bd90      	pop	{r4, r7, pc}

080066a8 <EXTI_Init>:
  * @param  EXTI_InitStruct: pointer to a EXTI_InitTypeDef structure that 
  *         contains the configuration information for the EXTI peripheral.
  * @retval None
  */
void EXTI_Init(EXTI_InitTypeDef* EXTI_InitStruct)
{
 80066a8:	b580      	push	{r7, lr}
 80066aa:	b084      	sub	sp, #16
 80066ac:	af00      	add	r7, sp, #0
 80066ae:	6078      	str	r0, [r7, #4]
  uint32_t tmp = 0;
 80066b0:	2300      	movs	r3, #0
 80066b2:	60fb      	str	r3, [r7, #12]
  assert_param(IS_EXTI_MODE(EXTI_InitStruct->EXTI_Mode));
  assert_param(IS_EXTI_TRIGGER(EXTI_InitStruct->EXTI_Trigger));
  assert_param(IS_EXTI_LINE(EXTI_InitStruct->EXTI_Line));
  assert_param(IS_FUNCTIONAL_STATE(EXTI_InitStruct->EXTI_LineCmd));

  tmp = (uint32_t)EXTI_BASE;
 80066b4:	4b31      	ldr	r3, [pc, #196]	; (800677c <EXTI_Init+0xd4>)
 80066b6:	60fb      	str	r3, [r7, #12]

  if (EXTI_InitStruct->EXTI_LineCmd != DISABLE)
 80066b8:	687b      	ldr	r3, [r7, #4]
 80066ba:	799b      	ldrb	r3, [r3, #6]
 80066bc:	2b00      	cmp	r3, #0
 80066be:	d04d      	beq.n	800675c <EXTI_Init+0xb4>
  {
    /* Clear EXTI line configuration */
    EXTI->IMR &= ~EXTI_InitStruct->EXTI_Line;
 80066c0:	4b2e      	ldr	r3, [pc, #184]	; (800677c <EXTI_Init+0xd4>)
 80066c2:	4a2e      	ldr	r2, [pc, #184]	; (800677c <EXTI_Init+0xd4>)
 80066c4:	6811      	ldr	r1, [r2, #0]
 80066c6:	687a      	ldr	r2, [r7, #4]
 80066c8:	6812      	ldr	r2, [r2, #0]
 80066ca:	43d2      	mvns	r2, r2
 80066cc:	400a      	ands	r2, r1
 80066ce:	601a      	str	r2, [r3, #0]
    EXTI->EMR &= ~EXTI_InitStruct->EXTI_Line;
 80066d0:	4b2a      	ldr	r3, [pc, #168]	; (800677c <EXTI_Init+0xd4>)
 80066d2:	4a2a      	ldr	r2, [pc, #168]	; (800677c <EXTI_Init+0xd4>)
 80066d4:	6851      	ldr	r1, [r2, #4]
 80066d6:	687a      	ldr	r2, [r7, #4]
 80066d8:	6812      	ldr	r2, [r2, #0]
 80066da:	43d2      	mvns	r2, r2
 80066dc:	400a      	ands	r2, r1
 80066de:	605a      	str	r2, [r3, #4]

    tmp += EXTI_InitStruct->EXTI_Mode;
 80066e0:	687b      	ldr	r3, [r7, #4]
 80066e2:	791b      	ldrb	r3, [r3, #4]
 80066e4:	68fa      	ldr	r2, [r7, #12]
 80066e6:	18d3      	adds	r3, r2, r3
 80066e8:	60fb      	str	r3, [r7, #12]

    *(__IO uint32_t *) tmp |= EXTI_InitStruct->EXTI_Line;
 80066ea:	68fb      	ldr	r3, [r7, #12]
 80066ec:	68fa      	ldr	r2, [r7, #12]
 80066ee:	6811      	ldr	r1, [r2, #0]
 80066f0:	687a      	ldr	r2, [r7, #4]
 80066f2:	6812      	ldr	r2, [r2, #0]
 80066f4:	430a      	orrs	r2, r1
 80066f6:	601a      	str	r2, [r3, #0]

    /* Clear Rising Falling edge configuration */
    EXTI->RTSR &= ~EXTI_InitStruct->EXTI_Line;
 80066f8:	4b20      	ldr	r3, [pc, #128]	; (800677c <EXTI_Init+0xd4>)
 80066fa:	4a20      	ldr	r2, [pc, #128]	; (800677c <EXTI_Init+0xd4>)
 80066fc:	6891      	ldr	r1, [r2, #8]
 80066fe:	687a      	ldr	r2, [r7, #4]
 8006700:	6812      	ldr	r2, [r2, #0]
 8006702:	43d2      	mvns	r2, r2
 8006704:	400a      	ands	r2, r1
 8006706:	609a      	str	r2, [r3, #8]
    EXTI->FTSR &= ~EXTI_InitStruct->EXTI_Line;
 8006708:	4b1c      	ldr	r3, [pc, #112]	; (800677c <EXTI_Init+0xd4>)
 800670a:	4a1c      	ldr	r2, [pc, #112]	; (800677c <EXTI_Init+0xd4>)
 800670c:	68d1      	ldr	r1, [r2, #12]
 800670e:	687a      	ldr	r2, [r7, #4]
 8006710:	6812      	ldr	r2, [r2, #0]
 8006712:	43d2      	mvns	r2, r2
 8006714:	400a      	ands	r2, r1
 8006716:	60da      	str	r2, [r3, #12]

    /* Select the trigger for the selected interrupts */
    if (EXTI_InitStruct->EXTI_Trigger == EXTI_Trigger_Rising_Falling)
 8006718:	687b      	ldr	r3, [r7, #4]
 800671a:	795b      	ldrb	r3, [r3, #5]
 800671c:	2b10      	cmp	r3, #16
 800671e:	d10e      	bne.n	800673e <EXTI_Init+0x96>
    {
      /* Rising Falling edge */
      EXTI->RTSR |= EXTI_InitStruct->EXTI_Line;
 8006720:	4b16      	ldr	r3, [pc, #88]	; (800677c <EXTI_Init+0xd4>)
 8006722:	4a16      	ldr	r2, [pc, #88]	; (800677c <EXTI_Init+0xd4>)
 8006724:	6891      	ldr	r1, [r2, #8]
 8006726:	687a      	ldr	r2, [r7, #4]
 8006728:	6812      	ldr	r2, [r2, #0]
 800672a:	430a      	orrs	r2, r1
 800672c:	609a      	str	r2, [r3, #8]
      EXTI->FTSR |= EXTI_InitStruct->EXTI_Line;
 800672e:	4b13      	ldr	r3, [pc, #76]	; (800677c <EXTI_Init+0xd4>)
 8006730:	4a12      	ldr	r2, [pc, #72]	; (800677c <EXTI_Init+0xd4>)
 8006732:	68d1      	ldr	r1, [r2, #12]
 8006734:	687a      	ldr	r2, [r7, #4]
 8006736:	6812      	ldr	r2, [r2, #0]
 8006738:	430a      	orrs	r2, r1
 800673a:	60da      	str	r2, [r3, #12]
 800673c:	e01b      	b.n	8006776 <EXTI_Init+0xce>
    }
    else
    {
      tmp = (uint32_t)EXTI_BASE;
 800673e:	4b0f      	ldr	r3, [pc, #60]	; (800677c <EXTI_Init+0xd4>)
 8006740:	60fb      	str	r3, [r7, #12]
      tmp += EXTI_InitStruct->EXTI_Trigger;
 8006742:	687b      	ldr	r3, [r7, #4]
 8006744:	795b      	ldrb	r3, [r3, #5]
 8006746:	68fa      	ldr	r2, [r7, #12]
 8006748:	18d3      	adds	r3, r2, r3
 800674a:	60fb      	str	r3, [r7, #12]

      *(__IO uint32_t *) tmp |= EXTI_InitStruct->EXTI_Line;
 800674c:	68fb      	ldr	r3, [r7, #12]
 800674e:	68fa      	ldr	r2, [r7, #12]
 8006750:	6811      	ldr	r1, [r2, #0]
 8006752:	687a      	ldr	r2, [r7, #4]
 8006754:	6812      	ldr	r2, [r2, #0]
 8006756:	430a      	orrs	r2, r1
 8006758:	601a      	str	r2, [r3, #0]
 800675a:	e00c      	b.n	8006776 <EXTI_Init+0xce>
    }
  }
  else
  {
    tmp += EXTI_InitStruct->EXTI_Mode;
 800675c:	687b      	ldr	r3, [r7, #4]
 800675e:	791b      	ldrb	r3, [r3, #4]
 8006760:	68fa      	ldr	r2, [r7, #12]
 8006762:	18d3      	adds	r3, r2, r3
 8006764:	60fb      	str	r3, [r7, #12]

    /* Disable the selected external lines */
    *(__IO uint32_t *) tmp &= ~EXTI_InitStruct->EXTI_Line;
 8006766:	68fb      	ldr	r3, [r7, #12]
 8006768:	68fa      	ldr	r2, [r7, #12]
 800676a:	6811      	ldr	r1, [r2, #0]
 800676c:	687a      	ldr	r2, [r7, #4]
 800676e:	6812      	ldr	r2, [r2, #0]
 8006770:	43d2      	mvns	r2, r2
 8006772:	400a      	ands	r2, r1
 8006774:	601a      	str	r2, [r3, #0]
  }
}
 8006776:	46bd      	mov	sp, r7
 8006778:	b004      	add	sp, #16
 800677a:	bd80      	pop	{r7, pc}
 800677c:	40010400 	.word	0x40010400

08006780 <EXTI_ClearITPendingBit>:
  * @param  EXTI_Line: specifies the EXTI lines to clear.
  *          This parameter can be any combination of EXTI_Linex where x can be (0..27).
  * @retval None
  */
void EXTI_ClearITPendingBit(uint32_t EXTI_Line)
{
 8006780:	b580      	push	{r7, lr}
 8006782:	b082      	sub	sp, #8
 8006784:	af00      	add	r7, sp, #0
 8006786:	6078      	str	r0, [r7, #4]
  /* Check the parameters */
  assert_param(IS_EXTI_LINE(EXTI_Line));

  EXTI->PR = EXTI_Line;
 8006788:	4b02      	ldr	r3, [pc, #8]	; (8006794 <EXTI_ClearITPendingBit+0x14>)
 800678a:	687a      	ldr	r2, [r7, #4]
 800678c:	615a      	str	r2, [r3, #20]
}
 800678e:	46bd      	mov	sp, r7
 8006790:	b002      	add	sp, #8
 8006792:	bd80      	pop	{r7, pc}
 8006794:	40010400 	.word	0x40010400

08006798 <DMA_Init>:
  * @param  DMA_InitStruct: pointer to a DMA_InitTypeDef structure that contains
  *         the configuration information for the specified DMA Channel.
  * @retval None
  */
void DMA_Init(DMA_Channel_TypeDef* DMAy_Channelx, DMA_InitTypeDef* DMA_InitStruct)
{
 8006798:	b580      	push	{r7, lr}
 800679a:	b084      	sub	sp, #16
 800679c:	af00      	add	r7, sp, #0
 800679e:	6078      	str	r0, [r7, #4]
 80067a0:	6039      	str	r1, [r7, #0]
  uint32_t tmpreg = 0;
 80067a2:	2300      	movs	r3, #0
 80067a4:	60fb      	str	r3, [r7, #12]
  assert_param(IS_DMA_PRIORITY(DMA_InitStruct->DMA_Priority));
  assert_param(IS_DMA_M2M_STATE(DMA_InitStruct->DMA_M2M));

/*--------------------------- DMAy Channelx CCR Configuration ----------------*/
  /* Get the DMAy_Channelx CCR value */
  tmpreg = DMAy_Channelx->CCR;
 80067a6:	687b      	ldr	r3, [r7, #4]
 80067a8:	681b      	ldr	r3, [r3, #0]
 80067aa:	60fb      	str	r3, [r7, #12]

  /* Clear MEM2MEM, PL, MSIZE, PSIZE, MINC, PINC, CIRC and DIR bits */
  tmpreg &= CCR_CLEAR_MASK;
 80067ac:	68fa      	ldr	r2, [r7, #12]
 80067ae:	4b17      	ldr	r3, [pc, #92]	; (800680c <DMA_Init+0x74>)
 80067b0:	4013      	ands	r3, r2
 80067b2:	60fb      	str	r3, [r7, #12]
  /* Set MINC bit according to DMA_MemoryInc value */
  /* Set PSIZE bits according to DMA_PeripheralDataSize value */
  /* Set MSIZE bits according to DMA_MemoryDataSize value */
  /* Set PL bits according to DMA_Priority value */
  /* Set the MEM2MEM bit according to DMA_M2M value */
  tmpreg |= DMA_InitStruct->DMA_DIR | DMA_InitStruct->DMA_Mode |
 80067b4:	683b      	ldr	r3, [r7, #0]
 80067b6:	689a      	ldr	r2, [r3, #8]
 80067b8:	683b      	ldr	r3, [r7, #0]
 80067ba:	6a1b      	ldr	r3, [r3, #32]
 80067bc:	431a      	orrs	r2, r3
            DMA_InitStruct->DMA_PeripheralInc | DMA_InitStruct->DMA_MemoryInc |
 80067be:	683b      	ldr	r3, [r7, #0]
 80067c0:	691b      	ldr	r3, [r3, #16]
  /* Set MINC bit according to DMA_MemoryInc value */
  /* Set PSIZE bits according to DMA_PeripheralDataSize value */
  /* Set MSIZE bits according to DMA_MemoryDataSize value */
  /* Set PL bits according to DMA_Priority value */
  /* Set the MEM2MEM bit according to DMA_M2M value */
  tmpreg |= DMA_InitStruct->DMA_DIR | DMA_InitStruct->DMA_Mode |
 80067c2:	431a      	orrs	r2, r3
            DMA_InitStruct->DMA_PeripheralInc | DMA_InitStruct->DMA_MemoryInc |
 80067c4:	683b      	ldr	r3, [r7, #0]
 80067c6:	695b      	ldr	r3, [r3, #20]
 80067c8:	431a      	orrs	r2, r3
            DMA_InitStruct->DMA_PeripheralDataSize | DMA_InitStruct->DMA_MemoryDataSize |
 80067ca:	683b      	ldr	r3, [r7, #0]
 80067cc:	699b      	ldr	r3, [r3, #24]
  /* Set PSIZE bits according to DMA_PeripheralDataSize value */
  /* Set MSIZE bits according to DMA_MemoryDataSize value */
  /* Set PL bits according to DMA_Priority value */
  /* Set the MEM2MEM bit according to DMA_M2M value */
  tmpreg |= DMA_InitStruct->DMA_DIR | DMA_InitStruct->DMA_Mode |
            DMA_InitStruct->DMA_PeripheralInc | DMA_InitStruct->DMA_MemoryInc |
 80067ce:	431a      	orrs	r2, r3
            DMA_InitStruct->DMA_PeripheralDataSize | DMA_InitStruct->DMA_MemoryDataSize |
 80067d0:	683b      	ldr	r3, [r7, #0]
 80067d2:	69db      	ldr	r3, [r3, #28]
 80067d4:	431a      	orrs	r2, r3
            DMA_InitStruct->DMA_Priority | DMA_InitStruct->DMA_M2M;
 80067d6:	683b      	ldr	r3, [r7, #0]
 80067d8:	6a5b      	ldr	r3, [r3, #36]	; 0x24
  /* Set MSIZE bits according to DMA_MemoryDataSize value */
  /* Set PL bits according to DMA_Priority value */
  /* Set the MEM2MEM bit according to DMA_M2M value */
  tmpreg |= DMA_InitStruct->DMA_DIR | DMA_InitStruct->DMA_Mode |
            DMA_InitStruct->DMA_PeripheralInc | DMA_InitStruct->DMA_MemoryInc |
            DMA_InitStruct->DMA_PeripheralDataSize | DMA_InitStruct->DMA_MemoryDataSize |
 80067da:	431a      	orrs	r2, r3
            DMA_InitStruct->DMA_Priority | DMA_InitStruct->DMA_M2M;
 80067dc:	683b      	ldr	r3, [r7, #0]
 80067de:	6a9b      	ldr	r3, [r3, #40]	; 0x28
 80067e0:	4313      	orrs	r3, r2
  /* Set MINC bit according to DMA_MemoryInc value */
  /* Set PSIZE bits according to DMA_PeripheralDataSize value */
  /* Set MSIZE bits according to DMA_MemoryDataSize value */
  /* Set PL bits according to DMA_Priority value */
  /* Set the MEM2MEM bit according to DMA_M2M value */
  tmpreg |= DMA_InitStruct->DMA_DIR | DMA_InitStruct->DMA_Mode |
 80067e2:	68fa      	ldr	r2, [r7, #12]
 80067e4:	4313      	orrs	r3, r2
 80067e6:	60fb      	str	r3, [r7, #12]
            DMA_InitStruct->DMA_PeripheralInc | DMA_InitStruct->DMA_MemoryInc |
            DMA_InitStruct->DMA_PeripheralDataSize | DMA_InitStruct->DMA_MemoryDataSize |
            DMA_InitStruct->DMA_Priority | DMA_InitStruct->DMA_M2M;

  /* Write to DMAy Channelx CCR */
  DMAy_Channelx->CCR = tmpreg;
 80067e8:	687b      	ldr	r3, [r7, #4]
 80067ea:	68fa      	ldr	r2, [r7, #12]
 80067ec:	601a      	str	r2, [r3, #0]

/*--------------------------- DMAy Channelx CNDTR Configuration --------------*/
  /* Write to DMAy Channelx CNDTR */
  DMAy_Channelx->CNDTR = DMA_InitStruct->DMA_BufferSize;
 80067ee:	683b      	ldr	r3, [r7, #0]
 80067f0:	68da      	ldr	r2, [r3, #12]
 80067f2:	687b      	ldr	r3, [r7, #4]
 80067f4:	605a      	str	r2, [r3, #4]

/*--------------------------- DMAy Channelx CPAR Configuration ---------------*/
  /* Write to DMAy Channelx CPAR */
  DMAy_Channelx->CPAR = DMA_InitStruct->DMA_PeripheralBaseAddr;
 80067f6:	683b      	ldr	r3, [r7, #0]
 80067f8:	681a      	ldr	r2, [r3, #0]
 80067fa:	687b      	ldr	r3, [r7, #4]
 80067fc:	609a      	str	r2, [r3, #8]

/*--------------------------- DMAy Channelx CMAR Configuration ---------------*/
  /* Write to DMAy Channelx CMAR */
  DMAy_Channelx->CMAR = DMA_InitStruct->DMA_MemoryBaseAddr;
 80067fe:	683b      	ldr	r3, [r7, #0]
 8006800:	685a      	ldr	r2, [r3, #4]
 8006802:	687b      	ldr	r3, [r7, #4]
 8006804:	60da      	str	r2, [r3, #12]
}
 8006806:	46bd      	mov	sp, r7
 8006808:	b004      	add	sp, #16
 800680a:	bd80      	pop	{r7, pc}
 800680c:	ffff800f 	.word	0xffff800f

08006810 <DMA_Cmd>:
  * @param  NewState: new state of the DMAy Channelx. 
  *         This parameter can be: ENABLE or DISABLE.
  * @retval None
  */
void DMA_Cmd(DMA_Channel_TypeDef* DMAy_Channelx, FunctionalState NewState)
{
 8006810:	b580      	push	{r7, lr}
 8006812:	b082      	sub	sp, #8
 8006814:	af00      	add	r7, sp, #0
 8006816:	6078      	str	r0, [r7, #4]
 8006818:	1c0a      	adds	r2, r1, #0
 800681a:	1cfb      	adds	r3, r7, #3
 800681c:	701a      	strb	r2, [r3, #0]
  /* Check the parameters */
  assert_param(IS_DMA_ALL_PERIPH(DMAy_Channelx));
  assert_param(IS_FUNCTIONAL_STATE(NewState));

  if (NewState != DISABLE)
 800681e:	1cfb      	adds	r3, r7, #3
 8006820:	781b      	ldrb	r3, [r3, #0]
 8006822:	2b00      	cmp	r3, #0
 8006824:	d006      	beq.n	8006834 <DMA_Cmd+0x24>
  {
    /* Enable the selected DMAy Channelx */
    DMAy_Channelx->CCR |= DMA_CCR_EN;
 8006826:	687b      	ldr	r3, [r7, #4]
 8006828:	681b      	ldr	r3, [r3, #0]
 800682a:	2201      	movs	r2, #1
 800682c:	431a      	orrs	r2, r3
 800682e:	687b      	ldr	r3, [r7, #4]
 8006830:	601a      	str	r2, [r3, #0]
 8006832:	e005      	b.n	8006840 <DMA_Cmd+0x30>
  }
  else
  {
    /* Disable the selected DMAy Channelx */
    DMAy_Channelx->CCR &= (uint16_t)(~DMA_CCR_EN);
 8006834:	687b      	ldr	r3, [r7, #4]
 8006836:	681a      	ldr	r2, [r3, #0]
 8006838:	4b03      	ldr	r3, [pc, #12]	; (8006848 <DMA_Cmd+0x38>)
 800683a:	401a      	ands	r2, r3
 800683c:	687b      	ldr	r3, [r7, #4]
 800683e:	601a      	str	r2, [r3, #0]
  }
}
 8006840:	46bd      	mov	sp, r7
 8006842:	b002      	add	sp, #8
 8006844:	bd80      	pop	{r7, pc}
 8006846:	46c0      	nop			; (mov r8, r8)
 8006848:	0000fffe 	.word	0x0000fffe

0800684c <DMA_SetCurrDataCounter>:
  *         transfer.
  * @note   This function can only be used when the DMAy_Channelx is disabled.
  * @retval None.
  */
void DMA_SetCurrDataCounter(DMA_Channel_TypeDef* DMAy_Channelx, uint16_t DataNumber)
{
 800684c:	b580      	push	{r7, lr}
 800684e:	b082      	sub	sp, #8
 8006850:	af00      	add	r7, sp, #0
 8006852:	6078      	str	r0, [r7, #4]
 8006854:	1c0a      	adds	r2, r1, #0
 8006856:	1cbb      	adds	r3, r7, #2
 8006858:	801a      	strh	r2, [r3, #0]
  /* Check the parameters */
  assert_param(IS_DMA_ALL_PERIPH(DMAy_Channelx));

/*--------------------------- DMAy Channelx CNDTR Configuration --------------*/
  /* Write to DMAy Channelx CNDTR */
  DMAy_Channelx->CNDTR = DataNumber;
 800685a:	1cbb      	adds	r3, r7, #2
 800685c:	881a      	ldrh	r2, [r3, #0]
 800685e:	687b      	ldr	r3, [r7, #4]
 8006860:	605a      	str	r2, [r3, #4]
}
 8006862:	46bd      	mov	sp, r7
 8006864:	b002      	add	sp, #8
 8006866:	bd80      	pop	{r7, pc}

08006868 <CRS_FrequencyErrorCounterCmd>:
  * @param  NewState: new state of the frequency error counter.
  *          This parameter can be: ENABLE or DISABLE.
  * @retval None
  */
void CRS_FrequencyErrorCounterCmd(FunctionalState NewState)
{
 8006868:	b580      	push	{r7, lr}
 800686a:	b082      	sub	sp, #8
 800686c:	af00      	add	r7, sp, #0
 800686e:	1c02      	adds	r2, r0, #0
 8006870:	1dfb      	adds	r3, r7, #7
 8006872:	701a      	strb	r2, [r3, #0]
  assert_param(IS_FUNCTIONAL_STATE(NewState));

  if (NewState != DISABLE)
 8006874:	1dfb      	adds	r3, r7, #7
 8006876:	781b      	ldrb	r3, [r3, #0]
 8006878:	2b00      	cmp	r3, #0
 800687a:	d006      	beq.n	800688a <CRS_FrequencyErrorCounterCmd+0x22>
  {
     CRS->CR |= CRS_CR_CEN;
 800687c:	4b07      	ldr	r3, [pc, #28]	; (800689c <CRS_FrequencyErrorCounterCmd+0x34>)
 800687e:	4a07      	ldr	r2, [pc, #28]	; (800689c <CRS_FrequencyErrorCounterCmd+0x34>)
 8006880:	6812      	ldr	r2, [r2, #0]
 8006882:	2120      	movs	r1, #32
 8006884:	430a      	orrs	r2, r1
 8006886:	601a      	str	r2, [r3, #0]
 8006888:	e005      	b.n	8006896 <CRS_FrequencyErrorCounterCmd+0x2e>
  }
  else
  {
    CRS->CR &= ~CRS_CR_CEN;
 800688a:	4b04      	ldr	r3, [pc, #16]	; (800689c <CRS_FrequencyErrorCounterCmd+0x34>)
 800688c:	4a03      	ldr	r2, [pc, #12]	; (800689c <CRS_FrequencyErrorCounterCmd+0x34>)
 800688e:	6812      	ldr	r2, [r2, #0]
 8006890:	2120      	movs	r1, #32
 8006892:	438a      	bics	r2, r1
 8006894:	601a      	str	r2, [r3, #0]
  }
}
 8006896:	46bd      	mov	sp, r7
 8006898:	b002      	add	sp, #8
 800689a:	bd80      	pop	{r7, pc}
 800689c:	40006c00 	.word	0x40006c00

080068a0 <CRS_AutomaticCalibrationCmd>:
  * @param  NewState: new state of the automatic trimming.
  *          This parameter can be: ENABLE or DISABLE.
  * @retval None
  */
void CRS_AutomaticCalibrationCmd(FunctionalState NewState)
{
 80068a0:	b580      	push	{r7, lr}
 80068a2:	b082      	sub	sp, #8
 80068a4:	af00      	add	r7, sp, #0
 80068a6:	1c02      	adds	r2, r0, #0
 80068a8:	1dfb      	adds	r3, r7, #7
 80068aa:	701a      	strb	r2, [r3, #0]
  assert_param(IS_FUNCTIONAL_STATE(NewState));

  if (NewState != DISABLE)
 80068ac:	1dfb      	adds	r3, r7, #7
 80068ae:	781b      	ldrb	r3, [r3, #0]
 80068b0:	2b00      	cmp	r3, #0
 80068b2:	d006      	beq.n	80068c2 <CRS_AutomaticCalibrationCmd+0x22>
  {
    CRS->CR |= CRS_CR_AUTOTRIMEN;
 80068b4:	4b07      	ldr	r3, [pc, #28]	; (80068d4 <CRS_AutomaticCalibrationCmd+0x34>)
 80068b6:	4a07      	ldr	r2, [pc, #28]	; (80068d4 <CRS_AutomaticCalibrationCmd+0x34>)
 80068b8:	6812      	ldr	r2, [r2, #0]
 80068ba:	2140      	movs	r1, #64	; 0x40
 80068bc:	430a      	orrs	r2, r1
 80068be:	601a      	str	r2, [r3, #0]
 80068c0:	e005      	b.n	80068ce <CRS_AutomaticCalibrationCmd+0x2e>
  }
else
  {
    CRS->CR &= ~CRS_CR_AUTOTRIMEN;
 80068c2:	4b04      	ldr	r3, [pc, #16]	; (80068d4 <CRS_AutomaticCalibrationCmd+0x34>)
 80068c4:	4a03      	ldr	r2, [pc, #12]	; (80068d4 <CRS_AutomaticCalibrationCmd+0x34>)
 80068c6:	6812      	ldr	r2, [r2, #0]
 80068c8:	2140      	movs	r1, #64	; 0x40
 80068ca:	438a      	bics	r2, r1
 80068cc:	601a      	str	r2, [r3, #0]
  }
}
 80068ce:	46bd      	mov	sp, r7
 80068d0:	b002      	add	sp, #8
 80068d2:	bd80      	pop	{r7, pc}
 80068d4:	40006c00 	.word	0x40006c00

080068d8 <CRS_SynchronizationSourceConfig>:
  *            @arg CRS_SYNCSource_LSE:   
  *            @arg CRS_SYNCSource_USB:   
  * @retval None
  */
void CRS_SynchronizationSourceConfig(uint32_t CRS_Source)
{
 80068d8:	b580      	push	{r7, lr}
 80068da:	b082      	sub	sp, #8
 80068dc:	af00      	add	r7, sp, #0
 80068de:	6078      	str	r0, [r7, #4]
  /* Check the parameters */
  assert_param(IS_CRS_SYNC_SOURCE(CRS_Source));
  
  /* Clear SYNCSRC[1:0] bits */
  CRS->CFGR &= ~CRS_CFGR_SYNCSRC;
 80068e0:	4b07      	ldr	r3, [pc, #28]	; (8006900 <CRS_SynchronizationSourceConfig+0x28>)
 80068e2:	4a07      	ldr	r2, [pc, #28]	; (8006900 <CRS_SynchronizationSourceConfig+0x28>)
 80068e4:	6851      	ldr	r1, [r2, #4]
 80068e6:	4a07      	ldr	r2, [pc, #28]	; (8006904 <CRS_SynchronizationSourceConfig+0x2c>)
 80068e8:	400a      	ands	r2, r1
 80068ea:	605a      	str	r2, [r3, #4]
  
  /* Set the SYNCSRC[1:0] bits according to CRS_Source value */
  CRS->CFGR |= CRS_Source;
 80068ec:	4b04      	ldr	r3, [pc, #16]	; (8006900 <CRS_SynchronizationSourceConfig+0x28>)
 80068ee:	4a04      	ldr	r2, [pc, #16]	; (8006900 <CRS_SynchronizationSourceConfig+0x28>)
 80068f0:	6851      	ldr	r1, [r2, #4]
 80068f2:	687a      	ldr	r2, [r7, #4]
 80068f4:	430a      	orrs	r2, r1
 80068f6:	605a      	str	r2, [r3, #4]
}
 80068f8:	46bd      	mov	sp, r7
 80068fa:	b002      	add	sp, #8
 80068fc:	bd80      	pop	{r7, pc}
 80068fe:	46c0      	nop			; (mov r8, r8)
 8006900:	40006c00 	.word	0x40006c00
 8006904:	cfffffff 	.word	0xcfffffff

08006908 <__libc_init_array>:
 8006908:	b570      	push	{r4, r5, r6, lr}
 800690a:	4b0e      	ldr	r3, [pc, #56]	; (8006944 <__libc_init_array+0x3c>)
 800690c:	4d0e      	ldr	r5, [pc, #56]	; (8006948 <__libc_init_array+0x40>)
 800690e:	2400      	movs	r4, #0
 8006910:	1aed      	subs	r5, r5, r3
 8006912:	10ad      	asrs	r5, r5, #2
 8006914:	1c1e      	adds	r6, r3, #0
 8006916:	42ac      	cmp	r4, r5
 8006918:	d004      	beq.n	8006924 <__libc_init_array+0x1c>
 800691a:	00a3      	lsls	r3, r4, #2
 800691c:	58f3      	ldr	r3, [r6, r3]
 800691e:	4798      	blx	r3
 8006920:	3401      	adds	r4, #1
 8006922:	e7f8      	b.n	8006916 <__libc_init_array+0xe>
 8006924:	f000 fc40 	bl	80071a8 <_init>
 8006928:	4b08      	ldr	r3, [pc, #32]	; (800694c <__libc_init_array+0x44>)
 800692a:	4d09      	ldr	r5, [pc, #36]	; (8006950 <__libc_init_array+0x48>)
 800692c:	2400      	movs	r4, #0
 800692e:	1aed      	subs	r5, r5, r3
 8006930:	10ad      	asrs	r5, r5, #2
 8006932:	1c1e      	adds	r6, r3, #0
 8006934:	42ac      	cmp	r4, r5
 8006936:	d004      	beq.n	8006942 <__libc_init_array+0x3a>
 8006938:	00a3      	lsls	r3, r4, #2
 800693a:	58f3      	ldr	r3, [r6, r3]
 800693c:	4798      	blx	r3
 800693e:	3401      	adds	r4, #1
 8006940:	e7f8      	b.n	8006934 <__libc_init_array+0x2c>
 8006942:	bd70      	pop	{r4, r5, r6, pc}
 8006944:	080075ac 	.word	0x080075ac
 8006948:	080075ac 	.word	0x080075ac
 800694c:	080075ac 	.word	0x080075ac
 8006950:	080075b0 	.word	0x080075b0

08006954 <memcpy>:
 8006954:	b510      	push	{r4, lr}
 8006956:	2300      	movs	r3, #0
 8006958:	4293      	cmp	r3, r2
 800695a:	d003      	beq.n	8006964 <memcpy+0x10>
 800695c:	5ccc      	ldrb	r4, [r1, r3]
 800695e:	54c4      	strb	r4, [r0, r3]
 8006960:	3301      	adds	r3, #1
 8006962:	e7f9      	b.n	8006958 <memcpy+0x4>
 8006964:	bd10      	pop	{r4, pc}
	...

08006968 <siprintf>:
 8006968:	b40e      	push	{r1, r2, r3}
 800696a:	b500      	push	{lr}
 800696c:	b09c      	sub	sp, #112	; 0x70
 800696e:	ab1d      	add	r3, sp, #116	; 0x74
 8006970:	cb04      	ldmia	r3!, {r2}
 8006972:	2282      	movs	r2, #130	; 0x82
 8006974:	a902      	add	r1, sp, #8
 8006976:	0092      	lsls	r2, r2, #2
 8006978:	818a      	strh	r2, [r1, #12]
 800697a:	4a0a      	ldr	r2, [pc, #40]	; (80069a4 <siprintf+0x3c>)
 800697c:	9002      	str	r0, [sp, #8]
 800697e:	608a      	str	r2, [r1, #8]
 8006980:	614a      	str	r2, [r1, #20]
 8006982:	2201      	movs	r2, #1
 8006984:	4252      	negs	r2, r2
 8006986:	81ca      	strh	r2, [r1, #14]
 8006988:	4a07      	ldr	r2, [pc, #28]	; (80069a8 <siprintf+0x40>)
 800698a:	6108      	str	r0, [r1, #16]
 800698c:	6810      	ldr	r0, [r2, #0]
 800698e:	9a1d      	ldr	r2, [sp, #116]	; 0x74
 8006990:	9301      	str	r3, [sp, #4]
 8006992:	f000 f86b 	bl	8006a6c <_svfiprintf_r>
 8006996:	9a02      	ldr	r2, [sp, #8]
 8006998:	2300      	movs	r3, #0
 800699a:	7013      	strb	r3, [r2, #0]
 800699c:	b01c      	add	sp, #112	; 0x70
 800699e:	bc08      	pop	{r3}
 80069a0:	b003      	add	sp, #12
 80069a2:	4718      	bx	r3
 80069a4:	7fffffff 	.word	0x7fffffff
 80069a8:	2000011c 	.word	0x2000011c

080069ac <__ssputs_r>:
 80069ac:	b5f0      	push	{r4, r5, r6, r7, lr}
 80069ae:	688d      	ldr	r5, [r1, #8]
 80069b0:	b085      	sub	sp, #20
 80069b2:	1c07      	adds	r7, r0, #0
 80069b4:	1c0c      	adds	r4, r1, #0
 80069b6:	9203      	str	r2, [sp, #12]
 80069b8:	9301      	str	r3, [sp, #4]
 80069ba:	42ab      	cmp	r3, r5
 80069bc:	d345      	bcc.n	8006a4a <__ssputs_r+0x9e>
 80069be:	2290      	movs	r2, #144	; 0x90
 80069c0:	898b      	ldrh	r3, [r1, #12]
 80069c2:	00d2      	lsls	r2, r2, #3
 80069c4:	4213      	tst	r3, r2
 80069c6:	d03d      	beq.n	8006a44 <__ssputs_r+0x98>
 80069c8:	6962      	ldr	r2, [r4, #20]
 80069ca:	2603      	movs	r6, #3
 80069cc:	4356      	muls	r6, r2
 80069ce:	6909      	ldr	r1, [r1, #16]
 80069d0:	6820      	ldr	r0, [r4, #0]
 80069d2:	0ff2      	lsrs	r2, r6, #31
 80069d4:	1a40      	subs	r0, r0, r1
 80069d6:	1996      	adds	r6, r2, r6
 80069d8:	9002      	str	r0, [sp, #8]
 80069da:	1c02      	adds	r2, r0, #0
 80069dc:	9801      	ldr	r0, [sp, #4]
 80069de:	3201      	adds	r2, #1
 80069e0:	1812      	adds	r2, r2, r0
 80069e2:	1076      	asrs	r6, r6, #1
 80069e4:	4296      	cmp	r6, r2
 80069e6:	d200      	bcs.n	80069ea <__ssputs_r+0x3e>
 80069e8:	1c16      	adds	r6, r2, #0
 80069ea:	1c38      	adds	r0, r7, #0
 80069ec:	055a      	lsls	r2, r3, #21
 80069ee:	d50f      	bpl.n	8006a10 <__ssputs_r+0x64>
 80069f0:	1c31      	adds	r1, r6, #0
 80069f2:	f000 fb21 	bl	8007038 <_malloc_r>
 80069f6:	1e05      	subs	r5, r0, #0
 80069f8:	d013      	beq.n	8006a22 <__ssputs_r+0x76>
 80069fa:	9a02      	ldr	r2, [sp, #8]
 80069fc:	6921      	ldr	r1, [r4, #16]
 80069fe:	f7ff ffa9 	bl	8006954 <memcpy>
 8006a02:	89a2      	ldrh	r2, [r4, #12]
 8006a04:	4b18      	ldr	r3, [pc, #96]	; (8006a68 <__ssputs_r+0xbc>)
 8006a06:	4013      	ands	r3, r2
 8006a08:	2280      	movs	r2, #128	; 0x80
 8006a0a:	4313      	orrs	r3, r2
 8006a0c:	81a3      	strh	r3, [r4, #12]
 8006a0e:	e011      	b.n	8006a34 <__ssputs_r+0x88>
 8006a10:	1c32      	adds	r2, r6, #0
 8006a12:	f000 fb65 	bl	80070e0 <_realloc_r>
 8006a16:	1e05      	subs	r5, r0, #0
 8006a18:	d10c      	bne.n	8006a34 <__ssputs_r+0x88>
 8006a1a:	1c38      	adds	r0, r7, #0
 8006a1c:	6921      	ldr	r1, [r4, #16]
 8006a1e:	f000 fac3 	bl	8006fa8 <_free_r>
 8006a22:	230c      	movs	r3, #12
 8006a24:	603b      	str	r3, [r7, #0]
 8006a26:	89a3      	ldrh	r3, [r4, #12]
 8006a28:	2240      	movs	r2, #64	; 0x40
 8006a2a:	4313      	orrs	r3, r2
 8006a2c:	2001      	movs	r0, #1
 8006a2e:	81a3      	strh	r3, [r4, #12]
 8006a30:	4240      	negs	r0, r0
 8006a32:	e017      	b.n	8006a64 <__ssputs_r+0xb8>
 8006a34:	9b02      	ldr	r3, [sp, #8]
 8006a36:	6125      	str	r5, [r4, #16]
 8006a38:	18ed      	adds	r5, r5, r3
 8006a3a:	6025      	str	r5, [r4, #0]
 8006a3c:	6166      	str	r6, [r4, #20]
 8006a3e:	9d01      	ldr	r5, [sp, #4]
 8006a40:	1af6      	subs	r6, r6, r3
 8006a42:	60a6      	str	r6, [r4, #8]
 8006a44:	9801      	ldr	r0, [sp, #4]
 8006a46:	42a8      	cmp	r0, r5
 8006a48:	d200      	bcs.n	8006a4c <__ssputs_r+0xa0>
 8006a4a:	9d01      	ldr	r5, [sp, #4]
 8006a4c:	1c2a      	adds	r2, r5, #0
 8006a4e:	6820      	ldr	r0, [r4, #0]
 8006a50:	9903      	ldr	r1, [sp, #12]
 8006a52:	f000 fa90 	bl	8006f76 <memmove>
 8006a56:	68a2      	ldr	r2, [r4, #8]
 8006a58:	2000      	movs	r0, #0
 8006a5a:	1b53      	subs	r3, r2, r5
 8006a5c:	60a3      	str	r3, [r4, #8]
 8006a5e:	6823      	ldr	r3, [r4, #0]
 8006a60:	195d      	adds	r5, r3, r5
 8006a62:	6025      	str	r5, [r4, #0]
 8006a64:	b005      	add	sp, #20
 8006a66:	bdf0      	pop	{r4, r5, r6, r7, pc}
 8006a68:	fffffb7f 	.word	0xfffffb7f

08006a6c <_svfiprintf_r>:
 8006a6c:	b5f0      	push	{r4, r5, r6, r7, lr}
 8006a6e:	b09f      	sub	sp, #124	; 0x7c
 8006a70:	9003      	str	r0, [sp, #12]
 8006a72:	9305      	str	r3, [sp, #20]
 8006a74:	898b      	ldrh	r3, [r1, #12]
 8006a76:	1c0e      	adds	r6, r1, #0
 8006a78:	1c17      	adds	r7, r2, #0
 8006a7a:	0619      	lsls	r1, r3, #24
 8006a7c:	d50f      	bpl.n	8006a9e <_svfiprintf_r+0x32>
 8006a7e:	6932      	ldr	r2, [r6, #16]
 8006a80:	2a00      	cmp	r2, #0
 8006a82:	d10c      	bne.n	8006a9e <_svfiprintf_r+0x32>
 8006a84:	2140      	movs	r1, #64	; 0x40
 8006a86:	f000 fad7 	bl	8007038 <_malloc_r>
 8006a8a:	6030      	str	r0, [r6, #0]
 8006a8c:	6130      	str	r0, [r6, #16]
 8006a8e:	2800      	cmp	r0, #0
 8006a90:	d103      	bne.n	8006a9a <_svfiprintf_r+0x2e>
 8006a92:	9903      	ldr	r1, [sp, #12]
 8006a94:	230c      	movs	r3, #12
 8006a96:	600b      	str	r3, [r1, #0]
 8006a98:	e0c9      	b.n	8006c2e <_svfiprintf_r+0x1c2>
 8006a9a:	2340      	movs	r3, #64	; 0x40
 8006a9c:	6173      	str	r3, [r6, #20]
 8006a9e:	ad06      	add	r5, sp, #24
 8006aa0:	2300      	movs	r3, #0
 8006aa2:	616b      	str	r3, [r5, #20]
 8006aa4:	2320      	movs	r3, #32
 8006aa6:	766b      	strb	r3, [r5, #25]
 8006aa8:	2330      	movs	r3, #48	; 0x30
 8006aaa:	76ab      	strb	r3, [r5, #26]
 8006aac:	1c3c      	adds	r4, r7, #0
 8006aae:	7823      	ldrb	r3, [r4, #0]
 8006ab0:	2b00      	cmp	r3, #0
 8006ab2:	d103      	bne.n	8006abc <_svfiprintf_r+0x50>
 8006ab4:	1be2      	subs	r2, r4, r7
 8006ab6:	9202      	str	r2, [sp, #8]
 8006ab8:	d011      	beq.n	8006ade <_svfiprintf_r+0x72>
 8006aba:	e003      	b.n	8006ac4 <_svfiprintf_r+0x58>
 8006abc:	2b25      	cmp	r3, #37	; 0x25
 8006abe:	d0f9      	beq.n	8006ab4 <_svfiprintf_r+0x48>
 8006ac0:	3401      	adds	r4, #1
 8006ac2:	e7f4      	b.n	8006aae <_svfiprintf_r+0x42>
 8006ac4:	9803      	ldr	r0, [sp, #12]
 8006ac6:	1c31      	adds	r1, r6, #0
 8006ac8:	1c3a      	adds	r2, r7, #0
 8006aca:	9b02      	ldr	r3, [sp, #8]
 8006acc:	f7ff ff6e 	bl	80069ac <__ssputs_r>
 8006ad0:	3001      	adds	r0, #1
 8006ad2:	d100      	bne.n	8006ad6 <_svfiprintf_r+0x6a>
 8006ad4:	e0a6      	b.n	8006c24 <_svfiprintf_r+0x1b8>
 8006ad6:	6969      	ldr	r1, [r5, #20]
 8006ad8:	9a02      	ldr	r2, [sp, #8]
 8006ada:	188b      	adds	r3, r1, r2
 8006adc:	616b      	str	r3, [r5, #20]
 8006ade:	7823      	ldrb	r3, [r4, #0]
 8006ae0:	2b00      	cmp	r3, #0
 8006ae2:	d100      	bne.n	8006ae6 <_svfiprintf_r+0x7a>
 8006ae4:	e09e      	b.n	8006c24 <_svfiprintf_r+0x1b8>
 8006ae6:	2201      	movs	r2, #1
 8006ae8:	4252      	negs	r2, r2
 8006aea:	606a      	str	r2, [r5, #4]
 8006aec:	466a      	mov	r2, sp
 8006aee:	2300      	movs	r3, #0
 8006af0:	325b      	adds	r2, #91	; 0x5b
 8006af2:	3401      	adds	r4, #1
 8006af4:	602b      	str	r3, [r5, #0]
 8006af6:	60eb      	str	r3, [r5, #12]
 8006af8:	60ab      	str	r3, [r5, #8]
 8006afa:	7013      	strb	r3, [r2, #0]
 8006afc:	65ab      	str	r3, [r5, #88]	; 0x58
 8006afe:	4f4e      	ldr	r7, [pc, #312]	; (8006c38 <_svfiprintf_r+0x1cc>)
 8006b00:	7821      	ldrb	r1, [r4, #0]
 8006b02:	1c38      	adds	r0, r7, #0
 8006b04:	2205      	movs	r2, #5
 8006b06:	f000 fa2b 	bl	8006f60 <memchr>
 8006b0a:	2800      	cmp	r0, #0
 8006b0c:	d007      	beq.n	8006b1e <_svfiprintf_r+0xb2>
 8006b0e:	1bc7      	subs	r7, r0, r7
 8006b10:	682b      	ldr	r3, [r5, #0]
 8006b12:	2001      	movs	r0, #1
 8006b14:	40b8      	lsls	r0, r7
 8006b16:	4318      	orrs	r0, r3
 8006b18:	6028      	str	r0, [r5, #0]
 8006b1a:	3401      	adds	r4, #1
 8006b1c:	e7ef      	b.n	8006afe <_svfiprintf_r+0x92>
 8006b1e:	682b      	ldr	r3, [r5, #0]
 8006b20:	06d9      	lsls	r1, r3, #27
 8006b22:	d503      	bpl.n	8006b2c <_svfiprintf_r+0xc0>
 8006b24:	466a      	mov	r2, sp
 8006b26:	2120      	movs	r1, #32
 8006b28:	325b      	adds	r2, #91	; 0x5b
 8006b2a:	7011      	strb	r1, [r2, #0]
 8006b2c:	071a      	lsls	r2, r3, #28
 8006b2e:	d503      	bpl.n	8006b38 <_svfiprintf_r+0xcc>
 8006b30:	466a      	mov	r2, sp
 8006b32:	212b      	movs	r1, #43	; 0x2b
 8006b34:	325b      	adds	r2, #91	; 0x5b
 8006b36:	7011      	strb	r1, [r2, #0]
 8006b38:	7822      	ldrb	r2, [r4, #0]
 8006b3a:	2a2a      	cmp	r2, #42	; 0x2a
 8006b3c:	d001      	beq.n	8006b42 <_svfiprintf_r+0xd6>
 8006b3e:	9b09      	ldr	r3, [sp, #36]	; 0x24
 8006b40:	e00e      	b.n	8006b60 <_svfiprintf_r+0xf4>
 8006b42:	9a05      	ldr	r2, [sp, #20]
 8006b44:	1d11      	adds	r1, r2, #4
 8006b46:	6812      	ldr	r2, [r2, #0]
 8006b48:	9105      	str	r1, [sp, #20]
 8006b4a:	2a00      	cmp	r2, #0
 8006b4c:	db01      	blt.n	8006b52 <_svfiprintf_r+0xe6>
 8006b4e:	9209      	str	r2, [sp, #36]	; 0x24
 8006b50:	e004      	b.n	8006b5c <_svfiprintf_r+0xf0>
 8006b52:	4252      	negs	r2, r2
 8006b54:	60ea      	str	r2, [r5, #12]
 8006b56:	2202      	movs	r2, #2
 8006b58:	4313      	orrs	r3, r2
 8006b5a:	602b      	str	r3, [r5, #0]
 8006b5c:	3401      	adds	r4, #1
 8006b5e:	e009      	b.n	8006b74 <_svfiprintf_r+0x108>
 8006b60:	7822      	ldrb	r2, [r4, #0]
 8006b62:	3a30      	subs	r2, #48	; 0x30
 8006b64:	2a09      	cmp	r2, #9
 8006b66:	d804      	bhi.n	8006b72 <_svfiprintf_r+0x106>
 8006b68:	210a      	movs	r1, #10
 8006b6a:	434b      	muls	r3, r1
 8006b6c:	3401      	adds	r4, #1
 8006b6e:	189b      	adds	r3, r3, r2
 8006b70:	e7f6      	b.n	8006b60 <_svfiprintf_r+0xf4>
 8006b72:	9309      	str	r3, [sp, #36]	; 0x24
 8006b74:	7823      	ldrb	r3, [r4, #0]
 8006b76:	2b2e      	cmp	r3, #46	; 0x2e
 8006b78:	d118      	bne.n	8006bac <_svfiprintf_r+0x140>
 8006b7a:	7863      	ldrb	r3, [r4, #1]
 8006b7c:	2b2a      	cmp	r3, #42	; 0x2a
 8006b7e:	d109      	bne.n	8006b94 <_svfiprintf_r+0x128>
 8006b80:	9b05      	ldr	r3, [sp, #20]
 8006b82:	3402      	adds	r4, #2
 8006b84:	1d1a      	adds	r2, r3, #4
 8006b86:	681b      	ldr	r3, [r3, #0]
 8006b88:	9205      	str	r2, [sp, #20]
 8006b8a:	2b00      	cmp	r3, #0
 8006b8c:	da0d      	bge.n	8006baa <_svfiprintf_r+0x13e>
 8006b8e:	2301      	movs	r3, #1
 8006b90:	425b      	negs	r3, r3
 8006b92:	e00a      	b.n	8006baa <_svfiprintf_r+0x13e>
 8006b94:	3401      	adds	r4, #1
 8006b96:	2300      	movs	r3, #0
 8006b98:	7822      	ldrb	r2, [r4, #0]
 8006b9a:	3a30      	subs	r2, #48	; 0x30
 8006b9c:	2a09      	cmp	r2, #9
 8006b9e:	d804      	bhi.n	8006baa <_svfiprintf_r+0x13e>
 8006ba0:	210a      	movs	r1, #10
 8006ba2:	434b      	muls	r3, r1
 8006ba4:	3401      	adds	r4, #1
 8006ba6:	189b      	adds	r3, r3, r2
 8006ba8:	e7f6      	b.n	8006b98 <_svfiprintf_r+0x12c>
 8006baa:	9307      	str	r3, [sp, #28]
 8006bac:	4f23      	ldr	r7, [pc, #140]	; (8006c3c <_svfiprintf_r+0x1d0>)
 8006bae:	7821      	ldrb	r1, [r4, #0]
 8006bb0:	1c38      	adds	r0, r7, #0
 8006bb2:	2203      	movs	r2, #3
 8006bb4:	f000 f9d4 	bl	8006f60 <memchr>
 8006bb8:	2800      	cmp	r0, #0
 8006bba:	d006      	beq.n	8006bca <_svfiprintf_r+0x15e>
 8006bbc:	1bc7      	subs	r7, r0, r7
 8006bbe:	682b      	ldr	r3, [r5, #0]
 8006bc0:	2040      	movs	r0, #64	; 0x40
 8006bc2:	40b8      	lsls	r0, r7
 8006bc4:	4318      	orrs	r0, r3
 8006bc6:	6028      	str	r0, [r5, #0]
 8006bc8:	3401      	adds	r4, #1
 8006bca:	7821      	ldrb	r1, [r4, #0]
 8006bcc:	481c      	ldr	r0, [pc, #112]	; (8006c40 <_svfiprintf_r+0x1d4>)
 8006bce:	2206      	movs	r2, #6
 8006bd0:	1c67      	adds	r7, r4, #1
 8006bd2:	7629      	strb	r1, [r5, #24]
 8006bd4:	f000 f9c4 	bl	8006f60 <memchr>
 8006bd8:	2800      	cmp	r0, #0
 8006bda:	d012      	beq.n	8006c02 <_svfiprintf_r+0x196>
 8006bdc:	4b19      	ldr	r3, [pc, #100]	; (8006c44 <_svfiprintf_r+0x1d8>)
 8006bde:	2b00      	cmp	r3, #0
 8006be0:	d106      	bne.n	8006bf0 <_svfiprintf_r+0x184>
 8006be2:	9b05      	ldr	r3, [sp, #20]
 8006be4:	2207      	movs	r2, #7
 8006be6:	3307      	adds	r3, #7
 8006be8:	4393      	bics	r3, r2
 8006bea:	3308      	adds	r3, #8
 8006bec:	9305      	str	r3, [sp, #20]
 8006bee:	e014      	b.n	8006c1a <_svfiprintf_r+0x1ae>
 8006bf0:	ab05      	add	r3, sp, #20
 8006bf2:	9300      	str	r3, [sp, #0]
 8006bf4:	9803      	ldr	r0, [sp, #12]
 8006bf6:	1c29      	adds	r1, r5, #0
 8006bf8:	1c32      	adds	r2, r6, #0
 8006bfa:	4b13      	ldr	r3, [pc, #76]	; (8006c48 <_svfiprintf_r+0x1dc>)
 8006bfc:	e000      	b.n	8006c00 <_svfiprintf_r+0x194>
 8006bfe:	bf00      	nop
 8006c00:	e007      	b.n	8006c12 <_svfiprintf_r+0x1a6>
 8006c02:	ab05      	add	r3, sp, #20
 8006c04:	9300      	str	r3, [sp, #0]
 8006c06:	9803      	ldr	r0, [sp, #12]
 8006c08:	1c29      	adds	r1, r5, #0
 8006c0a:	1c32      	adds	r2, r6, #0
 8006c0c:	4b0e      	ldr	r3, [pc, #56]	; (8006c48 <_svfiprintf_r+0x1dc>)
 8006c0e:	f000 f891 	bl	8006d34 <_printf_i>
 8006c12:	9004      	str	r0, [sp, #16]
 8006c14:	9904      	ldr	r1, [sp, #16]
 8006c16:	3101      	adds	r1, #1
 8006c18:	d004      	beq.n	8006c24 <_svfiprintf_r+0x1b8>
 8006c1a:	696a      	ldr	r2, [r5, #20]
 8006c1c:	9904      	ldr	r1, [sp, #16]
 8006c1e:	1853      	adds	r3, r2, r1
 8006c20:	616b      	str	r3, [r5, #20]
 8006c22:	e743      	b.n	8006aac <_svfiprintf_r+0x40>
 8006c24:	89b3      	ldrh	r3, [r6, #12]
 8006c26:	065a      	lsls	r2, r3, #25
 8006c28:	d401      	bmi.n	8006c2e <_svfiprintf_r+0x1c2>
 8006c2a:	980b      	ldr	r0, [sp, #44]	; 0x2c
 8006c2c:	e001      	b.n	8006c32 <_svfiprintf_r+0x1c6>
 8006c2e:	2001      	movs	r0, #1
 8006c30:	4240      	negs	r0, r0
 8006c32:	b01f      	add	sp, #124	; 0x7c
 8006c34:	bdf0      	pop	{r4, r5, r6, r7, pc}
 8006c36:	46c0      	nop			; (mov r8, r8)
 8006c38:	08007574 	.word	0x08007574
 8006c3c:	0800757a 	.word	0x0800757a
 8006c40:	0800757e 	.word	0x0800757e
 8006c44:	00000000 	.word	0x00000000
 8006c48:	080069ad 	.word	0x080069ad

08006c4c <_printf_common>:
 8006c4c:	b5f7      	push	{r0, r1, r2, r4, r5, r6, r7, lr}
 8006c4e:	1c15      	adds	r5, r2, #0
 8006c50:	9301      	str	r3, [sp, #4]
 8006c52:	690a      	ldr	r2, [r1, #16]
 8006c54:	688b      	ldr	r3, [r1, #8]
 8006c56:	1c06      	adds	r6, r0, #0
 8006c58:	1c0c      	adds	r4, r1, #0
 8006c5a:	4293      	cmp	r3, r2
 8006c5c:	da00      	bge.n	8006c60 <_printf_common+0x14>
 8006c5e:	1c13      	adds	r3, r2, #0
 8006c60:	1c22      	adds	r2, r4, #0
 8006c62:	602b      	str	r3, [r5, #0]
 8006c64:	3243      	adds	r2, #67	; 0x43
 8006c66:	7812      	ldrb	r2, [r2, #0]
 8006c68:	2a00      	cmp	r2, #0
 8006c6a:	d001      	beq.n	8006c70 <_printf_common+0x24>
 8006c6c:	3301      	adds	r3, #1
 8006c6e:	602b      	str	r3, [r5, #0]
 8006c70:	6820      	ldr	r0, [r4, #0]
 8006c72:	0680      	lsls	r0, r0, #26
 8006c74:	d502      	bpl.n	8006c7c <_printf_common+0x30>
 8006c76:	682b      	ldr	r3, [r5, #0]
 8006c78:	3302      	adds	r3, #2
 8006c7a:	602b      	str	r3, [r5, #0]
 8006c7c:	6821      	ldr	r1, [r4, #0]
 8006c7e:	2706      	movs	r7, #6
 8006c80:	400f      	ands	r7, r1
 8006c82:	d01f      	beq.n	8006cc4 <_printf_common+0x78>
 8006c84:	1c23      	adds	r3, r4, #0
 8006c86:	3343      	adds	r3, #67	; 0x43
 8006c88:	781b      	ldrb	r3, [r3, #0]
 8006c8a:	1e5a      	subs	r2, r3, #1
 8006c8c:	4193      	sbcs	r3, r2
 8006c8e:	6822      	ldr	r2, [r4, #0]
 8006c90:	0692      	lsls	r2, r2, #26
 8006c92:	d51f      	bpl.n	8006cd4 <_printf_common+0x88>
 8006c94:	18e1      	adds	r1, r4, r3
 8006c96:	3140      	adds	r1, #64	; 0x40
 8006c98:	2030      	movs	r0, #48	; 0x30
 8006c9a:	70c8      	strb	r0, [r1, #3]
 8006c9c:	1c21      	adds	r1, r4, #0
 8006c9e:	1c5a      	adds	r2, r3, #1
 8006ca0:	3145      	adds	r1, #69	; 0x45
 8006ca2:	7809      	ldrb	r1, [r1, #0]
 8006ca4:	18a2      	adds	r2, r4, r2
 8006ca6:	3240      	adds	r2, #64	; 0x40
 8006ca8:	3302      	adds	r3, #2
 8006caa:	70d1      	strb	r1, [r2, #3]
 8006cac:	e012      	b.n	8006cd4 <_printf_common+0x88>
 8006cae:	1c22      	adds	r2, r4, #0
 8006cb0:	1c30      	adds	r0, r6, #0
 8006cb2:	9901      	ldr	r1, [sp, #4]
 8006cb4:	3219      	adds	r2, #25
 8006cb6:	2301      	movs	r3, #1
 8006cb8:	9f08      	ldr	r7, [sp, #32]
 8006cba:	47b8      	blx	r7
 8006cbc:	3001      	adds	r0, #1
 8006cbe:	d011      	beq.n	8006ce4 <_printf_common+0x98>
 8006cc0:	9f00      	ldr	r7, [sp, #0]
 8006cc2:	3701      	adds	r7, #1
 8006cc4:	9700      	str	r7, [sp, #0]
 8006cc6:	68e0      	ldr	r0, [r4, #12]
 8006cc8:	6829      	ldr	r1, [r5, #0]
 8006cca:	9f00      	ldr	r7, [sp, #0]
 8006ccc:	1a43      	subs	r3, r0, r1
 8006cce:	429f      	cmp	r7, r3
 8006cd0:	dbed      	blt.n	8006cae <_printf_common+0x62>
 8006cd2:	e7d7      	b.n	8006c84 <_printf_common+0x38>
 8006cd4:	1c22      	adds	r2, r4, #0
 8006cd6:	1c30      	adds	r0, r6, #0
 8006cd8:	9901      	ldr	r1, [sp, #4]
 8006cda:	3243      	adds	r2, #67	; 0x43
 8006cdc:	9f08      	ldr	r7, [sp, #32]
 8006cde:	47b8      	blx	r7
 8006ce0:	3001      	adds	r0, #1
 8006ce2:	d102      	bne.n	8006cea <_printf_common+0x9e>
 8006ce4:	2001      	movs	r0, #1
 8006ce6:	4240      	negs	r0, r0
 8006ce8:	e023      	b.n	8006d32 <_printf_common+0xe6>
 8006cea:	6820      	ldr	r0, [r4, #0]
 8006cec:	2106      	movs	r1, #6
 8006cee:	682b      	ldr	r3, [r5, #0]
 8006cf0:	68e2      	ldr	r2, [r4, #12]
 8006cf2:	4001      	ands	r1, r0
 8006cf4:	2500      	movs	r5, #0
 8006cf6:	2904      	cmp	r1, #4
 8006cf8:	d103      	bne.n	8006d02 <_printf_common+0xb6>
 8006cfa:	1ad5      	subs	r5, r2, r3
 8006cfc:	43eb      	mvns	r3, r5
 8006cfe:	17db      	asrs	r3, r3, #31
 8006d00:	401d      	ands	r5, r3
 8006d02:	68a2      	ldr	r2, [r4, #8]
 8006d04:	6923      	ldr	r3, [r4, #16]
 8006d06:	429a      	cmp	r2, r3
 8006d08:	dd01      	ble.n	8006d0e <_printf_common+0xc2>
 8006d0a:	1ad3      	subs	r3, r2, r3
 8006d0c:	18ed      	adds	r5, r5, r3
 8006d0e:	2700      	movs	r7, #0
 8006d10:	9700      	str	r7, [sp, #0]
 8006d12:	9f00      	ldr	r7, [sp, #0]
 8006d14:	42af      	cmp	r7, r5
 8006d16:	da0b      	bge.n	8006d30 <_printf_common+0xe4>
 8006d18:	1c22      	adds	r2, r4, #0
 8006d1a:	1c30      	adds	r0, r6, #0
 8006d1c:	9901      	ldr	r1, [sp, #4]
 8006d1e:	321a      	adds	r2, #26
 8006d20:	2301      	movs	r3, #1
 8006d22:	9f08      	ldr	r7, [sp, #32]
 8006d24:	47b8      	blx	r7
 8006d26:	3001      	adds	r0, #1
 8006d28:	d0dc      	beq.n	8006ce4 <_printf_common+0x98>
 8006d2a:	9f00      	ldr	r7, [sp, #0]
 8006d2c:	3701      	adds	r7, #1
 8006d2e:	e7ef      	b.n	8006d10 <_printf_common+0xc4>
 8006d30:	2000      	movs	r0, #0
 8006d32:	bdfe      	pop	{r1, r2, r3, r4, r5, r6, r7, pc}

08006d34 <_printf_i>:
 8006d34:	b5f0      	push	{r4, r5, r6, r7, lr}
 8006d36:	1c0d      	adds	r5, r1, #0
 8006d38:	b08b      	sub	sp, #44	; 0x2c
 8006d3a:	3543      	adds	r5, #67	; 0x43
 8006d3c:	9206      	str	r2, [sp, #24]
 8006d3e:	9005      	str	r0, [sp, #20]
 8006d40:	9307      	str	r3, [sp, #28]
 8006d42:	9504      	str	r5, [sp, #16]
 8006d44:	7e0b      	ldrb	r3, [r1, #24]
 8006d46:	1c0c      	adds	r4, r1, #0
 8006d48:	9a10      	ldr	r2, [sp, #64]	; 0x40
 8006d4a:	2b6e      	cmp	r3, #110	; 0x6e
 8006d4c:	d100      	bne.n	8006d50 <_printf_i+0x1c>
 8006d4e:	e0a7      	b.n	8006ea0 <_printf_i+0x16c>
 8006d50:	d811      	bhi.n	8006d76 <_printf_i+0x42>
 8006d52:	2b63      	cmp	r3, #99	; 0x63
 8006d54:	d022      	beq.n	8006d9c <_printf_i+0x68>
 8006d56:	d809      	bhi.n	8006d6c <_printf_i+0x38>
 8006d58:	2b00      	cmp	r3, #0
 8006d5a:	d100      	bne.n	8006d5e <_printf_i+0x2a>
 8006d5c:	e0b0      	b.n	8006ec0 <_printf_i+0x18c>
 8006d5e:	2b58      	cmp	r3, #88	; 0x58
 8006d60:	d000      	beq.n	8006d64 <_printf_i+0x30>
 8006d62:	e0c0      	b.n	8006ee6 <_printf_i+0x1b2>
 8006d64:	3145      	adds	r1, #69	; 0x45
 8006d66:	700b      	strb	r3, [r1, #0]
 8006d68:	4d7b      	ldr	r5, [pc, #492]	; (8006f58 <_printf_i+0x224>)
 8006d6a:	e04e      	b.n	8006e0a <_printf_i+0xd6>
 8006d6c:	2b64      	cmp	r3, #100	; 0x64
 8006d6e:	d01c      	beq.n	8006daa <_printf_i+0x76>
 8006d70:	2b69      	cmp	r3, #105	; 0x69
 8006d72:	d01a      	beq.n	8006daa <_printf_i+0x76>
 8006d74:	e0b7      	b.n	8006ee6 <_printf_i+0x1b2>
 8006d76:	2b73      	cmp	r3, #115	; 0x73
 8006d78:	d100      	bne.n	8006d7c <_printf_i+0x48>
 8006d7a:	e0a5      	b.n	8006ec8 <_printf_i+0x194>
 8006d7c:	d809      	bhi.n	8006d92 <_printf_i+0x5e>
 8006d7e:	2b6f      	cmp	r3, #111	; 0x6f
 8006d80:	d029      	beq.n	8006dd6 <_printf_i+0xa2>
 8006d82:	2b70      	cmp	r3, #112	; 0x70
 8006d84:	d000      	beq.n	8006d88 <_printf_i+0x54>
 8006d86:	e0ae      	b.n	8006ee6 <_printf_i+0x1b2>
 8006d88:	680e      	ldr	r6, [r1, #0]
 8006d8a:	2320      	movs	r3, #32
 8006d8c:	4333      	orrs	r3, r6
 8006d8e:	600b      	str	r3, [r1, #0]
 8006d90:	e036      	b.n	8006e00 <_printf_i+0xcc>
 8006d92:	2b75      	cmp	r3, #117	; 0x75
 8006d94:	d01f      	beq.n	8006dd6 <_printf_i+0xa2>
 8006d96:	2b78      	cmp	r3, #120	; 0x78
 8006d98:	d032      	beq.n	8006e00 <_printf_i+0xcc>
 8006d9a:	e0a4      	b.n	8006ee6 <_printf_i+0x1b2>
 8006d9c:	6813      	ldr	r3, [r2, #0]
 8006d9e:	1c0d      	adds	r5, r1, #0
 8006da0:	1d19      	adds	r1, r3, #4
 8006da2:	3542      	adds	r5, #66	; 0x42
 8006da4:	6011      	str	r1, [r2, #0]
 8006da6:	681b      	ldr	r3, [r3, #0]
 8006da8:	e09f      	b.n	8006eea <_printf_i+0x1b6>
 8006daa:	6821      	ldr	r1, [r4, #0]
 8006dac:	6813      	ldr	r3, [r2, #0]
 8006dae:	060e      	lsls	r6, r1, #24
 8006db0:	d503      	bpl.n	8006dba <_printf_i+0x86>
 8006db2:	1d19      	adds	r1, r3, #4
 8006db4:	6011      	str	r1, [r2, #0]
 8006db6:	681e      	ldr	r6, [r3, #0]
 8006db8:	e005      	b.n	8006dc6 <_printf_i+0x92>
 8006dba:	0648      	lsls	r0, r1, #25
 8006dbc:	d5f9      	bpl.n	8006db2 <_printf_i+0x7e>
 8006dbe:	1d19      	adds	r1, r3, #4
 8006dc0:	6011      	str	r1, [r2, #0]
 8006dc2:	2100      	movs	r1, #0
 8006dc4:	5e5e      	ldrsh	r6, [r3, r1]
 8006dc6:	4b64      	ldr	r3, [pc, #400]	; (8006f58 <_printf_i+0x224>)
 8006dc8:	2e00      	cmp	r6, #0
 8006dca:	da3b      	bge.n	8006e44 <_printf_i+0x110>
 8006dcc:	9d04      	ldr	r5, [sp, #16]
 8006dce:	222d      	movs	r2, #45	; 0x2d
 8006dd0:	4276      	negs	r6, r6
 8006dd2:	702a      	strb	r2, [r5, #0]
 8006dd4:	e036      	b.n	8006e44 <_printf_i+0x110>
 8006dd6:	6821      	ldr	r1, [r4, #0]
 8006dd8:	6813      	ldr	r3, [r2, #0]
 8006dda:	060e      	lsls	r6, r1, #24
 8006ddc:	d503      	bpl.n	8006de6 <_printf_i+0xb2>
 8006dde:	1d19      	adds	r1, r3, #4
 8006de0:	6011      	str	r1, [r2, #0]
 8006de2:	681e      	ldr	r6, [r3, #0]
 8006de4:	e004      	b.n	8006df0 <_printf_i+0xbc>
 8006de6:	0648      	lsls	r0, r1, #25
 8006de8:	d5f9      	bpl.n	8006dde <_printf_i+0xaa>
 8006dea:	1d19      	adds	r1, r3, #4
 8006dec:	881e      	ldrh	r6, [r3, #0]
 8006dee:	6011      	str	r1, [r2, #0]
 8006df0:	4b59      	ldr	r3, [pc, #356]	; (8006f58 <_printf_i+0x224>)
 8006df2:	7e22      	ldrb	r2, [r4, #24]
 8006df4:	9303      	str	r3, [sp, #12]
 8006df6:	2708      	movs	r7, #8
 8006df8:	2a6f      	cmp	r2, #111	; 0x6f
 8006dfa:	d01e      	beq.n	8006e3a <_printf_i+0x106>
 8006dfc:	270a      	movs	r7, #10
 8006dfe:	e01c      	b.n	8006e3a <_printf_i+0x106>
 8006e00:	1c23      	adds	r3, r4, #0
 8006e02:	2178      	movs	r1, #120	; 0x78
 8006e04:	3345      	adds	r3, #69	; 0x45
 8006e06:	4d55      	ldr	r5, [pc, #340]	; (8006f5c <_printf_i+0x228>)
 8006e08:	7019      	strb	r1, [r3, #0]
 8006e0a:	6811      	ldr	r1, [r2, #0]
 8006e0c:	6823      	ldr	r3, [r4, #0]
 8006e0e:	1d08      	adds	r0, r1, #4
 8006e10:	9503      	str	r5, [sp, #12]
 8006e12:	6010      	str	r0, [r2, #0]
 8006e14:	061e      	lsls	r6, r3, #24
 8006e16:	d501      	bpl.n	8006e1c <_printf_i+0xe8>
 8006e18:	680e      	ldr	r6, [r1, #0]
 8006e1a:	e002      	b.n	8006e22 <_printf_i+0xee>
 8006e1c:	0658      	lsls	r0, r3, #25
 8006e1e:	d5fb      	bpl.n	8006e18 <_printf_i+0xe4>
 8006e20:	880e      	ldrh	r6, [r1, #0]
 8006e22:	07d9      	lsls	r1, r3, #31
 8006e24:	d502      	bpl.n	8006e2c <_printf_i+0xf8>
 8006e26:	2220      	movs	r2, #32
 8006e28:	4313      	orrs	r3, r2
 8006e2a:	6023      	str	r3, [r4, #0]
 8006e2c:	2710      	movs	r7, #16
 8006e2e:	2e00      	cmp	r6, #0
 8006e30:	d103      	bne.n	8006e3a <_printf_i+0x106>
 8006e32:	6822      	ldr	r2, [r4, #0]
 8006e34:	2320      	movs	r3, #32
 8006e36:	439a      	bics	r2, r3
 8006e38:	6022      	str	r2, [r4, #0]
 8006e3a:	1c23      	adds	r3, r4, #0
 8006e3c:	2200      	movs	r2, #0
 8006e3e:	3343      	adds	r3, #67	; 0x43
 8006e40:	701a      	strb	r2, [r3, #0]
 8006e42:	e001      	b.n	8006e48 <_printf_i+0x114>
 8006e44:	9303      	str	r3, [sp, #12]
 8006e46:	270a      	movs	r7, #10
 8006e48:	6863      	ldr	r3, [r4, #4]
 8006e4a:	60a3      	str	r3, [r4, #8]
 8006e4c:	2b00      	cmp	r3, #0
 8006e4e:	db03      	blt.n	8006e58 <_printf_i+0x124>
 8006e50:	6825      	ldr	r5, [r4, #0]
 8006e52:	2204      	movs	r2, #4
 8006e54:	4395      	bics	r5, r2
 8006e56:	6025      	str	r5, [r4, #0]
 8006e58:	2e00      	cmp	r6, #0
 8006e5a:	d102      	bne.n	8006e62 <_printf_i+0x12e>
 8006e5c:	9d04      	ldr	r5, [sp, #16]
 8006e5e:	2b00      	cmp	r3, #0
 8006e60:	d00e      	beq.n	8006e80 <_printf_i+0x14c>
 8006e62:	9d04      	ldr	r5, [sp, #16]
 8006e64:	1c30      	adds	r0, r6, #0
 8006e66:	1c39      	adds	r1, r7, #0
 8006e68:	f7f9 f992 	bl	8000190 <__aeabi_uidivmod>
 8006e6c:	9803      	ldr	r0, [sp, #12]
 8006e6e:	3d01      	subs	r5, #1
 8006e70:	5c43      	ldrb	r3, [r0, r1]
 8006e72:	1c30      	adds	r0, r6, #0
 8006e74:	702b      	strb	r3, [r5, #0]
 8006e76:	1c39      	adds	r1, r7, #0
 8006e78:	f7f9 f946 	bl	8000108 <__aeabi_uidiv>
 8006e7c:	1e06      	subs	r6, r0, #0
 8006e7e:	d1f1      	bne.n	8006e64 <_printf_i+0x130>
 8006e80:	2f08      	cmp	r7, #8
 8006e82:	d109      	bne.n	8006e98 <_printf_i+0x164>
 8006e84:	6821      	ldr	r1, [r4, #0]
 8006e86:	07c9      	lsls	r1, r1, #31
 8006e88:	d506      	bpl.n	8006e98 <_printf_i+0x164>
 8006e8a:	6862      	ldr	r2, [r4, #4]
 8006e8c:	6923      	ldr	r3, [r4, #16]
 8006e8e:	429a      	cmp	r2, r3
 8006e90:	dc02      	bgt.n	8006e98 <_printf_i+0x164>
 8006e92:	3d01      	subs	r5, #1
 8006e94:	2330      	movs	r3, #48	; 0x30
 8006e96:	702b      	strb	r3, [r5, #0]
 8006e98:	9e04      	ldr	r6, [sp, #16]
 8006e9a:	1b73      	subs	r3, r6, r5
 8006e9c:	6123      	str	r3, [r4, #16]
 8006e9e:	e02a      	b.n	8006ef6 <_printf_i+0x1c2>
 8006ea0:	6808      	ldr	r0, [r1, #0]
 8006ea2:	6813      	ldr	r3, [r2, #0]
 8006ea4:	6949      	ldr	r1, [r1, #20]
 8006ea6:	0605      	lsls	r5, r0, #24
 8006ea8:	d504      	bpl.n	8006eb4 <_printf_i+0x180>
 8006eaa:	1d18      	adds	r0, r3, #4
 8006eac:	6010      	str	r0, [r2, #0]
 8006eae:	681b      	ldr	r3, [r3, #0]
 8006eb0:	6019      	str	r1, [r3, #0]
 8006eb2:	e005      	b.n	8006ec0 <_printf_i+0x18c>
 8006eb4:	0646      	lsls	r6, r0, #25
 8006eb6:	d5f8      	bpl.n	8006eaa <_printf_i+0x176>
 8006eb8:	1d18      	adds	r0, r3, #4
 8006eba:	6010      	str	r0, [r2, #0]
 8006ebc:	681b      	ldr	r3, [r3, #0]
 8006ebe:	8019      	strh	r1, [r3, #0]
 8006ec0:	2300      	movs	r3, #0
 8006ec2:	6123      	str	r3, [r4, #16]
 8006ec4:	9d04      	ldr	r5, [sp, #16]
 8006ec6:	e016      	b.n	8006ef6 <_printf_i+0x1c2>
 8006ec8:	6813      	ldr	r3, [r2, #0]
 8006eca:	1d19      	adds	r1, r3, #4
 8006ecc:	6011      	str	r1, [r2, #0]
 8006ece:	681d      	ldr	r5, [r3, #0]
 8006ed0:	1c28      	adds	r0, r5, #0
 8006ed2:	f000 f93d 	bl	8007150 <strlen>
 8006ed6:	6863      	ldr	r3, [r4, #4]
 8006ed8:	6120      	str	r0, [r4, #16]
 8006eda:	4298      	cmp	r0, r3
 8006edc:	d900      	bls.n	8006ee0 <_printf_i+0x1ac>
 8006ede:	6123      	str	r3, [r4, #16]
 8006ee0:	6920      	ldr	r0, [r4, #16]
 8006ee2:	6060      	str	r0, [r4, #4]
 8006ee4:	e004      	b.n	8006ef0 <_printf_i+0x1bc>
 8006ee6:	1c25      	adds	r5, r4, #0
 8006ee8:	3542      	adds	r5, #66	; 0x42
 8006eea:	702b      	strb	r3, [r5, #0]
 8006eec:	2301      	movs	r3, #1
 8006eee:	6123      	str	r3, [r4, #16]
 8006ef0:	9e04      	ldr	r6, [sp, #16]
 8006ef2:	2300      	movs	r3, #0
 8006ef4:	7033      	strb	r3, [r6, #0]
 8006ef6:	9e07      	ldr	r6, [sp, #28]
 8006ef8:	9805      	ldr	r0, [sp, #20]
 8006efa:	9600      	str	r6, [sp, #0]
 8006efc:	1c21      	adds	r1, r4, #0
 8006efe:	aa09      	add	r2, sp, #36	; 0x24
 8006f00:	9b06      	ldr	r3, [sp, #24]
 8006f02:	f7ff fea3 	bl	8006c4c <_printf_common>
 8006f06:	3001      	adds	r0, #1
 8006f08:	d102      	bne.n	8006f10 <_printf_i+0x1dc>
 8006f0a:	2001      	movs	r0, #1
 8006f0c:	4240      	negs	r0, r0
 8006f0e:	e021      	b.n	8006f54 <_printf_i+0x220>
 8006f10:	1c2a      	adds	r2, r5, #0
 8006f12:	9805      	ldr	r0, [sp, #20]
 8006f14:	9906      	ldr	r1, [sp, #24]
 8006f16:	6923      	ldr	r3, [r4, #16]
 8006f18:	9d07      	ldr	r5, [sp, #28]
 8006f1a:	47a8      	blx	r5
 8006f1c:	3001      	adds	r0, #1
 8006f1e:	d0f4      	beq.n	8006f0a <_printf_i+0x1d6>
 8006f20:	6826      	ldr	r6, [r4, #0]
 8006f22:	07b6      	lsls	r6, r6, #30
 8006f24:	d405      	bmi.n	8006f32 <_printf_i+0x1fe>
 8006f26:	9b09      	ldr	r3, [sp, #36]	; 0x24
 8006f28:	68e0      	ldr	r0, [r4, #12]
 8006f2a:	4298      	cmp	r0, r3
 8006f2c:	da12      	bge.n	8006f54 <_printf_i+0x220>
 8006f2e:	1c18      	adds	r0, r3, #0
 8006f30:	e010      	b.n	8006f54 <_printf_i+0x220>
 8006f32:	2500      	movs	r5, #0
 8006f34:	68e0      	ldr	r0, [r4, #12]
 8006f36:	9909      	ldr	r1, [sp, #36]	; 0x24
 8006f38:	1a43      	subs	r3, r0, r1
 8006f3a:	429d      	cmp	r5, r3
 8006f3c:	daf3      	bge.n	8006f26 <_printf_i+0x1f2>
 8006f3e:	1c22      	adds	r2, r4, #0
 8006f40:	9805      	ldr	r0, [sp, #20]
 8006f42:	9906      	ldr	r1, [sp, #24]
 8006f44:	3219      	adds	r2, #25
 8006f46:	2301      	movs	r3, #1
 8006f48:	9e07      	ldr	r6, [sp, #28]
 8006f4a:	47b0      	blx	r6
 8006f4c:	3001      	adds	r0, #1
 8006f4e:	d0dc      	beq.n	8006f0a <_printf_i+0x1d6>
 8006f50:	3501      	adds	r5, #1
 8006f52:	e7ef      	b.n	8006f34 <_printf_i+0x200>
 8006f54:	b00b      	add	sp, #44	; 0x2c
 8006f56:	bdf0      	pop	{r4, r5, r6, r7, pc}
 8006f58:	08007585 	.word	0x08007585
 8006f5c:	08007596 	.word	0x08007596

08006f60 <memchr>:
 8006f60:	b2c9      	uxtb	r1, r1
 8006f62:	1882      	adds	r2, r0, r2
 8006f64:	4290      	cmp	r0, r2
 8006f66:	d004      	beq.n	8006f72 <memchr+0x12>
 8006f68:	7803      	ldrb	r3, [r0, #0]
 8006f6a:	428b      	cmp	r3, r1
 8006f6c:	d002      	beq.n	8006f74 <memchr+0x14>
 8006f6e:	3001      	adds	r0, #1
 8006f70:	e7f8      	b.n	8006f64 <memchr+0x4>
 8006f72:	2000      	movs	r0, #0
 8006f74:	4770      	bx	lr

08006f76 <memmove>:
 8006f76:	b570      	push	{r4, r5, r6, lr}
 8006f78:	4281      	cmp	r1, r0
 8006f7a:	d301      	bcc.n	8006f80 <memmove+0xa>
 8006f7c:	2300      	movs	r3, #0
 8006f7e:	e00c      	b.n	8006f9a <memmove+0x24>
 8006f80:	188c      	adds	r4, r1, r2
 8006f82:	42a0      	cmp	r0, r4
 8006f84:	d2fa      	bcs.n	8006f7c <memmove+0x6>
 8006f86:	1885      	adds	r5, r0, r2
 8006f88:	1c13      	adds	r3, r2, #0
 8006f8a:	3b01      	subs	r3, #1
 8006f8c:	d30b      	bcc.n	8006fa6 <memmove+0x30>
 8006f8e:	4251      	negs	r1, r2
 8006f90:	1866      	adds	r6, r4, r1
 8006f92:	5cf6      	ldrb	r6, [r6, r3]
 8006f94:	1869      	adds	r1, r5, r1
 8006f96:	54ce      	strb	r6, [r1, r3]
 8006f98:	e7f7      	b.n	8006f8a <memmove+0x14>
 8006f9a:	4293      	cmp	r3, r2
 8006f9c:	d003      	beq.n	8006fa6 <memmove+0x30>
 8006f9e:	5ccc      	ldrb	r4, [r1, r3]
 8006fa0:	54c4      	strb	r4, [r0, r3]
 8006fa2:	3301      	adds	r3, #1
 8006fa4:	e7f9      	b.n	8006f9a <memmove+0x24>
 8006fa6:	bd70      	pop	{r4, r5, r6, pc}

08006fa8 <_free_r>:
 8006fa8:	b530      	push	{r4, r5, lr}
 8006faa:	2900      	cmp	r1, #0
 8006fac:	d040      	beq.n	8007030 <_free_r+0x88>
 8006fae:	3904      	subs	r1, #4
 8006fb0:	680b      	ldr	r3, [r1, #0]
 8006fb2:	2b00      	cmp	r3, #0
 8006fb4:	da00      	bge.n	8006fb8 <_free_r+0x10>
 8006fb6:	18c9      	adds	r1, r1, r3
 8006fb8:	4a1e      	ldr	r2, [pc, #120]	; (8007034 <_free_r+0x8c>)
 8006fba:	6813      	ldr	r3, [r2, #0]
 8006fbc:	1c14      	adds	r4, r2, #0
 8006fbe:	2b00      	cmp	r3, #0
 8006fc0:	d102      	bne.n	8006fc8 <_free_r+0x20>
 8006fc2:	604b      	str	r3, [r1, #4]
 8006fc4:	6011      	str	r1, [r2, #0]
 8006fc6:	e033      	b.n	8007030 <_free_r+0x88>
 8006fc8:	4299      	cmp	r1, r3
 8006fca:	d20f      	bcs.n	8006fec <_free_r+0x44>
 8006fcc:	6808      	ldr	r0, [r1, #0]
 8006fce:	180a      	adds	r2, r1, r0
 8006fd0:	429a      	cmp	r2, r3
 8006fd2:	d105      	bne.n	8006fe0 <_free_r+0x38>
 8006fd4:	6813      	ldr	r3, [r2, #0]
 8006fd6:	6852      	ldr	r2, [r2, #4]
 8006fd8:	18c0      	adds	r0, r0, r3
 8006fda:	6008      	str	r0, [r1, #0]
 8006fdc:	604a      	str	r2, [r1, #4]
 8006fde:	e000      	b.n	8006fe2 <_free_r+0x3a>
 8006fe0:	604b      	str	r3, [r1, #4]
 8006fe2:	6021      	str	r1, [r4, #0]
 8006fe4:	e024      	b.n	8007030 <_free_r+0x88>
 8006fe6:	428a      	cmp	r2, r1
 8006fe8:	d803      	bhi.n	8006ff2 <_free_r+0x4a>
 8006fea:	1c13      	adds	r3, r2, #0
 8006fec:	685a      	ldr	r2, [r3, #4]
 8006fee:	2a00      	cmp	r2, #0
 8006ff0:	d1f9      	bne.n	8006fe6 <_free_r+0x3e>
 8006ff2:	681d      	ldr	r5, [r3, #0]
 8006ff4:	195c      	adds	r4, r3, r5
 8006ff6:	428c      	cmp	r4, r1
 8006ff8:	d10b      	bne.n	8007012 <_free_r+0x6a>
 8006ffa:	6809      	ldr	r1, [r1, #0]
 8006ffc:	1869      	adds	r1, r5, r1
 8006ffe:	1858      	adds	r0, r3, r1
 8007000:	6019      	str	r1, [r3, #0]
 8007002:	4290      	cmp	r0, r2
 8007004:	d114      	bne.n	8007030 <_free_r+0x88>
 8007006:	6814      	ldr	r4, [r2, #0]
 8007008:	6852      	ldr	r2, [r2, #4]
 800700a:	1909      	adds	r1, r1, r4
 800700c:	6019      	str	r1, [r3, #0]
 800700e:	605a      	str	r2, [r3, #4]
 8007010:	e00e      	b.n	8007030 <_free_r+0x88>
 8007012:	428c      	cmp	r4, r1
 8007014:	d902      	bls.n	800701c <_free_r+0x74>
 8007016:	230c      	movs	r3, #12
 8007018:	6003      	str	r3, [r0, #0]
 800701a:	e009      	b.n	8007030 <_free_r+0x88>
 800701c:	6808      	ldr	r0, [r1, #0]
 800701e:	180c      	adds	r4, r1, r0
 8007020:	4294      	cmp	r4, r2
 8007022:	d103      	bne.n	800702c <_free_r+0x84>
 8007024:	6814      	ldr	r4, [r2, #0]
 8007026:	6852      	ldr	r2, [r2, #4]
 8007028:	1900      	adds	r0, r0, r4
 800702a:	6008      	str	r0, [r1, #0]
 800702c:	604a      	str	r2, [r1, #4]
 800702e:	6059      	str	r1, [r3, #4]
 8007030:	bd30      	pop	{r4, r5, pc}
 8007032:	46c0      	nop			; (mov r8, r8)
 8007034:	20000180 	.word	0x20000180

08007038 <_malloc_r>:
 8007038:	b570      	push	{r4, r5, r6, lr}
 800703a:	2303      	movs	r3, #3
 800703c:	1ccd      	adds	r5, r1, #3
 800703e:	439d      	bics	r5, r3
 8007040:	3508      	adds	r5, #8
 8007042:	1c06      	adds	r6, r0, #0
 8007044:	2d0c      	cmp	r5, #12
 8007046:	d201      	bcs.n	800704c <_malloc_r+0x14>
 8007048:	250c      	movs	r5, #12
 800704a:	e001      	b.n	8007050 <_malloc_r+0x18>
 800704c:	2d00      	cmp	r5, #0
 800704e:	db3f      	blt.n	80070d0 <_malloc_r+0x98>
 8007050:	428d      	cmp	r5, r1
 8007052:	d33d      	bcc.n	80070d0 <_malloc_r+0x98>
 8007054:	4b20      	ldr	r3, [pc, #128]	; (80070d8 <_malloc_r+0xa0>)
 8007056:	681c      	ldr	r4, [r3, #0]
 8007058:	1c1a      	adds	r2, r3, #0
 800705a:	1c21      	adds	r1, r4, #0
 800705c:	2900      	cmp	r1, #0
 800705e:	d013      	beq.n	8007088 <_malloc_r+0x50>
 8007060:	6808      	ldr	r0, [r1, #0]
 8007062:	1b43      	subs	r3, r0, r5
 8007064:	d40d      	bmi.n	8007082 <_malloc_r+0x4a>
 8007066:	2b0b      	cmp	r3, #11
 8007068:	d902      	bls.n	8007070 <_malloc_r+0x38>
 800706a:	600b      	str	r3, [r1, #0]
 800706c:	18cc      	adds	r4, r1, r3
 800706e:	e01e      	b.n	80070ae <_malloc_r+0x76>
 8007070:	428c      	cmp	r4, r1
 8007072:	d102      	bne.n	800707a <_malloc_r+0x42>
 8007074:	6863      	ldr	r3, [r4, #4]
 8007076:	6013      	str	r3, [r2, #0]
 8007078:	e01a      	b.n	80070b0 <_malloc_r+0x78>
 800707a:	6848      	ldr	r0, [r1, #4]
 800707c:	6060      	str	r0, [r4, #4]
 800707e:	1c0c      	adds	r4, r1, #0
 8007080:	e016      	b.n	80070b0 <_malloc_r+0x78>
 8007082:	1c0c      	adds	r4, r1, #0
 8007084:	6849      	ldr	r1, [r1, #4]
 8007086:	e7e9      	b.n	800705c <_malloc_r+0x24>
 8007088:	4c14      	ldr	r4, [pc, #80]	; (80070dc <_malloc_r+0xa4>)
 800708a:	6820      	ldr	r0, [r4, #0]
 800708c:	2800      	cmp	r0, #0
 800708e:	d103      	bne.n	8007098 <_malloc_r+0x60>
 8007090:	1c30      	adds	r0, r6, #0
 8007092:	f000 f84b 	bl	800712c <_sbrk_r>
 8007096:	6020      	str	r0, [r4, #0]
 8007098:	1c30      	adds	r0, r6, #0
 800709a:	1c29      	adds	r1, r5, #0
 800709c:	f000 f846 	bl	800712c <_sbrk_r>
 80070a0:	1c43      	adds	r3, r0, #1
 80070a2:	d015      	beq.n	80070d0 <_malloc_r+0x98>
 80070a4:	1cc4      	adds	r4, r0, #3
 80070a6:	2303      	movs	r3, #3
 80070a8:	439c      	bics	r4, r3
 80070aa:	4284      	cmp	r4, r0
 80070ac:	d10a      	bne.n	80070c4 <_malloc_r+0x8c>
 80070ae:	6025      	str	r5, [r4, #0]
 80070b0:	1c20      	adds	r0, r4, #0
 80070b2:	300b      	adds	r0, #11
 80070b4:	2207      	movs	r2, #7
 80070b6:	1d23      	adds	r3, r4, #4
 80070b8:	4390      	bics	r0, r2
 80070ba:	1ac3      	subs	r3, r0, r3
 80070bc:	d00b      	beq.n	80070d6 <_malloc_r+0x9e>
 80070be:	425a      	negs	r2, r3
 80070c0:	50e2      	str	r2, [r4, r3]
 80070c2:	e008      	b.n	80070d6 <_malloc_r+0x9e>
 80070c4:	1a21      	subs	r1, r4, r0
 80070c6:	1c30      	adds	r0, r6, #0
 80070c8:	f000 f830 	bl	800712c <_sbrk_r>
 80070cc:	3001      	adds	r0, #1
 80070ce:	d1ee      	bne.n	80070ae <_malloc_r+0x76>
 80070d0:	230c      	movs	r3, #12
 80070d2:	6033      	str	r3, [r6, #0]
 80070d4:	2000      	movs	r0, #0
 80070d6:	bd70      	pop	{r4, r5, r6, pc}
 80070d8:	20000180 	.word	0x20000180
 80070dc:	2000017c 	.word	0x2000017c

080070e0 <_realloc_r>:
 80070e0:	b5f8      	push	{r3, r4, r5, r6, r7, lr}
 80070e2:	1c06      	adds	r6, r0, #0
 80070e4:	1c0c      	adds	r4, r1, #0
 80070e6:	1c15      	adds	r5, r2, #0
 80070e8:	2900      	cmp	r1, #0
 80070ea:	d104      	bne.n	80070f6 <_realloc_r+0x16>
 80070ec:	1c11      	adds	r1, r2, #0
 80070ee:	f7ff ffa3 	bl	8007038 <_malloc_r>
 80070f2:	1c04      	adds	r4, r0, #0
 80070f4:	e018      	b.n	8007128 <_realloc_r+0x48>
 80070f6:	2a00      	cmp	r2, #0
 80070f8:	d103      	bne.n	8007102 <_realloc_r+0x22>
 80070fa:	f7ff ff55 	bl	8006fa8 <_free_r>
 80070fe:	1c2c      	adds	r4, r5, #0
 8007100:	e012      	b.n	8007128 <_realloc_r+0x48>
 8007102:	f000 f847 	bl	8007194 <_malloc_usable_size_r>
 8007106:	42a8      	cmp	r0, r5
 8007108:	d20e      	bcs.n	8007128 <_realloc_r+0x48>
 800710a:	1c30      	adds	r0, r6, #0
 800710c:	1c29      	adds	r1, r5, #0
 800710e:	f7ff ff93 	bl	8007038 <_malloc_r>
 8007112:	1e07      	subs	r7, r0, #0
 8007114:	d007      	beq.n	8007126 <_realloc_r+0x46>
 8007116:	1c21      	adds	r1, r4, #0
 8007118:	1c2a      	adds	r2, r5, #0
 800711a:	f7ff fc1b 	bl	8006954 <memcpy>
 800711e:	1c30      	adds	r0, r6, #0
 8007120:	1c21      	adds	r1, r4, #0
 8007122:	f7ff ff41 	bl	8006fa8 <_free_r>
 8007126:	1c3c      	adds	r4, r7, #0
 8007128:	1c20      	adds	r0, r4, #0
 800712a:	bdf8      	pop	{r3, r4, r5, r6, r7, pc}

0800712c <_sbrk_r>:
 800712c:	b538      	push	{r3, r4, r5, lr}
 800712e:	4c07      	ldr	r4, [pc, #28]	; (800714c <_sbrk_r+0x20>)
 8007130:	2300      	movs	r3, #0
 8007132:	1c05      	adds	r5, r0, #0
 8007134:	1c08      	adds	r0, r1, #0
 8007136:	6023      	str	r3, [r4, #0]
 8007138:	f000 f812 	bl	8007160 <_sbrk>
 800713c:	1c43      	adds	r3, r0, #1
 800713e:	d103      	bne.n	8007148 <_sbrk_r+0x1c>
 8007140:	6823      	ldr	r3, [r4, #0]
 8007142:	2b00      	cmp	r3, #0
 8007144:	d000      	beq.n	8007148 <_sbrk_r+0x1c>
 8007146:	602b      	str	r3, [r5, #0]
 8007148:	bd38      	pop	{r3, r4, r5, pc}
 800714a:	46c0      	nop			; (mov r8, r8)
 800714c:	20000ee4 	.word	0x20000ee4

08007150 <strlen>:
 8007150:	2300      	movs	r3, #0
 8007152:	5cc2      	ldrb	r2, [r0, r3]
 8007154:	3301      	adds	r3, #1
 8007156:	2a00      	cmp	r2, #0
 8007158:	d1fb      	bne.n	8007152 <strlen+0x2>
 800715a:	1e58      	subs	r0, r3, #1
 800715c:	4770      	bx	lr
	...

08007160 <_sbrk>:
 8007160:	4b09      	ldr	r3, [pc, #36]	; (8007188 <_sbrk+0x28>)
 8007162:	681a      	ldr	r2, [r3, #0]
 8007164:	2a00      	cmp	r2, #0
 8007166:	d101      	bne.n	800716c <_sbrk+0xc>
 8007168:	4a08      	ldr	r2, [pc, #32]	; (800718c <_sbrk+0x2c>)
 800716a:	601a      	str	r2, [r3, #0]
 800716c:	681a      	ldr	r2, [r3, #0]
 800716e:	4669      	mov	r1, sp
 8007170:	1810      	adds	r0, r2, r0
 8007172:	4288      	cmp	r0, r1
 8007174:	d905      	bls.n	8007182 <_sbrk+0x22>
 8007176:	4b06      	ldr	r3, [pc, #24]	; (8007190 <_sbrk+0x30>)
 8007178:	220c      	movs	r2, #12
 800717a:	2001      	movs	r0, #1
 800717c:	601a      	str	r2, [r3, #0]
 800717e:	4240      	negs	r0, r0
 8007180:	e001      	b.n	8007186 <_sbrk+0x26>
 8007182:	6018      	str	r0, [r3, #0]
 8007184:	1c10      	adds	r0, r2, #0
 8007186:	4770      	bx	lr
 8007188:	20000184 	.word	0x20000184
 800718c:	20000ee8 	.word	0x20000ee8
 8007190:	20000ee4 	.word	0x20000ee4

08007194 <_malloc_usable_size_r>:
 8007194:	3904      	subs	r1, #4
 8007196:	680b      	ldr	r3, [r1, #0]
 8007198:	1f18      	subs	r0, r3, #4
 800719a:	2b00      	cmp	r3, #0
 800719c:	da02      	bge.n	80071a4 <_malloc_usable_size_r+0x10>
 800719e:	58c8      	ldr	r0, [r1, r3]
 80071a0:	181b      	adds	r3, r3, r0
 80071a2:	1f18      	subs	r0, r3, #4
 80071a4:	4770      	bx	lr
	...

080071a8 <_init>:
 80071a8:	b5f8      	push	{r3, r4, r5, r6, r7, lr}
 80071aa:	46c0      	nop			; (mov r8, r8)
 80071ac:	bcf8      	pop	{r3, r4, r5, r6, r7}
 80071ae:	bc08      	pop	{r3}
 80071b0:	469e      	mov	lr, r3
 80071b2:	4770      	bx	lr

080071b4 <_fini>:
 80071b4:	b5f8      	push	{r3, r4, r5, r6, r7, lr}
 80071b6:	46c0      	nop			; (mov r8, r8)
 80071b8:	bcf8      	pop	{r3, r4, r5, r6, r7}
 80071ba:	bc08      	pop	{r3}
 80071bc:	469e      	mov	lr, r3
 80071be:	4770      	bx	lr
